
Build/lib/pisplit_celt_codec_21073101_1565_position_independent.splitload.lib:     file format elf32-xtensa-le


Disassembly of section .text:

00000000 <_init-0x4b4>:
       0:	0000050c 0000f690 00014e3c 00014c14     ........<N...L..
      10:	00000000 00014bf4 00000000 00014e40     .....K......@N..
      20:	00014e58 00010390 0000c240 000103a8     XN......@.......
      30:	00006e00 000103c4 00006e1c 000103dc     .n.......n......
      40:	00006b1c 000103f4 000098b8 00010410     .k..............
      50:	000098dc 00010428 00009608 00014c20     ....(....... L..
      60:	0019660d 3c6ef35f 0000b914 0000ba6c     .f.._.n<....l...
      70:	000149b0 000027dc 00007fff 0000f6b0     .I...'..........
      80:	00008000 7f000000 0000b8b8 0000f394     ................
      90:	00003fff 00005a82 00005a81 000005ec     .?...Z...Z......
      a0:	00027524 0000f6f0 000104c0 00014e60     $u..........`N..
      b0:	00010440 00014c40 0000f458 0000a140     @...@L..X...@...
      c0:	0000a4a0 00004000 ffffe21d fffff5db     .....@..........
      d0:	0000a25c 00002000 0000a434 0000aad4     \.... ..4.......
      e0:	ffffc000 0000a8e0 0000a93c 0000a9c0     ........<.......
      f0:	0000b7d0 0000a4f4 0000ab48 0000ed0c     ........H.......
     100:	0000f108 00014c50 0000139c 00014c60     ....PL......`L..
     110:	0000bb80 00005dc0 00003e80 00002ee0     .....]...>......
     120:	00001f40 000104d0 0000f780 0001057c     @...........|...
     130:	00014c90 0001058c 0000c248 00002d68     .L......H...h-..
     140:	00002de8 00002f08 00006b3c 00000fbc     .-.../..<k......
     150:	00002830 000105e0 fdc6a7f0 0000bb94     0(..............
     160:	fffff000 00014c70 00000c05 fffff3fb     ....pL..........
     170:	ffffeb9f ffffe577 000009f1 ffff4000     ....w........@..
     180:	00100419 00003d82 ffff8001 ffffe802     .....=..........
     190:	ffff8066 00001000 0000199a 00003334     f...........43..
     1a0:	00003333 fffff333 00004666 0000286c     33..3...fF..l(..
     1b0:	fffff334 00000ccc 0000a234 0000a61c     4.......4.......
     1c0:	000035bc 00014cb0 0000a458 000005fc     .5...L..X.......
     1d0:	0000dab4 0000e734 00013d80 0000e87c     ....4....=..|...
     1e0:	000007a0 0000d2cc 00014cb4 00002cc4     .........L...,..
     1f0:	00014cc0 00001392 000055c3 0000dbb0     .L.......U......
     200:	0000d6d8 000022a0 0000d780 ffff9000     ....."..........
     210:	0000a63c 00007851 00011e20 ffffd800     <...Qx.. .......
     220:	00000c00 00010660 00000588 00006666     ....`.......ff..
     230:	0000f9ff 00017700 000176ff 00007d00     .....w...v...}..
     240:	00000d01 00000ccd 00012900 0007c830     .........)..0...
     250:	00013340 000105b0 00001028 00004c68     @3......(...hL..
     260:	00002711 00002712 00000fbb 00000fc4     .'...'..........
     270:	00000fc5 0000271e 0000271f 00000fa9     .....'...'......
     280:	00000faa 00002719 0000271a 00000fa2     .....'...'......
     290:	00000fa5 00000fa6 00000fc8 00000fc3     ................
     2a0:	00002727 00002728 00002717 00002718     ''..('...'...'..
     2b0:	00000fb3 00000fb4 00000fbf 00002725     ............%'..
     2c0:	00002726 0000271c 00002714 00000fae     &'...'...'......
     2d0:	0003f7a0 0000272a 00002720 00002d9c     ....*'.. '...-..
     2e0:	000147c0 00006f4c 00006fbc 00004333     .G..Lo...o..3C..
     2f0:	00006e90 00009738 0000089c 0000bfe8     .n..8...........
     300:	0000b80c 00009bc4 00009a74 00009ca0     ........t.......
     310:	00009938 00000800 0000c4ec 0000c804     8...............
     320:	0000a850 0000d85c 0000d9b8 0000da0c     P...\...........
     330:	000009f4 00006fc4 00014cd4 0000aa44     .....o...L..D...
     340:	00014ce0 00010634 00014cd0 00007f64     .L..4....L..d...
     350:	00008d2c 00009480 00003c27 ffff7fff     ,.......'<......
     360:	00003c28 000092f4 00008e00 00008f88     (<..............
     370:	00000fbe 0000271b 00002716 00000fc1     .....'...'......
     380:	00006eb4 00100000 0000c70c 0fffffff     .n..............
     390:	1fffffff 3fffffff 00014cf0 00009e68     .......?.L..h...
     3a0:	00014b24 00800000 7fffffff 80000000     $K..............
     3b0:	ffff9126 0000278e ffff8644 ffff9872     &....'..D...r...
     3c0:	ffffb4c3 40000000 0000b9ac 0000b3f4     .......@........
     3d0:	0000b2ec 0000b3ec 0000b404 00007fe0     ................
     3e0:	0000a344 0000a908 e0000000 80000001     D...............
     3f0:	00001a39 ffffcb4e fffff43d 0001ffff     9...N...=.......
     400:	00020000 00010000 00007ffe ffffc3c4     ................
     410:	0000b3d4 21073101 00014e2c 0000bb58     .....1.!,N..X...
     420:	0000c4c8 00007333 0000c3d4 0000c7e0     ....3s..........
     430:	0000c2b0 0000599a 00006ccd 000147f8     .....Y...l...G..
     440:	00002666 00001333 ffffdc00 00014850     f&..3.......PH..
     450:	0000b690 ffc80000 00014840 00014860     ........@H..`H..
     460:	00014848 0000b738 ffffc800 000149f0     HH..8........I..
     470:	000147d0 00014b00 05f5e100 00014a10     .G...K.......J..
     480:	ffff8000 00007b87 00014c30 80010000     .....{..0L......
     490:	00009f34 00009fc0 ffffd159 00001348     4.......Y...H...
     4a0:	0000517d 00006488 000149fc 00014bf8     }Q...d...I...K..
     4b0:	000004d0                                ....

000004b4 <_init>:
     4b4:	008136        	entry	a1, 64
     4b7:	fed281        	l32r	a8, 0 (50c <frame_dummy>)
     4ba:	f03d           	nop.n
     4bc:	0008e0        	callx8	a8
     4bf:	fed181        	l32r	a8, 4 (f690 <__do_global_ctors_aux>)
     4c2:	f03d           	nop.n
     4c4:	0008e0        	callx8	a8
     4c7:	f01d           	retw.n

000004c9 <_init+0x15>:
     4c9:	00000000 36000000                                .......

000004d0 <__do_global_dtors_aux>:
     4d0:	004136        	entry	a1, 32
     4d3:	fecd31        	l32r	a3, 8 (14e3c <__bss_start>)
     4d6:	000382        	l8ui	a8, a3, 0
     4d9:	d8ec           	bnez.n	a8, 50a <__do_global_dtors_aux+0x3a>
     4db:	fecc21        	l32r	a2, c (14c14 <p$3519_6_1>)
     4de:	02b8           	l32i.n	a11, a2, 0
     4e0:	0ba8           	l32i.n	a10, a11, 0
     4e2:	ca8c           	beqz.n	a10, 4f2 <__do_global_dtors_aux+0x22>

000004e4 <__do_global_dtors_aux+0x14>:
     4e4:	9b4b           	addi.n	a9, a11, 4
     4e6:	0299           	s32i.n	a9, a2, 0
     4e8:	000ae0        	callx8	a10
     4eb:	02b8           	l32i.n	a11, a2, 0
     4ed:	0ba8           	l32i.n	a10, a11, 0
     4ef:	ff1a56        	bnez	a10, 4e4 <__do_global_dtors_aux+0x14>

000004f2 <__do_global_dtors_aux+0x22>:
     4f2:	fec7a1        	l32r	a10, 10 (0 <_text_start>)
     4f5:	0b0c           	movi.n	a11, 0
     4f7:	081ab7        	beq	a10, a11, 503 <__do_global_dtors_aux+0x33>
     4fa:	fec6a1        	l32r	a10, 14 (14bf4 <__EH_FRAME_BEGIN___44>)
     4fd:	fec481        	l32r	a8, 10 (0 <_text_start>)
     500:	0008e0        	callx8	a8

00000503 <__do_global_dtors_aux+0x33>:
     503:	1c0c           	movi.n	a12, 1
     505:	0043c2        	s8i	a12, a3, 0
     508:	f01d           	retw.n

0000050a <__do_global_dtors_aux+0x3a>:
     50a:	f01d           	retw.n

0000050c <frame_dummy>:
     50c:	004136        	entry	a1, 32
     50f:	fec281        	l32r	a8, 18 (0 <_text_start>)
     512:	090c           	movi.n	a9, 0
     514:	0b1897        	beq	a8, a9, 523 <frame_dummy+0x17>
     517:	febfa1        	l32r	a10, 14 (14bf4 <__EH_FRAME_BEGIN___44>)
     51a:	fec0b1        	l32r	a11, 1c (14e40 <object$3538_8_1>)
     51d:	febe81        	l32r	a8, 18 (0 <_text_start>)
     520:	0008e0        	callx8	a8

00000523 <frame_dummy+0x17>:
     523:	f01d           	retw.n

00000525 <frame_dummy+0x19>:
     525:	000000                                        ...

00000528 <_start>:
     528:	004136        	entry	a1, 32
     52b:	febea1        	l32r	a10, 24 (10390 <_DYNAMIC+0xbd4>)
     52e:	febc31        	l32r	a3, 20 (14e58 <printf_ptr>)
     531:	0288           	l32i.n	a8, a2, 0
     533:	febdb1        	l32r	a11, 28 (c240 <get_celt_version>)
     536:	0389           	s32i.n	a8, a3, 0
     538:	0008e0        	callx8	a8
     53b:	0388           	l32i.n	a8, a3, 0
     53d:	febba1        	l32r	a10, 2c (103a8 <_DYNAMIC+0xbec>)
     540:	febcb1        	l32r	a11, 30 (6e00 <celt_encode_get_size>)
     543:	0008e0        	callx8	a8
     546:	002382        	l32i	a8, a3, 0
     549:	febaa1        	l32r	a10, 34 (103c4 <_DYNAMIC+0xc08>)
     54c:	febbb1        	l32r	a11, 38 (6e1c <celt_encode_init>)
     54f:	0008e0        	callx8	a8
     552:	0388           	l32i.n	a8, a3, 0
     554:	febaa1        	l32r	a10, 3c (103dc <_DYNAMIC+0xc20>)
     557:	febab1        	l32r	a11, 40 (6b1c <celt_encode_prcs>)
     55a:	0008e0        	callx8	a8
     55d:	0388           	l32i.n	a8, a3, 0
     55f:	feb9a1        	l32r	a10, 44 (103f4 <_DYNAMIC+0xc38>)
     562:	feb9b1        	l32r	a11, 48 (98b8 <celt_decode_get_size>)
     565:	0008e0        	callx8	a8
     568:	0388           	l32i.n	a8, a3, 0
     56a:	feb8a1        	l32r	a10, 4c (10410 <_DYNAMIC+0xc54>)
     56d:	feb8b1        	l32r	a11, 50 (98dc <celt_decode_init>)
     570:	0008e0        	callx8	a8
     573:	0388           	l32i.n	a8, a3, 0
     575:	feb7a1        	l32r	a10, 54 (10428 <_DYNAMIC+0xc6c>)
     578:	feb8b1        	l32r	a11, 58 (9608 <celt_decode_prcs>)
     57b:	0008e0        	callx8	a8
     57e:	feb721        	l32r	a2, 5c (14c20 <export_parameter_array>)
     581:	f01d           	retw.n

00000583 <_start+0x5b>:
     583:	00000000 00413600                                .....

00000588 <hysteresis_decision>:
     588:	004136        	entry	a1, 32
     58b:	4615a6        	blti	a5, 1, 5d5 <hysteresis_decision+0x4d>
     58e:	0a0c           	movi.n	a10, 0
     590:	039d           	mov.n	a9, a3
     592:	08a576        	loopgtz	a5, 59e <hysteresis_decision+0x16>
     595:	297d           	ae_l16si.n	a7, a9, 0
     597:	992b           	addi.n	a9, a9, 2
     599:	012277        	blt	a2, a7, 59e <hysteresis_decision+0x16>
     59c:	aa1b           	addi.n	a10, a10, 1

0000059e <hysteresis_decision+0x16>:
     59e:	10a6a7        	bge	a6, a10, 5b2 <hysteresis_decision+0x2a>

000005a1 <hysteresis_decision+0x19>:
     5a1:	908630        	addx2	a8, a6, a3
     5a4:	909640        	addx2	a9, a6, a4
     5a7:	299d           	ae_l16si.n	a9, a9, 0
     5a9:	288d           	ae_l16si.n	a8, a8, 0
     5ab:	889a           	add.n	a8, a8, a9
     5ad:	01a287        	bge	a2, a8, 5b2 <hysteresis_decision+0x2a>
     5b0:	06ad           	mov.n	a10, a6
     5b2:	1baa67        	bge	a10, a6, 5d1 <hysteresis_decision+0x49>

000005b5 <hysteresis_decision+0x2d>:
     5b5:	90c640        	addx2	a12, a6, a4
     5b8:	90b630        	addx2	a11, a6, a3
     5bb:	ffdbb2        	addmi	a11, a11, 0xffffff00
     5be:	ffdcc2        	addmi	a12, a12, 0xffffff00
     5c1:	7f9cc2        	l16si	a12, a12, 254
     5c4:	7f9bb2        	l16si	a11, a11, 254
     5c7:	c0bbc0        	sub	a11, a11, a12
     5ca:	03ab27        	bge	a11, a2, 5d1 <hysteresis_decision+0x49>
     5cd:	062d           	mov.n	a2, a6
     5cf:	f01d           	retw.n

000005d1 <hysteresis_decision+0x49>:
     5d1:	0a2d           	mov.n	a2, a10
     5d3:	f01d           	retw.n

000005d5 <hysteresis_decision+0x4d>:
     5d5:	007696        	bltz	a6, 5e0 <hysteresis_decision+0x58>
     5d8:	0916a6        	blti	a6, 1, 5e5 <hysteresis_decision+0x5d>
     5db:	0a0c           	movi.n	a10, 0
     5dd:	fff506        	j	5b5 <hysteresis_decision+0x2d>

000005e0 <hysteresis_decision+0x58>:
     5e0:	0a0c           	movi.n	a10, 0
     5e2:	ffeec6        	j	5a1 <hysteresis_decision+0x19>

000005e5 <hysteresis_decision+0x5d>:
     5e5:	020c           	movi.n	a2, 0
     5e7:	f01d           	retw.n

000005e9 <hysteresis_decision+0x61>:
     5e9:	000000                                        ...

000005ec <celt_lcg_rand>:
     5ec:	004136        	entry	a1, 32
     5ef:	fe9c81        	l32r	a8, 60 (19660d <_end+0x1817a9>)
     5f2:	fe9c31        	l32r	a3, 64 (3c6ef35f <_end+0x3c6da4fb>)
     5f5:	822280        	mull	a2, a2, a8
     5f8:	223a           	add.n	a2, a2, a3
     5fa:	f01d           	retw.n

000005fc <compute_band_energies>:
     5fc:	00a136        	entry	a1, 80
     5ff:	9129           	s32i.n	a2, a1, 36
     601:	4139           	s32i.n	a3, a1, 16
     603:	6149           	s32i.n	a4, a1, 24
     605:	3159           	s32i.n	a5, a1, 12
     607:	1169           	s32i.n	a6, a1, 4
     609:	401700        	ssl	a7
     60c:	9288           	l32i.n	a8, a2, 36
     60e:	0b0c           	movi.n	a11, 0
     610:	0a0c           	movi.n	a10, 0
     612:	81a9           	s32i.n	a10, a1, 32
     614:	71b9           	s32i.n	a11, a1, 28
     616:	62a8           	l32i.n	a10, a2, 24
     618:	01a9           	s32i.n	a10, a1, 0
     61a:	a18800        	sll	a8, a8
     61d:	2189           	s32i.n	a8, a1, 8
     61f:	9095a0        	addx2	a9, a5, a10
     622:	5199           	s32i.n	a9, a1, 20
     624:	000586        	j	63e <compute_band_energies+0x42>

00000627 <compute_band_energies+0x2b>:
	...

00000628 <compute_band_energies+0x2c>:
     628:	11b8           	l32i.n	a11, a1, 4
     62a:	81a8           	l32i.n	a10, a1, 32
     62c:	21d8           	l32i.n	a13, a1, 8
     62e:	71c8           	l32i.n	a12, a1, 28
     630:	aa1b           	addi.n	a10, a10, 1
     632:	81a9           	s32i.n	a10, a1, 32
     634:	ccda           	add.n	a12, a12, a13
     636:	71c9           	s32i.n	a12, a1, 28
     638:	022ab7        	blt	a10, a11, 63e <compute_band_energies+0x42>
     63b:	005746        	j	79c <compute_band_energies+0x1a0>

0000063e <compute_band_energies+0x42>:
     63e:	31e8           	l32i.n	a14, a1, 12
     640:	e41ea6        	blti	a14, 1, 628 <compute_band_energies+0x2c>
     643:	0158           	l32i.n	a5, a1, 0
     645:	020c           	movi.n	a2, 0
     647:	060c           	movi.n	a6, 0
     649:	401700        	ssl	a7
     64c:	001746        	j	6ad <compute_band_energies+0xb1>

0000064f <compute_band_energies+0x53>:
	...

00000651 <compute_band_energies+0x55>:
     651:	0b0c           	movi.n	a11, 0
     653:	0fa8           	l32i.n	a10, a15, 0
     655:	980b           	addi.n	a9, a8, -1
     657:	603040        	neg	a3, a4
     65a:	8f4b           	addi.n	a8, a15, 4
     65c:	401300        	ssl	a3
     65f:	a1aa00        	sll	a10, a10
     662:	d1aaa0        	mul16s	a10, a10, a10
     665:	0ba976        	loopgtz	a9, 674 <compute_band_energies+0x78>
     668:	0898           	l32i.n	a9, a8, 0
     66a:	884b           	addi.n	a8, a8, 4
     66c:	bbaa           	add.n	a11, a11, a10
     66e:	a19900        	sll	a9, a9
     671:	d1a990        	mul16s	a10, a9, a9

00000674 <compute_band_energies+0x78>:
     674:	abaa           	add.n	a10, a11, a10
     676:	0213e6        	bgei	a3, 1, 67c <compute_band_energies+0x80>
     679:	003dc6        	j	774 <compute_band_energies+0x178>

0000067c <compute_band_energies+0x80>:
     67c:	fe7b81        	l32r	a8, 68 (b914 <celt_sqrt>)
     67f:	0008e0        	callx8	a8
     682:	400300        	ssr	a3
     685:	b180a0        	sra	a8, a10
     688:	881b           	addi.n	a8, a8, 1

0000068a <compute_band_energies+0x8e>:
     68a:	9198           	l32i.n	a9, a1, 36
     68c:	81a8           	l32i.n	a10, a1, 32
     68e:	2998           	l32i.n	a9, a9, 8
     690:	8299a0        	mull	a9, a9, a10
     693:	61a8           	l32i.n	a10, a1, 24
     695:	969a           	add.n	a9, a6, a9
     697:	a099a0        	addx4	a9, a9, a10
     69a:	0989           	s32i.n	a8, a9, 0

0000069c <compute_band_energies+0xa0>:
     69c:	661b           	addi.n	a6, a6, 1
     69e:	222b           	addi.n	a2, a2, 2
     6a0:	51a8           	l32i.n	a10, a1, 20
     6a2:	401700        	ssl	a7
     6a5:	552b           	addi.n	a5, a5, 2
     6a7:	0295a7        	bne	a5, a10, 6ad <compute_band_energies+0xb1>
     6aa:	ffde86        	j	628 <compute_band_energies+0x2c>

000006ad <compute_band_energies+0xb1>:
     6ad:	4188           	l32i.n	a8, a1, 16
     6af:	25dd           	ae_l16si.n	a13, a5, 0
     6b1:	354d           	ae_l16si.n	a4, a5, 2
     6b3:	71f8           	l32i.n	a15, a1, 28
     6b5:	a13d00        	sll	a3, a13
     6b8:	c0d4d0        	sub	a13, a4, a13
     6bb:	ff3a           	add.n	a15, a15, a3
     6bd:	a0ff80        	addx4	a15, a15, a8
     6c0:	a1dd00        	sll	a13, a13
     6c3:	021de6        	bgei	a13, 1, 6c9 <compute_band_energies+0xcd>
     6c6:	002ec6        	j	785 <compute_band_energies+0x189>
     6c9:	0a0c           	movi.n	a10, 0
     6cb:	0b0c           	movi.n	a11, 0
     6cd:	0f8d           	mov.n	a8, a15
     6cf:	14e0d0        	extui	a14, a13, 0, 2
     6d2:	09ae76        	loopgtz	a14, 6df <compute_band_energies+0xe3>
     6d5:	0898           	l32i.n	a9, a8, 0
     6d7:	884b           	addi.n	a8, a8, 4
     6d9:	53a9a0        	max	a10, a9, a10
     6dc:	43b9b0        	min	a11, a9, a11

000006df <compute_band_energies+0xe3>:
     6df:	2192d0        	srai	a9, a13, 2
     6e2:	22a976        	loopgtz	a9, 708 <compute_band_energies+0x10c>
     6e5:	0898           	l32i.n	a9, a8, 0
     6e7:	18c8           	l32i.n	a12, a8, 4
     6e9:	28d8           	l32i.n	a13, a8, 8
     6eb:	38e8           	l32i.n	a14, a8, 12
     6ed:	53a9a0        	max	a10, a9, a10
     6f0:	4399b0        	min	a9, a9, a11
     6f3:	10c882        	addi	a8, a8, 16
     6f6:	53aca0        	max	a10, a12, a10
     6f9:	439c90        	min	a9, a12, a9
     6fc:	53cda0        	max	a12, a13, a10
     6ff:	439d90        	min	a9, a13, a9
     702:	53aec0        	max	a10, a14, a12
     705:	43be90        	min	a11, a14, a9
     708:	6080b0        	neg	a8, a11
     70b:	5388a0        	max	a8, a8, a10
     70e:	7318a6        	blti	a8, 1, 785 <compute_band_energies+0x189>
     711:	40f8b0        	nsau	a11, a8
     714:	401700        	ssl	a7
     717:	a1a400        	sll	a10, a4
     71a:	9148           	l32i.n	a4, a1, 36
     71c:	f91c           	movi.n	a9, 31
     71e:	180c           	movi.n	a8, 1
     720:	c448           	l32i.n	a4, a4, 48
     722:	c099b0        	sub	a9, a9, a11
     725:	c0aa30        	sub	a10, a10, a3
     728:	442a           	add.n	a4, a4, a2
     72a:	244d           	ae_l16si.n	a4, a4, 0
     72c:	538a80        	max	a8, a10, a8
     72f:	899d           	ae_sext16	a9, a9
     731:	214340        	srai	a4, a4, 3
     734:	474a           	add.n	a4, a7, a4
     736:	441b           	addi.n	a4, a4, 1
     738:	214140        	srai	a4, a4, 1
     73b:	449a           	add.n	a4, a4, a9
     73d:	f2c442        	addi	a4, a4, -14
     740:	0214e6        	bgei	a4, 1, 746 <compute_band_energies+0x14a>
     743:	ffc286        	j	651 <compute_band_energies+0x55>
     746:	0b0c           	movi.n	a11, 0
     748:	603040        	neg	a3, a4
     74b:	400400        	ssr	a4
     74e:	0fa8           	l32i.n	a10, a15, 0
     750:	980b           	addi.n	a9, a8, -1
     752:	cf4b           	addi.n	a12, a15, 4
     754:	208cc0        	or	a8, a12, a12
     757:	b1a0a0        	sra	a10, a10
     75a:	d1aaa0        	mul16s	a10, a10, a10
     75d:	0ba976        	loopgtz	a9, 76c <compute_band_energies+0x170>
     760:	0898           	l32i.n	a9, a8, 0
     762:	884b           	addi.n	a8, a8, 4
     764:	bbaa           	add.n	a11, a11, a10
     766:	b19090        	sra	a9, a9
     769:	d1a990        	mul16s	a10, a9, a9
     76c:	abaa           	add.n	a10, a11, a10
     76e:	0213a6        	blti	a3, 1, 774 <compute_band_energies+0x178>
     771:	ffc1c6        	j	67c <compute_band_energies+0x80>

00000774 <compute_band_energies+0x178>:
     774:	fe3d81        	l32r	a8, 68 (b914 <celt_sqrt>)
     777:	0008e0        	callx8	a8
     77a:	401400        	ssl	a4
     77d:	a18a00        	sll	a8, a10
     780:	881b           	addi.n	a8, a8, 1
     782:	ffc106        	j	68a <compute_band_energies+0x8e>

00000785 <compute_band_energies+0x189>:
     785:	91a8           	l32i.n	a10, a1, 36
     787:	81b8           	l32i.n	a11, a1, 32
     789:	2aa8           	l32i.n	a10, a10, 8
     78b:	82aab0        	mull	a10, a10, a11
     78e:	61b8           	l32i.n	a11, a1, 24
     790:	190c           	movi.n	a9, 1
     792:	a6aa           	add.n	a10, a6, a10
     794:	a0aab0        	addx4	a10, a10, a11
     797:	0a99           	s32i.n	a9, a10, 0
     799:	ffbfc6        	j	69c <compute_band_energies+0xa0>

0000079c <compute_band_energies+0x1a0>:
     79c:	f01d           	retw.n

0000079e <compute_band_energies+0x1a2>:
	...

000007a0 <normalise_bands>:
     7a0:	00a136        	entry	a1, 80
     7a3:	8129           	s32i.n	a2, a1, 32
     7a5:	4149           	s32i.n	a4, a1, 16
     7a7:	5159           	s32i.n	a5, a1, 20
     7a9:	9288           	l32i.n	a8, a2, 36
     7ab:	142192        	l32i	a9, a1, 80
     7ae:	62a8           	l32i.n	a10, a2, 24
     7b0:	0179           	s32i.n	a7, a1, 0
     7b2:	3139           	s32i.n	a3, a1, 12
     7b4:	0b0c           	movi.n	a11, 0
     7b6:	0c0c           	movi.n	a12, 0
     7b8:	91c9           	s32i.n	a12, a1, 36
     7ba:	a1b9           	s32i.n	a11, a1, 40
     7bc:	d30c           	movi.n	a3, 13
     7be:	e70c           	movi.n	a7, 14
     7c0:	11a9           	s32i.n	a10, a1, 4
     7c2:	6199           	s32i.n	a9, a1, 24
     7c4:	90a6a0        	addx2	a10, a6, a10
     7c7:	71a9           	s32i.n	a10, a1, 28
     7c9:	828890        	mull	a8, a8, a9
     7cc:	2189           	s32i.n	a8, a1, 8
     7ce:	000586        	j	7e8 <normalise_bands+0x48>

000007d1 <normalise_bands+0x31>:
	...

000007d2 <normalise_bands+0x32>:
     7d2:	0198           	l32i.n	a9, a1, 0
     7d4:	a188           	l32i.n	a8, a1, 40
     7d6:	21b8           	l32i.n	a11, a1, 8
     7d8:	91a8           	l32i.n	a10, a1, 36
     7da:	881b           	addi.n	a8, a8, 1
     7dc:	a189           	s32i.n	a8, a1, 40
     7de:	aaba           	add.n	a10, a10, a11
     7e0:	91a9           	s32i.n	a10, a1, 36
     7e2:	022897        	blt	a8, a9, 7e8 <normalise_bands+0x48>
     7e5:	002c46        	j	89a <normalise_bands+0xfa>

000007e8 <normalise_bands+0x48>:
     7e8:	1158           	l32i.n	a5, a1, 4
     7ea:	020c           	movi.n	a2, 0
     7ec:	000246        	j	7f9 <normalise_bands+0x59>

000007ef <normalise_bands+0x4f>:
	...

000007f0 <normalise_bands+0x50>:
     7f0:	71c8           	l32i.n	a12, a1, 28
     7f2:	221b           	addi.n	a2, a2, 1
     7f4:	552b           	addi.n	a5, a5, 2
     7f6:	d8b5c7        	bgeu	a5, a12, 7d2 <normalise_bands+0x32>

000007f9 <normalise_bands+0x59>:
     7f9:	81a8           	l32i.n	a10, a1, 32
     7fb:	a1b8           	l32i.n	a11, a1, 40
     7fd:	2aa8           	l32i.n	a10, a10, 8
     7ff:	82aab0        	mull	a10, a10, a11
     802:	51b8           	l32i.n	a11, a1, 20
     804:	a2aa           	add.n	a10, a2, a10
     806:	a0aab0        	addx4	a10, a10, a11
     809:	0aa8           	l32i.n	a10, a10, 0
     80b:	1b1aa6        	blti	a10, 1, 82a <normalise_bands+0x8a>
     80e:	40fa80        	nsau	a8, a10
     811:	f61c           	movi.n	a6, 31
     813:	c06680        	sub	a6, a6, a8
     816:	866d           	ae_sext16	a6, a6
     818:	10a367        	bge	a3, a6, 82c <normalise_bands+0x8c>
     81b:	f3c692        	addi	a9, a6, -13
     81e:	400900        	ssr	a9
     821:	b1a0a0        	sra	a10, a10
     824:	000346        	j	835 <normalise_bands+0x95>

00000827 <normalise_bands+0x87>:
     827:	000000                                        ...

0000082a <normalise_bands+0x8a>:
     82a:	060c           	movi.n	a6, 0

0000082c <normalise_bands+0x8c>:
     82c:	c0b360        	sub	a11, a3, a6
     82f:	401b00        	ssl	a11
     832:	a1aa00        	sll	a10, a10

00000835 <normalise_bands+0x95>:
     835:	fe0d81        	l32r	a8, 6c (ba6c <celt_rcp>)
     838:	8aad           	ae_sext16	a10, a10
     83a:	11aad0        	slli	a10, a10, 3
     83d:	0008e0        	callx8	a8
     840:	c04760        	sub	a4, a7, a6
     843:	f2c6f2        	addi	a15, a6, -14
     846:	8aed           	ae_sext16	a14, a10
     848:	6188           	l32i.n	a8, a1, 24
     84a:	35dd           	ae_l16si.n	a13, a5, 2
     84c:	25cd           	ae_l16si.n	a12, a5, 0
     84e:	91b8           	l32i.n	a11, a1, 36
     850:	82dd80        	mull	a13, a13, a8
     853:	82cc80        	mull	a12, a12, a8
     856:	dbda           	add.n	a13, a11, a13
     858:	3188           	l32i.n	a8, a1, 12
     85a:	80bbc0        	add	a11, a11, a12
     85d:	0421c2        	l32i	a12, a1, 16
     860:	a0ab80        	addx4	a10, a11, a8
     863:	a0dd80        	addx4	a13, a13, a8
     866:	90bbc0        	addx2	a11, a11, a12
     869:	2a8076        	loop	a0, 897 <normalise_bands+0xf7>
     86c:	0ac8           	l32i.n	a12, a10, 0
     86e:	0aa767        	bge	a7, a6, 87c <normalise_bands+0xdc>
     871:	400f00        	ssr	a15
     874:	b1c0c0        	sra	a12, a12
     877:	8ccd           	ae_sext16	a12, a12
     879:	0001c6        	j	884 <normalise_bands+0xe4>

0000087c <normalise_bands+0xdc>:
     87c:	401400        	ssl	a4
     87f:	a1cc00        	sll	a12, a12
     882:	8ccd           	ae_sext16	a12, a12

00000884 <normalise_bands+0xe4>:
     884:	828ce0        	mull	a8, a12, a14
     887:	aa4b           	addi.n	a10, a10, 4
     889:	218f80        	srai	a8, a8, 15
     88c:	09cb84        	ae_s16ip	a8, a11, 2
     88f:	023ad7        	bltu	a10, a13, 895 <normalise_bands+0xf5>
     892:	ffd686        	j	7f0 <normalise_bands+0x50>
     895:	f03d           	nop.n

00000897 <normalise_bands+0xf7>:
     897:	fff386        	j	869 <normalise_bands+0xc9>

0000089a <normalise_bands+0xfa>:
     89a:	f01d           	retw.n

0000089c <denormalise_bands>:
     89c:	008136        	entry	a1, 64
     89f:	4149           	s32i.n	a4, a1, 16
     8a1:	1159           	s32i.n	a5, a1, 4
     8a3:	122182        	l32i	a8, a1, 72
     8a6:	62f8           	l32i.n	a15, a2, 24
     8a8:	07dd           	mov.n	a13, a7
     8aa:	92a8           	l32i.n	a10, a2, 36
     8ac:	102172        	l32i	a7, a1, 64
     8af:	909df0        	addx2	a9, a13, a15
     8b2:	299d           	ae_l16si.n	a9, a9, 0
     8b4:	82aa70        	mull	a10, a10, a7
     8b7:	21a9           	s32i.n	a10, a1, 8
     8b9:	829970        	mull	a9, a9, a7
     8bc:	3199           	s32i.n	a9, a1, 12
     8be:	888c           	beqz.n	a8, 8ca <denormalise_bands+0x2e>
     8c0:	0d0c           	movi.n	a13, 0
     8c2:	060c           	movi.n	a6, 0
     8c4:	00a0b2        	movi	a11, 0
     8c7:	0361b2        	s32i	a11, a1, 12

000008ca <denormalise_bands+0x2e>:
     8ca:	9026f0        	addx2	a2, a6, a15
     8cd:	22ad           	ae_l16si.n	a10, a2, 0
     8cf:	1156f0        	slli	a5, a6, 1
     8d2:	090c           	movi.n	a9, 0
     8d4:	82aa70        	mull	a10, a10, a7
     8d7:	4188           	l32i.n	a8, a1, 16
     8d9:	904a30        	addx2	a4, a10, a3
     8dc:	5149           	s32i.n	a4, a1, 20
     8de:	fec442        	addi	a4, a4, -2
     8e1:	02aa76        	loopgtz	a10, 8e7 <denormalise_bands+0x4b>
     8e4:	09e894        	ae_s32ip	a9, a8, 4

000008e7 <denormalise_bands+0x4b>:
     8e7:	fcc8c2        	addi	a12, a8, -4
     8ea:	0226d7        	blt	a6, a13, 8f0 <denormalise_bands+0x54>
     8ed:	003a46        	j	9da <denormalise_bands+0x13e>
     8f0:	903df0        	addx2	a3, a13, a15
     8f3:	6139           	s32i.n	a3, a1, 24
     8f5:	11f8           	l32i.n	a15, a1, 4
     8f7:	fdde31        	l32r	a3, 70 (149b0 <eMeans_celt>)
     8fa:	f5fa           	add.n	a15, a5, a15
     8fc:	363a           	add.n	a3, a6, a3
     8fe:	000ec6        	j	93d <denormalise_bands+0xa1>

00000901 <denormalise_bands+0x65>:
     901:	000000                                        ...

00000904 <denormalise_bands+0x68>:
     904:	0a0c           	movi.n	a10, 0
     906:	080c           	movi.n	a8, 0
     908:	618d           	ae_s16i.n	a8, a1, 0

0000090a <denormalise_bands+0x6e>:
     90a:	401104        	ae_lp16f.i	aep1, a1, 0
     90d:	408414        	ae_lp16f.iu	aep0, a4, 2
     910:	1d0c           	movi.n	a13, 1
     912:	c0b560        	sub	a11, a5, a6
     915:	53bbd0        	max	a11, a11, a13
     918:	e8228ffbbe 	{ addi	a11, a11, -1; ae_mulp24s.hh	aeq0, aep0, aep1 }
     91d:	0aab76        	loopgtz	a11, 92b <denormalise_bands+0x8f>
     920:	408414        	ae_lp16f.iu	aep0, a4, 2
     923:	e822beca5f 	{ ae_sraaq56	aeq1, aeq0, a10; ae_mulp24s.hh	aeq0, aep0, aep1 }
     928:	625c14        	ae_sq32f.iu	aeq1, a12, 4

0000092b <denormalise_bands+0x8f>:
     92b:	340ab4        	ae_sraaq56	aeq0, aeq0, a10
     92e:	624c14        	ae_sq32f.iu	aeq0, a12, 4

00000931 <denormalise_bands+0x95>:
     931:	61e8           	l32i.n	a14, a1, 24
     933:	ff2b           	addi.n	a15, a15, 2
     935:	222b           	addi.n	a2, a2, 2
     937:	c0e2e0        	sub	a14, a2, a14
     93a:	09ce16        	beqz	a14, 9da <denormalise_bands+0x13e>

0000093d <denormalise_bands+0xa1>:
     93d:	087c           	movi.n	a8, -16
     93f:	0a1c           	movi.n	a10, 16
     941:	2fdd           	ae_l16si.n	a13, a15, 0
     943:	226d           	ae_l16si.n	a6, a2, 0
     945:	0003e2        	l8ui	a14, a3, 0
     948:	325d           	ae_l16si.n	a5, a2, 2
     94a:	331b           	addi.n	a3, a3, 1
     94c:	826670        	mull	a6, a6, a7
     94f:	825570        	mull	a5, a5, a7
     952:	23ee00        	sext	a14, a14, 7
     955:	11eea0        	slli	a14, a14, 6
     958:	ddea           	add.n	a13, a13, a14
     95a:	8d9d           	ae_sext16	a9, a13
     95c:	219a90        	srai	a9, a9, 10
     95f:	c0aa90        	sub	a10, a10, a9
     962:	9ea897        	bge	a8, a9, 904 <denormalise_bands+0x68>
     965:	fdc3e1        	l32r	a14, 74 (27dc <quant_all_bands+0x53c>)
     968:	94d0d0        	extui	a13, a13, 0, 10
     96b:	11ddc0        	slli	a13, a13, 4
     96e:	d1ede0        	mul16s	a14, a13, a14
     971:	21efe0        	srai	a14, a14, 15
     974:	3adee2        	addmi	a14, a14, 0x3a00
     977:	e3cee2        	addi	a14, a14, -29
     97a:	d1ede0        	mul16s	a14, a13, a14
     97d:	21efe0        	srai	a14, a14, 15
     980:	59dee2        	addmi	a14, a14, 0x5900
     983:	14cee2        	addi	a14, a14, 20
     986:	d1dde0        	mul16s	a13, a13, a14
     989:	de7c           	movi.n	a14, -3
     98b:	21dfd0        	srai	a13, a13, 15
     98e:	40ddd2        	addmi	a13, a13, 0x4000
     991:	dd0b           	addi.n	a13, a13, -1
     993:	8ddd           	ae_sext16	a13, a13
     995:	61dd           	ae_s16i.n	a13, a1, 0
     997:	f6fad6        	bgez	a10, 90a <denormalise_bands+0x6e>
     99a:	c09560        	sub	a9, a5, a6
     99d:	5188           	l32i.n	a8, a1, 20
     99f:	062ea7        	blt	a14, a10, 9a9 <denormalise_bands+0x10d>
     9a2:	ea7c           	movi.n	a10, -2
     9a4:	fdb5d1        	l32r	a13, 78 (7fff <celt_decode_with_ec+0x9b>)
     9a7:	61dd           	ae_s16i.n	a13, a1, 0

000009a9 <denormalise_bands+0x10d>:
     9a9:	28bd           	ae_l16si.n	a11, a8, 0
     9ab:	60e0a0        	neg	a14, a10
     9ae:	401e00        	ssl	a14
     9b1:	882b           	addi.n	a8, a8, 2
     9b3:	1e0c           	movi.n	a14, 1
     9b5:	d1bbd0        	mul16s	a11, a11, a13
     9b8:	5399e0        	max	a9, a9, a14
     9bb:	990b           	addi.n	a9, a9, -1
     9bd:	0bad           	mov.n	a10, a11
     9bf:	0ca976        	loopgtz	a9, 9cf <denormalise_bands+0x133>
     9c2:	289d           	ae_l16si.n	a9, a8, 0
     9c4:	882b           	addi.n	a8, a8, 2
     9c6:	a1ba00        	sll	a11, a10
     9c9:	d1a9d0        	mul16s	a10, a9, a13
     9cc:	09ecb4        	ae_s32ip	a11, a12, 4

000009cf <denormalise_bands+0x133>:
     9cf:	5189           	s32i.n	a8, a1, 20
     9d1:	a1da00        	sll	a13, a10
     9d4:	09ecd4        	ae_s32ip	a13, a12, 4
     9d7:	ffd586        	j	931 <denormalise_bands+0x95>

000009da <denormalise_bands+0x13e>:
     9da:	0b0c           	movi.n	a11, 0
     9dc:	41a8           	l32i.n	a10, a1, 16
     9de:	31d8           	l32i.n	a13, a1, 12
     9e0:	21c8           	l32i.n	a12, a1, 8
     9e2:	fda681        	l32r	a8, 7c (f6b0 <memset>)
     9e5:	a0ada0        	addx4	a10, a13, a10
     9e8:	c0ccd0        	sub	a12, a12, a13
     9eb:	11cce0        	slli	a12, a12, 2
     9ee:	0008e0        	callx8	a8
     9f1:	f01d           	retw.n

000009f3 <denormalise_bands+0x157>:
	...

000009f4 <anti_collapse>:
     9f4:	012136        	entry	a1, 144
     9f7:	116122        	s32i	a2, a1, 68
     9fa:	8139           	s32i.n	a3, a1, 32
     9fc:	1149           	s32i.n	a4, a1, 4
     9fe:	186152        	s32i	a5, a1, 96
     a01:	126162        	s32i	a6, a1, 72
     a04:	2521a2        	l32i	a10, a1, 148
     a07:	242182        	l32i	a8, a1, 144
     a0a:	9179           	s32i.n	a7, a1, 36
     a0c:	106182        	s32i	a8, a1, 64
     a0f:	0228a7        	blt	a8, a10, a15 <anti_collapse+0x21>
     a12:	00cc06        	j	d46 <anti_collapse+0x352>
     a15:	2921f2        	l32i	a15, a1, 164
     a18:	fdc592        	addi	a9, a5, -3
     a1b:	401500        	ssl	a5
     a1e:	180c           	movi.n	a8, 1
     a20:	11caf0        	slli	a12, a10, 1
     a23:	272122        	l32i	a2, a1, 156
     a26:	f129           	s32i.n	a2, a1, 60
     a28:	01c9           	s32i.n	a12, a1, 0
     a2a:	fd9521        	l32r	a2, 80 (8000 <celt_decode_with_ec+0x9c>)
     a2d:	1021c2        	l32i	a12, a1, 64
     a30:	a1b800        	sll	a11, a8
     a33:	050c           	movi.n	a5, 0
     a35:	835890        	moveqz	a5, a8, a9
     a38:	1561b2        	s32i	a11, a1, 84
     a3b:	282182        	l32i	a8, a1, 160
     a3e:	262192        	l32i	a9, a1, 152
     a41:	6159           	s32i.n	a5, a1, 24
     a43:	2b21b2        	l32i	a11, a1, 172
     a46:	2a2152        	l32i	a5, a1, 168
     a49:	41b9           	s32i.n	a11, a1, 16
     a4b:	7199           	s32i.n	a9, a1, 28
     a4d:	e189           	s32i.n	a8, a1, 56
     a4f:	11ecf0        	slli	a14, a12, 1
     a52:	a0fcf0        	addx4	a15, a12, a15
     a55:	31f9           	s32i.n	a15, a1, 12
     a57:	d1e9           	s32i.n	a14, a1, 52
     a59:	82cc60        	mull	a12, a12, a6
     a5c:	21c9           	s32i.n	a12, a1, 8
     a5e:	000906        	j	a86 <anti_collapse+0x92>

00000a61 <anti_collapse+0x6d>:
     a61:	01e8           	l32i.n	a14, a1, 0
     a63:	122192        	l32i	a9, a1, 72
     a66:	2188           	l32i.n	a8, a1, 8
     a68:	d1d8           	l32i.n	a13, a1, 52
     a6a:	31f8           	l32i.n	a15, a1, 12
     a6c:	1021a2        	l32i	a10, a1, 64
     a6f:	dd2b           	addi.n	a13, a13, 2
     a71:	ff4b           	addi.n	a15, a15, 4
     a73:	aa1b           	addi.n	a10, a10, 1
     a75:	1061a2        	s32i	a10, a1, 64
     a78:	31f9           	s32i.n	a15, a1, 12
     a7a:	d1d9           	s32i.n	a13, a1, 52
     a7c:	889a           	add.n	a8, a8, a9
     a7e:	2189           	s32i.n	a8, a1, 8
     a80:	c0dde0        	sub	a13, a13, a14
     a83:	2bfd16        	beqz	a13, d46 <anti_collapse+0x352>

00000a86 <anti_collapse+0x92>:
     a86:	d188           	l32i.n	a8, a1, 52
     a88:	112172        	l32i	a7, a1, 68
     a8b:	31b8           	l32i.n	a11, a1, 12
     a8d:	1821c2        	l32i	a12, a1, 96
     a90:	6778           	l32i.n	a7, a7, 24
     a92:	0bb8           	l32i.n	a11, a11, 0
     a94:	400c00        	ssr	a12
     a97:	778a           	add.n	a7, a7, a8
     a99:	278d           	ae_l16si.n	a8, a7, 0
     a9b:	377d           	ae_l16si.n	a7, a7, 2
     a9d:	ec0c           	movi.n	a12, 14
     a9f:	bb1b           	addi.n	a11, a11, 1
     aa1:	c07780        	sub	a7, a7, a8
     aa4:	c2bb70        	quou	a11, a11, a7
     aa7:	91b0b0        	srl	a11, a11
     aaa:	11bb90        	slli	a11, a11, 7
     aad:	60a0b0        	neg	a10, a11
     ab0:	8aad           	ae_sext16	a10, a10
     ab2:	21aaa0        	srai	a10, a10, 10
     ab5:	022ca7        	blt	a12, a10, abb <anti_collapse+0xc7>
     ab8:	008b46        	j	ce9 <anti_collapse+0x2f5>
     abb:	1fa032        	movi	a3, 31
     abe:	fd7161        	l32r	a6, 84 (7f000000 <_end+0x7efeb19c>)

00000ac1 <anti_collapse+0xcd>:
     ac1:	fd6d41        	l32r	a4, 78 (7fff <celt_decode_with_ec+0x9b>)
     ac4:	1821d2        	l32i	a13, a1, 96
     ac7:	fd7081        	l32r	a8, 88 (b8b8 <celt_rsqrt_norm>)
     aca:	7b0c           	movi.n	a11, 7
     acc:	401d00        	ssl	a13
     acf:	a1a700        	sll	a10, a7
     ad2:	51a9           	s32i.n	a10, a1, 20
     ad4:	40fac0        	nsau	a12, a10
     ad7:	c0c3c0        	sub	a12, a3, a12
     ada:	8ccd           	ae_sext16	a12, a12
     adc:	21c1c0        	srai	a12, a12, 1
     adf:	a1c9           	s32i.n	a12, a1, 40
     ae1:	c0bbc0        	sub	a11, a11, a12
     ae4:	11bbf0        	slli	a11, a11, 1
     ae7:	401b00        	ssl	a11
     aea:	a1aa00        	sll	a10, a10
     aed:	0008e0        	callx8	a8
     af0:	b1a9           	s32i.n	a10, a1, 44
     af2:	1188           	l32i.n	a8, a1, 4
     af4:	21f8           	l32i.n	a15, a1, 8
     af6:	21c160        	srai	a12, a6, 1
     af9:	0e0c           	movi.n	a14, 0
     afb:	090c           	movi.n	a9, 0
     afd:	136192        	s32i	a9, a1, 76
     b00:	1461e2        	s32i	a14, a1, 80
     b03:	43cc40        	min	a12, a12, a4
     b06:	9cbd           	ae_zext16	a11, a12
     b08:	11bb20        	slli	a11, a11, 14
     b0b:	31c0c0        	srai	a12, a12, 16
     b0e:	11cc10        	slli	a12, a12, 15
     b11:	21bfb0        	srai	a11, a11, 15
     b14:	ff8a           	add.n	a15, a15, a8
     b16:	1661f2        	s32i	a15, a1, 88
     b19:	bbca           	add.n	a11, a11, a12
     b1b:	8bad           	ae_sext16	a10, a11
     b1d:	c1a9           	s32i.n	a10, a1, 48
     b1f:	000c86        	j	b55 <anti_collapse+0x161>

00000b22 <anti_collapse+0x12e>:
     b22:	1921a2        	l32i	a10, a1, 100
     b25:	51b8           	l32i.n	a11, a1, 20
     b27:	fd5981        	l32r	a8, 8c (f394 <renormalise_vector>)
     b2a:	fd53c1        	l32r	a12, 78 (7fff <celt_decode_with_ec+0x9b>)
     b2d:	41d8           	l32i.n	a13, a1, 16
     b2f:	0008e0        	callx8	a8

00000b32 <anti_collapse+0x13e>:
     b32:	1221a2        	l32i	a10, a1, 72
     b35:	91c8           	l32i.n	a12, a1, 36
     b37:	142192        	l32i	a9, a1, 80
     b3a:	1621d2        	l32i	a13, a1, 88
     b3d:	1321b2        	l32i	a11, a1, 76
     b40:	991b           	addi.n	a9, a9, 1
     b42:	dd1b           	addi.n	a13, a13, 1
     b44:	1661d2        	s32i	a13, a1, 88
     b47:	146192        	s32i	a9, a1, 80
     b4a:	bbca           	add.n	a11, a11, a12
     b4c:	1361b2        	s32i	a11, a1, 76
     b4f:	0229a7        	blt	a9, a10, b55 <anti_collapse+0x161>
     b52:	ffc2c6        	j	a61 <anti_collapse+0x6d>

00000b55 <anti_collapse+0x161>:
     b55:	112192        	l32i	a9, a1, 68
     b58:	1421f2        	l32i	a15, a1, 80
     b5b:	2998           	l32i.n	a9, a9, 8
     b5d:	f188           	l32i.n	a8, a1, 60
     b5f:	1021e2        	l32i	a14, a1, 64
     b62:	82f9f0        	mull	a15, a9, a15
     b65:	e1c8           	l32i.n	a12, a1, 56
     b67:	eefa           	add.n	a14, a14, a15
     b69:	11fef0        	slli	a15, a14, 1
     b6c:	90cec0        	addx2	a12, a14, a12
     b6f:	90ee80        	addx2	a14, a14, a8
     b72:	122182        	l32i	a8, a1, 72
     b75:	2ccd           	ae_l16si.n	a12, a12, 0
     b77:	2eed           	ae_l16si.n	a14, a14, 0
     b79:	1c1866        	bnei	a8, 1, b99 <anti_collapse+0x1a5>
     b7c:	102182        	l32i	a8, a1, 64
     b7f:	f168           	l32i.n	a6, a1, 60
     b81:	e1a8           	l32i.n	a10, a1, 56
     b83:	898a           	add.n	a8, a9, a8
     b85:	906860        	addx2	a6, a8, a6
     b88:	266d           	ae_l16si.n	a6, a6, 0
     b8a:	9088a0        	addx2	a8, a8, a10
     b8d:	288d           	ae_l16si.n	a8, a8, 0
     b8f:	53e6e0        	max	a14, a6, a14
     b92:	8eed           	ae_sext16	a14, a14
     b94:	53c8c0        	max	a12, a8, a12
     b97:	8ccd           	ae_sext16	a12, a12

00000b99 <anti_collapse+0x1a5>:
     b99:	71d8           	l32i.n	a13, a1, 28
     b9b:	fd3d91        	l32r	a9, 90 (3fff <dynalloc_analysis+0x47>)
     b9e:	dfda           	add.n	a13, a15, a13
     ba0:	2ddd           	ae_l16si.n	a13, a13, 0
     ba2:	060c           	movi.n	a6, 0
     ba4:	43cce0        	min	a12, a12, a14
     ba7:	c0cdc0        	sub	a12, a13, a12
     baa:	53cc60        	max	a12, a12, a6
     bad:	2529c7        	blt	a9, a12, bd6 <anti_collapse+0x1e2>
     bb0:	ef0c           	movi.n	a15, 14
     bb2:	60e0c0        	neg	a14, a12
     bb5:	8eed           	ae_sext16	a14, a14
     bb7:	21eae0        	srai	a14, a14, 10
     bba:	022fe7        	blt	a15, a14, bc0 <anti_collapse+0x1cc>
     bbd:	003346        	j	c8e <anti_collapse+0x29a>
     bc0:	fd3191        	l32r	a9, 84 (7f000000 <_end+0x7efeb19c>)

00000bc3 <anti_collapse+0x1cf>:
     bc3:	fd3381        	l32r	a8, 90 (3fff <dynalloc_analysis+0x47>)
     bc6:	213190        	srai	a3, a9, 1
     bc9:	433380        	min	a3, a3, a8
     bcc:	1133f0        	slli	a3, a3, 1
     bcf:	833d           	ae_sext16	a3, a3
     bd1:	0000c6        	j	bd8 <anti_collapse+0x1e4>

00000bd4 <anti_collapse+0x1e0>:
	...

00000bd6 <anti_collapse+0x1e2>:
     bd6:	030c           	movi.n	a3, 0

00000bd8 <anti_collapse+0x1e4>:
     bd8:	1321a2        	l32i	a10, a1, 76
     bdb:	b1d8           	l32i.n	a13, a1, 44
     bdd:	c1f8           	l32i.n	a15, a1, 48
     bdf:	fd2d91        	l32r	a9, 94 (5a82 <celt_encode_with_ec+0xe1a>)
     be2:	1121b2        	l32i	a11, a1, 68
     be5:	a1c8           	l32i.n	a12, a1, 40
     be7:	fd2c81        	l32r	a8, 98 (5a81 <celt_encode_with_ec+0xe19>)
     bea:	6bb8           	l32i.n	a11, a11, 24
     bec:	400c00        	ssr	a12
     bef:	438380        	min	a8, a3, a8
     bf2:	d1c8           	l32i.n	a12, a1, 52
     bf4:	d18890        	mul16s	a8, a8, a9
     bf7:	6198           	l32i.n	a9, a1, 24
     bf9:	218e80        	srai	a8, a8, 14
     bfc:	bbca           	add.n	a11, a11, a12
     bfe:	2bbd           	ae_l16si.n	a11, a11, 0
     c00:	933890        	movnez	a3, a8, a9
     c03:	83ed           	ae_sext16	a14, a3
     c05:	43eef0        	min	a14, a14, a15
     c08:	21e1e0        	srai	a14, a14, 1
     c0b:	d1dde0        	mul16s	a13, a13, a14
     c0e:	1821c2        	l32i	a12, a1, 96
     c11:	21dfd0        	srai	a13, a13, 15
     c14:	b130d0        	sra	a3, a13
     c17:	401c00        	ssl	a12
     c1a:	a1bb00        	sll	a11, a11
     c1d:	aaba           	add.n	a10, a10, a11
     c1f:	0821b2        	l32i	a11, a1, 32
     c22:	152192        	l32i	a9, a1, 84
     c25:	90aab0        	addx2	a10, a10, a11
     c28:	1961a2        	s32i	a10, a1, 100
     c2b:	0219e6        	bgei	a9, 1, c31 <anti_collapse+0x23d>
     c2e:	ffc006        	j	b32 <anti_collapse+0x13e>
     c31:	00a042        	movi	a4, 0
     c34:	00a0c2        	movi	a12, 0
     c37:	60d030        	neg	a13, a3
     c3a:	1761d2        	s32i	a13, a1, 92

00000c3d <anti_collapse+0x249>:
     c3d:	1621e2        	l32i	a14, a1, 88
     c40:	000ee2        	l8ui	a14, a14, 0
     c43:	400400        	ssr	a4
     c46:	b1e0e0        	sra	a14, a14
     c49:	33ee07        	bbsi	a14, 0, c80 <anti_collapse+0x28c>
     c4c:	2e17a6        	blti	a7, 1, c7e <anti_collapse+0x28a>
     c4f:	060c           	movi.n	a6, 0

00000c51 <anti_collapse+0x25d>:
     c51:	fd1281        	l32r	a8, 9c (5ec <celt_lcg_rand>)
     c54:	05ad           	mov.n	a10, a5
     c56:	0008e0        	callx8	a8
     c59:	1721c2        	l32i	a12, a1, 92
     c5c:	039d           	mov.n	a9, a3
     c5e:	1821b2        	l32i	a11, a1, 96
     c61:	0a5d           	mov.n	a5, a10
     c63:	10da20        	and	a13, a10, a2
     c66:	401b00        	ssl	a11
     c69:	a1a600        	sll	a10, a6
     c6c:	1921b2        	l32i	a11, a1, 100
     c6f:	661b           	addi.n	a6, a6, 1
     c71:	839cd0        	moveqz	a9, a12, a13
     c74:	a4aa           	add.n	a10, a4, a10
     c76:	90aab0        	addx2	a10, a10, a11
     c79:	6a9d           	ae_s16i.n	a9, a10, 0
     c7b:	d29767        	bne	a7, a6, c51 <anti_collapse+0x25d>

00000c7e <anti_collapse+0x28a>:
     c7e:	1c0c           	movi.n	a12, 1

00000c80 <anti_collapse+0x28c>:
     c80:	1521e2        	l32i	a14, a1, 84
     c83:	441b           	addi.n	a4, a4, 1
     c85:	b49e47        	bne	a14, a4, c3d <anti_collapse+0x249>
     c88:	ea6c16        	beqz	a12, b32 <anti_collapse+0x13e>
     c8b:	ffa4c6        	j	b22 <anti_collapse+0x12e>

00000c8e <anti_collapse+0x29a>:
     c8e:	0f7c           	movi.n	a15, -16
     c90:	042fe7        	blt	a15, a14, c98 <anti_collapse+0x2a4>
     c93:	090c           	movi.n	a9, 0
     c95:	ffca86        	j	bc3 <anti_collapse+0x1cf>

00000c98 <anti_collapse+0x2a4>:
     c98:	11de60        	slli	a13, a14, 10
     c9b:	ccda           	add.n	a12, a12, a13
     c9d:	fcf5d1        	l32r	a13, 74 (27dc <quant_all_bands+0x53c>)
     ca0:	60c0c0        	neg	a12, a12
     ca3:	11ccc0        	slli	a12, a12, 4
     ca6:	d1dcd0        	mul16s	a13, a12, a13
     ca9:	21dfd0        	srai	a13, a13, 15
     cac:	3addd2        	addmi	a13, a13, 0x3a00
     caf:	e3cdd2        	addi	a13, a13, -29
     cb2:	d1dcd0        	mul16s	a13, a12, a13
     cb5:	21dfd0        	srai	a13, a13, 15
     cb8:	59ddd2        	addmi	a13, a13, 0x5900
     cbb:	14cdd2        	addi	a13, a13, 20
     cbe:	d1ccd0        	mul16s	a12, a12, a13
     cc1:	d87c           	movi.n	a8, -3
     cc3:	21cfc0        	srai	a12, a12, 15
     cc6:	40dcc2        	addmi	a12, a12, 0x4000
     cc9:	cc0b           	addi.n	a12, a12, -1
     ccb:	8ccd           	ae_sext16	a12, a12
     ccd:	0d28e7        	blt	a8, a14, cde <anti_collapse+0x2ea>
     cd0:	ef7c           	movi.n	a15, -2
     cd2:	c0ffe0        	sub	a15, a15, a14
     cd5:	400f00        	ssr	a15
     cd8:	b190c0        	sra	a9, a12
     cdb:	ffb906        	j	bc3 <anti_collapse+0x1cf>

00000cde <anti_collapse+0x2ea>:
     cde:	8e2b           	addi.n	a8, a14, 2
     ce0:	401800        	ssl	a8
     ce3:	a19c00        	sll	a9, a12
     ce6:	ffb646        	j	bc3 <anti_collapse+0x1cf>

00000ce9 <anti_collapse+0x2f5>:
     ce9:	f31c           	movi.n	a3, 31
     ceb:	097c           	movi.n	a9, -16
     ced:	0429a7        	blt	a9, a10, cf5 <anti_collapse+0x301>
     cf0:	060c           	movi.n	a6, 0
     cf2:	ff72c6        	j	ac1 <anti_collapse+0xcd>

00000cf5 <anti_collapse+0x301>:
     cf5:	11ca60        	slli	a12, a10, 10
     cf8:	bbca           	add.n	a11, a11, a12
     cfa:	fcdec1        	l32r	a12, 74 (27dc <quant_all_bands+0x53c>)
     cfd:	60b0b0        	neg	a11, a11
     d00:	11bbc0        	slli	a11, a11, 4
     d03:	d1cbc0        	mul16s	a12, a11, a12
     d06:	21cfc0        	srai	a12, a12, 15
     d09:	3adcc2        	addmi	a12, a12, 0x3a00
     d0c:	e3ccc2        	addi	a12, a12, -29
     d0f:	d1cbc0        	mul16s	a12, a11, a12
     d12:	21cfc0        	srai	a12, a12, 15
     d15:	59dcc2        	addmi	a12, a12, 0x5900
     d18:	14ccc2        	addi	a12, a12, 20
     d1b:	d1bbc0        	mul16s	a11, a11, a12
     d1e:	dc7c           	movi.n	a12, -3
     d20:	21bfb0        	srai	a11, a11, 15
     d23:	40dbb2        	addmi	a11, a11, 0x4000
     d26:	bb0b           	addi.n	a11, a11, -1
     d28:	8bbd           	ae_sext16	a11, a11
     d2a:	0d2ca7        	blt	a12, a10, d3b <anti_collapse+0x347>
     d2d:	ed7c           	movi.n	a13, -2
     d2f:	c0dda0        	sub	a13, a13, a10
     d32:	400d00        	ssr	a13
     d35:	b160b0        	sra	a6, a11
     d38:	ff6146        	j	ac1 <anti_collapse+0xcd>

00000d3b <anti_collapse+0x347>:
     d3b:	ea2b           	addi.n	a14, a10, 2
     d3d:	401e00        	ssl	a14
     d40:	a16b00        	sll	a6, a11
     d43:	ff5e86        	j	ac1 <anti_collapse+0xcd>

00000d46 <anti_collapse+0x352>:
     d46:	f01d           	retw.n

00000d48 <intensity_stereo>:
     d48:	004136        	entry	a1, 32
     d4b:	22c8           	l32i.n	a12, a2, 8
     d4d:	a0b650        	addx4	a11, a6, a5
     d50:	0bb8           	l32i.n	a11, a11, 0
     d52:	cc6a           	add.n	a12, a12, a6
     d54:	a0cc50        	addx4	a12, a12, a5
     d57:	0cc8           	l32i.n	a12, a12, 0
     d59:	dd0c           	movi.n	a13, 13
     d5b:	53acb0        	max	a10, a12, a11
     d5e:	021ae6        	bgei	a10, 1, d64 <intensity_stereo+0x1c>
     d61:	002046        	j	de6 <intensity_stereo+0x9e>
     d64:	40fae0        	nsau	a14, a10
     d67:	fa1c           	movi.n	a10, 31
     d69:	c0aae0        	sub	a10, a10, a14
     d6c:	8aad           	ae_sext16	a10, a10
     d6e:	76ada7        	bge	a13, a10, de8 <intensity_stereo+0xa0>
     d71:	f3cae2        	addi	a14, a10, -13
     d74:	400e00        	ssr	a14
     d77:	b1b0b0        	sra	a11, a11
     d7a:	792da7        	blt	a13, a10, df7 <intensity_stereo+0xaf>
     d7d:	c0eda0        	sub	a14, a13, a10

00000d80 <intensity_stereo+0x38>:
     d80:	401e00        	ssl	a14
     d83:	a1ac00        	sll	a10, a12

00000d86 <intensity_stereo+0x3e>:
     d86:	8b5d           	ae_sext16	a5, a11
     d88:	8a2d           	ae_sext16	a2, a10
     d8a:	d1caa0        	mul16s	a12, a10, a10
     d8d:	d19bb0        	mul16s	a9, a11, a11
     d90:	fcb681        	l32r	a8, 68 (b914 <celt_sqrt>)
     d93:	99ca           	add.n	a9, a9, a12
     d95:	a91b           	addi.n	a10, a9, 1
     d97:	0008e0        	callx8	a8
     d9a:	4417a6        	blti	a7, 1, de2 <intensity_stereo+0x9a>
     d9d:	842b           	addi.n	a8, a4, 2
     d9f:	970b           	addi.n	a9, a7, -1
     da1:	24cd           	ae_l16si.n	a12, a4, 0
     da3:	23bd           	ae_l16si.n	a11, a3, 0
     da5:	11e220        	slli	a14, a2, 14
     da8:	11d520        	slli	a13, a5, 14
     dab:	fa1b           	addi.n	a15, a10, 1
     dad:	8ffd           	ae_sext16	a15, a15
     daf:	d2ddf0        	quos	a13, a13, a15
     db2:	d2eef0        	quos	a14, a14, a15
     db5:	8eed           	ae_sext16	a14, a14
     db7:	8ddd           	ae_sext16	a13, a13
     db9:	d1bbd0        	mul16s	a11, a11, a13
     dbc:	d1cce0        	mul16s	a12, a12, a14
     dbf:	13a976        	loopgtz	a9, dd6 <intensity_stereo+0x8e>
     dc2:	289d           	ae_l16si.n	a9, a8, 0
     dc4:	bbca           	add.n	a11, a11, a12
     dc6:	21beb0        	srai	a11, a11, 14
     dc9:	09c3b4        	ae_s16ip	a11, a3, 2
     dcc:	23bd           	ae_l16si.n	a11, a3, 0
     dce:	d1c9e0        	mul16s	a12, a9, a14
     dd1:	882b           	addi.n	a8, a8, 2
     dd3:	d1bbd0        	mul16s	a11, a11, a13

00000dd6 <intensity_stereo+0x8e>:
     dd6:	03ad           	mov.n	a10, a3
     dd8:	8bca           	add.n	a8, a11, a12
     dda:	218e80        	srai	a8, a8, 14
     ddd:	09ca84        	ae_s16ip	a8, a10, 2
     de0:	f01d           	retw.n

00000de2 <intensity_stereo+0x9a>:
     de2:	f01d           	retw.n

00000de4 <intensity_stereo+0x9c>:
	...

00000de6 <intensity_stereo+0x9e>:
     de6:	0a0c           	movi.n	a10, 0

00000de8 <intensity_stereo+0xa0>:
     de8:	c0eda0        	sub	a14, a13, a10
     deb:	401e00        	ssl	a14
     dee:	a1bb00        	sll	a11, a11
     df1:	8bada7        	bge	a13, a10, d80 <intensity_stereo+0x38>
     df4:	f3cae2        	addi	a14, a10, -13

00000df7 <intensity_stereo+0xaf>:
     df7:	400e00        	ssr	a14
     dfa:	b1a0c0        	sra	a10, a12
     dfd:	ffe146        	j	d86 <intensity_stereo+0x3e>

00000e00 <stereo_split>:
     e00:	004136        	entry	a1, 32
     e03:	026d           	mov.n	a6, a2
     e05:	fca371        	l32r	a7, 94 (5a82 <celt_encode_with_ec+0xe1a>)
     e08:	032d           	mov.n	a2, a3
     e0a:	043d           	mov.n	a3, a4
     e0c:	064d           	mov.n	a4, a6
     e0e:	1aa376        	loopgtz	a3, e2c <stereo_split+0x2c>
     e11:	223d           	ae_l16si.n	a3, a2, 0
     e13:	245d           	ae_l16si.n	a5, a4, 0
     e15:	653a           	add.n	a6, a5, a3
     e17:	c03350        	sub	a3, a3, a5
     e1a:	823370        	mull	a3, a3, a7
     e1d:	825670        	mull	a5, a6, a7
     e20:	213f30        	srai	a3, a3, 15
     e23:	215f50        	srai	a5, a5, 15
     e26:	09c234        	ae_s16ip	a3, a2, 2
     e29:	09c454        	ae_s16ip	a5, a4, 2

00000e2c <stereo_split+0x2c>:
     e2c:	f01d           	retw.n

00000e2e <stereo_split+0x2e>:
	...

00000e30 <stereo_merge>:
     e30:	008136        	entry	a1, 64
     e33:	2129           	s32i.n	a2, a1, 8
     e35:	3139           	s32i.n	a3, a1, 12
     e37:	4149           	s32i.n	a4, a1, 16
     e39:	057d           	mov.n	a7, a5
     e3b:	21a140        	srai	a10, a4, 1
     e3e:	d1aaa0        	mul16s	a10, a10, a10
     e41:	01a9           	s32i.n	a10, a1, 0
     e43:	0215e6        	bgei	a5, 1, e49 <stereo_merge+0x19>
     e46:	006e86        	j	1004 <stereo_merge+0x1d4>
     e49:	0d0c           	movi.n	a13, 0
     e4b:	038d           	mov.n	a8, a3
     e4d:	14e050        	extui	a14, a5, 0, 2
     e50:	02ad           	mov.n	a10, a2
     e52:	11f5f0        	slli	a15, a5, 1
     e55:	11f9           	s32i.n	a15, a1, 4
     e57:	212270        	srai	a2, a7, 2
     e5a:	00a0f2        	movi	a15, 0
     e5d:	11ae76        	loopgtz	a14, e72 <stereo_merge+0x42>
     e60:	2a6d           	ae_l16si.n	a6, a10, 0
     e62:	28bd           	ae_l16si.n	a11, a8, 0
     e64:	882b           	addi.n	a8, a8, 2
     e66:	aa2b           	addi.n	a10, a10, 2
     e68:	d19bb0        	mul16s	a9, a11, a11
     e6b:	d166b0        	mul16s	a6, a6, a11
     e6e:	dd9a           	add.n	a13, a13, a9
     e70:	ff6a           	add.n	a15, a15, a6
     e72:	3fa276        	loopgtz	a2, eb5 <stereo_merge+0x85>
     e75:	289d           	ae_l16si.n	a9, a8, 0
     e77:	2abd           	ae_l16si.n	a11, a10, 0
     e79:	382d           	ae_l16si.n	a2, a8, 2
     e7b:	3a3d           	ae_l16si.n	a3, a10, 2
     e7d:	029842        	l16si	a4, a8, 4
     e80:	029a52        	l16si	a5, a10, 4
     e83:	039862        	l16si	a6, a8, 6
     e86:	039ae2        	l16si	a14, a10, 6
     e89:	d1c990        	mul16s	a12, a9, a9
     e8c:	d19b90        	mul16s	a9, a11, a9
     e8f:	d1b220        	mul16s	a11, a2, a2
     e92:	d12320        	mul16s	a2, a3, a2
     e95:	d13440        	mul16s	a3, a4, a4
     e98:	d14540        	mul16s	a4, a5, a4
     e9b:	d15660        	mul16s	a5, a6, a6
     e9e:	d16e60        	mul16s	a6, a14, a6
     ea1:	888b           	addi.n	a8, a8, 8
     ea3:	aa8b           	addi.n	a10, a10, 8
     ea5:	edca           	add.n	a14, a13, a12
     ea7:	9f9a           	add.n	a9, a15, a9
     ea9:	beba           	add.n	a11, a14, a11
     eab:	992a           	add.n	a9, a9, a2
     ead:	bb3a           	add.n	a11, a11, a3
     eaf:	994a           	add.n	a9, a9, a4
     eb1:	db5a           	add.n	a13, a11, a5
     eb3:	f96a           	add.n	a15, a9, a6

00000eb5 <stereo_merge+0x85>:
     eb5:	3180f0        	srai	a8, a15, 16
     eb8:	9f5d           	ae_zext16	a5, a15
     eba:	41f8           	l32i.n	a15, a1, 16
     ebc:	825f50        	mull	a5, a15, a5
     ebf:	d1ff80        	mul16s	a15, a15, a8
     ec2:	215f50        	srai	a5, a5, 15
     ec5:	90ff50        	addx2	a15, a15, a5
     ec8:	0158           	l32i.n	a5, a1, 0
     eca:	fc75c1        	l32r	a12, a0 (27524 <_end+0x126c0>)
     ecd:	118ff0        	slli	a8, a15, 1
     ed0:	905f50        	addx2	a5, a15, a5
     ed3:	5d5a           	add.n	a5, a13, a5
     ed5:	022c57        	blt	a12, a5, edb <stereo_merge+0xab>
     ed8:	003f06        	j	fd8 <stereo_merge+0x1a8>
     edb:	01f8           	l32i.n	a15, a1, 0
     edd:	c0ff80        	sub	a15, a15, a8
     ee0:	fc7081        	l32r	a8, a0 (27524 <_end+0x126c0>)
     ee3:	f21c           	movi.n	a2, 31
     ee5:	80fdf0        	add	a15, a13, a15
     ee8:	0228f7        	blt	a8, a15, eee <stereo_merge+0xbe>
     eeb:	003a46        	j	fd8 <stereo_merge+0x1a8>
     eee:	40ff80        	nsau	a8, a15
     ef1:	c02280        	sub	a2, a2, a8
     ef4:	822d           	ae_sext16	a2, a2
     ef6:	212120        	srai	a2, a2, 1
     ef9:	f9c2c2        	addi	a12, a2, -7
     efc:	11ccf0        	slli	a12, a12, 1
     eff:	021ce6        	bgei	a12, 1, f05 <stereo_merge+0xd5>
     f02:	003c86        	j	ff8 <stereo_merge+0x1c8>

00000f05 <stereo_merge+0xd5>:
     f05:	400c00        	ssr	a12
     f08:	b1a0f0        	sra	a10, a15

00000f0b <stereo_merge+0xdb>:
     f0b:	fc5f81        	l32r	a8, 88 (b8b8 <celt_rsqrt_norm>)
     f0e:	0008e0        	callx8	a8
     f11:	0a4d           	mov.n	a4, a10
     f13:	40f580        	nsau	a8, a5
     f16:	f61c           	movi.n	a6, 31
     f18:	c06680        	sub	a6, a6, a8
     f1b:	866d           	ae_sext16	a6, a6
     f1d:	216160        	srai	a6, a6, 1
     f20:	f9c6c2        	addi	a12, a6, -7
     f23:	11ccf0        	slli	a12, a12, 1
     f26:	021ce6        	bgei	a12, 1, f2c <stereo_merge+0xfc>
     f29:	002ec6        	j	fe8 <stereo_merge+0x1b8>
     f2c:	400c00        	ssr	a12
     f2f:	b1a050        	sra	a10, a5

00000f32 <stereo_merge+0x102>:
     f32:	fc5581        	l32r	a8, 88 (b8b8 <celt_rsqrt_norm>)
     f35:	0008e0        	callx8	a8
     f38:	7c0c           	movi.n	a12, 7
     f3a:	53ec20        	max	a14, a12, a2
     f3d:	53cc60        	max	a12, a12, a6
     f40:	0217e6        	bgei	a7, 1, f46 <stereo_merge+0x116>
     f43:	002246        	j	fd0 <stereo_merge+0x1a0>
     f46:	41d8           	l32i.n	a13, a1, 16
     f48:	2188           	l32i.n	a8, a1, 8
     f4a:	2c1b           	addi.n	a2, a12, 1
     f4c:	3168           	l32i.n	a6, a1, 12
     f4e:	150c           	movi.n	a5, 1
     f50:	ee1b           	addi.n	a14, a14, 1
     f52:	401e00        	ssl	a14
     f55:	a19500        	sll	a9, a5
     f58:	219190        	srai	a9, a9, 1
     f5b:	263d           	ae_l16si.n	a3, a6, 0
     f5d:	401200        	ssl	a2
     f60:	28bd           	ae_l16si.n	a11, a8, 0
     f62:	a15500        	sll	a5, a5
     f65:	400e00        	ssr	a14
     f68:	d1bbd0        	mul16s	a11, a11, a13
     f6b:	215150        	srai	a5, a5, 1
     f6e:	40dbb2        	addmi	a11, a11, 0x4000
     f71:	21bfb0        	srai	a11, a11, 15
     f74:	c0fb30        	sub	a15, a11, a3
     f77:	bb3a           	add.n	a11, a11, a3
     f79:	d1f4f0        	mul16s	a15, a4, a15
     f7c:	0a3d           	mov.n	a3, a10
     f7e:	d1bab0        	mul16s	a11, a10, a11
     f81:	f9fa           	add.n	a15, a9, a15
     f83:	b5ba           	add.n	a11, a5, a11
     f85:	b1f0f0        	sra	a15, a15
     f88:	09c8f4        	ae_s16ip	a15, a8, 2
     f8b:	400200        	ssr	a2
     f8e:	04fd           	mov.n	a15, a4
     f90:	b1b0b0        	sra	a11, a11
     f93:	094d           	mov.n	a4, a9
     f95:	970b           	addi.n	a9, a7, -1
     f97:	2da976        	loopgtz	a9, fc8 <stereo_merge+0x198>
     f9a:	289d           	ae_l16si.n	a9, a8, 0
     f9c:	09c6b4        	ae_s16ip	a11, a6, 2
     f9f:	400e00        	ssr	a14
     fa2:	d199d0        	mul16s	a9, a9, a13
     fa5:	26bd           	ae_l16si.n	a11, a6, 0
     fa7:	40d992        	addmi	a9, a9, 0x4000
     faa:	219f90        	srai	a9, a9, 15
     fad:	c9ba           	add.n	a12, a9, a11
     faf:	c099b0        	sub	a9, a9, a11
     fb2:	d19f90        	mul16s	a9, a15, a9
     fb5:	d1b3c0        	mul16s	a11, a3, a12
     fb8:	949a           	add.n	a9, a4, a9
     fba:	b5ba           	add.n	a11, a5, a11
     fbc:	b19090        	sra	a9, a9
     fbf:	09c894        	ae_s16ip	a9, a8, 2
     fc2:	400200        	ssr	a2
     fc5:	b1b0b0        	sra	a11, a11

00000fc8 <stereo_merge+0x198>:
     fc8:	06ad           	mov.n	a10, a6
     fca:	09cab4        	ae_s16ip	a11, a10, 2
     fcd:	f01d           	retw.n

00000fcf <stereo_merge+0x19f>:
	...

00000fd0 <stereo_merge+0x1a0>:
     fd0:	f01d           	retw.n

00000fd2 <stereo_merge+0x1a2>:
	...

00000fd3 <stereo_merge+0x1a3>:
     fd3:	1185f0        	slli	a8, a5, 1
     fd6:	1189           	s32i.n	a8, a1, 4

00000fd8 <stereo_merge+0x1a8>:
     fd8:	31a8           	l32i.n	a10, a1, 12
     fda:	fc3281        	l32r	a8, a4 (f6f0 <memcpy>)
     fdd:	21b8           	l32i.n	a11, a1, 8
     fdf:	11c8           	l32i.n	a12, a1, 4
     fe1:	0008e0        	callx8	a8
     fe4:	f01d           	retw.n

00000fe6 <stereo_merge+0x1b6>:
	...

00000fe8 <stereo_merge+0x1b8>:
     fe8:	6090c0        	neg	a9, a12
     feb:	401900        	ssl	a9
     fee:	a1a500        	sll	a10, a5
     ff1:	ffcf46        	j	f32 <stereo_merge+0x102>

00000ff4 <stereo_merge+0x1c4>:
     ff4:	0afd           	mov.n	a15, a10
     ff6:	0a5d           	mov.n	a5, a10

00000ff8 <stereo_merge+0x1c8>:
     ff8:	60a0c0        	neg	a10, a12
     ffb:	401a00        	ssl	a10
     ffe:	a1af00        	sll	a10, a15
    1001:	ffc186        	j	f0b <stereo_merge+0xdb>

00001004 <stereo_merge+0x1d4>:
    1004:	fc27b1        	l32r	a11, a0 (27524 <_end+0x126c0>)
    1007:	40fa80        	nsau	a8, a10
    100a:	f21c           	movi.n	a2, 31
    100c:	c3aba7        	bge	a11, a10, fd3 <stereo_merge+0x1a3>
    100f:	c02280        	sub	a2, a2, a8
    1012:	822d           	ae_sext16	a2, a2
    1014:	212120        	srai	a2, a2, 1
    1017:	f9c2c2        	addi	a12, a2, -7
    101a:	11ccf0        	slli	a12, a12, 1
    101d:	d31ca6        	blti	a12, 1, ff4 <stereo_merge+0x1c4>
    1020:	0a5d           	mov.n	a5, a10
    1022:	0afd           	mov.n	a15, a10
    1024:	ffb746        	j	f05 <stereo_merge+0xd5>

00001027 <stereo_merge+0x1f7>:
	...

00001028 <spreading_decision>:
    1028:	00e136        	entry	a1, 112
    102b:	e129           	s32i.n	a2, a1, 56
    102d:	c139           	s32i.n	a3, a1, 48
    102f:	9298           	l32i.n	a9, a2, 36
    1031:	05ad           	mov.n	a10, a5
    1033:	04bd           	mov.n	a11, a4
    1035:	1d21c2        	l32i	a12, a1, 116
    1038:	62d8           	l32i.n	a13, a2, 24
    103a:	1061d2        	s32i	a13, a1, 64
    103d:	a1c9           	s32i.n	a12, a1, 40
    103f:	1f2142        	l32i	a4, a1, 124
    1042:	90ccd0        	addx2	a12, a12, a13
    1045:	1161c2        	s32i	a12, a1, 68
    1048:	2c8d           	ae_l16si.n	a8, a12, 0
    104a:	ffdcc2        	addmi	a12, a12, 0xffffff00
    104d:	7f9cc2        	l16si	a12, a12, 254
    1050:	850c           	movi.n	a5, 8
    1052:	829940        	mull	a9, a9, a4
    1055:	c088c0        	sub	a8, a8, a12
    1058:	828480        	mull	a8, a4, a8
    105b:	8199           	s32i.n	a9, a1, 32
    105d:	022587        	blt	a5, a8, 1063 <spreading_decision+0x3b>
    1060:	0061c6        	j	11eb <spreading_decision+0x1c3>
    1063:	ffa722        	movi	a2, 0x7ff
    1066:	7169           	s32i.n	a6, a1, 28
    1068:	61b9           	s32i.n	a11, a1, 24
    106a:	51a9           	s32i.n	a10, a1, 20
    106c:	4179           	s32i.n	a7, a1, 16
    106e:	030c           	movi.n	a3, 0
    1070:	050c           	movi.n	a5, 0
    1072:	1e21f2        	l32i	a15, a1, 120
    1075:	080c           	movi.n	a8, 0
    1077:	090c           	movi.n	a9, 0
    1079:	d199           	s32i.n	a9, a1, 52
    107b:	b189           	s32i.n	a8, a1, 44
    107d:	91f9           	s32i.n	a15, a1, 36
    107f:	f159           	s32i.n	a5, a1, 60
    1081:	126132        	s32i	a3, a1, 72
    1084:	050c           	movi.n	a5, 0
    1086:	ffa132        	movi	a3, 0x1ff
    1089:	000546        	j	10a2 <spreading_decision+0x7a>

0000108c <spreading_decision+0x64>:
    108c:	91b8           	l32i.n	a11, a1, 36
    108e:	b1a8           	l32i.n	a10, a1, 44
    1090:	81d8           	l32i.n	a13, a1, 32
    1092:	d1c8           	l32i.n	a12, a1, 52
    1094:	aa1b           	addi.n	a10, a10, 1
    1096:	b1a9           	s32i.n	a10, a1, 44
    1098:	ccda           	add.n	a12, a12, a13
    109a:	d1c9           	s32i.n	a12, a1, 52
    109c:	022ab7        	blt	a10, a11, 10a2 <spreading_decision+0x7a>
    109f:	002c06        	j	1153 <spreading_decision+0x12b>

000010a2 <spreading_decision+0x7a>:
    10a2:	a1e8           	l32i.n	a14, a1, 40
    10a4:	e41ea6        	blti	a14, 1, 108c <spreading_decision+0x64>
    10a7:	102162        	l32i	a6, a1, 64
    10aa:	880c           	movi.n	a8, 8
    10ac:	fbfff1        	l32r	a15, a8 (104c0 <ordery_table_91+0x80>)
    10af:	002286        	j	113d <spreading_decision+0x115>

000010b2 <spreading_decision+0x8a>:
    10b2:	82ba40        	mull	a11, a10, a4
    10b5:	d1a8           	l32i.n	a10, a1, 52
    10b7:	aaba           	add.n	a10, a10, a11
    10b9:	c1b8           	l32i.n	a11, a1, 48
    10bb:	87cd           	ae_sext16	a12, a7
    10bd:	102182        	l32i	a8, a1, 64
    10c0:	90aab0        	addx2	a10, a10, a11
    10c3:	1da776        	loopgtz	a7, 10e4 <spreading_decision+0xbc>
    10c6:	2abd           	ae_l16si.n	a11, a10, 0
    10c8:	f03d           	nop.n
    10ca:	d1bbb0        	mul16s	a11, a11, a11
    10cd:	21bfb0        	srai	a11, a11, 15
    10d0:	d1bcb0        	mul16s	a11, a12, a11
    10d3:	0122b7        	blt	a2, a11, 10d8 <spreading_decision+0xb0>
    10d6:	dd1b           	addi.n	a13, a13, 1

000010d8 <spreading_decision+0xb0>:
    10d8:	0123b7        	blt	a3, a11, 10dd <spreading_decision+0xb5>
    10db:	ee1b           	addi.n	a14, a14, 1

000010dd <spreading_decision+0xb5>:
    10dd:	01ebe6        	bgei	a11, 128, 10e2 <spreading_decision+0xba>
    10e0:	ff1b           	addi.n	a15, a15, 1

000010e2 <spreading_decision+0xba>:
    10e2:	aa2b           	addi.n	a10, a10, 2

000010e4 <spreading_decision+0xbc>:
    10e4:	e1c8           	l32i.n	a12, a1, 56
    10e6:	11bff0        	slli	a11, a15, 1
    10e9:	11adf0        	slli	a10, a13, 1
    10ec:	2cc8           	l32i.n	a12, a12, 8
    10ee:	72aa70        	salt	a10, a10, a7
    10f1:	72bb70        	salt	a11, a11, a7
    10f4:	fcccc2        	addi	a12, a12, -4
    10f7:	90cc80        	addx2	a12, a12, a8
    10fa:	0dbc67        	bgeu	a12, a6, 110b <spreading_decision+0xe3>
    10fd:	f188           	l32i.n	a8, a1, 60
    10ff:	9eda           	add.n	a9, a14, a13
    1101:	1199b0        	slli	a9, a9, 5
    1104:	c29970        	quou	a9, a9, a7
    1107:	889a           	add.n	a8, a8, a9
    1109:	f189           	s32i.n	a8, a1, 60

0000110b <spreading_decision+0xe3>:
    110b:	1221c2        	l32i	a12, a1, 72
    110e:	180c           	movi.n	a8, 1
    1110:	30aa80        	xor	a10, a10, a8
    1113:	30bb80        	xor	a11, a11, a8
    1116:	cc1b           	addi.n	a12, a12, 1
    1118:	1261c2        	s32i	a12, a1, 72
    111b:	11cef0        	slli	a12, a14, 1
    111e:	72cc70        	salt	a12, a12, a7
    1121:	30cc80        	xor	a12, a12, a8
    1124:	bbca           	add.n	a11, a11, a12
    1126:	aaba           	add.n	a10, a10, a11
    1128:	11aa80        	slli	a10, a10, 8
    112b:	55aa           	add.n	a5, a5, a10

0000112d <spreading_decision+0x105>:
    112d:	880c           	movi.n	a8, 8
    112f:	1121d2        	l32i	a13, a1, 68
    1132:	fbddf1        	l32r	a15, a8 (104c0 <ordery_table_91+0x80>)
    1135:	662b           	addi.n	a6, a6, 2
    1137:	c0d6d0        	sub	a13, a6, a13
    113a:	f4ed16        	beqz	a13, 108c <spreading_decision+0x64>

0000113d <spreading_decision+0x115>:
    113d:	26ad           	ae_l16si.n	a10, a6, 0
    113f:	367d           	ae_l16si.n	a7, a6, 2
    1141:	0fd8           	l32i.n	a13, a15, 0
    1143:	1fe8           	l32i.n	a14, a15, 4
    1145:	c077a0        	sub	a7, a7, a10
    1148:	827470        	mull	a7, a4, a7
    114b:	2ff8           	l32i.n	a15, a15, 8
    114d:	dca877        	bge	a8, a7, 112d <spreading_decision+0x105>
    1150:	ffd786        	j	10b2 <spreading_decision+0x8a>

00001153 <spreading_decision+0x12b>:
    1153:	1c2182        	l32i	a8, a1, 112
    1156:	04e816        	beqz	a8, 11a8 <spreading_decision+0x180>
    1159:	f198           	l32i.n	a9, a1, 60
    115b:	199c           	beqz.n	a9, 1170 <spreading_decision+0x148>
    115d:	e1d8           	l32i.n	a13, a1, 56
    115f:	a1c8           	l32i.n	a12, a1, 40
    1161:	2dd8           	l32i.n	a13, a13, 8
    1163:	c0ccd0        	sub	a12, a12, a13
    1166:	cc4b           	addi.n	a12, a12, 4
    1168:	82bbc0        	mull	a11, a11, a12
    116b:	c2a9b0        	quou	a10, a9, a11
    116e:	f1a9           	s32i.n	a10, a1, 60

00001170 <spreading_decision+0x148>:
    1170:	7188           	l32i.n	a8, a1, 28
    1172:	f138           	l32i.n	a3, a1, 60
    1174:	0828           	l32i.n	a2, a8, 0
    1176:	223a           	add.n	a2, a2, a3
    1178:	4138           	l32i.n	a3, a1, 16
    117a:	212120        	srai	a2, a2, 1
    117d:	0829           	s32i.n	a2, a8, 0
    117f:	0338           	l32i.n	a3, a3, 0
    1181:	5f2326        	beqi	a3, 2, 11e4 <spreading_decision+0x1bc>
    1184:	fcc292        	addi	a9, a2, -4
    1187:	028d           	mov.n	a8, a2
    1189:	838930        	moveqz	a8, a9, a3
    118c:	f189           	s32i.n	a8, a1, 60

0000118e <spreading_decision+0x166>:
    118e:	f1b8           	l32i.n	a11, a1, 60
    1190:	6a1c           	movi.n	a10, 22
    1192:	08aab7        	bge	a10, a11, 119e <spreading_decision+0x176>
    1195:	41d8           	l32i.n	a13, a1, 16
    1197:	2c0c           	movi.n	a12, 2
    1199:	0dc9           	s32i.n	a12, a13, 0
    119b:	000246        	j	11a8 <spreading_decision+0x180>

0000119e <spreading_decision+0x176>:
    119e:	41f8           	l32i.n	a15, a1, 16
    11a0:	2e1c           	movi.n	a14, 18
    11a2:	72eeb0        	salt	a14, a14, a11
    11a5:	006fe2        	s32i	a14, a15, 0
    11a8:	f34c           	movi.n	a3, 79
    11aa:	5188           	l32i.n	a8, a1, 20
    11ac:	1221a2        	l32i	a10, a1, 72
    11af:	6198           	l32i.n	a9, a1, 24
    11b1:	320c           	movi.n	a2, 3
    11b3:	c2a5a0        	quou	a10, a5, a10
    11b6:	0958           	l32i.n	a5, a9, 0
    11b8:	c08280        	sub	a8, a2, a8
    11bb:	118890        	slli	a8, a8, 7
    11be:	55aa           	add.n	a5, a5, a10
    11c0:	215150        	srai	a5, a5, 1
    11c3:	0959           	s32i.n	a5, a9, 0
    11c5:	905550        	addx2	a5, a5, a5
    11c8:	558a           	add.n	a5, a5, a8
    11ca:	42c552        	addi	a5, a5, 66
    11cd:	215250        	srai	a5, a5, 2
    11d0:	012357        	blt	a3, a5, 11d5 <spreading_decision+0x1ad>
    11d3:	f01d           	retw.n

000011d5 <spreading_decision+0x1ad>:
    11d5:	03f5e6        	bgei	a5, 0x100, 11dc <spreading_decision+0x1b4>
    11d8:	220c           	movi.n	a2, 2
    11da:	f01d           	retw.n

000011dc <spreading_decision+0x1b4>:
    11dc:	80a122        	movi	a2, 0x180
    11df:	722520        	salt	a2, a5, a2
    11e2:	f01d           	retw.n

000011e4 <spreading_decision+0x1bc>:
    11e4:	824b           	addi.n	a8, a2, 4
    11e6:	f189           	s32i.n	a8, a1, 60
    11e8:	ffe886        	j	118e <spreading_decision+0x166>

000011eb <spreading_decision+0x1c3>:
    11eb:	020c           	movi.n	a2, 0
    11ed:	f01d           	retw.n

000011ef <spreading_decision+0x1c7>:
	...

000011f0 <deinterleave_hadamard>:
    11f0:	006136        	entry	a1, 48
    11f3:	fbae91        	l32r	a9, ac (14e60 <global_stack>)
    11f6:	2a0c           	movi.n	a10, 2
    11f8:	828340        	mull	a8, a3, a4
    11fb:	0968           	l32i.n	a6, a9, 0
    11fd:	11c8f0        	slli	a12, a8, 1
    1200:	0169           	s32i.n	a6, a1, 0
    1202:	c0aa60        	sub	a10, a10, a6
    1205:	04a0a0        	extui	a10, a10, 0, 1
    1208:	66aa           	add.n	a6, a6, a10
    120a:	908860        	addx2	a8, a8, a6
    120d:	0989           	s32i.n	a8, a9, 0
    120f:	047516        	beqz	a5, 125a <deinterleave_hadamard+0x6a>
    1212:	2f14a6        	blti	a4, 1, 1245 <deinterleave_hadamard+0x55>
    1215:	0e0c           	movi.n	a14, 0
    1217:	fba671        	l32r	a7, b0 (10440 <ordery_table_91>)
    121a:	1154f0        	slli	a5, a4, 1
    121d:	0f0c           	movi.n	a15, 0
    121f:	a07470        	addx4	a7, a4, a7
    1222:	f8c772        	addi	a7, a7, -8

00001225 <deinterleave_hadamard+0x35>:
    1225:	1313a6        	blti	a3, 1, 123c <deinterleave_hadamard+0x4c>
    1228:	07a8           	l32i.n	a10, a7, 0
    122a:	82aa30        	mull	a10, a10, a3
    122d:	8e2a           	add.n	a8, a14, a2
    122f:	90aa60        	addx2	a10, a10, a6
    1232:	06a376        	loopgtz	a3, 123c <deinterleave_hadamard+0x4c>
    1235:	289d           	ae_l16si.n	a9, a8, 0
    1237:	09ca94        	ae_s16ip	a9, a10, 2
    123a:	885a           	add.n	a8, a8, a5

0000123c <deinterleave_hadamard+0x4c>:
    123c:	ee2b           	addi.n	a14, a14, 2
    123e:	774b           	addi.n	a7, a7, 4
    1240:	ff1b           	addi.n	a15, a15, 1
    1242:	df94f7        	bne	a4, a15, 1225 <deinterleave_hadamard+0x35>

00001245 <deinterleave_hadamard+0x55>:
    1245:	fb9781        	l32r	a8, a4 (f6f0 <memcpy>)
    1248:	06bd           	mov.n	a11, a6
    124a:	20a220        	or	a10, a2, a2
    124d:	0008e0        	callx8	a8
    1250:	fb97a1        	l32r	a10, ac (14e60 <global_stack>)
    1253:	0198           	l32i.n	a9, a1, 0
    1255:	0a99           	s32i.n	a9, a10, 0
    1257:	f01d           	retw.n

00001259 <deinterleave_hadamard+0x69>:
	...

0000125a <deinterleave_hadamard+0x6a>:
    125a:	e714a6        	blti	a4, 1, 1245 <deinterleave_hadamard+0x55>
    125d:	1154f0        	slli	a5, a4, 1
    1260:	0f0c           	movi.n	a15, 0
    1262:	070c           	movi.n	a7, 0
    1264:	0e0c           	movi.n	a14, 0
    1266:	11b3f0        	slli	a11, a3, 1
    1269:	11b9           	s32i.n	a11, a1, 4
    126b:	21b9           	s32i.n	a11, a1, 8
    126d:	8e2a           	add.n	a8, a14, a2
    126f:	a76a           	add.n	a10, a7, a6
    1271:	06a376        	loopgtz	a3, 127b <deinterleave_hadamard+0x8b>
    1274:	289d           	ae_l16si.n	a9, a8, 0
    1276:	09ca94        	ae_s16ip	a9, a10, 2
    1279:	885a           	add.n	a8, a8, a5

0000127b <deinterleave_hadamard+0x8b>:
    127b:	ff1b           	addi.n	a15, a15, 1
    127d:	1188           	l32i.n	a8, a1, 4
    127f:	ee2b           	addi.n	a14, a14, 2
    1281:	21d8           	l32i.n	a13, a1, 8
    1283:	778a           	add.n	a7, a7, a8
    1285:	a76a           	add.n	a10, a7, a6
    1287:	dd8a           	add.n	a13, a13, a8
    1289:	21d9           	s32i.n	a13, a1, 8
    128b:	8e2a           	add.n	a8, a14, a2
    128d:	e094f7        	bne	a4, a15, 1271 <deinterleave_hadamard+0x81>
    1290:	ffec46        	j	1245 <deinterleave_hadamard+0x55>

00001293 <deinterleave_hadamard+0xa3>:
	...

00001294 <interleave_hadamard>:
    1294:	008136        	entry	a1, 64
    1297:	fb8591        	l32r	a9, ac (14e60 <global_stack>)
    129a:	828340        	mull	a8, a3, a4
    129d:	2a0c           	movi.n	a10, 2
    129f:	11b8f0        	slli	a11, a8, 1
    12a2:	0978           	l32i.n	a7, a9, 0
    12a4:	51b9           	s32i.n	a11, a1, 20
    12a6:	1179           	s32i.n	a7, a1, 4
    12a8:	c0aa70        	sub	a10, a10, a7
    12ab:	04a0a0        	extui	a10, a10, 0, 1
    12ae:	77aa           	add.n	a7, a7, a10
    12b0:	908870        	addx2	a8, a8, a7
    12b3:	0989           	s32i.n	a8, a9, 0
    12b5:	077516        	beqz	a5, 1330 <interleave_hadamard+0x9c>
    12b8:	5d14a6        	blti	a4, 1, 1319 <interleave_hadamard+0x85>
    12bb:	050c           	movi.n	a5, 0
    12bd:	fb7cc1        	l32r	a12, b0 (10440 <ordery_table_91>)
    12c0:	11f4f0        	slli	a15, a4, 1
    12c3:	060c           	movi.n	a6, 0
    12c5:	a0c4c0        	addx4	a12, a4, a12
    12c8:	f8ccc2        	addi	a12, a12, -8
    12cb:	01c9           	s32i.n	a12, a1, 0

000012cd <interleave_hadamard+0x39>:
    12cd:	3b13a6        	blti	a3, 1, 130c <interleave_hadamard+0x78>
    12d0:	0188           	l32i.n	a8, a1, 0
    12d2:	0888           	l32i.n	a8, a8, 0
    12d4:	a57a           	add.n	a10, a5, a7
    12d6:	828830        	mull	a8, a8, a3
    12d9:	14d030        	extui	a13, a3, 0, 2
    12dc:	908820        	addx2	a8, a8, a2
    12df:	07ad76        	loopgtz	a13, 12ea <interleave_hadamard+0x56>
    12e2:	289d           	ae_l16si.n	a9, a8, 0
    12e4:	6a9d           	ae_s16i.n	a9, a10, 0
    12e6:	882b           	addi.n	a8, a8, 2
    12e8:	aafa           	add.n	a10, a10, a15

000012ea <interleave_hadamard+0x56>:
    12ea:	219230        	srai	a9, a3, 2
    12ed:	1ba976        	loopgtz	a9, 130c <interleave_hadamard+0x78>
    12f0:	289d           	ae_l16si.n	a9, a8, 0
    12f2:	bafa           	add.n	a11, a10, a15
    12f4:	6a9d           	ae_s16i.n	a9, a10, 0
    12f6:	9bfa           	add.n	a9, a11, a15
    12f8:	38ad           	ae_l16si.n	a10, a8, 2
    12fa:	c9fa           	add.n	a12, a9, a15
    12fc:	6bad           	ae_s16i.n	a10, a11, 0
    12fe:	acfa           	add.n	a10, a12, a15
    1300:	0298b2        	l16si	a11, a8, 4
    1303:	69bd           	ae_s16i.n	a11, a9, 0
    1305:	039892        	l16si	a9, a8, 6
    1308:	6c9d           	ae_s16i.n	a9, a12, 0
    130a:	888b           	addi.n	a8, a8, 8

0000130c <interleave_hadamard+0x78>:
    130c:	01a8           	l32i.n	a10, a1, 0
    130e:	552b           	addi.n	a5, a5, 2
    1310:	661b           	addi.n	a6, a6, 1
    1312:	aa4b           	addi.n	a10, a10, 4
    1314:	01a9           	s32i.n	a10, a1, 0
    1316:	b39467        	bne	a4, a6, 12cd <interleave_hadamard+0x39>

00001319 <interleave_hadamard+0x85>:
    1319:	07bd           	mov.n	a11, a7
    131b:	fb6281        	l32r	a8, a4 (f6f0 <memcpy>)
    131e:	02ad           	mov.n	a10, a2
    1320:	51c8           	l32i.n	a12, a1, 20
    1322:	0008e0        	callx8	a8
    1325:	fb61a1        	l32r	a10, ac (14e60 <global_stack>)
    1328:	1198           	l32i.n	a9, a1, 4
    132a:	0a99           	s32i.n	a9, a10, 0
    132c:	f01d           	retw.n

0000132e <interleave_hadamard+0x9a>:
	...

00001330 <interleave_hadamard+0x9c>:
    1330:	e514a6        	blti	a4, 1, 1319 <interleave_hadamard+0x85>
    1333:	050c           	movi.n	a5, 0
    1335:	11f4f0        	slli	a15, a4, 1
    1338:	060c           	movi.n	a6, 0
    133a:	90b320        	addx2	a11, a3, a2
    133d:	11c3f0        	slli	a12, a3, 1
    1340:	0d0c           	movi.n	a13, 0
    1342:	41d9           	s32i.n	a13, a1, 16
    1344:	21c9           	s32i.n	a12, a1, 8
    1346:	31b9           	s32i.n	a11, a1, 12

00001348 <interleave_hadamard+0xb4>:
    1348:	661b           	addi.n	a6, a6, 1
    134a:	3713a6        	blti	a3, 1, 1385 <interleave_hadamard+0xf1>
    134d:	4188           	l32i.n	a8, a1, 16
    134f:	a57a           	add.n	a10, a5, a7
    1351:	14e030        	extui	a14, a3, 0, 2
    1354:	882a           	add.n	a8, a8, a2
    1356:	07ae76        	loopgtz	a14, 1361 <interleave_hadamard+0xcd>
    1359:	289d           	ae_l16si.n	a9, a8, 0
    135b:	6a9d           	ae_s16i.n	a9, a10, 0
    135d:	882b           	addi.n	a8, a8, 2
    135f:	aafa           	add.n	a10, a10, a15

00001361 <interleave_hadamard+0xcd>:
    1361:	219230        	srai	a9, a3, 2
    1364:	f03d           	nop.n
    1366:	1ba976        	loopgtz	a9, 1385 <interleave_hadamard+0xf1>
    1369:	289d           	ae_l16si.n	a9, a8, 0
    136b:	bafa           	add.n	a11, a10, a15
    136d:	6a9d           	ae_s16i.n	a9, a10, 0
    136f:	9bfa           	add.n	a9, a11, a15
    1371:	38ad           	ae_l16si.n	a10, a8, 2
    1373:	c9fa           	add.n	a12, a9, a15
    1375:	6bad           	ae_s16i.n	a10, a11, 0
    1377:	acfa           	add.n	a10, a12, a15
    1379:	0298b2        	l16si	a11, a8, 4
    137c:	69bd           	ae_s16i.n	a11, a9, 0
    137e:	039892        	l16si	a9, a8, 6
    1381:	6c9d           	ae_s16i.n	a9, a12, 0
    1383:	888b           	addi.n	a8, a8, 8

00001385 <interleave_hadamard+0xf1>:
    1385:	21b8           	l32i.n	a11, a1, 8
    1387:	31a8           	l32i.n	a10, a1, 12
    1389:	41c8           	l32i.n	a12, a1, 16
    138b:	552b           	addi.n	a5, a5, 2
    138d:	aaba           	add.n	a10, a10, a11
    138f:	ccba           	add.n	a12, a12, a11
    1391:	41c9           	s32i.n	a12, a1, 16
    1393:	31a9           	s32i.n	a10, a1, 12
    1395:	af9467        	bne	a4, a6, 1348 <interleave_hadamard+0xb4>
    1398:	ffdf46        	j	1319 <interleave_hadamard+0x85>

0000139b <interleave_hadamard+0x107>:
	...

0000139c <haar1>:
    139c:	004136        	entry	a1, 32
    139f:	02fd           	mov.n	a15, a2
    13a1:	04dd           	mov.n	a13, a4
    13a3:	0214e6        	bgei	a4, 1, 13a9 <haar1+0xd>
    13a6:	0025c6        	j	1441 <haar1+0xa5>
    13a9:	21e130        	srai	a14, a3, 1
    13ac:	00a0c2        	movi	a12, 0
    13af:	00a0b2        	movi	a11, 0
    13b2:	1194f0        	slli	a9, a4, 1
    13b5:	1199f0        	slli	a9, a9, 1

000013b8 <haar1+0x1c>:
    13b8:	7b1ea6        	blti	a14, 1, 1437 <haar1+0x9b>
    13bb:	fb36a1        	l32r	a10, 94 (5a82 <celt_encode_with_ec+0xe1a>)
    13be:	4cfa           	add.n	a4, a12, a15
    13c0:	2dba           	add.n	a2, a13, a11
    13c2:	9022f0        	addx2	a2, a2, a15
    13c5:	226e07        	bbci	a14, 0, 13eb <haar1+0x4f>
    13c8:	226d           	ae_l16si.n	a6, a2, 0
    13ca:	245d           	ae_l16si.n	a5, a4, 0
    13cc:	d166a0        	mul16s	a6, a6, a10
    13cf:	d155a0        	mul16s	a5, a5, a10
    13d2:	c03560        	sub	a3, a5, a6
    13d5:	40d332        	addmi	a3, a3, 0x4000
    13d8:	556a           	add.n	a5, a5, a6
    13da:	40d552        	addmi	a5, a5, 0x4000
    13dd:	213f30        	srai	a3, a3, 15
    13e0:	215f50        	srai	a5, a5, 15
    13e3:	645d           	ae_s16i.n	a5, a4, 0
    13e5:	449a           	add.n	a4, a4, a9
    13e7:	623d           	ae_s16i.n	a3, a2, 0
    13e9:	229a           	add.n	a2, a2, a9

000013eb <haar1+0x4f>:
    13eb:	2131e0        	srai	a3, a14, 1
    13ee:	45a376        	loopgtz	a3, 1437 <haar1+0x9b>
    13f1:	223d           	ae_l16si.n	a3, a2, 0
    13f3:	245d           	ae_l16si.n	a5, a4, 0
    13f5:	749a           	add.n	a7, a4, a9
    13f7:	d133a0        	mul16s	a3, a3, a10
    13fa:	d155a0        	mul16s	a5, a5, a10
    13fd:	829a           	add.n	a8, a2, a9
    13ff:	c06530        	sub	a6, a5, a3
    1402:	353a           	add.n	a3, a5, a3
    1404:	40d332        	addmi	a3, a3, 0x4000
    1407:	40d652        	addmi	a5, a6, 0x4000
    140a:	213f30        	srai	a3, a3, 15
    140d:	215f50        	srai	a5, a5, 15
    1410:	643d           	ae_s16i.n	a3, a4, 0
    1412:	625d           	ae_s16i.n	a5, a2, 0
    1414:	283d           	ae_l16si.n	a3, a8, 0
    1416:	275d           	ae_l16si.n	a5, a7, 0
    1418:	479a           	add.n	a4, a7, a9
    141a:	d133a0        	mul16s	a3, a3, a10
    141d:	d155a0        	mul16s	a5, a5, a10
    1420:	289a           	add.n	a2, a8, a9
    1422:	c06530        	sub	a6, a5, a3
    1425:	353a           	add.n	a3, a5, a3
    1427:	40d332        	addmi	a3, a3, 0x4000
    142a:	40d652        	addmi	a5, a6, 0x4000
    142d:	213f30        	srai	a3, a3, 15
    1430:	215f50        	srai	a5, a5, 15
    1433:	673d           	ae_s16i.n	a3, a7, 0
    1435:	685d           	ae_s16i.n	a5, a8, 0

00001437 <haar1+0x9b>:
    1437:	cc2b           	addi.n	a12, a12, 2
    1439:	bb1b           	addi.n	a11, a11, 1
    143b:	c08db0        	sub	a8, a13, a11
    143e:	f76856        	bnez	a8, 13b8 <haar1+0x1c>

00001441 <haar1+0xa5>:
    1441:	f01d           	retw.n

00001443 <haar1+0xa7>:
	...

00001444 <compute_theta>:
    1444:	00c136        	entry	a1, 96
    1447:	0a4c           	movi.n	a10, 64
    1449:	02fd           	mov.n	a15, a2
    144b:	b179           	s32i.n	a7, a1, 44
    144d:	03cd           	mov.n	a12, a3
    144f:	04bd           	mov.n	a11, a4
    1451:	059d           	mov.n	a9, a5
    1453:	3199           	s32i.n	a9, a1, 12
    1455:	41b9           	s32i.n	a11, a1, 16
    1457:	51c9           	s32i.n	a12, a1, 20
    1459:	1b2172        	l32i	a7, a1, 108
    145c:	1a2142        	l32i	a4, a1, 104
    145f:	062d           	mov.n	a2, a6
    1461:	1f88           	l32i.n	a8, a15, 4
    1463:	8189           	s32i.n	a8, a1, 32
    1465:	2f68           	l32i.n	a6, a15, 8
    1467:	c888           	l32i.n	a8, a8, 48
    1469:	8fd8           	l32i.n	a13, a15, 32
    146b:	0f58           	l32i.n	a5, a15, 0
    146d:	908680        	addx2	a8, a6, a8
    1470:	288d           	ae_l16si.n	a8, a8, 0
    1472:	6f38           	l32i.n	a3, a15, 24
    1474:	91d9           	s32i.n	a13, a1, 36
    1476:	b04480        	addx8	a4, a4, a8
    1479:	005716        	beqz	a7, 1482 <compute_theta+0x3e>
    147c:	fec282        	addi	a8, a2, -2
    147f:	0d3816        	beqz	a8, 1556 <compute_theta+0x112>
    1482:	4b0c           	movi.n	a11, 4
    1484:	b1e8           	l32i.n	a14, a1, 44
    1486:	11c2f0        	slli	a12, a2, 1
    1489:	9c0b           	addi.n	a9, a12, -1
    148b:	0ee8           	l32i.n	a14, a14, 0
    148d:	778c           	beqz.n	a7, 1498 <compute_theta+0x54>
    148f:	fec2d2        	addi	a13, a2, -2
    1492:	fecc82        	addi	a8, a12, -2
    1495:	8398d0        	moveqz	a9, a8, a13
    1498:	c0de40        	sub	a13, a14, a4
    149b:	21c140        	srai	a12, a4, 1
    149e:	fccc82        	addi	a8, a12, -4
    14a1:	828980        	mull	a8, a9, a8
    14a4:	e0cd42        	addi	a4, a13, -32
    14a7:	8e8a           	add.n	a8, a14, a8
    14a9:	d28890        	quos	a8, a8, a9
    14ac:	438480        	min	a8, a4, a8
    14af:	4388a0        	min	a8, a8, a10
    14b2:	0248e6        	bgei	a8, 4, 14b8 <compute_theta+0x74>
    14b5:	003246        	j	1582 <compute_theta+0x13e>

000014b8 <compute_theta+0x74>:
    14b8:	c0dcb0        	sub	a13, a12, a11
    14bb:	82d9d0        	mull	a13, a9, a13
    14be:	fafd81        	l32r	a8, b4 (14c40 <exp2_table8$9801..0_118>)
    14c1:	deda           	add.n	a13, a14, a13
    14c3:	d2dd90        	quos	a13, a13, a9
    14c6:	43d4d0        	min	a13, a4, a13
    14c9:	43dda0        	min	a13, a13, a10
    14cc:	2440d0        	extui	a4, a13, 0, 3
    14cf:	21d3d0        	srai	a13, a13, 3
    14d2:	904480        	addx2	a4, a4, a8
    14d5:	244d           	ae_l16si.n	a4, a4, 0
    14d7:	e80c           	movi.n	a8, 14
    14d9:	c088d0        	sub	a8, a8, a13
    14dc:	400800        	ssr	a8
    14df:	e87c           	movi.n	a8, -2
    14e1:	b14040        	sra	a4, a4
    14e4:	441b           	addi.n	a4, a4, 1
    14e6:	104480        	and	a4, a4, a8

000014e9 <compute_theta+0xa5>:
    14e9:	7169           	s32i.n	a6, a1, 28
    14eb:	578c           	beqz.n	a7, 14f4 <compute_theta+0xb0>
    14ed:	3fe8           	l32i.n	a14, a15, 12
    14ef:	0126e7        	blt	a6, a14, 14f4 <compute_theta+0xb0>
    14f2:	140c           	movi.n	a4, 1
    14f4:	859c           	beqz.n	a5, 1510 <compute_theta+0xcc>
    14f6:	61f9           	s32i.n	a15, a1, 24
    14f8:	41a8           	l32i.n	a10, a1, 16
    14fa:	31b8           	l32i.n	a11, a1, 12
    14fc:	07cd           	mov.n	a12, a7
    14fe:	02dd           	mov.n	a13, a2
    1500:	faee81        	l32r	a8, b8 (f458 <stereo_itheta>)
    1503:	afe8           	l32i.n	a14, a15, 40
    1505:	7169           	s32i.n	a6, a1, 28
    1507:	0008e0        	callx8	a8
    150a:	0a6d           	mov.n	a6, a10
    150c:	000106        	j	1514 <compute_theta+0xd0>

0000150f <compute_theta+0xcb>:
	...

00001510 <compute_theta+0xcc>:
    1510:	060c           	movi.n	a6, 0
    1512:	61f9           	s32i.n	a15, a1, 24

00001514 <compute_theta+0xd0>:
    1514:	faea81        	l32r	a8, bc (a140 <ec_tell_frac>)
    1517:	03ad           	mov.n	a10, a3
    1519:	0008e0        	callx8	a8
    151c:	a1a9           	s32i.n	a10, a1, 40
    151e:	940b           	addi.n	a9, a4, -1
    1520:	1c4916        	beqz	a9, 16e8 <compute_theta+0x2a4>
    1523:	82a460        	mull	a10, a4, a6
    1526:	1921f2        	l32i	a15, a1, 100
    1529:	20daa2        	addmi	a10, a10, 0x2000
    152c:	21aea0        	srai	a10, a10, 14
    152f:	936a50        	movnez	a6, a10, a5
    1532:	052716        	beqz	a7, 1588 <compute_theta+0x144>
    1535:	4f32a6        	blti	a2, 3, 1588 <compute_theta+0x144>
    1538:	f41b           	addi.n	a15, a4, 1
    153a:	b3f440        	movgez	a15, a4, a4
    153d:	21f1f0        	srai	a15, a15, 1
    1540:	11efe0        	slli	a14, a15, 2
    1543:	ee3b           	addi.n	a14, a14, 3
    1545:	2af516        	beqz	a5, 17f8 <compute_theta+0x3b4>
    1548:	02af67        	bge	a15, a6, 154e <compute_theta+0x10a>
    154b:	005ec6        	j	16ca <compute_theta+0x286>
    154e:	90b660        	addx2	a11, a6, a6
    1551:	cb3b           	addi.n	a12, a11, 3
    1553:	005e86        	j	16d1 <compute_theta+0x28d>

00001556 <compute_theta+0x112>:
    1556:	0b1c           	movi.n	a11, 16
    1558:	1192f0        	slli	a9, a2, 1
    155b:	b1e8           	l32i.n	a14, a1, 44
    155d:	21c140        	srai	a12, a4, 1
    1560:	f0cc82        	addi	a8, a12, -16
    1563:	0ee8           	l32i.n	a14, a14, 0
    1565:	fec992        	addi	a9, a9, -2
    1568:	828980        	mull	a8, a9, a8
    156b:	c04e40        	sub	a4, a14, a4
    156e:	e0c442        	addi	a4, a4, -32
    1571:	8e8a           	add.n	a8, a14, a8
    1573:	d28890        	quos	a8, a8, a9
    1576:	438480        	min	a8, a4, a8
    1579:	4388a0        	min	a8, a8, a10
    157c:	0248a6        	blti	a8, 4, 1582 <compute_theta+0x13e>
    157f:	ffcd46        	j	14b8 <compute_theta+0x74>

00001582 <compute_theta+0x13e>:
    1582:	140c           	movi.n	a4, 1
    1584:	ffd846        	j	14e9 <compute_theta+0xa5>

00001587 <compute_theta+0x143>:
	...

00001588 <compute_theta+0x144>:
    1588:	022fe6        	bgei	a15, 2, 158e <compute_theta+0x14a>
    158b:	229716        	beqz	a7, 17b8 <compute_theta+0x374>

0000158e <compute_theta+0x14a>:
    158e:	c41b           	addi.n	a12, a4, 1
    1590:	1e8516        	beqz	a5, 177c <compute_theta+0x338>
    1593:	facb81        	l32r	a8, c0 (a4a0 <ec_enc_uint>)
    1596:	03ad           	mov.n	a10, a3
    1598:	06bd           	mov.n	a11, a6
    159a:	0008e0        	callx8	a8

0000159d <compute_theta+0x159>:
    159d:	116620        	slli	a6, a6, 14
    15a0:	c26640        	quou	a6, a6, a4
    15a3:	c58c           	beqz.n	a5, 15b3 <compute_theta+0x16f>

000015a5 <compute_theta+0x161>:
    15a5:	a78c           	beqz.n	a7, 15b3 <compute_theta+0x16f>
    15a7:	1bf616        	beqz	a6, 176a <compute_theta+0x326>
    15aa:	41a8           	l32i.n	a10, a1, 16
    15ac:	31b8           	l32i.n	a11, a1, 12
    15ae:	02cd           	mov.n	a12, a2
    15b0:	ff84e5        	call8	e00 <stereo_split>

000015b3 <compute_theta+0x16f>:
    15b3:	070c           	movi.n	a7, 0

000015b5 <compute_theta+0x171>:
    15b5:	fac181        	l32r	a8, bc (a140 <ec_tell_frac>)
    15b8:	03ad           	mov.n	a10, a3
    15ba:	0008e0        	callx8	a8
    15bd:	b1b8           	l32i.n	a11, a1, 44
    15bf:	a198           	l32i.n	a9, a1, 40
    15c1:	0bc8           	l32i.n	a12, a11, 0
    15c3:	1d0c           	movi.n	a13, 1
    15c5:	c09a90        	sub	a9, a10, a9
    15c8:	c0ac90        	sub	a10, a12, a9
    15cb:	0ba9           	s32i.n	a10, a11, 0
    15cd:	1ba616        	beqz	a6, 178b <compute_theta+0x347>
    15d0:	fabda1        	l32r	a10, c4 (4000 <dynalloc_analysis+0x48>)
    15d3:	c0d6b2        	addmi	a11, a6, 0xffffc000
    15d6:	163b16        	beqz	a11, 173d <compute_theta+0x2f9>
    15d9:	fabbc1        	l32r	a12, c8 (ffffe21d <_end+0xfffe93b9>)
    15dc:	8eadf2        	movi	a15, 0xfffffd8e
    15df:	51d8           	l32i.n	a13, a1, 20
    15e1:	d18660        	mul16s	a8, a6, a6
    15e4:	c0ba60        	sub	a11, a10, a6
    15e7:	d1bbb0        	mul16s	a11, a11, a11
    15ea:	10d882        	addmi	a8, a8, 0x1000
    15ed:	0d79           	s32i.n	a7, a13, 0
    15ef:	5d99           	s32i.n	a9, a13, 20
    15f1:	218d80        	srai	a8, a8, 13
    15f4:	10dbb2        	addmi	a11, a11, 0x1000
    15f7:	21bdb0        	srai	a11, a11, 13
    15fa:	d1ebf0        	mul16s	a14, a11, a15
    15fd:	d1f8f0        	mul16s	a15, a8, a15
    1600:	40dee2        	addmi	a14, a14, 0x4000
    1603:	40dff2        	addmi	a15, a15, 0x4000
    1606:	21efe0        	srai	a14, a14, 15
    1609:	20dee2        	addmi	a14, a14, 0x2000
    160c:	21fff0        	srai	a15, a15, 15
    160f:	20dff2        	addmi	a15, a15, 0x2000
    1612:	55cee2        	addi	a14, a14, 85
    1615:	d1ebe0        	mul16s	a14, a11, a14
    1618:	55cff2        	addi	a15, a15, 85
    161b:	d1f8f0        	mul16s	a15, a8, a15
    161e:	40dee2        	addmi	a14, a14, 0x4000
    1621:	21efe0        	srai	a14, a14, 15
    1624:	40dff2        	addmi	a15, a15, 0x4000
    1627:	21fff0        	srai	a15, a15, 15
    162a:	eeca           	add.n	a14, a14, a12
    162c:	d1ebe0        	mul16s	a14, a11, a14
    162f:	ffca           	add.n	a15, a15, a12
    1631:	8bbd           	ae_sext16	a11, a11
    1633:	d1f8f0        	mul16s	a15, a8, a15
    1636:	40dee2        	addmi	a14, a14, 0x4000
    1639:	888d           	ae_sext16	a8, a8
    163b:	40dff2        	addmi	a15, a15, 0x4000
    163e:	21fff0        	srai	a15, a15, 15
    1641:	c0ff80        	sub	a15, a15, a8
    1644:	fa8f81        	l32r	a8, 80 (8000 <celt_decode_with_ec+0x9c>)
    1647:	21efe0        	srai	a14, a14, 15
    164a:	c0eeb0        	sub	a14, a14, a11
    164d:	ff8a           	add.n	a15, a15, a8
    164f:	fa8a81        	l32r	a8, 78 (7fff <celt_decode_with_ec+0x9b>)
    1652:	8ffd           	ae_sext16	a15, a15
    1654:	1df9           	s32i.n	a15, a13, 4
    1656:	ee8a           	add.n	a14, a14, a8
    1658:	40ff80        	nsau	a8, a15
    165b:	8eed           	ae_sext16	a14, a14
    165d:	ee1b           	addi.n	a14, a14, 1
    165f:	efc8b2        	addi	a11, a8, -17
    1662:	401b00        	ssl	a11
    1665:	a1ff00        	sll	a15, a15
    1668:	8ebd           	ae_sext16	a11, a14
    166a:	2db9           	s32i.n	a11, a13, 8
    166c:	40fbc0        	nsau	a12, a11
    166f:	c088c0        	sub	a8, a8, a12
    1672:	118850        	slli	a8, a8, 11
    1675:	fa95b1        	l32r	a11, cc (fffff5db <_end+0xfffea777>)
    1678:	efccc2        	addi	a12, a12, -17
    167b:	401c00        	ssl	a12
    167e:	a1ee00        	sll	a14, a14
    1681:	d1cfb0        	mul16s	a12, a15, a11
    1684:	d1beb0        	mul16s	a11, a14, a11
    1687:	40dcc2        	addmi	a12, a12, 0x4000
    168a:	40dbb2        	addmi	a11, a11, 0x4000
    168d:	21cfc0        	srai	a12, a12, 15
    1690:	1fdcc2        	addmi	a12, a12, 0x1f00
    1693:	21bfb0        	srai	a11, a11, 15
    1696:	1fdbb2        	addmi	a11, a11, 0x1f00
    1699:	fcccc2        	addi	a12, a12, -4
    169c:	d1ffc0        	mul16s	a15, a15, a12
    169f:	fccbb2        	addi	a11, a11, -4
    16a2:	d1eeb0        	mul16s	a14, a14, a11
    16a5:	c20b           	addi.n	a12, a2, -1
    16a7:	11cc90        	slli	a12, a12, 7
    16aa:	40dff2        	addmi	a15, a15, 0x4000
    16ad:	21fff0        	srai	a15, a15, 15
    16b0:	40dee2        	addmi	a14, a14, 0x4000
    16b3:	21efe0        	srai	a14, a14, 15
    16b6:	ee8a           	add.n	a14, a14, a8
    16b8:	c0eef0        	sub	a14, a14, a15
    16bb:	d1cce0        	mul16s	a12, a12, a14
    16be:	4d69           	s32i.n	a6, a13, 16
    16c0:	40dcc2        	addmi	a12, a12, 0x4000
    16c3:	21cfc0        	srai	a12, a12, 15
    16c6:	3dc9           	s32i.n	a12, a13, 12
    16c8:	f01d           	retw.n

000016ca <compute_theta+0x286>:
    16ca:	90cf60        	addx2	a12, a15, a6
    16cd:	bc2b           	addi.n	a11, a12, 2
    16cf:	cc3b           	addi.n	a12, a12, 3

000016d1 <compute_theta+0x28d>:
    16d1:	fa7f81        	l32r	a8, d0 (a25c <ec_encode>)
    16d4:	0edd           	mov.n	a13, a14
    16d6:	03ad           	mov.n	a10, a3
    16d8:	0008e0        	callx8	a8

000016db <compute_theta+0x297>:
    16db:	116620        	slli	a6, a6, 14
    16de:	c26640        	quou	a6, a6, a4
    16e1:	ec0556        	bnez	a5, 15a5 <compute_theta+0x161>
    16e4:	ffb2c6        	j	15b3 <compute_theta+0x16f>

000016e7 <compute_theta+0x2a3>:
	...

000016e8 <compute_theta+0x2a4>:
    16e8:	ec7716        	beqz	a7, 15b3 <compute_theta+0x16f>
    16eb:	104516        	beqz	a5, 17f3 <compute_theta+0x3af>
    16ee:	fa7981        	l32r	a8, d4 (2000 <quant_band_stereo+0x78>)
    16f1:	727860        	salt	a7, a8, a6
    16f4:	0ca867        	bge	a8, a6, 1704 <compute_theta+0x2c0>
    16f7:	3188           	l32i.n	a8, a1, 12
    16f9:	07a276        	loopgtz	a2, 1704 <compute_theta+0x2c0>
    16fc:	289d           	ae_l16si.n	a9, a8, 0
    16fe:	609090        	neg	a9, a9
    1701:	09c894        	ae_s16ip	a9, a8, 2
    1704:	81a8           	l32i.n	a10, a1, 32
    1706:	41b8           	l32i.n	a11, a1, 16
    1708:	31c8           	l32i.n	a12, a1, 12
    170a:	91d8           	l32i.n	a13, a1, 36
    170c:	71e8           	l32i.n	a14, a1, 28
    170e:	02fd           	mov.n	a15, a2
    1710:	ff6365        	call8	d48 <intensity_stereo>

00001713 <compute_theta+0x2cf>:
    1713:	b198           	l32i.n	a9, a1, 44
    1715:	0998           	l32i.n	a9, a9, 0
    1717:	0b1c           	movi.n	a11, 16
    1719:	19ab97        	bge	a11, a9, 1736 <compute_theta+0x2f2>
    171c:	61a8           	l32i.n	a10, a1, 24
    171e:	7aa8           	l32i.n	a10, a10, 28
    1720:	12aba7        	bge	a11, a10, 1736 <compute_theta+0x2f2>
    1723:	125516        	beqz	a5, 184c <compute_theta+0x408>
    1726:	03ad           	mov.n	a10, a3
    1728:	fa6c81        	l32r	a8, d8 (a434 <ec_enc_bit_logp>)
    172b:	07bd           	mov.n	a11, a7
    172d:	2c0c           	movi.n	a12, 2
    172f:	0008e0        	callx8	a8
    1732:	000086        	j	1738 <compute_theta+0x2f4>

00001735 <compute_theta+0x2f1>:
	...

00001736 <compute_theta+0x2f2>:
    1736:	070c           	movi.n	a7, 0

00001738 <compute_theta+0x2f4>:
    1738:	060c           	movi.n	a6, 0
    173a:	ff9dc6        	j	15b5 <compute_theta+0x171>

0000173d <compute_theta+0x2f9>:
    173d:	1c2182        	l32i	a8, a1, 112
    1740:	1821c2        	l32i	a12, a1, 96
    1743:	0e0c           	movi.n	a14, 0
    1745:	08f8           	l32i.n	a15, a8, 0
    1747:	401c00        	ssl	a12
    174a:	a1bd00        	sll	a11, a13
    174d:	51c8           	l32i.n	a12, a1, 20
    174f:	bb0b           	addi.n	a11, a11, -1
    1751:	a1bb00        	sll	a11, a11
    1754:	10ffb0        	and	a15, a15, a11
    1757:	fa48b1        	l32r	a11, 78 (7fff <celt_decode_with_ec+0x9b>)
    175a:	08f9           	s32i.n	a15, a8, 0
    175c:	0c79           	s32i.n	a7, a12, 0
    175e:	3ca9           	s32i.n	a10, a12, 12
    1760:	4c69           	s32i.n	a6, a12, 16
    1762:	5c99           	s32i.n	a9, a12, 20
    1764:	1ce9           	s32i.n	a14, a12, 4
    1766:	2cb9           	s32i.n	a11, a12, 8
    1768:	f01d           	retw.n

0000176a <compute_theta+0x326>:
    176a:	81a8           	l32i.n	a10, a1, 32
    176c:	41b8           	l32i.n	a11, a1, 16
    176e:	31c8           	l32i.n	a12, a1, 12
    1770:	91d8           	l32i.n	a13, a1, 36
    1772:	71e8           	l32i.n	a14, a1, 28
    1774:	02fd           	mov.n	a15, a2
    1776:	ff5d25        	call8	d48 <intensity_stereo>
    1779:	ff8d86        	j	15b3 <compute_theta+0x16f>

0000177c <compute_theta+0x338>:
    177c:	fa5881        	l32r	a8, dc (aad4 <ec_dec_uint>)
    177f:	0cbd           	mov.n	a11, a12
    1781:	03ad           	mov.n	a10, a3
    1783:	0008e0        	callx8	a8
    1786:	0a6d           	mov.n	a6, a10
    1788:	ff8446        	j	159d <compute_theta+0x159>

0000178b <compute_theta+0x347>:
    178b:	0c0c           	movi.n	a12, 0
    178d:	1c2182        	l32i	a8, a1, 112
    1790:	1821b2        	l32i	a11, a1, 96
    1793:	fa39e1        	l32r	a14, 78 (7fff <celt_decode_with_ec+0x9b>)
    1796:	08f8           	l32i.n	a15, a8, 0
    1798:	401b00        	ssl	a11
    179b:	a1ad00        	sll	a10, a13
    179e:	51b8           	l32i.n	a11, a1, 20
    17a0:	aa0b           	addi.n	a10, a10, -1
    17a2:	10ffa0        	and	a15, a15, a10
    17a5:	fa4ea1        	l32r	a10, e0 (ffffc000 <_end+0xfffe719c>)
    17a8:	08f9           	s32i.n	a15, a8, 0
    17aa:	0b79           	s32i.n	a7, a11, 0
    17ac:	4b69           	s32i.n	a6, a11, 16
    17ae:	5b99           	s32i.n	a9, a11, 20
    17b0:	1be9           	s32i.n	a14, a11, 4
    17b2:	2bc9           	s32i.n	a12, a11, 8
    17b4:	3ba9           	s32i.n	a10, a11, 12
    17b6:	f01d           	retw.n

000017b8 <compute_theta+0x374>:
    17b8:	21e140        	srai	a14, a4, 1
    17bb:	fe1b           	addi.n	a15, a14, 1
    17bd:	11f9           	s32i.n	a15, a1, 4
    17bf:	82fff0        	mull	a15, a15, a15
    17c2:	096516        	beqz	a5, 185c <compute_theta+0x418>
    17c5:	0b2e67        	blt	a14, a6, 17d4 <compute_theta+0x390>
    17c8:	e61b           	addi.n	a14, a6, 1
    17ca:	82be60        	mull	a11, a14, a6
    17cd:	21b1b0        	srai	a11, a11, 1
    17d0:	000406        	j	17e4 <compute_theta+0x3a0>

000017d3 <compute_theta+0x38f>:
	...

000017d4 <compute_theta+0x390>:
    17d4:	c0e460        	sub	a14, a4, a6
    17d7:	be2b           	addi.n	a11, a14, 2
    17d9:	ee1b           	addi.n	a14, a14, 1
    17db:	82beb0        	mull	a11, a14, a11
    17de:	21b1b0        	srai	a11, a11, 1
    17e1:	c0bfb0        	sub	a11, a15, a11

000017e4 <compute_theta+0x3a0>:
    17e4:	0fdd           	mov.n	a13, a15
    17e6:	fa3a81        	l32r	a8, d0 (a25c <ec_encode>)
    17e9:	ceba           	add.n	a12, a14, a11
    17eb:	03ad           	mov.n	a10, a3
    17ed:	0008e0        	callx8	a8
    17f0:	ff6a46        	j	159d <compute_theta+0x159>

000017f3 <compute_theta+0x3af>:
    17f3:	070c           	movi.n	a7, 0
    17f5:	ffc686        	j	1713 <compute_theta+0x2cf>

000017f8 <compute_theta+0x3b4>:
    17f8:	d1f9           	s32i.n	a15, a1, 52
    17fa:	03ad           	mov.n	a10, a3
    17fc:	fa3a81        	l32r	a8, e4 (a8e0 <ec_decode>)
    17ff:	0e6d           	mov.n	a6, a14
    1801:	0ebd           	mov.n	a11, a14
    1803:	0008e0        	callx8	a8
    1806:	d1f8           	l32i.n	a15, a1, 52
    1808:	90eff0        	addx2	a14, a15, a15
    180b:	9e3b           	addi.n	a9, a14, 3
    180d:	24aa97        	bge	a10, a9, 1835 <compute_theta+0x3f1>
    1810:	3b0c           	movi.n	a11, 3
    1812:	d2bab0        	quos	a11, a10, a11
    1815:	21b9           	s32i.n	a11, a1, 8
    1817:	27afb7        	bge	a15, a11, 1842 <compute_theta+0x3fe>

0000181a <compute_theta+0x3d6>:
    181a:	21c8           	l32i.n	a12, a1, 8
    181c:	c0ccf0        	sub	a12, a12, a15
    181f:	ceca           	add.n	a12, a14, a12
    1821:	bc2b           	addi.n	a11, a12, 2
    1823:	cc3b           	addi.n	a12, a12, 3

00001825 <compute_theta+0x3e1>:
    1825:	fa3081        	l32r	a8, e8 (a93c <ec_dec_update>)
    1828:	06dd           	mov.n	a13, a6
    182a:	20a330        	or	a10, a3, a3
    182d:	0008e0        	callx8	a8
    1830:	2168           	l32i.n	a6, a1, 8
    1832:	ffa946        	j	16db <compute_theta+0x297>

00001835 <compute_theta+0x3f1>:
    1835:	c09ae0        	sub	a9, a10, a14
    1838:	9f9a           	add.n	a9, a15, a9
    183a:	fec992        	addi	a9, a9, -2
    183d:	2199           	s32i.n	a9, a1, 8
    183f:	d72f97        	blt	a15, a9, 181a <compute_theta+0x3d6>

00001842 <compute_theta+0x3fe>:
    1842:	21b8           	l32i.n	a11, a1, 8
    1844:	90bbb0        	addx2	a11, a11, a11
    1847:	cb3b           	addi.n	a12, a11, 3
    1849:	fff606        	j	1825 <compute_theta+0x3e1>

0000184c <compute_theta+0x408>:
    184c:	fa2881        	l32r	a8, ec (a9c0 <ec_dec_bit_logp>)
    184f:	03ad           	mov.n	a10, a3
    1851:	2b0c           	movi.n	a11, 2
    1853:	0008e0        	callx8	a8
    1856:	0a7d           	mov.n	a7, a10
    1858:	ffb706        	j	1738 <compute_theta+0x2f4>

0000185b <compute_theta+0x417>:
	...

0000185c <compute_theta+0x418>:
    185c:	01f9           	s32i.n	a15, a1, 0
    185e:	0e6d           	mov.n	a6, a14
    1860:	fa2181        	l32r	a8, e4 (a8e0 <ec_decode>)
    1863:	03ad           	mov.n	a10, a3
    1865:	0fbd           	mov.n	a11, a15
    1867:	0008e0        	callx8	a8
    186a:	1198           	l32i.n	a9, a1, 4
    186c:	829690        	mull	a9, a6, a9
    186f:	219190        	srai	a9, a9, 1
    1872:	1caa97        	bge	a10, a9, 1892 <compute_theta+0x44e>
    1875:	fa1e81        	l32r	a8, f0 (b7d0 <isqrt32>)
    1878:	190c           	movi.n	a9, 1
    187a:	b0aa90        	addx8	a10, a10, a9
    187d:	0008e0        	callx8	a8
    1880:	6a0b           	addi.n	a6, a10, -1
    1882:	416160        	srli	a6, a6, 1
    1885:	e61b           	addi.n	a14, a6, 1
    1887:	82be60        	mull	a11, a14, a6
    188a:	01f8           	l32i.n	a15, a1, 0
    188c:	21b1b0        	srai	a11, a11, 1
    188f:	000a86        	j	18bd <compute_theta+0x479>

00001892 <compute_theta+0x44e>:
    1892:	01b8           	l32i.n	a11, a1, 0
    1894:	fa1781        	l32r	a8, f0 (b7d0 <isqrt32>)
    1897:	c0aba0        	sub	a10, a11, a10
    189a:	11aad0        	slli	a10, a10, 3
    189d:	f9caa2        	addi	a10, a10, -7
    18a0:	0008e0        	callx8	a8
    18a3:	01f8           	l32i.n	a15, a1, 0
    18a5:	d064a0        	subx2	a6, a4, a10
    18a8:	662b           	addi.n	a6, a6, 2
    18aa:	416160        	srli	a6, a6, 1
    18ad:	c0e460        	sub	a14, a4, a6
    18b0:	be2b           	addi.n	a11, a14, 2
    18b2:	ee1b           	addi.n	a14, a14, 1
    18b4:	82beb0        	mull	a11, a14, a11
    18b7:	21b1b0        	srai	a11, a11, 1
    18ba:	c0bfb0        	sub	a11, a15, a11

000018bd <compute_theta+0x479>:
    18bd:	0fdd           	mov.n	a13, a15
    18bf:	fa0a81        	l32r	a8, e8 (a93c <ec_dec_update>)
    18c2:	ceba           	add.n	a12, a14, a11
    18c4:	03ad           	mov.n	a10, a3
    18c6:	0008e0        	callx8	a8
    18c9:	ff3406        	j	159d <compute_theta+0x159>

000018cc <quant_band_n1>:
    18cc:	006136        	entry	a1, 48
    18cf:	1139           	s32i.n	a3, a1, 4
    18d1:	3129           	s32i.n	a2, a1, 12
    18d3:	170c           	movi.n	a7, 1
    18d5:	042d           	mov.n	a2, a4
    18d7:	932740        	movnez	a2, a7, a4
    18da:	037d           	mov.n	a7, a3
    18dc:	3138           	l32i.n	a3, a1, 12
    18de:	0169           	s32i.n	a6, a1, 0
    18e0:	3168           	l32i.n	a6, a1, 12
    18e2:	0388           	l32i.n	a8, a3, 0
    18e4:	6338           	l32i.n	a3, a3, 24
    18e6:	2139           	s32i.n	a3, a1, 8
    18e8:	98bc           	beqz.n	a8, 1925 <quant_band_n1+0x59>
    18ea:	0726b2        	l32i	a11, a6, 28
    18ed:	00a052        	movi	a5, 0

000018f0 <quant_band_n1+0x24>:
    18f0:	158ba6        	blti	a11, 8, 1909 <quant_band_n1+0x3d>
    18f3:	03ad           	mov.n	a10, a3
    18f5:	27bd           	ae_l16si.n	a11, a7, 0
    18f7:	f9ff81        	l32r	a8, f4 (a4f4 <ec_enc_bits>)
    18fa:	1c0c           	movi.n	a12, 1
    18fc:	05bfb0        	extui	a11, a11, 31, 1
    18ff:	0008e0        	callx8	a8
    1902:	76b8           	l32i.n	a11, a6, 28
    1904:	f8cbb2        	addi	a11, a11, -8
    1907:	76b9           	s32i.n	a11, a6, 28

00001909 <quant_band_n1+0x3d>:
    1909:	047d           	mov.n	a7, a4
    190b:	551b           	addi.n	a5, a5, 1
    190d:	dfa257        	bge	a2, a5, 18f0 <quant_band_n1+0x24>
    1910:	01c8           	l32i.n	a12, a1, 0
    1912:	11d8           	l32i.n	a13, a1, 4
    1914:	120c           	movi.n	a2, 1
    1916:	7c8c           	beqz.n	a12, 1921 <quant_band_n1+0x55>
    1918:	2ddd           	ae_l16si.n	a13, a13, 0
    191a:	21d4d0        	srai	a13, a13, 4
    191d:	6cdd           	ae_s16i.n	a13, a12, 0
    191f:	f01d           	retw.n

00001921 <quant_band_n1+0x55>:
    1921:	120c           	movi.n	a2, 1
    1923:	f01d           	retw.n

00001925 <quant_band_n1+0x59>:
    1925:	31b8           	l32i.n	a11, a1, 12
    1927:	050c           	movi.n	a5, 0
    1929:	7bb8           	l32i.n	a11, a11, 28
    192b:	f9e631        	l32r	a3, c4 (4000 <dynalloc_analysis+0x48>)
    192e:	f9ec61        	l32r	a6, e0 (ffffc000 <_end+0xfffe719c>)
    1931:	138be6        	bgei	a11, 8, 1948 <quant_band_n1+0x7c>

00001934 <quant_band_n1+0x68>:
    1934:	0a0c           	movi.n	a10, 0

00001936 <quant_band_n1+0x6a>:
    1936:	03cd           	mov.n	a12, a3
    1938:	551b           	addi.n	a5, a5, 1
    193a:	93c6a0        	movnez	a12, a6, a10
    193d:	67cd           	ae_s16i.n	a12, a7, 0
    193f:	207440        	or	a7, a4, a4
    1942:	182257        	blt	a2, a5, 195e <quant_band_n1+0x92>
    1945:	eb8ba6        	blti	a11, 8, 1934 <quant_band_n1+0x68>

00001948 <quant_band_n1+0x7c>:
    1948:	f9ec81        	l32r	a8, f8 (ab48 <ec_dec_bits>)
    194b:	21a8           	l32i.n	a10, a1, 8
    194d:	1b0c           	movi.n	a11, 1
    194f:	0008e0        	callx8	a8
    1952:	3198           	l32i.n	a9, a1, 12
    1954:	79b8           	l32i.n	a11, a9, 28
    1956:	f8cbb2        	addi	a11, a11, -8
    1959:	79b9           	s32i.n	a11, a9, 28
    195b:	fff5c6        	j	1936 <quant_band_n1+0x6a>

0000195e <quant_band_n1+0x92>:
    195e:	01c8           	l32i.n	a12, a1, 0
    1960:	11d8           	l32i.n	a13, a1, 4
    1962:	120c           	movi.n	a2, 1
    1964:	fb9c16        	beqz	a12, 1921 <quant_band_n1+0x55>
    1967:	2ddd           	ae_l16si.n	a13, a13, 0
    1969:	21d4d0        	srai	a13, a13, 4
    196c:	6cdd           	ae_s16i.n	a13, a12, 0
    196e:	f01d           	retw.n

00001970 <quant_partition>:
    1970:	018136        	entry	a1, 192
    1973:	62f8           	l32i.n	a15, a2, 24
    1975:	1288           	l32i.n	a8, a2, 4
    1977:	236152        	s32i	a5, a1, 140
    197a:	03ad           	mov.n	a10, a3
    197c:	01d192        	addmi	a9, a1, 0x100
    197f:	07ed           	mov.n	a14, a7
    1981:	1861e2        	s32i	a14, a1, 96
    1984:	302172        	l32i	a7, a1, 192
    1987:	8cc992        	addi	a9, a9, -116
    198a:	196192        	s32i	a9, a1, 100
    198d:	2238           	l32i.n	a3, a2, 8
    198f:	190c           	movi.n	a9, 1
    1991:	28c8           	l32i.n	a12, a8, 8
    1993:	1628b2        	l32i	a11, a8, 88
    1996:	d71b           	addi.n	a13, a7, 1
    1998:	82ccd0        	mull	a12, a12, a13
    199b:	172882        	l32i	a8, a8, 92
    199e:	33ca           	add.n	a3, a3, a12
    19a0:	9033b0        	addx2	a3, a3, a11
    19a3:	233d           	ae_l16si.n	a3, a3, 0
    19a5:	42d8           	l32i.n	a13, a2, 16
    19a7:	02c8           	l32i.n	a12, a2, 0
    19a9:	338a           	add.n	a3, a3, a8
    19ab:	080c           	movi.n	a8, 0
    19ad:	8389c0        	moveqz	a8, a9, a12
    19b0:	1b6182        	s32i	a8, a1, 108
    19b3:	0f0726        	beqi	a7, -1, 19c6 <quant_partition+0x56>
    19b6:	0003b2        	l8ui	a11, a3, 0
    19b9:	bb3a           	add.n	a11, a11, a3
    19bb:	000bb2        	l8ui	a11, a11, 0
    19be:	bbcb           	addi.n	a11, a11, 12
    19c0:	02ab57        	bge	a11, a5, 19c6 <quant_partition+0x56>
    19c3:	002386        	j	1a55 <quant_partition+0xe5>

000019c6 <quant_partition+0x56>:
    19c6:	750b           	addi.n	a7, a5, -1
    19c8:	0b0c           	movi.n	a11, 0
    19ca:	1a61c2        	s32i	a12, a1, 104
    19cd:	0003e2        	l8ui	a14, a3, 0
    19d0:	680c           	movi.n	a8, 6
    19d2:	17a876        	loopgtz	a8, 19ed <quant_partition+0x7d>
    19d5:	ceba           	add.n	a12, a14, a11
    19d7:	cc1b           	addi.n	a12, a12, 1
    19d9:	21c1c0        	srai	a12, a12, 1
    19dc:	9c3a           	add.n	a9, a12, a3
    19de:	000992        	l8ui	a9, a9, 0
    19e1:	042977        	blt	a9, a7, 19e9 <quant_partition+0x79>
    19e4:	0ced           	mov.n	a14, a12
    19e6:	000046        	j	19eb <quant_partition+0x7b>

000019e9 <quant_partition+0x79>:
    19e9:	0cbd           	mov.n	a11, a12

000019eb <quant_partition+0x7b>:
    19eb:	f03d           	nop.n

000019ed <quant_partition+0x7d>:
    19ed:	ce3a           	add.n	a12, a14, a3
    19ef:	000cc2        	l8ui	a12, a12, 0
    19f2:	7298           	l32i.n	a9, a2, 28
    19f4:	8b3a           	add.n	a8, a11, a3
    19f6:	c0cc50        	sub	a12, a12, a5
    19f9:	cc1b           	addi.n	a12, a12, 1
    19fb:	cb8c           	beqz.n	a11, 1a0b <quant_partition+0x9b>
    19fd:	000882        	l8ui	a8, a8, 0
    1a00:	c08580        	sub	a8, a5, a8
    1a03:	880b           	addi.n	a8, a8, -1
    1a05:	052c87        	blt	a12, a8, 1a0e <quant_partition+0x9e>
    1a08:	000106        	j	1a10 <quant_partition+0xa0>

00001a0b <quant_partition+0x9b>:
    1a0b:	01ac57        	bge	a12, a5, 1a10 <quant_partition+0xa0>
    1a0e:	0ebd           	mov.n	a11, a14

00001a10 <quant_partition+0xa0>:
    1a10:	0bed           	mov.n	a14, a11
    1a12:	0ceb16        	beqz	a11, 1ae4 <quant_partition+0x174>
    1a15:	cb3a           	add.n	a12, a11, a3
    1a17:	000cc2        	l8ui	a12, a12, 0
    1a1a:	cc1b           	addi.n	a12, a12, 1

00001a1c <quant_partition+0xac>:
    1a1c:	c099c0        	sub	a9, a9, a12
    1a1f:	7299           	s32i.n	a9, a2, 28
    1a21:	0c4996        	bltz	a9, 1ae9 <quant_partition+0x179>

00001a24 <quant_partition+0xb4>:
    1a24:	0cce16        	beqz	a14, 1af4 <quant_partition+0x184>
    1a27:	1a21b2        	l32i	a11, a1, 104
    1a2a:	0ecd           	mov.n	a12, a14
    1a2c:	2193e0        	srai	a9, a14, 3
    1a2f:	2480e0        	extui	a8, a14, 0, 3
    1a32:	888b           	addi.n	a8, a8, 8
    1a34:	990b           	addi.n	a9, a9, -1
    1a36:	401900        	ssl	a9
    1a39:	a18800        	sll	a8, a8
    1a3c:	790c           	movi.n	a9, 7
    1a3e:	7299e0        	salt	a9, a9, a14
    1a41:	93c890        	movnez	a12, a8, a9
    1a44:	16cb16        	beqz	a11, 1bb4 <quant_partition+0x244>
    1a47:	f9ad81        	l32r	a8, fc (ed0c <alg_quant>)
    1a4a:	04bd           	mov.n	a11, a4
    1a4c:	06ed           	mov.n	a14, a6
    1a4e:	0008e0        	callx8	a8
    1a51:	0a2d           	mov.n	a2, a10
    1a53:	f01d           	retw.n

00001a55 <quant_partition+0xe5>:
    1a55:	e149           	s32i.n	a4, a1, 56
    1a57:	1561a2        	s32i	a10, a1, 84
    1a5a:	0234e6        	bgei	a4, 3, 1a60 <quant_partition+0xf0>
    1a5d:	ffd946        	j	19c6 <quant_partition+0x56>
    1a60:	1169           	s32i.n	a6, a1, 4
    1a62:	1921f2        	l32i	a15, a1, 100
    1a65:	20c1b2        	addi	a11, a1, 32
    1a68:	960b           	addi.n	a9, a6, -1
    1a6a:	0acd           	mov.n	a12, a10
    1a6c:	e138           	l32i.n	a3, a1, 56
    1a6e:	01d142        	addmi	a4, a1, 0x100
    1a71:	322152        	l32i	a5, a1, 200
    1a74:	c8c442        	addi	a4, a4, -56
    1a77:	4149           	s32i.n	a4, a1, 16
    1a79:	461b           	addi.n	a4, a6, 1
    1a7b:	1185f0        	slli	a8, a5, 1
    1a7e:	213130        	srai	a3, a3, 1
    1a81:	03ed           	mov.n	a14, a3
    1a83:	0a0580        	depbits	a8, a5, 0, 1
    1a86:	214140        	srai	a4, a4, 1
    1a89:	90d3a0        	addx2	a13, a3, a10
    1a8c:	1461d2        	s32i	a13, a1, 80
    1a8f:	0149           	s32i.n	a4, a1, 0
    1a91:	02ad           	mov.n	a10, a2
    1a93:	835890        	moveqz	a5, a8, a9
    1a96:	326152        	s32i	a5, a1, 200
    1a99:	1183f0        	slli	a8, a3, 1
    1a9c:	050c           	movi.n	a5, 0
    1a9e:	136182        	s32i	a8, a1, 76
    1aa1:	3159           	s32i.n	a5, a1, 12
    1aa3:	570b           	addi.n	a5, a7, -1
    1aa5:	2159           	s32i.n	a5, a1, 8
    1aa7:	ff99e5        	call8	1444 <compute_theta>
    1aaa:	1321f2        	l32i	a15, a1, 76
    1aad:	0d0c           	movi.n	a13, 0
    1aaf:	b1a8           	l32i.n	a10, a1, 44
    1ab1:	c1c8           	l32i.n	a12, a1, 48
    1ab3:	1291b2        	l16si	a11, a1, 36
    1ab6:	1491e2        	l16si	a14, a1, 40
    1ab9:	106152        	s32i	a5, a1, 64
    1abc:	f149           	s32i.n	a4, a1, 60
    1abe:	0226e6        	bgei	a6, 2, 1ac4 <quant_partition+0x154>
    1ac1:	004ac6        	j	1bf0 <quant_partition+0x280>
    1ac4:	d480c0        	extui	a8, a12, 0, 14
    1ac7:	125816        	beqz	a8, 1bf0 <quant_partition+0x280>
    1aca:	f98291        	l32r	a9, d4 (2000 <quant_band_stereo+0x78>)
    1acd:	0229c7        	blt	a9, a12, 1ad3 <quant_partition+0x163>
    1ad0:	004246        	j	1bdd <quant_partition+0x26d>
    1ad3:	590c           	movi.n	a9, 5
    1ad5:	c09970        	sub	a9, a9, a7
    1ad8:	400900        	ssr	a9
    1adb:	b180a0        	sra	a8, a10
    1ade:	c0aa80        	sub	a10, a10, a8
    1ae1:	0042c6        	j	1bf0 <quant_partition+0x280>

00001ae4 <quant_partition+0x174>:
    1ae4:	0c0c           	movi.n	a12, 0
    1ae6:	ffcc86        	j	1a1c <quant_partition+0xac>

00001ae9 <quant_partition+0x179>:
    1ae9:	021ee6        	bgei	a14, 1, 1aef <quant_partition+0x17f>
    1aec:	ffcd06        	j	1a24 <quant_partition+0xb4>
    1aef:	5e3a           	add.n	a5, a14, a3
    1af1:	001386        	j	1b43 <quant_partition+0x1d3>

00001af4 <quant_partition+0x184>:
    1af4:	1b21b2        	l32i	a11, a1, 108
    1af7:	3221c2        	l32i	a12, a1, 200
    1afa:	401600        	ssl	a6
    1afd:	0d7b16        	beqz	a11, 1bd8 <quant_partition+0x268>
    1b00:	1561a2        	s32i	a10, a1, 84
    1b03:	130c           	movi.n	a3, 1
    1b05:	a13300        	sll	a3, a3
    1b08:	330b           	addi.n	a3, a3, -1
    1b0a:	105c30        	and	a5, a12, a3
    1b0d:	326152        	s32i	a5, a1, 200
    1b10:	028c37        	bany	a12, a3, 1b16 <quant_partition+0x1a6>
    1b13:	002c46        	j	1bc8 <quant_partition+0x258>
    1b16:	1821e2        	l32i	a14, a1, 96
    1b19:	1561a2        	s32i	a10, a1, 84
    1b1c:	04ae56        	bnez	a14, 1b6a <quant_partition+0x1fa>
    1b1f:	e149           	s32i.n	a4, a1, 56
    1b21:	1914a6        	blti	a4, 1, 1b3e <quant_partition+0x1ce>
    1b24:	0a5d           	mov.n	a5, a10
    1b26:	0a8d           	mov.n	a8, a10
    1b28:	906480        	addx2	a6, a4, a8
    1b2b:	92a8           	l32i.n	a10, a2, 36

00001b2d <quant_partition+0x1bd>:
    1b2d:	f95b81        	l32r	a8, 9c (5ec <celt_lcg_rand>)
    1b30:	0008e0        	callx8	a8
    1b33:	92a9           	s32i.n	a10, a2, 36
    1b35:	3194a0        	srai	a9, a10, 20
    1b38:	09c594        	ae_s16ip	a9, a5, 2
    1b3b:	ee9567        	bne	a5, a6, 1b2d <quant_partition+0x1bd>

00001b3e <quant_partition+0x1ce>:
    1b3e:	035d           	mov.n	a5, a3
    1b40:	001706        	j	1ba0 <quant_partition+0x230>

00001b43 <quant_partition+0x1d3>:
    1b43:	550b           	addi.n	a5, a5, -1
    1b45:	ee0b           	addi.n	a14, a14, -1
    1b47:	99ca           	add.n	a9, a9, a12
    1b49:	7299           	s32i.n	a9, a2, 28
    1b4b:	1e9c           	beqz.n	a14, 1b60 <quant_partition+0x1f0>
    1b4d:	0005c2        	l8ui	a12, a5, 0
    1b50:	cc1b           	addi.n	a12, a12, 1

00001b52 <quant_partition+0x1e2>:
    1b52:	c099c0        	sub	a9, a9, a12
    1b55:	7299           	s32i.n	a9, a2, 28
    1b57:	ec99d6        	bgez	a9, 1a24 <quant_partition+0xb4>
    1b5a:	e51ee6        	bgei	a14, 1, 1b43 <quant_partition+0x1d3>
    1b5d:	ffb0c6        	j	1a24 <quant_partition+0xb4>

00001b60 <quant_partition+0x1f0>:
    1b60:	1561a2        	s32i	a10, a1, 84
    1b63:	e149           	s32i.n	a4, a1, 56
    1b65:	0c0c           	movi.n	a12, 0
    1b67:	fff9c6        	j	1b52 <quant_partition+0x1e2>

00001b6a <quant_partition+0x1fa>:
    1b6a:	e149           	s32i.n	a4, a1, 56
    1b6c:	3014a6        	blti	a4, 1, 1ba0 <quant_partition+0x230>
    1b6f:	0e7d           	mov.n	a7, a14
    1b71:	f94361        	l32r	a6, 80 (8000 <celt_decode_with_ec+0x9c>)
    1b74:	0a5d           	mov.n	a5, a10
    1b76:	9034e0        	addx2	a3, a4, a14
    1b79:	92a8           	l32i.n	a10, a2, 36
    1b7b:	440c           	movi.n	a4, 4

00001b7d <quant_partition+0x20d>:
    1b7d:	f94781        	l32r	a8, 9c (5ec <celt_lcg_rand>)
    1b80:	f03d           	nop.n
    1b82:	0008e0        	callx8	a8
    1b85:	92a9           	s32i.n	a10, a2, 36
    1b87:	10da60        	and	a13, a10, a6
    1b8a:	cc7c           	movi.n	a12, -4
    1b8c:	04bd           	mov.n	a11, a4
    1b8e:	279d           	ae_l16si.n	a9, a7, 0
    1b90:	772b           	addi.n	a7, a7, 2
    1b92:	83bcd0        	moveqz	a11, a12, a13
    1b95:	99ba           	add.n	a9, a9, a11
    1b97:	09c594        	ae_s16ip	a9, a5, 2
    1b9a:	df9737        	bne	a7, a3, 1b7d <quant_partition+0x20d>
    1b9d:	322152        	l32i	a5, a1, 200

00001ba0 <quant_partition+0x230>:
    1ba0:	1521a2        	l32i	a10, a1, 84
    1ba3:	e1b8           	l32i.n	a11, a1, 56
    1ba5:	f93981        	l32r	a8, 8c (f394 <renormalise_vector>)
    1ba8:	a2d8           	l32i.n	a13, a2, 40
    1baa:	6291c2        	l16si	a12, a1, 196
    1bad:	0008e0        	callx8	a8
    1bb0:	052d           	mov.n	a2, a5
    1bb2:	f01d           	retw.n

00001bb4 <quant_partition+0x244>:
    1bb4:	04bd           	mov.n	a11, a4
    1bb6:	06ed           	mov.n	a14, a6
    1bb8:	f95281        	l32r	a8, 100 (f108 <alg_unquant>)
    1bbb:	629192        	l16si	a9, a1, 196
    1bbe:	0199           	s32i.n	a9, a1, 0
    1bc0:	0008e0        	callx8	a8
    1bc3:	0a2d           	mov.n	a2, a10
    1bc5:	f01d           	retw.n

00001bc7 <quant_partition+0x257>:
	...

00001bc8 <quant_partition+0x258>:
    1bc8:	f92d81        	l32r	a8, 7c (f6b0 <memset>)
    1bcb:	11c4f0        	slli	a12, a4, 1
    1bce:	0b0c           	movi.n	a11, 0
    1bd0:	0008e0        	callx8	a8
    1bd3:	020c           	movi.n	a2, 0
    1bd5:	f01d           	retw.n

00001bd7 <quant_partition+0x267>:
	...

00001bd8 <quant_partition+0x268>:
    1bd8:	020c           	movi.n	a2, 0
    1bda:	f01d           	retw.n

00001bdc <quant_partition+0x26c>:
	...

00001bdd <quant_partition+0x26d>:
    1bdd:	1183d0        	slli	a8, a3, 3
    1be0:	690c           	movi.n	a9, 6
    1be2:	c09970        	sub	a9, a9, a7
    1be5:	400900        	ssr	a9
    1be8:	b18080        	sra	a8, a8
    1beb:	aa8a           	add.n	a10, a10, a8
    1bed:	43aad0        	min	a10, a10, a13
    1bf0:	1161c2        	s32i	a12, a1, 68
    1bf3:	7258           	l32i.n	a5, a2, 28
    1bf5:	232142        	l32i	a4, a1, 140
    1bf8:	218160        	srai	a8, a6, 1
    1bfb:	176182        	s32i	a8, a1, 92
    1bfe:	d168           	l32i.n	a6, a1, 52
    1c00:	c094a0        	sub	a9, a4, a10
    1c03:	6291a2        	l16si	a10, a1, 196
    1c06:	791b           	addi.n	a7, a9, 1
    1c08:	c05560        	sub	a5, a5, a6
    1c0b:	166152        	s32i	a5, a1, 88
    1c0e:	7259           	s32i.n	a5, a2, 28
    1c10:	b37990        	movgez	a7, a9, a9
    1c13:	216170        	srai	a6, a7, 1
    1c16:	050c           	movi.n	a5, 0
    1c18:	182172        	l32i	a7, a1, 96
    1c1b:	d1eea0        	mul16s	a14, a14, a10
    1c1e:	436640        	min	a6, a6, a4
    1c21:	d1aba0        	mul16s	a10, a11, a10
    1c24:	5366d0        	max	a6, a6, a13
    1c27:	c04460        	sub	a4, a4, a6
    1c2a:	40dee2        	addmi	a14, a14, 0x4000
    1c2d:	ff7a           	add.n	a15, a15, a7
    1c2f:	21efe0        	srai	a14, a14, 15
    1c32:	40daa2        	addmi	a10, a10, 0x4000
    1c35:	21afa0        	srai	a10, a10, 15
    1c38:	8eed           	ae_sext16	a14, a14
    1c3a:	83f570        	moveqz	a15, a5, a7
    1c3d:	1d61f2        	s32i	a15, a1, 116
    1c40:	1261e2        	s32i	a14, a1, 72
    1c43:	322152        	l32i	a5, a1, 200
    1c46:	067d           	mov.n	a7, a6
    1c48:	8aad           	ae_sext16	a10, a10
    1c4a:	1c61a2        	s32i	a10, a1, 112
    1c4d:	702647        	blt	a6, a4, 1cc1 <quant_partition+0x351>
    1c50:	142172        	l32i	a7, a1, 80
    1c53:	2159           	s32i.n	a5, a1, 8
    1c55:	1521b2        	l32i	a11, a1, 84
    1c58:	1821f2        	l32i	a15, a1, 96
    1c5b:	03cd           	mov.n	a12, a3
    1c5d:	06dd           	mov.n	a13, a6
    1c5f:	f1e8           	l32i.n	a14, a1, 60
    1c61:	11a9           	s32i.n	a10, a1, 4
    1c63:	102182        	l32i	a8, a1, 64
    1c66:	02ad           	mov.n	a10, a2
    1c68:	0189           	s32i.n	a8, a1, 0
    1c6a:	ffd065        	call8	1970 <quant_partition>
    1c6d:	1d21f2        	l32i	a15, a1, 116
    1c70:	1621e2        	l32i	a14, a1, 88
    1c73:	72d8           	l32i.n	a13, a2, 28
    1c75:	0a5d           	mov.n	a5, a10
    1c77:	891c           	movi.n	a9, 24
    1c79:	c0dde0        	sub	a13, a13, a14
    1c7c:	80d6d0        	add	a13, a6, a13
    1c7f:	0ba9d7        	bge	a9, a13, 1c8e <quant_partition+0x31e>
    1c82:	112192        	l32i	a9, a1, 68
    1c85:	e8cd82        	addi	a8, a13, -24
    1c88:	808480        	add	a8, a4, a8
    1c8b:	934890        	movnez	a4, a8, a9
    1c8e:	02ad           	mov.n	a10, a2
    1c90:	07bd           	mov.n	a11, a7
    1c92:	03cd           	mov.n	a12, a3
    1c94:	322182        	l32i	a8, a1, 200
    1c97:	f1e8           	l32i.n	a14, a1, 60
    1c99:	102192        	l32i	a9, a1, 64
    1c9c:	1221d2        	l32i	a13, a1, 72
    1c9f:	11d9           	s32i.n	a13, a1, 4
    1ca1:	0199           	s32i.n	a9, a1, 0
    1ca3:	04dd           	mov.n	a13, a4
    1ca5:	400e00        	ssr	a14
    1ca8:	b18080        	sra	a8, a8
    1cab:	2189           	s32i.n	a8, a1, 8
    1cad:	ffcc25        	call8	1970 <quant_partition>
    1cb0:	172182        	l32i	a8, a1, 92
    1cb3:	401800        	ssl	a8
    1cb6:	a12a00        	sll	a2, a10
    1cb9:	202520        	or	a2, a5, a2
    1cbc:	f01d           	retw.n

00001cbe <quant_partition+0x34e>:
    1cbe:	000000                                        ...

00001cc1 <quant_partition+0x351>:
    1cc1:	1421b2        	l32i	a11, a1, 80
    1cc4:	03cd           	mov.n	a12, a3
    1cc6:	11e9           	s32i.n	a14, a1, 4
    1cc8:	04dd           	mov.n	a13, a4
    1cca:	f1e8           	l32i.n	a14, a1, 60
    1ccc:	102192        	l32i	a9, a1, 64
    1ccf:	0199           	s32i.n	a9, a1, 0
    1cd1:	400e00        	ssr	a14
    1cd4:	b1a050        	sra	a10, a5
    1cd7:	21a9           	s32i.n	a10, a1, 8
    1cd9:	02ad           	mov.n	a10, a2
    1cdb:	ffc965        	call8	1970 <quant_partition>
    1cde:	0a5d           	mov.n	a5, a10
    1ce0:	1621e2        	l32i	a14, a1, 88
    1ce3:	72d8           	l32i.n	a13, a2, 28
    1ce5:	1c21b2        	l32i	a11, a1, 112
    1ce8:	8c1c           	movi.n	a12, 24
    1cea:	c0dde0        	sub	a13, a13, a14
    1ced:	d4da           	add.n	a13, a4, a13
    1cef:	0dacd7        	bge	a12, a13, 1d00 <quant_partition+0x390>
    1cf2:	112182        	l32i	a8, a1, 68
    1cf5:	f6da           	add.n	a15, a6, a13
    1cf7:	e8cff2        	addi	a15, a15, -24
    1cfa:	c0d882        	addmi	a8, a8, 0xffffc000
    1cfd:	937f80        	movnez	a7, a15, a8
    1d00:	07dd           	mov.n	a13, a7
    1d02:	03cd           	mov.n	a12, a3
    1d04:	f1e8           	l32i.n	a14, a1, 60
    1d06:	1821f2        	l32i	a15, a1, 96
    1d09:	322192        	l32i	a9, a1, 200
    1d0c:	11b9           	s32i.n	a11, a1, 4
    1d0e:	1021a2        	l32i	a10, a1, 64
    1d11:	1521b2        	l32i	a11, a1, 84
    1d14:	01a9           	s32i.n	a10, a1, 0
    1d16:	2199           	s32i.n	a9, a1, 8
    1d18:	02ad           	mov.n	a10, a2
    1d1a:	ffc565        	call8	1970 <quant_partition>
    1d1d:	172182        	l32i	a8, a1, 92
    1d20:	401800        	ssl	a8
    1d23:	a12500        	sll	a2, a5
    1d26:	202a20        	or	a2, a10, a2
    1d29:	f01d           	retw.n

00001d2b <quant_partition+0x3bb>:
	...

00001d2c <quant_band>:
    1d2c:	00c136        	entry	a1, 96
    1d2f:	c149           	s32i.n	a4, a1, 48
    1d31:	840b           	addi.n	a8, a4, -1
    1d33:	0f0c           	movi.n	a15, 0
    1d35:	b60b           	addi.n	a11, a6, -1
    1d37:	05ed           	mov.n	a14, a5
    1d39:	02ad           	mov.n	a10, a2
    1d3b:	81a9           	s32i.n	a10, a1, 32
    1d3d:	91e9           	s32i.n	a14, a1, 36
    1d3f:	072d           	mov.n	a2, a7
    1d41:	065d           	mov.n	a5, a6
    1d43:	0a98           	l32i.n	a9, a10, 0
    1d45:	b199           	s32i.n	a9, a1, 44
    1d47:	160c           	movi.n	a6, 1
    1d49:	070c           	movi.n	a7, 0
    1d4b:	8376b0        	moveqz	a7, a6, a11
    1d4e:	83f690        	moveqz	a15, a6, a9
    1d51:	c2b450        	quou	a11, a4, a5
    1d54:	5a98           	l32i.n	a9, a10, 20
    1d56:	21c816        	beqz	a8, 1f76 <quant_band+0x24a>
    1d59:	7199           	s32i.n	a9, a1, 28
    1d5b:	6179           	s32i.n	a7, a1, 24
    1d5d:	51f9           	s32i.n	a15, a1, 20
    1d5f:	41b9           	s32i.n	a11, a1, 16
    1d61:	1b2162        	l32i	a6, a1, 108
    1d64:	040c           	movi.n	a4, 0
    1d66:	534940        	max	a4, a9, a4
    1d69:	e69c           	beqz.n	a6, 1d8b <quant_band+0x5f>
    1d6b:	c29c           	beqz.n	a2, 1d8b <quant_band+0x5f>
    1d6d:	74cc           	bnez.n	a4, 1d78 <quant_band+0x4c>
    1d6f:	02eb07        	bbsi	a11, 0, 1d75 <quant_band+0x49>
    1d72:	002996        	bltz	a9, 1d78 <quant_band+0x4c>

00001d75 <quant_band+0x49>:
    1d75:	1225a6        	blti	a5, 2, 1d8b <quant_band+0x5f>
    1d78:	02bd           	mov.n	a11, a2
    1d7a:	0c21c2        	l32i	a12, a1, 48
    1d7d:	f8c981        	l32r	a8, a4 (f6f0 <memcpy>)
    1d80:	20a660        	or	a10, a6, a6
    1d83:	11ccf0        	slli	a12, a12, 1
    1d86:	0008e0        	callx8	a8
    1d89:	062d           	mov.n	a2, a6
    1d8b:	0214e6        	bgei	a4, 1, 1d91 <quant_band+0x65>
    1d8e:	007786        	j	1f70 <quant_band+0x244>
    1d91:	1c2162        	l32i	a6, a1, 112
    1d94:	f8dcc1        	l32r	a12, 104 (14c50 <bit_interleave_table$10456_72_25>)
    1d97:	070c           	movi.n	a7, 0

00001d99 <quant_band+0x6d>:
    1d99:	b188           	l32i.n	a8, a1, 44
    1d9b:	989c           	beqz.n	a8, 1db8 <quant_band+0x8c>
    1d9d:	03ad           	mov.n	a10, a3
    1d9f:	f8da81        	l32r	a8, 108 (139c <haar1>)
    1da2:	c1b8           	l32i.n	a11, a1, 48
    1da4:	400700        	ssr	a7
    1da7:	1c0c           	movi.n	a12, 1
    1da9:	b1b0b0        	sra	a11, a11
    1dac:	401700        	ssl	a7
    1daf:	a1cc00        	sll	a12, a12
    1db2:	0008e0        	callx8	a8
    1db5:	f8d3c1        	l32r	a12, 104 (14c50 <bit_interleave_table$10456_72_25>)

00001db8 <quant_band+0x8c>:
    1db8:	929c           	beqz.n	a2, 1dd5 <quant_band+0xa9>
    1dba:	02ad           	mov.n	a10, a2
    1dbc:	f8d381        	l32r	a8, 108 (139c <haar1>)
    1dbf:	c1b8           	l32i.n	a11, a1, 48
    1dc1:	400700        	ssr	a7
    1dc4:	1c0c           	movi.n	a12, 1
    1dc6:	b1b0b0        	sra	a11, a11
    1dc9:	401700        	ssl	a7
    1dcc:	a1cc00        	sll	a12, a12
    1dcf:	0008e0        	callx8	a8
    1dd2:	f8ccc1        	l32r	a12, 104 (14c50 <bit_interleave_table$10456_72_25>)

00001dd5 <quant_band+0xa9>:
    1dd5:	218460        	srai	a8, a6, 4
    1dd8:	346060        	extui	a6, a6, 0, 4
    1ddb:	6c6a           	add.n	a6, a12, a6
    1ddd:	8c8a           	add.n	a8, a12, a8
    1ddf:	000882        	l8ui	a8, a8, 0
    1de2:	000662        	l8ui	a6, a6, 0
    1de5:	771b           	addi.n	a7, a7, 1
    1de7:	1188e0        	slli	a8, a8, 2
    1dea:	206680        	or	a6, a6, a8
    1ded:	a89747        	bne	a7, a4, 1d99 <quant_band+0x6d>

00001df0 <quant_band+0xc4>:
    1df0:	400400        	ssr	a4
    1df3:	4178           	l32i.n	a7, a1, 16
    1df5:	b15050        	sra	a5, a5
    1df8:	401400        	ssl	a4
    1dfb:	a17700        	sll	a7, a7
    1dfe:	73e707        	bbsi	a7, 0, 1e75 <quant_band+0x149>
    1e01:	7188           	l32i.n	a8, a1, 28
    1e03:	06e8d6        	bgez	a8, 1e75 <quant_band+0x149>
    1e06:	090c           	movi.n	a9, 0
    1e08:	a199           	s32i.n	a9, a1, 40

00001e0a <quant_band+0xde>:
    1e0a:	b1a8           	l32i.n	a10, a1, 44
    1e0c:	cabc           	beqz.n	a10, 1e4c <quant_band+0x120>
    1e0e:	03ad           	mov.n	a10, a3
    1e10:	f8be81        	l32r	a8, 108 (139c <haar1>)
    1e13:	07bd           	mov.n	a11, a7
    1e15:	05cd           	mov.n	a12, a5
    1e17:	0008e0        	callx8	a8
    1e1a:	a28c           	beqz.n	a2, 1e28 <quant_band+0xfc>

00001e1c <quant_band+0xf0>:
    1e1c:	02ad           	mov.n	a10, a2
    1e1e:	f8ba81        	l32r	a8, 108 (139c <haar1>)
    1e21:	07bd           	mov.n	a11, a7
    1e23:	05cd           	mov.n	a12, a5
    1e25:	0008e0        	callx8	a8

00001e28 <quant_band+0xfc>:
    1e28:	217170        	srai	a7, a7, 1
    1e2b:	a198           	l32i.n	a9, a1, 40
    1e2d:	401500        	ssl	a5
    1e30:	71b8           	l32i.n	a11, a1, 28
    1e32:	1155f0        	slli	a5, a5, 1
    1e35:	a1a600        	sll	a10, a6
    1e38:	2066a0        	or	a6, a6, a10
    1e3b:	bb1b           	addi.n	a11, a11, 1
    1e3d:	991b           	addi.n	a9, a9, 1
    1e3f:	a199           	s32i.n	a9, a1, 40
    1e41:	34e707        	bbsi	a7, 0, 1e79 <quant_band+0x14d>
    1e44:	71b9           	s32i.n	a11, a1, 28
    1e46:	fc0b96        	bltz	a11, 1e0a <quant_band+0xde>
    1e49:	000b06        	j	1e79 <quant_band+0x14d>

00001e4c <quant_band+0x120>:
    1e4c:	fcc256        	bnez	a2, 1e1c <quant_band+0xf0>
    1e4f:	217170        	srai	a7, a7, 1
    1e52:	a1c8           	l32i.n	a12, a1, 40
    1e54:	401500        	ssl	a5
    1e57:	71b8           	l32i.n	a11, a1, 28
    1e59:	1155f0        	slli	a5, a5, 1
    1e5c:	a1d600        	sll	a13, a6
    1e5f:	2066d0        	or	a6, a6, a13
    1e62:	bb1b           	addi.n	a11, a11, 1
    1e64:	cc1b           	addi.n	a12, a12, 1
    1e66:	a1c9           	s32i.n	a12, a1, 40
    1e68:	71b9           	s32i.n	a11, a1, 28
    1e6a:	0be707        	bbsi	a7, 0, 1e79 <quant_band+0x14d>
    1e6d:	f99b96        	bltz	a11, 1e0a <quant_band+0xde>
    1e70:	000146        	j	1e79 <quant_band+0x14d>

00001e73 <quant_band+0x147>:
	...

00001e75 <quant_band+0x149>:
    1e75:	0f0c           	movi.n	a15, 0
    1e77:	a1f9           	s32i.n	a15, a1, 40

00001e79 <quant_band+0x14d>:
    1e79:	2b25a6        	blti	a5, 2, 1ea8 <quant_band+0x17c>
    1e7c:	b188           	l32i.n	a8, a1, 44
    1e7e:	189c           	beqz.n	a8, 1e93 <quant_band+0x167>
    1e80:	03ad           	mov.n	a10, a3
    1e82:	400400        	ssr	a4
    1e85:	61d8           	l32i.n	a13, a1, 24
    1e87:	b1b070        	sra	a11, a7
    1e8a:	401400        	ssl	a4
    1e8d:	a1c500        	sll	a12, a5
    1e90:	ff35e5        	call8	11f0 <deinterleave_hadamard>

00001e93 <quant_band+0x167>:
    1e93:	129c           	beqz.n	a2, 1ea8 <quant_band+0x17c>
    1e95:	02ad           	mov.n	a10, a2
    1e97:	400400        	ssr	a4
    1e9a:	61d8           	l32i.n	a13, a1, 24
    1e9c:	b1b070        	sra	a11, a7
    1e9f:	401400        	ssl	a4
    1ea2:	a1c500        	sll	a12, a5
    1ea5:	ff34a5        	call8	11f0 <deinterleave_hadamard>
    1ea8:	81a8           	l32i.n	a10, a1, 32
    1eaa:	91d8           	l32i.n	a13, a1, 36
    1eac:	02fd           	mov.n	a15, a2
    1eae:	03bd           	mov.n	a11, a3
    1eb0:	c1c8           	l32i.n	a12, a1, 48
    1eb2:	05ed           	mov.n	a14, a5
    1eb4:	2169           	s32i.n	a6, a1, 8
    1eb6:	182182        	l32i	a8, a1, 96
    1eb9:	349192        	l16si	a9, a1, 104
    1ebc:	1199           	s32i.n	a9, a1, 4
    1ebe:	0189           	s32i.n	a8, a1, 0
    1ec0:	ffaae5        	call8	1970 <quant_partition>
    1ec3:	0a2d           	mov.n	a2, a10
    1ec5:	51a8           	l32i.n	a10, a1, 20
    1ec7:	0a3a16        	beqz	a10, 1f6e <quant_band+0x242>
    1eca:	1225a6        	blti	a5, 2, 1ee0 <quant_band+0x1b4>
    1ecd:	03ad           	mov.n	a10, a3
    1ecf:	400400        	ssr	a4
    1ed2:	61d8           	l32i.n	a13, a1, 24
    1ed4:	b1b070        	sra	a11, a7
    1ed7:	401400        	ssl	a4
    1eda:	a1c500        	sll	a12, a5
    1edd:	ff3b65        	call8	1294 <interleave_hadamard>

00001ee0 <quant_band+0x1b4>:
    1ee0:	a1b8           	l32i.n	a11, a1, 40
    1ee2:	076d           	mov.n	a6, a7
    1ee4:	070c           	movi.n	a7, 0
    1ee6:	211ba6        	blti	a11, 1, 1f0b <quant_band+0x1df>

00001ee9 <quant_band+0x1bd>:
    1ee9:	03ad           	mov.n	a10, a3
    1eeb:	f88781        	l32r	a8, 108 (139c <haar1>)
    1eee:	215150        	srai	a5, a5, 1
    1ef1:	1166f0        	slli	a6, a6, 1
    1ef4:	06bd           	mov.n	a11, a6
    1ef6:	05cd           	mov.n	a12, a5
    1ef8:	400500        	ssr	a5
    1efb:	919020        	srl	a9, a2
    1efe:	202290        	or	a2, a2, a9
    1f01:	0008e0        	callx8	a8
    1f04:	a1a8           	l32i.n	a10, a1, 40
    1f06:	771b           	addi.n	a7, a7, 1
    1f08:	dd97a7        	bne	a7, a10, 1ee9 <quant_band+0x1bd>

00001f0b <quant_band+0x1df>:
    1f0b:	2614a6        	blti	a4, 1, 1f35 <quant_band+0x209>
    1f0e:	f87f61        	l32r	a6, 10c (14c60 <bit_deinterleave_table$10466_72_26>)
    1f11:	070c           	movi.n	a7, 0

00001f13 <quant_band+0x1e7>:
    1f13:	03ad           	mov.n	a10, a3
    1f15:	f87c81        	l32r	a8, 108 (139c <haar1>)
    1f18:	1c0c           	movi.n	a12, 1
    1f1a:	400700        	ssr	a7
    1f1d:	c1b8           	l32i.n	a11, a1, 48
    1f1f:	226a           	add.n	a2, a2, a6
    1f21:	000222        	l8ui	a2, a2, 0
    1f24:	b1b0b0        	sra	a11, a11
    1f27:	401700        	ssl	a7
    1f2a:	a1cc00        	sll	a12, a12
    1f2d:	0008e0        	callx8	a8
    1f30:	771b           	addi.n	a7, a7, 1
    1f32:	dd9747        	bne	a7, a4, 1f13 <quant_band+0x1e7>

00001f35 <quant_band+0x209>:
    1f35:	192162        	l32i	a6, a1, 100
    1f38:	401400        	ssl	a4
    1f3b:	a15500        	sll	a5, a5
    1f3e:	d69c           	beqz.n	a6, 1f5f <quant_band+0x233>
    1f40:	c1a8           	l32i.n	a10, a1, 48
    1f42:	f84981        	l32r	a8, 68 (b914 <celt_sqrt>)
    1f45:	01aaa0        	slli	a10, a10, 22
    1f48:	0008e0        	callx8	a8
    1f4b:	c198           	l32i.n	a9, a1, 48
    1f4d:	8abd           	ae_sext16	a11, a10
    1f4f:	0ca976        	loopgtz	a9, 1f5f <quant_band+0x233>
    1f52:	239d           	ae_l16si.n	a9, a3, 0
    1f54:	332b           	addi.n	a3, a3, 2
    1f56:	d199b0        	mul16s	a9, a9, a11
    1f59:	219f90        	srai	a9, a9, 15
    1f5c:	09c694        	ae_s16ip	a9, a6, 2
    1f5f:	401500        	ssl	a5
    1f62:	1b0c           	movi.n	a11, 1
    1f64:	a1bb00        	sll	a11, a11
    1f67:	bb0b           	addi.n	a11, a11, -1
    1f69:	1022b0        	and	a2, a2, a11
    1f6c:	f01d           	retw.n

00001f6e <quant_band+0x242>:
    1f6e:	f01d           	retw.n

00001f70 <quant_band+0x244>:
    1f70:	1c2162        	l32i	a6, a1, 112
    1f73:	ff9e46        	j	1df0 <quant_band+0xc4>

00001f76 <quant_band+0x24a>:
    1f76:	03bd           	mov.n	a11, a3
    1f78:	0edd           	mov.n	a13, a14
    1f7a:	0c0c           	movi.n	a12, 0
    1f7c:	1921e2        	l32i	a14, a1, 100
    1f7f:	ff94e5        	call8	18cc <quant_band_n1>
    1f82:	0a2d           	mov.n	a2, a10
    1f84:	f01d           	retw.n

00001f86 <quant_band+0x25a>:
	...

00001f88 <quant_band_stereo>:
    1f88:	01a136        	entry	a1, 208
    1f8b:	850b           	addi.n	a8, a5, -1
    1f8d:	1c0c           	movi.n	a12, 1
    1f8f:	0a0c           	movi.n	a10, 0
    1f91:	6298           	l32i.n	a9, a2, 24
    1f93:	286162        	s32i	a6, a1, 160
    1f96:	3621e2        	l32i	a14, a1, 216
    1f99:	01d1b2        	addmi	a11, a1, 0x100
    1f9c:	a0cbb2        	addi	a11, a11, -96
    1f9f:	1661e2        	s32i	a14, a1, 88
    1fa2:	02d8           	l32i.n	a13, a2, 0
    1fa4:	1b6192        	s32i	a9, a1, 108
    1fa7:	1a61d2        	s32i	a13, a1, 104
    1faa:	83acd0        	moveqz	a10, a12, a13
    1fad:	1f61a2        	s32i	a10, a1, 124
    1fb0:	2b1816        	beqz	a8, 2265 <quant_band_stereo+0x2dd>
    1fb3:	0179           	s32i.n	a7, a1, 0
    1fb5:	1179           	s32i.n	a7, a1, 4
    1fb7:	02ad           	mov.n	a10, a2
    1fb9:	01d1e2        	addmi	a14, a1, 0x100
    1fbc:	3821f2        	l32i	a15, a1, 224
    1fbf:	31c9           	s32i.n	a12, a1, 12
    1fc1:	3521d2        	l32i	a13, a1, 212
    1fc4:	03cd           	mov.n	a12, a3
    1fc6:	2161d2        	s32i	a13, a1, 132
    1fc9:	21d9           	s32i.n	a13, a1, 8
    1fcb:	1961f2        	s32i	a15, a1, 100
    1fce:	e0cee2        	addi	a14, a14, -32
    1fd1:	0bfd           	mov.n	a15, a11
    1fd3:	41e9           	s32i.n	a14, a1, 16
    1fd5:	20c1b2        	addi	a11, a1, 32
    1fd8:	04dd           	mov.n	a13, a4
    1fda:	20e550        	or	a14, a5, a5
    1fdd:	ff4665        	call8	1444 <compute_theta>
    1fe0:	1491c2        	l16si	a12, a1, 40
    1fe3:	72d8           	l32i.n	a13, a2, 28
    1fe5:	d1b8           	l32i.n	a11, a1, 52
    1fe7:	3721e2        	l32i	a14, a1, 220
    1fea:	3421f2        	l32i	a15, a1, 208
    1fed:	282162        	l32i	a6, a1, 160
    1ff0:	129182        	l16si	a8, a1, 36
    1ff3:	81a8           	l32i.n	a10, a1, 32
    1ff5:	1e61a2        	s32i	a10, a1, 120
    1ff8:	1d6182        	s32i	a8, a1, 116
    1ffb:	c1a8           	l32i.n	a10, a1, 48
    1ffd:	fec582        	addi	a8, a5, -2
    2000:	158816        	beqz	a8, 215c <quant_band_stereo+0x1d4>
    2003:	1461c2        	s32i	a12, a1, 80
    2006:	f1e9           	s32i.n	a14, a1, 60
    2008:	e1f9           	s32i.n	a15, a1, 56
    200a:	b188           	l32i.n	a8, a1, 44
    200c:	1061a2        	s32i	a10, a1, 64
    200f:	c0bdb0        	sub	a11, a13, a11
    2012:	0a0c           	movi.n	a10, 0
    2014:	1c61b2        	s32i	a11, a1, 112
    2017:	72b9           	s32i.n	a11, a2, 28
    2019:	3821b2        	l32i	a11, a1, 224
    201c:	c08680        	sub	a8, a6, a8
    201f:	981b           	addi.n	a9, a8, 1
    2021:	b39880        	movgez	a9, a8, a8
    2024:	219190        	srai	a9, a9, 1
    2027:	439960        	min	a9, a9, a6
    202a:	5399a0        	max	a9, a9, a10
    202d:	156192        	s32i	a9, a1, 84
    2030:	c0a690        	sub	a10, a6, a9
    2033:	2061a2        	s32i	a10, a1, 128
    2036:	7a29a7        	blt	a9, a10, 20b4 <quant_band_stereo+0x12c>
    2039:	152162        	l32i	a6, a1, 84
    203c:	1621c2        	l32i	a12, a1, 88
    203f:	2121a2        	l32i	a10, a1, 132
    2042:	31e9           	s32i.n	a14, a1, 12
    2044:	41b9           	s32i.n	a11, a1, 16
    2046:	f80c91        	l32r	a9, 78 (7fff <celt_decode_with_ec+0x9b>)
    2049:	2199           	s32i.n	a9, a1, 8
    204b:	03bd           	mov.n	a11, a3
    204d:	07ed           	mov.n	a14, a7
    204f:	01a9           	s32i.n	a10, a1, 0
    2051:	11c9           	s32i.n	a12, a1, 4
    2053:	02ad           	mov.n	a10, a2
    2055:	05cd           	mov.n	a12, a5
    2057:	20d660        	or	a13, a6, a6
    205a:	ffcd25        	call8	1d2c <quant_band>
    205d:	1c21c2        	l32i	a12, a1, 112
    2060:	72b8           	l32i.n	a11, a2, 28
    2062:	1761a2        	s32i	a10, a1, 92
    2065:	8d1c           	movi.n	a13, 24
    2067:	c0bbc0        	sub	a11, a11, a12
    206a:	b6ba           	add.n	a11, a6, a11
    206c:	10adb7        	bge	a13, a11, 2080 <quant_band_stereo+0xf8>
    206f:	2021d2        	l32i	a13, a1, 128
    2072:	1021f2        	l32i	a15, a1, 64
    2075:	ebda           	add.n	a14, a11, a13
    2077:	e8cee2        	addi	a14, a14, -24
    207a:	93def0        	movnez	a13, a14, a15
    207d:	2061d2        	s32i	a13, a1, 128
    2080:	2021d2        	l32i	a13, a1, 128
    2083:	07ed           	mov.n	a14, a7
    2085:	02ad           	mov.n	a10, a2
    2087:	04bd           	mov.n	a11, a4
    2089:	05cd           	mov.n	a12, a5
    208b:	400700        	ssr	a7
    208e:	1421f2        	l32i	a15, a1, 80
    2091:	212182        	l32i	a8, a1, 132
    2094:	090c           	movi.n	a9, 0
    2096:	1199           	s32i.n	a9, a1, 4
    2098:	0189           	s32i.n	a8, a1, 0
    209a:	21f9           	s32i.n	a15, a1, 8
    209c:	382182        	l32i	a8, a1, 224
    209f:	3199           	s32i.n	a9, a1, 12
    20a1:	0f0c           	movi.n	a15, 0
    20a3:	b18080        	sra	a8, a8
    20a6:	4189           	s32i.n	a8, a1, 16
    20a8:	ffc825        	call8	1d2c <quant_band>
    20ab:	172162        	l32i	a6, a1, 92
    20ae:	2066a0        	or	a6, a6, a10
    20b1:	001ec6        	j	2130 <quant_band_stereo+0x1a8>

000020b4 <quant_band_stereo+0x12c>:
    20b4:	0f0c           	movi.n	a15, 0
    20b6:	2021d2        	l32i	a13, a1, 128
    20b9:	07ed           	mov.n	a14, a7
    20bb:	096d           	mov.n	a6, a9
    20bd:	400700        	ssr	a7
    20c0:	0a0c           	movi.n	a10, 0
    20c2:	21c9           	s32i.n	a12, a1, 8
    20c4:	212182        	l32i	a8, a1, 132
    20c7:	05cd           	mov.n	a12, a5
    20c9:	0189           	s32i.n	a8, a1, 0
    20cb:	11a9           	s32i.n	a10, a1, 4
    20cd:	31a9           	s32i.n	a10, a1, 12
    20cf:	b190b0        	sra	a9, a11
    20d2:	4199           	s32i.n	a9, a1, 16
    20d4:	02ad           	mov.n	a10, a2
    20d6:	04bd           	mov.n	a11, a4
    20d8:	ffc525        	call8	1d2c <quant_band>
    20db:	1c21d2        	l32i	a13, a1, 112
    20de:	72c8           	l32i.n	a12, a2, 28
    20e0:	2021b2        	l32i	a11, a1, 128
    20e3:	1861a2        	s32i	a10, a1, 96
    20e6:	c0ccd0        	sub	a12, a12, a13
    20e9:	bbca           	add.n	a11, a11, a12
    20eb:	8c1c           	movi.n	a12, 24
    20ed:	10acb7        	bge	a12, a11, 2101 <quant_band_stereo+0x179>
    20f0:	f7f5f1        	l32r	a15, c4 (4000 <dynalloc_analysis+0x48>)
    20f3:	1021e2        	l32i	a14, a1, 64
    20f6:	071ef7        	beq	a14, a15, 2101 <quant_band_stereo+0x179>
    20f9:	152162        	l32i	a6, a1, 84
    20fc:	66ba           	add.n	a6, a6, a11
    20fe:	e8c662        	addi	a6, a6, -24
    2101:	06dd           	mov.n	a13, a6
    2103:	07ed           	mov.n	a14, a7
    2105:	e1f8           	l32i.n	a15, a1, 56
    2107:	1621b2        	l32i	a11, a1, 88
    210a:	2121a2        	l32i	a10, a1, 132
    210d:	f1c8           	l32i.n	a12, a1, 60
    210f:	382182        	l32i	a8, a1, 224
    2112:	f7d991        	l32r	a9, 78 (7fff <celt_decode_with_ec+0x9b>)
    2115:	2199           	s32i.n	a9, a1, 8
    2117:	4189           	s32i.n	a8, a1, 16
    2119:	31c9           	s32i.n	a12, a1, 12
    211b:	01a9           	s32i.n	a10, a1, 0
    211d:	11b9           	s32i.n	a11, a1, 4
    211f:	02ad           	mov.n	a10, a2
    2121:	20b330        	or	a11, a3, a3
    2124:	20c550        	or	a12, a5, a5
    2127:	ffc065        	call8	1d2c <quant_band>
    212a:	182162        	l32i	a6, a1, 96
    212d:	2066a0        	or	a6, a6, a10

00002130 <quant_band_stereo+0x1a8>:
    2130:	1f2182        	l32i	a8, a1, 124
    2133:	18ac           	beqz.n	a8, 2158 <quant_band_stereo+0x1d0>

00002135 <quant_band_stereo+0x1ad>:
    2135:	0f2526        	beqi	a5, 2, 2148 <quant_band_stereo+0x1c0>
    2138:	03ad           	mov.n	a10, a3
    213a:	1d21c2        	l32i	a12, a1, 116
    213d:	a2e8           	l32i.n	a14, a2, 40
    213f:	20b440        	or	a11, a4, a4
    2142:	20d550        	or	a13, a5, a5
    2145:	fecea5        	call8	e30 <stereo_merge>

00002148 <quant_band_stereo+0x1c0>:
    2148:	1e2192        	l32i	a9, a1, 120
    214b:	998c           	beqz.n	a9, 2158 <quant_band_stereo+0x1d0>
    214d:	07a576        	loopgtz	a5, 2158 <quant_band_stereo+0x1d0>
    2150:	249d           	ae_l16si.n	a9, a4, 0
    2152:	609090        	neg	a9, a9
    2155:	09c494        	ae_s16ip	a9, a4, 2

00002158 <quant_band_stereo+0x1d0>:
    2158:	062d           	mov.n	a2, a6
    215a:	f01d           	retw.n

0000215c <quant_band_stereo+0x1d4>:
    215c:	1461c2        	s32i	a12, a1, 80
    215f:	111a16        	beqz	a10, 2274 <quant_band_stereo+0x2ec>
    2162:	c0dac2        	addmi	a12, a10, 0xffffc000
    2165:	10bc16        	beqz	a12, 2274 <quant_band_stereo+0x2ec>
    2168:	880c           	movi.n	a8, 8
    216a:	206182        	s32i	a8, a1, 128

0000216d <quant_band_stereo+0x1e5>:
    216d:	f7d981        	l32r	a8, d4 (2000 <quant_band_stereo+0x78>)
    2170:	202192        	l32i	a9, a1, 128
    2173:	7288a0        	salt	a8, a8, a10
    2176:	c9ba           	add.n	a12, a9, a11
    2178:	c0cdc0        	sub	a12, a13, a12
    217b:	72c9           	s32i.n	a12, a2, 28
    217d:	c0d690        	sub	a13, a6, a9
    2180:	04cd           	mov.n	a12, a4
    2182:	036d           	mov.n	a6, a3
    2184:	936480        	movnez	a6, a4, a8
    2187:	93c380        	movnez	a12, a3, a8
    218a:	1361c2        	s32i	a12, a1, 76
    218d:	0eb916        	beqz	a9, 227c <quant_band_stereo+0x2f4>
    2190:	1161d2        	s32i	a13, a1, 68
    2193:	1a2182        	l32i	a8, a1, 104
    2196:	f1e9           	s32i.n	a14, a1, 60
    2198:	0e61f2        	s32i	a15, a1, 56
    219b:	0e6816        	beqz	a8, 2285 <quant_band_stereo+0x2fd>
    219e:	1b21a2        	l32i	a10, a1, 108
    21a1:	3ced           	ae_l16si.n	a14, a12, 2
    21a3:	36fd           	ae_l16si.n	a15, a6, 2
    21a5:	2cdd           	ae_l16si.n	a13, a12, 0
    21a7:	26bd           	ae_l16si.n	a11, a6, 0
    21a9:	f7d281        	l32r	a8, f4 (a4f4 <ec_enc_bits>)
    21ac:	d1ddf0        	mul16s	a13, a13, a15
    21af:	d1bbe0        	mul16s	a11, a11, a14
    21b2:	01a0c2        	movi	a12, 1
    21b5:	c0bbd0        	sub	a11, a11, a13
    21b8:	05bfb0        	extui	a11, a11, 31, 1
    21bb:	1261b2        	s32i	a11, a1, 72
    21be:	0008e0        	callx8	a8
    21c1:	e1f8           	l32i.n	a15, a1, 56
    21c3:	f1e8           	l32i.n	a14, a1, 60
    21c5:	1121d2        	l32i	a13, a1, 68

000021c8 <quant_band_stereo+0x240>:
    21c8:	05cd           	mov.n	a12, a5
    21ca:	2121b2        	l32i	a11, a1, 132
    21cd:	1621a2        	l32i	a10, a1, 88
    21d0:	f7aa81        	l32r	a8, 78 (7fff <celt_decode_with_ec+0x9b>)
    21d3:	31e9           	s32i.n	a14, a1, 12
    21d5:	192192        	l32i	a9, a1, 100
    21d8:	4199           	s32i.n	a9, a1, 16
    21da:	07ed           	mov.n	a14, a7
    21dc:	2189           	s32i.n	a8, a1, 8
    21de:	11a9           	s32i.n	a10, a1, 4
    21e0:	01b9           	s32i.n	a11, a1, 0
    21e2:	02ad           	mov.n	a10, a2
    21e4:	06bd           	mov.n	a11, a6
    21e6:	ffb465        	call8	1d2c <quant_band>
    21e9:	1321e2        	l32i	a14, a1, 76
    21ec:	122192        	l32i	a9, a1, 72
    21ef:	368d           	ae_l16si.n	a8, a6, 2
    21f1:	1f0c           	movi.n	a15, 1
    21f3:	1199f0        	slli	a9, a9, 1
    21f6:	c0ff90        	sub	a15, a15, a9
    21f9:	8288f0        	mull	a8, a8, a15
    21fc:	608080        	neg	a8, a8
    21ff:	6e8d           	ae_s16i.n	a8, a14, 0
    2201:	26dd           	ae_l16si.n	a13, a6, 0
    2203:	1f21c2        	l32i	a12, a1, 124
    2206:	0a6d           	mov.n	a6, a10
    2208:	d1ddf0        	mul16s	a13, a13, a15
    220b:	7edd           	ae_s16i.n	a13, a14, 2
    220d:	f47c16        	beqz	a12, 2158 <quant_band_stereo+0x1d0>
    2210:	1d21c2        	l32i	a12, a1, 116
    2213:	23bd           	ae_l16si.n	a11, a3, 0
    2215:	33ad           	ae_l16si.n	a10, a3, 2
    2217:	d1bbc0        	mul16s	a11, a11, a12
    221a:	d1aac0        	mul16s	a10, a10, a12
    221d:	21bfb0        	srai	a11, a11, 15
    2220:	21afa0        	srai	a10, a10, 15
    2223:	73ad           	ae_s16i.n	a10, a3, 2
    2225:	63bd           	ae_s16i.n	a11, a3, 0
    2227:	1421a2        	l32i	a10, a1, 80
    222a:	248d           	ae_l16si.n	a8, a4, 0
    222c:	349d           	ae_l16si.n	a9, a4, 2
    222e:	d188a0        	mul16s	a8, a8, a10
    2231:	d199a0        	mul16s	a9, a9, a10
    2234:	218f80        	srai	a8, a8, 15
    2237:	219f90        	srai	a9, a9, 15
    223a:	749d           	ae_s16i.n	a9, a4, 2
    223c:	648d           	ae_s16i.n	a8, a4, 0
    223e:	23fd           	ae_l16si.n	a15, a3, 0
    2240:	888d           	ae_sext16	a8, a8
    2242:	c08f80        	sub	a8, a15, a8
    2245:	638d           	ae_s16i.n	a8, a3, 0
    2247:	24ed           	ae_l16si.n	a14, a4, 0
    2249:	34dd           	ae_l16si.n	a13, a4, 2
    224b:	eefa           	add.n	a14, a14, a15
    224d:	64ed           	ae_s16i.n	a14, a4, 0
    224f:	33cd           	ae_l16si.n	a12, a3, 2
    2251:	c0dcd0        	sub	a13, a12, a13
    2254:	73dd           	ae_s16i.n	a13, a3, 2
    2256:	34bd           	ae_l16si.n	a11, a4, 2
    2258:	1f21a2        	l32i	a10, a1, 124
    225b:	bbca           	add.n	a11, a11, a12
    225d:	74bd           	ae_s16i.n	a11, a4, 2
    225f:	ed2a56        	bnez	a10, 2135 <quant_band_stereo+0x1ad>
    2262:	ffbc86        	j	2158 <quant_band_stereo+0x1d0>

00002265 <quant_band_stereo+0x2dd>:
    2265:	06dd           	mov.n	a13, a6
    2267:	04cd           	mov.n	a12, a4
    2269:	03bd           	mov.n	a11, a3
    226b:	02ad           	mov.n	a10, a2
    226d:	ff65e5        	call8	18cc <quant_band_n1>
    2270:	0a2d           	mov.n	a2, a10
    2272:	f01d           	retw.n

00002274 <quant_band_stereo+0x2ec>:
    2274:	0c0c           	movi.n	a12, 0
    2276:	2061c2        	s32i	a12, a1, 128
    2279:	ffbc06        	j	216d <quant_band_stereo+0x1e5>

0000227c <quant_band_stereo+0x2f4>:
    227c:	080c           	movi.n	a8, 0
    227e:	126182        	s32i	a8, a1, 72
    2281:	ffd0c6        	j	21c8 <quant_band_stereo+0x240>

00002284 <quant_band_stereo+0x2fc>:
	...

00002285 <quant_band_stereo+0x2fd>:
    2285:	f79c81        	l32r	a8, f8 (ab48 <ec_dec_bits>)
    2288:	1b21a2        	l32i	a10, a1, 108
    228b:	1b0c           	movi.n	a11, 1
    228d:	0008e0        	callx8	a8
    2290:	e1f8           	l32i.n	a15, a1, 56
    2292:	f1e8           	l32i.n	a14, a1, 60
    2294:	1121d2        	l32i	a13, a1, 68
    2297:	1261a2        	s32i	a10, a1, 72
    229a:	ffca86        	j	21c8 <quant_band_stereo+0x240>

0000229d <quant_band_stereo+0x315>:
    229d:	000000                                        ...

000022a0 <quant_all_bands>:
    22a0:	022136        	entry	a1, 0x110
    22a3:	276122        	s32i	a2, a1, 156
    22a6:	236172        	s32i	a7, a1, 140
    22a9:	206132        	s32i	a3, a1, 128
    22ac:	03dd           	mov.n	a13, a3
    22ae:	07ed           	mov.n	a14, a7
    22b0:	216142        	s32i	a4, a1, 132
    22b3:	04fd           	mov.n	a15, a4
    22b5:	226162        	s32i	a6, a1, 136
    22b8:	246152        	s32i	a5, a1, 144
    22bb:	4f2182        	l32i	a8, a1, 0x13c
    22be:	6398           	l32i.n	a9, a3, 24
    22c0:	1c0c           	movi.n	a12, 1
    22c2:	0cad           	mov.n	a10, a12
    22c4:	266192        	s32i	a9, a1, 152
    22c7:	256182        	s32i	a8, a1, 148
    22ca:	401800        	ssl	a8
    22cd:	a15c00        	sll	a5, a12
    22d0:	2388           	l32i.n	a8, a3, 8
    22d2:	906490        	addx2	a6, a4, a9
    22d5:	156162        	s32i	a6, a1, 84
    22d8:	140c           	movi.n	a4, 1
    22da:	266d           	ae_l16si.n	a6, a6, 0
    22dc:	93e470        	movnez	a14, a4, a7
    22df:	908890        	addx2	a8, a8, a9
    22e2:	1761e2        	s32i	a14, a1, 92
    22e5:	290c           	movi.n	a9, 2
    22e7:	ffd882        	addmi	a8, a8, 0xffffff00
    22ea:	7f9882        	l16si	a8, a8, 254
    22ed:	93c9e0        	movnez	a12, a9, a14
    22f0:	2a61c2        	s32i	a12, a1, 168
    22f3:	f76ee1        	l32r	a14, ac (14e60 <global_stack>)
    22f6:	c0b860        	sub	a11, a8, a6
    22f9:	828850        	mull	a8, a8, a5
    22fc:	82b5b0        	mull	a11, a5, a11
    22ff:	826650        	mull	a6, a6, a5
    2302:	1d6162        	s32i	a6, a1, 116
    2305:	82bcb0        	mull	a11, a12, a11
    2308:	0ec8           	l32i.n	a12, a14, 0
    230a:	1166f0        	slli	a6, a6, 1
    230d:	196162        	s32i	a6, a1, 100
    2310:	c099c0        	sub	a9, a9, a12
    2313:	049090        	extui	a9, a9, 0, 1
    2316:	9c9a           	add.n	a9, a12, a9
    2318:	2c6192        	s32i	a9, a1, 176
    231b:	90bb90        	addx2	a11, a11, a9
    231e:	0eb9           	s32i.n	a11, a14, 0
    2320:	90b890        	addx2	a11, a8, a9
    2323:	91d9           	s32i.n	a13, a1, 36
    2325:	c0bb60        	sub	a11, a11, a6
    2328:	4a2192        	l32i	a9, a1, 0x128
    232b:	0f6d           	mov.n	a6, a15
    232d:	1c6192        	s32i	a9, a1, 112
    2330:	b199           	s32i.n	a9, a1, 44
    2332:	1861b2        	s32i	a11, a1, 96
    2335:	4521d2        	l32i	a13, a1, 0x114
    2338:	1061d2        	s32i	a13, a1, 64
    233b:	4e21b2        	l32i	a11, a1, 0x138
    233e:	222192        	l32i	a9, a1, 136
    2341:	1f61b2        	s32i	a11, a1, 124
    2344:	e1b9           	s32i.n	a11, a1, 56
    2346:	4721b2        	l32i	a11, a1, 0x11c
    2349:	908890        	addx2	a8, a8, a9
    234c:	522192        	l32i	a9, a1, 0x148
    234f:	386182        	s32i	a8, a1, 224
    2352:	93a5b0        	movnez	a10, a5, a11
    2355:	242182        	l32i	a8, a1, 144
    2358:	02bd           	mov.n	a11, a2
    235a:	2861a2        	s32i	a10, a1, 160
    235d:	81b9           	s32i.n	a11, a1, 32
    235f:	5121b2        	l32i	a11, a1, 0x144
    2362:	4821a2        	l32i	a10, a1, 0x120
    2365:	1b61a2        	s32i	a10, a1, 108
    2368:	0bd8           	l32i.n	a13, a11, 0
    236a:	c1a9           	s32i.n	a10, a1, 48
    236c:	1161d2        	s32i	a13, a1, 68
    236f:	126192        	s32i	a9, a1, 72
    2372:	022f87        	blt	a15, a8, 2378 <quant_all_bands+0xd8>
    2375:	012a86        	j	2823 <quant_all_bands+0x583>
    2378:	1461c2        	s32i	a12, a1, 80
    237b:	1361b2        	s32i	a11, a1, 76
    237e:	9f1b           	addi.n	a9, a15, 1
    2380:	2a2182        	l32i	a8, a1, 168
    2383:	0d0c           	movi.n	a13, 0
    2385:	4921a2        	l32i	a10, a1, 0x124
    2388:	442122        	l32i	a2, a1, 0x110
    238b:	1a6122        	s32i	a2, a1, 104
    238e:	2b61a2        	s32i	a10, a1, 172
    2391:	3361d2        	s32i	a13, a1, 204
    2394:	1a0c           	movi.n	a10, 1
    2396:	2821d2        	l32i	a13, a1, 160
    2399:	82f8f0        	mull	a15, a8, a15
    239c:	828890        	mull	a8, a8, a9
    239f:	401d00        	ssl	a13
    23a2:	a1aa00        	sll	a10, a10
    23a5:	502192        	l32i	a9, a1, 0x140
    23a8:	f2fa           	add.n	a15, a2, a15
    23aa:	80cff2        	addi	a15, a15, -128
    23ad:	228a           	add.n	a2, a2, a8
    23af:	296192        	s32i	a9, a1, 164
    23b2:	aa0b           	addi.n	a10, a10, -1
    23b4:	1661a2        	s32i	a10, a1, 88
    23b7:	4b2192        	l32i	a9, a1, 0x12c
    23ba:	80c222        	addi	a2, a2, -128
    23bd:	2e61f2        	s32i	a15, a1, 184
    23c0:	4c2182        	l32i	a8, a1, 0x130
    23c3:	2421f2        	l32i	a15, a1, 144
    23c6:	1e6182        	s32i	a8, a1, 120
    23c9:	2f6122        	s32i	a2, a1, 188
    23cc:	462182        	l32i	a8, a1, 0x118
    23cf:	152122        	l32i	a2, a1, 84
    23d2:	396122        	s32i	a2, a1, 228
    23d5:	a09690        	addx4	a9, a6, a9
    23d8:	356192        	s32i	a9, a1, 212
    23db:	4d2122        	l32i	a2, a1, 0x134
    23de:	ff0b           	addi.n	a15, a15, -1
    23e0:	3061f2        	s32i	a15, a1, 192
    23e3:	a08680        	addx4	a8, a6, a8
    23e6:	326182        	s32i	a8, a1, 200
    23e9:	002146        	j	2472 <quant_all_bands+0x1d2>

000023ec <quant_all_bands+0x14c>:
	...

000023ed <quant_all_bands+0x14d>:
    23ed:	302182        	l32i	a8, a1, 192
    23f0:	0d0c           	movi.n	a13, 0
    23f2:	c08860        	sub	a8, a8, a6
    23f5:	224856        	bnez	a8, 261d <quant_all_bands+0x37d>

000023f8 <quant_all_bands+0x158>:
    23f8:	0c0c           	movi.n	a12, 0

000023fa <quant_all_bands+0x15a>:
    23fa:	3421e2        	l32i	a14, a1, 208
    23fd:	2821f2        	l32i	a15, a1, 160
    2400:	01d9           	s32i.n	a13, a1, 0
    2402:	2521a2        	l32i	a10, a1, 148
    2405:	382192        	l32i	a9, a1, 224
    2408:	41b9           	s32i.n	a11, a1, 16
    240a:	21c9           	s32i.n	a12, a1, 8
    240c:	3121b2        	l32i	a11, a1, 196
    240f:	3721c2        	l32i	a12, a1, 220
    2412:	3199           	s32i.n	a9, a1, 12
    2414:	11a9           	s32i.n	a10, a1, 4
    2416:	07dd           	mov.n	a13, a7
    2418:	20c1a2        	addi	a10, a1, 32
    241b:	ffb6e5        	call8	1f88 <quant_band_stereo>
    241e:	0a4d           	mov.n	a4, a10

00002420 <quant_all_bands+0x180>:
    2420:	043d           	mov.n	a3, a4

00002422 <quant_all_bands+0x182>:
    2422:	661b           	addi.n	a6, a6, 1
    2424:	2d21b2        	l32i	a11, a1, 180
    2427:	342182        	l32i	a8, a1, 208
    242a:	3221c2        	l32i	a12, a1, 200
    242d:	2a21e2        	l32i	a14, a1, 168
    2430:	2e21f2        	l32i	a15, a1, 184
    2433:	352192        	l32i	a9, a1, 212
    2436:	2f21d2        	l32i	a13, a1, 188
    2439:	804f42        	s8i	a4, a15, 128
    243c:	994b           	addi.n	a9, a9, 4
    243e:	356192        	s32i	a9, a1, 212
    2441:	1147d0        	slli	a4, a7, 3
    2444:	7f4d32        	s8i	a3, a13, 127
    2447:	ffea           	add.n	a15, a15, a14
    2449:	2e61f2        	s32i	a15, a1, 184
    244c:	0ca8           	l32i.n	a10, a12, 0
    244e:	724480        	salt	a4, a4, a8
    2451:	ddea           	add.n	a13, a13, a14
    2453:	2f61d2        	s32i	a13, a1, 188
    2456:	392182        	l32i	a8, a1, 228
    2459:	cc4b           	addi.n	a12, a12, 4
    245b:	3261c2        	s32i	a12, a1, 200
    245e:	aaba           	add.n	a10, a10, a11
    2460:	8022a0        	add	a2, a2, a10
    2463:	2421b2        	l32i	a11, a1, 144
    2466:	02c882        	addi	a8, a8, 2
    2469:	396182        	s32i	a8, a1, 228
    246c:	c0bb60        	sub	a11, a11, a6
    246f:	39eb16        	beqz	a11, 2811 <quant_all_bands+0x571>

00002472 <quant_all_bands+0x1d2>:
    2472:	392172        	l32i	a7, a1, 228
    2475:	a169           	s32i.n	a6, a1, 40
    2477:	2321b2        	l32i	a11, a1, 140
    247a:	278d           	ae_l16si.n	a8, a7, 0
    247c:	377d           	ae_l16si.n	a7, a7, 2
    247e:	2221a2        	l32i	a10, a1, 136
    2481:	829850        	mull	a9, a8, a5
    2484:	c07780        	sub	a7, a7, a8
    2487:	827570        	mull	a7, a5, a7
    248a:	f70c81        	l32r	a8, bc (a140 <ec_tell_frac>)
    248d:	90a9a0        	addx2	a10, a9, a10
    2490:	3161a2        	s32i	a10, a1, 196
    2493:	9099b0        	addx2	a9, a9, a11
    2496:	0a0c           	movi.n	a10, 0
    2498:	839ab0        	moveqz	a9, a10, a11
    249b:	376192        	s32i	a9, a1, 220
    249e:	1f21a2        	l32i	a10, a1, 124
    24a1:	0008e0        	callx8	a8
    24a4:	2d61a2        	s32i	a10, a1, 180
    24a7:	292182        	l32i	a8, a1, 164
    24aa:	1e21d2        	l32i	a13, a1, 120
    24ad:	2121f2        	l32i	a15, a1, 132
    24b0:	c0e2a0        	sub	a14, a2, a10
    24b3:	c0dda0        	sub	a13, a13, a10
    24b6:	c0ff60        	sub	a15, a15, a6
    24b9:	932ef0        	movnez	a2, a14, a15
    24bc:	9d0b           	addi.n	a9, a13, -1
    24be:	f199           	s32i.n	a9, a1, 60
    24c0:	2aa687        	bge	a6, a8, 24ee <quant_all_bands+0x24e>
    24c3:	322192        	l32i	a9, a1, 200
    24c6:	3b0c           	movi.n	a11, 3
    24c8:	c0a860        	sub	a10, a8, a6
    24cb:	0998           	l32i.n	a9, a9, 0
    24cd:	43aab0        	min	a10, a10, a11
    24d0:	d2a2a0        	quos	a10, a2, a10
    24d3:	8099a0        	add	a9, a9, a10
    24d6:	4399d0        	min	a9, a9, a13
    24d9:	005916        	beqz	a9, 24e2 <quant_all_bands+0x242>
    24dc:	0219e6        	bgei	a9, 1, 24e2 <quant_all_bands+0x242>
    24df:	00c7c6        	j	2802 <quant_all_bands+0x562>

000024e2 <quant_all_bands+0x242>:
    24e2:	f6ebe1        	l32r	a14, 90 (3fff <dynalloc_analysis+0x47>)
    24e5:	43e9e0        	min	a14, a9, a14

000024e8 <quant_all_bands+0x248>:
    24e8:	3461e2        	s32i	a14, a1, 208
    24eb:	000106        	j	24f3 <quant_all_bands+0x253>

000024ee <quant_all_bands+0x24e>:
    24ee:	080c           	movi.n	a8, 0
    24f0:	346182        	s32i	a8, a1, 208

000024f3 <quant_all_bands+0x253>:
    24f3:	272192        	l32i	a9, a1, 156
    24f6:	f03d           	nop.n
    24f8:	f03d           	nop.n
    24fa:	217916        	beqz	a9, 2715 <quant_all_bands+0x475>

000024fd <quant_all_bands+0x25d>:
    24fd:	2021a2        	l32i	a10, a1, 128
    2500:	3521f2        	l32i	a15, a1, 212
    2503:	3aa8           	l32i.n	a10, a10, 12
    2505:	0ff8           	l32i.n	a15, a15, 0
    2507:	d1f9           	s32i.n	a15, a1, 52
    2509:	1726a7        	blt	a6, a10, 2524 <quant_all_bands+0x284>
    250c:	1721e2        	l32i	a14, a1, 92
    250f:	3721d2        	l32i	a13, a1, 220
    2512:	00a0b2        	movi	a11, 0
    2515:	2c21c2        	l32i	a12, a1, 176
    2518:	3161c2        	s32i	a12, a1, 196
    251b:	3861b2        	s32i	a11, a1, 224
    251e:	93dce0        	movnez	a13, a12, a14
    2521:	3761d2        	s32i	a13, a1, 220

00002524 <quant_all_bands+0x284>:
    2524:	332182        	l32i	a8, a1, 204
    2527:	3021b2        	l32i	a11, a1, 192
    252a:	382192        	l32i	a9, a1, 224
    252d:	0a0c           	movi.n	a10, 0
    252f:	c0bb60        	sub	a11, a11, a6
    2532:	839ab0        	moveqz	a9, a10, a11
    2535:	386192        	s32i	a9, a1, 224
    2538:	1cc816        	beqz	a8, 2708 <quant_all_bands+0x468>
    253b:	1b21c2        	l32i	a12, a1, 108
    253e:	fdccc2        	addi	a12, a12, -3
    2541:	1b7c16        	beqz	a12, 26fc <quant_all_bands+0x45c>

00002544 <quant_all_bands+0x2a4>:
    2544:	2621b2        	l32i	a11, a1, 152
    2547:	3321f2        	l32i	a15, a1, 204
    254a:	0a0c           	movi.n	a10, 0
    254c:	1d2192        	l32i	a9, a1, 116
    254f:	90bfb0        	addx2	a11, a15, a11
    2552:	2bed           	ae_l16si.n	a14, a11, 0
    2554:	ffdb82        	addmi	a8, a11, 0xffffff00
    2557:	7f9882        	l16si	a8, a8, 254
    255a:	ff0b           	addi.n	a15, a15, -1
    255c:	82ee50        	mull	a14, a14, a5
    255f:	828850        	mull	a8, a8, a5
    2562:	c0de90        	sub	a13, a14, a9
    2565:	c0dd70        	sub	a13, a13, a7
    2568:	53dda0        	max	a13, a13, a10
    256b:	3661d2        	s32i	a13, a1, 216
    256e:	dd9a           	add.n	a13, a13, a9
    2570:	19ad87        	bge	a13, a8, 258d <quant_all_bands+0x2ed>
    2573:	2621c2        	l32i	a12, a1, 152
    2576:	90cfc0        	addx2	a12, a15, a12
    2579:	0c8076        	loop	a0, 2589 <quant_all_bands+0x2e9>
    257c:	feccc2        	addi	a12, a12, -2
    257f:	2c8d           	ae_l16si.n	a8, a12, 0
    2581:	828850        	mull	a8, a8, a5
    2584:	ff0b           	addi.n	a15, a15, -1
    2586:	03ad87        	bge	a13, a8, 258d <quant_all_bands+0x2ed>

00002589 <quant_all_bands+0x2e9>:
    2589:	fffb06        	j	2579 <quant_all_bands+0x2d9>

0000258c <quant_all_bands+0x2ec>:
	...

0000258d <quant_all_bands+0x2ed>:
    258d:	3321c2        	l32i	a12, a1, 204
    2590:	dd7a           	add.n	a13, a13, a7
    2592:	13aed7        	bge	a14, a13, 25a9 <quant_all_bands+0x309>
    2595:	0b8076        	loop	a0, 25a4 <quant_all_bands+0x304>
    2598:	3b9d           	ae_l16si.n	a9, a11, 2
    259a:	cc1b           	addi.n	a12, a12, 1
    259c:	829950        	mull	a9, a9, a5
    259f:	bb2b           	addi.n	a11, a11, 2
    25a1:	04a9d7        	bge	a9, a13, 25a9 <quant_all_bands+0x309>

000025a4 <quant_all_bands+0x304>:
    25a4:	fffb46        	j	2595 <quant_all_bands+0x2f5>

000025a7 <quant_all_bands+0x307>:
	...

000025a9 <quant_all_bands+0x309>:
    25a9:	0d0c           	movi.n	a13, 0
    25ab:	1a2182        	l32i	a8, a1, 104
    25ae:	bf1b           	addi.n	a11, a15, 1
    25b0:	c09cf0        	sub	a9, a12, a15
    25b3:	2a21e2        	l32i	a14, a1, 168
    25b6:	1c0c           	movi.n	a12, 1
    25b8:	5399c0        	max	a9, a9, a12
    25bb:	0c0c           	movi.n	a12, 0
    25bd:	82aef0        	mull	a10, a14, a15
    25c0:	82beb0        	mull	a11, a14, a11
    25c3:	a8aa           	add.n	a10, a8, a10
    25c5:	80caa2        	addi	a10, a10, -128
    25c8:	88ba           	add.n	a8, a8, a11
    25ca:	80c882        	addi	a8, a8, -128
    25cd:	0fa976        	loopgtz	a9, 25e0 <quant_all_bands+0x340>
    25d0:	7f0892        	l8ui	a9, a8, 127
    25d3:	800ab2        	l8ui	a11, a10, 128
    25d6:	88ea           	add.n	a8, a8, a14
    25d8:	20c9c0        	or	a12, a9, a12
    25db:	20dbd0        	or	a13, a11, a13
    25de:	aaea           	add.n	a10, a10, a14

000025e0 <quant_all_bands+0x340>:
    25e0:	0c3d           	mov.n	a3, a12
    25e2:	0d4d           	mov.n	a4, a13

000025e4 <quant_all_bands+0x344>:
    25e4:	2b21d2        	l32i	a13, a1, 172
    25e7:	fd8c           	beqz.n	a13, 25fa <quant_all_bands+0x35a>
    25e9:	1c21e2        	l32i	a14, a1, 112
    25ec:	4496e7        	bne	a6, a14, 2634 <quant_all_bands+0x394>
    25ef:	2721f2        	l32i	a15, a1, 156
    25f2:	080c           	movi.n	a8, 0
    25f4:	2b6182        	s32i	a8, a1, 172
    25f7:	19af16        	beqz	a15, 2795 <quant_all_bands+0x4f5>

000025fa <quant_all_bands+0x35a>:
    25fa:	372192        	l32i	a9, a1, 220
    25fd:	20b430        	or	a11, a4, a3
    2600:	134916        	beqz	a9, 2738 <quant_all_bands+0x498>
    2603:	3621a2        	l32i	a10, a1, 216
    2606:	aa1b           	addi.n	a10, a10, 1
    2608:	de1a16        	beqz	a10, 23ed <quant_all_bands+0x14d>
    260b:	2c21e2        	l32i	a14, a1, 176
    260e:	3021c2        	l32i	a12, a1, 192
    2611:	3621d2        	l32i	a13, a1, 216
    2614:	c0cc60        	sub	a12, a12, a6
    2617:	90dde0        	addx2	a13, a13, a14
    261a:	ddac16        	beqz	a12, 23f8 <quant_all_bands+0x158>

0000261d <quant_all_bands+0x37d>:
    261d:	3921c2        	l32i	a12, a1, 228
    2620:	2ccd           	ae_l16si.n	a12, a12, 0
    2622:	2c21e2        	l32i	a14, a1, 176
    2625:	82cc50        	mull	a12, a12, a5
    2628:	90cce0        	addx2	a12, a12, a14
    262b:	1921e2        	l32i	a14, a1, 100
    262e:	c0cce0        	sub	a12, a12, a14
    2631:	ff7146        	j	23fa <quant_all_bands+0x15a>

00002634 <quant_all_bands+0x394>:
    2634:	fc2d16        	beqz	a13, 25fa <quant_all_bands+0x35a>
    2637:	3621e2        	l32i	a14, a1, 216
    263a:	220e26        	beqi	a14, -1, 2660 <quant_all_bands+0x3c0>
    263d:	2c2182        	l32i	a8, a1, 176
    2640:	90fe80        	addx2	a15, a14, a8
    2643:	302182        	l32i	a8, a1, 192
    2646:	1e1867        	beq	a8, a6, 2668 <quant_all_bands+0x3c8>

00002649 <quant_all_bands+0x3a9>:
    2649:	3921b2        	l32i	a11, a1, 228
    264c:	2bbd           	ae_l16si.n	a11, a11, 0
    264e:	2c21c2        	l32i	a12, a1, 176
    2651:	82bb50        	mull	a11, a11, a5
    2654:	90bbc0        	addx2	a11, a11, a12
    2657:	1921c2        	l32i	a12, a1, 100
    265a:	c0bbc0        	sub	a11, a11, a12
    265d:	000246        	j	266a <quant_all_bands+0x3ca>

00002660 <quant_all_bands+0x3c0>:
    2660:	3021c2        	l32i	a12, a1, 192
    2663:	0f0c           	movi.n	a15, 0
    2665:	e09c67        	bne	a12, a6, 2649 <quant_all_bands+0x3a9>

00002668 <quant_all_bands+0x3c8>:
    2668:	0b0c           	movi.n	a11, 0

0000266a <quant_all_bands+0x3ca>:
    266a:	4149           	s32i.n	a4, a1, 16
    266c:	07cd           	mov.n	a12, a7
    266e:	3421e2        	l32i	a14, a1, 208
    2671:	f68181        	l32r	a8, 78 (7fff <celt_decode_with_ec+0x9b>)
    2674:	2521a2        	l32i	a10, a1, 148
    2677:	11b9           	s32i.n	a11, a1, 4
    2679:	382192        	l32i	a9, a1, 224
    267c:	3121b2        	l32i	a11, a1, 196
    267f:	3199           	s32i.n	a9, a1, 12
    2681:	01a9           	s32i.n	a10, a1, 0
    2683:	2189           	s32i.n	a8, a1, 8
    2685:	20c1a2        	addi	a10, a1, 32
    2688:	de1b           	addi.n	a13, a14, 1
    268a:	b3dee0        	movgez	a13, a14, a14
    268d:	2821e2        	l32i	a14, a1, 160
    2690:	21d1d0        	srai	a13, a13, 1
    2693:	3a61d2        	s32i	a13, a1, 232
    2696:	ff6965        	call8	1d2c <quant_band>
    2699:	3621b2        	l32i	a11, a1, 216
    269c:	3a21c2        	l32i	a12, a1, 232
    269f:	0a4d           	mov.n	a4, a10
    26a1:	230b26        	beqi	a11, -1, 26c8 <quant_all_bands+0x428>
    26a4:	182182        	l32i	a8, a1, 96
    26a7:	3021d2        	l32i	a13, a1, 192
    26aa:	90fb80        	addx2	a15, a11, a8
    26ad:	1f1d67        	beq	a13, a6, 26d0 <quant_all_bands+0x430>

000026b0 <quant_all_bands+0x410>:
    26b0:	3921b2        	l32i	a11, a1, 228
    26b3:	2bbd           	ae_l16si.n	a11, a11, 0
    26b5:	1821d2        	l32i	a13, a1, 96
    26b8:	82bb50        	mull	a11, a11, a5
    26bb:	90bbd0        	addx2	a11, a11, a13
    26be:	1921d2        	l32i	a13, a1, 100
    26c1:	c0bbd0        	sub	a11, a11, a13
    26c4:	000286        	j	26d2 <quant_all_bands+0x432>

000026c7 <quant_all_bands+0x427>:
	...

000026c8 <quant_all_bands+0x428>:
    26c8:	3021d2        	l32i	a13, a1, 192
    26cb:	0f0c           	movi.n	a15, 0
    26cd:	df9d67        	bne	a13, a6, 26b0 <quant_all_bands+0x410>

000026d0 <quant_all_bands+0x430>:
    26d0:	0b0c           	movi.n	a11, 0

000026d2 <quant_all_bands+0x432>:
    26d2:	4139           	s32i.n	a3, a1, 16
    26d4:	20c1a2        	addi	a10, a1, 32
    26d7:	382182        	l32i	a8, a1, 224
    26da:	f667e1        	l32r	a14, 78 (7fff <celt_decode_with_ec+0x9b>)
    26dd:	0cdd           	mov.n	a13, a12
    26df:	11b9           	s32i.n	a11, a1, 4
    26e1:	252192        	l32i	a9, a1, 148
    26e4:	3721b2        	l32i	a11, a1, 220
    26e7:	0199           	s32i.n	a9, a1, 0
    26e9:	07cd           	mov.n	a12, a7
    26eb:	21e9           	s32i.n	a14, a1, 8
    26ed:	3189           	s32i.n	a8, a1, 12
    26ef:	2821e2        	l32i	a14, a1, 160
    26f2:	ff63a5        	call8	1d2c <quant_band>
    26f5:	0a3d           	mov.n	a3, a10
    26f7:	ff49c6        	j	2422 <quant_all_bands+0x182>

000026fa <quant_all_bands+0x45a>:
	...

000026fc <quant_all_bands+0x45c>:
    26fc:	2821a2        	l32i	a10, a1, 160
    26ff:	022aa6        	blti	a10, 2, 2705 <quant_all_bands+0x465>
    2702:	ff8f86        	j	2544 <quant_all_bands+0x2a4>
    2705:	e3bf96        	bltz	a15, 2544 <quant_all_bands+0x2a4>
    2708:	162132        	l32i	a3, a1, 88
    270b:	fb7c           	movi.n	a11, -1
    270d:	3661b2        	s32i	a11, a1, 216
    2710:	034d           	mov.n	a4, a3
    2712:	ffb386        	j	25e4 <quant_all_bands+0x344>

00002715 <quant_all_bands+0x475>:
    2715:	3921c2        	l32i	a12, a1, 228
    2718:	1521d2        	l32i	a13, a1, 84
    271b:	2ccd           	ae_l16si.n	a12, a12, 0
    271d:	2ddd           	ae_l16si.n	a13, a13, 0
    271f:	82cc50        	mull	a12, a12, a5
    2722:	82dd50        	mull	a13, a13, a5
    2725:	c0cc70        	sub	a12, a12, a7
    2728:	02acd7        	bge	a12, a13, 272e <quant_all_bands+0x48e>
    272b:	ff7386        	j	24fd <quant_all_bands+0x25d>
    272e:	0d6416        	beqz	a4, 2808 <quant_all_bands+0x568>

00002731 <quant_all_bands+0x491>:
    2731:	336162        	s32i	a6, a1, 204
    2734:	ff7146        	j	24fd <quant_all_bands+0x25d>

00002737 <quant_all_bands+0x497>:
	...

00002738 <quant_all_bands+0x498>:
    2738:	3621e2        	l32i	a14, a1, 216
    273b:	230e26        	beqi	a14, -1, 2762 <quant_all_bands+0x4c2>
    273e:	2c2182        	l32i	a8, a1, 176
    2741:	90fe80        	addx2	a15, a14, a8
    2744:	302182        	l32i	a8, a1, 192
    2747:	1f1867        	beq	a8, a6, 276a <quant_all_bands+0x4ca>

0000274a <quant_all_bands+0x4aa>:
    274a:	3921c2        	l32i	a12, a1, 228
    274d:	2ccd           	ae_l16si.n	a12, a12, 0
    274f:	2c21d2        	l32i	a13, a1, 176
    2752:	82cc50        	mull	a12, a12, a5
    2755:	90ccd0        	addx2	a12, a12, a13
    2758:	1921d2        	l32i	a13, a1, 100
    275b:	c0ccd0        	sub	a12, a12, a13
    275e:	000286        	j	276c <quant_all_bands+0x4cc>

00002761 <quant_all_bands+0x4c1>:
	...

00002762 <quant_all_bands+0x4c2>:
    2762:	3021d2        	l32i	a13, a1, 192
    2765:	0f0c           	movi.n	a15, 0
    2767:	df9d67        	bne	a13, a6, 274a <quant_all_bands+0x4aa>

0000276a <quant_all_bands+0x4ca>:
    276a:	0c0c           	movi.n	a12, 0

0000276c <quant_all_bands+0x4cc>:
    276c:	20c1a2        	addi	a10, a1, 32
    276f:	3421d2        	l32i	a13, a1, 208
    2772:	382182        	l32i	a8, a1, 224
    2775:	f640e1        	l32r	a14, 78 (7fff <celt_decode_with_ec+0x9b>)
    2778:	11c9           	s32i.n	a12, a1, 4
    277a:	41b9           	s32i.n	a11, a1, 16
    277c:	252192        	l32i	a9, a1, 148
    277f:	3121b2        	l32i	a11, a1, 196
    2782:	0199           	s32i.n	a9, a1, 0
    2784:	07cd           	mov.n	a12, a7
    2786:	21e9           	s32i.n	a14, a1, 8
    2788:	3189           	s32i.n	a8, a1, 12
    278a:	2821e2        	l32i	a14, a1, 160
    278d:	ff59e5        	call8	1d2c <quant_band>
    2790:	0a4d           	mov.n	a4, a10
    2792:	ff2286        	j	2420 <quant_all_bands+0x180>

00002795 <quant_all_bands+0x4f5>:
    2795:	392192        	l32i	a9, a1, 228
    2798:	299d           	ae_l16si.n	a9, a9, 0
    279a:	1d21a2        	l32i	a10, a1, 116
    279d:	829590        	mull	a9, a5, a9
    27a0:	c099a0        	sub	a9, a9, a10
    27a3:	0219e6        	bgei	a9, 1, 27a9 <quant_all_bands+0x509>
    27a6:	ff9406        	j	25fa <quant_all_bands+0x35a>
    27a9:	1821f2        	l32i	a15, a1, 96
    27ac:	2c21a2        	l32i	a10, a1, 176
    27af:	0d6907        	bbci	a9, 0, 27c0 <quant_all_bands+0x520>
    27b2:	2fcd           	ae_l16si.n	a12, a15, 0
    27b4:	2abd           	ae_l16si.n	a11, a10, 0
    27b6:	ff2b           	addi.n	a15, a15, 2
    27b8:	bbca           	add.n	a11, a11, a12
    27ba:	21b1b0        	srai	a11, a11, 1
    27bd:	09cab4        	ae_s16ip	a11, a10, 2

000027c0 <quant_all_bands+0x520>:
    27c0:	21b190        	srai	a11, a9, 1
    27c3:	e33b16        	beqz	a11, 25fa <quant_all_bands+0x35a>
    27c6:	2f8d           	ae_l16si.n	a8, a15, 0
    27c8:	2aed           	ae_l16si.n	a14, a10, 0
    27ca:	3fcd           	ae_l16si.n	a12, a15, 2
    27cc:	9b0b           	addi.n	a9, a11, -1
    27ce:	ee8a           	add.n	a14, a14, a8
    27d0:	8f4b           	addi.n	a8, a15, 4
    27d2:	21e1e0        	srai	a14, a14, 1
    27d5:	09cae4        	ae_s16ip	a14, a10, 2
    27d8:	2abd           	ae_l16si.n	a11, a10, 0
    27da:	19a976        	loopgtz	a9, 27f7 <quant_all_bands+0x557>
    27dd:	289d           	ae_l16si.n	a9, a8, 0
    27df:	bbca           	add.n	a11, a11, a12
    27e1:	21b1b0        	srai	a11, a11, 1
    27e4:	09cab4        	ae_s16ip	a11, a10, 2
    27e7:	2abd           	ae_l16si.n	a11, a10, 0
    27e9:	38cd           	ae_l16si.n	a12, a8, 2
    27eb:	884b           	addi.n	a8, a8, 4
    27ed:	9b9a           	add.n	a9, a11, a9
    27ef:	219190        	srai	a9, a9, 1
    27f2:	09ca94        	ae_s16ip	a9, a10, 2
    27f5:	2abd           	ae_l16si.n	a11, a10, 0

000027f7 <quant_all_bands+0x557>:
    27f7:	9bca           	add.n	a9, a11, a12
    27f9:	219190        	srai	a9, a9, 1
    27fc:	09ca94        	ae_s16ip	a9, a10, 2
    27ff:	ff7dc6        	j	25fa <quant_all_bands+0x35a>

00002802 <quant_all_bands+0x562>:
    2802:	0e0c           	movi.n	a14, 0
    2804:	ff3806        	j	24e8 <quant_all_bands+0x248>

00002807 <quant_all_bands+0x567>:
	...

00002808 <quant_all_bands+0x568>:
    2808:	3321a2        	l32i	a10, a1, 204
    280b:	ceea56        	bnez	a10, 24fd <quant_all_bands+0x25d>
    280e:	ffc7c6        	j	2731 <quant_all_bands+0x491>

00002811 <quant_all_bands+0x571>:
    2811:	f626c1        	l32r	a12, ac (14e60 <global_stack>)
    2814:	1321e2        	l32i	a14, a1, 76
    2817:	1421b2        	l32i	a11, a1, 80
    281a:	1121d2        	l32i	a13, a1, 68
    281d:	0ed9           	s32i.n	a13, a14, 0
    281f:	0cb9           	s32i.n	a11, a12, 0
    2821:	f01d           	retw.n

00002823 <quant_all_bands+0x583>:
    2823:	0bd9           	s32i.n	a13, a11, 0
    2825:	0ec9           	s32i.n	a12, a14, 0
    2827:	f01d           	retw.n

00002829 <quant_all_bands+0x589>:
    2829:	00000000 36000000                                .......

00002830 <resampling_factor>:
    2830:	004136        	entry	a1, 32
    2833:	f63731        	l32r	a3, 110 (bb80 <MULT16_32_Q15X+0x4>)
    2836:	f63741        	l32r	a4, 114 (5dc0 <celt_encode_with_ec+0x1158>)
    2839:	1c1237        	beq	a2, a3, 2859 <resampling_factor+0x29>
    283c:	1d1247        	beq	a2, a4, 285d <resampling_factor+0x2d>
    283f:	f63681        	l32r	a8, 118 (3e80 <alloc_trim_analysis+0x32c>)
    2842:	f63691        	l32r	a9, 11c (2ee0 <celt_encoder_init+0x74>)
    2845:	181287        	beq	a2, a8, 2861 <resampling_factor+0x31>
    2848:	191297        	beq	a2, a9, 2865 <resampling_factor+0x35>
    284b:	f635a1        	l32r	a10, 120 (1f40 <quant_band+0x214>)
    284e:	0312a7        	beq	a2, a10, 2855 <resampling_factor+0x25>
    2851:	020c           	movi.n	a2, 0
    2853:	f01d           	retw.n

00002855 <resampling_factor+0x25>:
    2855:	620c           	movi.n	a2, 6
    2857:	f01d           	retw.n

00002859 <resampling_factor+0x29>:
    2859:	120c           	movi.n	a2, 1
    285b:	f01d           	retw.n

0000285d <resampling_factor+0x2d>:
    285d:	220c           	movi.n	a2, 2
    285f:	f01d           	retw.n

00002861 <resampling_factor+0x31>:
    2861:	320c           	movi.n	a2, 3
    2863:	f01d           	retw.n

00002865 <resampling_factor+0x35>:
    2865:	420c           	movi.n	a2, 4
    2867:	f01d           	retw.n

00002869 <resampling_factor+0x39>:
    2869:	000000                                        ...

0000286c <comb_filter>:
    286c:	010136        	entry	a1, 128
    286f:	166122        	s32i	a2, a1, 88
    2872:	176132        	s32i	a3, a1, 92
    2875:	fcc2b2        	addi	a11, a2, -4
    2878:	409182        	l16si	a8, a1, 128
    287b:	156182        	s32i	a8, a1, 84
    287e:	3ca716        	beqz	a7, 2c4c <comb_filter+0x3e0>

00002881 <comb_filter+0x15>:
    2881:	2121f2        	l32i	a15, a1, 132
    2884:	2221e2        	l32i	a14, a1, 136
    2887:	f627c1        	l32r	a12, 124 (104d0 <gains$8504_38_52>)
    288a:	908ff0        	addx2	a8, a15, a15
    288d:	90aee0        	addx2	a10, a14, a14
    2890:	90aac0        	addx2	a10, a10, a12
    2893:	9088c0        	addx2	a8, a8, a12
    2896:	289d           	ae_l16si.n	a9, a8, 0
    2898:	0298d2        	l16si	a13, a8, 4
    289b:	2acd           	ae_l16si.n	a12, a10, 0
    289d:	388d           	ae_l16si.n	a8, a8, 2
    289f:	d1dd70        	mul16s	a13, a13, a7
    28a2:	d19970        	mul16s	a9, a9, a7
    28a5:	d18870        	mul16s	a8, a8, a7
    28a8:	40d992        	addmi	a9, a9, 0x4000
    28ab:	40ddd2        	addmi	a13, a13, 0x4000
    28ae:	21dfd0        	srai	a13, a13, 15
    28b1:	219f90        	srai	a9, a9, 15
    28b4:	619d           	ae_s16i.n	a9, a1, 0
    28b6:	40d882        	addmi	a8, a8, 0x4000
    28b9:	218f80        	srai	a8, a8, 15
    28bc:	029a92        	l16si	a9, a10, 4
    28bf:	718d           	ae_s16i.n	a8, a1, 2
    28c1:	152182        	l32i	a8, a1, 84
    28c4:	0251d2        	s16i	a13, a1, 4
    28c7:	3aad           	ae_l16si.n	a10, a10, 2
    28c9:	d19980        	mul16s	a9, a9, a8
    28cc:	d1cc80        	mul16s	a12, a12, a8
    28cf:	d1aa80        	mul16s	a10, a10, a8
    28d2:	40dcc2        	addmi	a12, a12, 0x4000
    28d5:	40daa2        	addmi	a10, a10, 0x4000
    28d8:	40d992        	addmi	a9, a9, 0x4000
    28db:	219f90        	srai	a9, a9, 15
    28de:	21afa0        	srai	a10, a10, 15
    28e1:	21cfc0        	srai	a12, a12, 15
    28e4:	1261c2        	s32i	a12, a1, 72
    28e7:	0351c2        	s16i	a12, a1, 6
    28ea:	1361a2        	s32i	a10, a1, 76
    28ed:	0451a2        	s16i	a10, a1, 8
    28f0:	146192        	s32i	a9, a1, 80
    28f3:	055192        	s16i	a9, a1, 10
    28f6:	399787        	bne	a7, a8, 2933 <comb_filter+0xc7>
    28f9:	369457        	bne	a4, a5, 2933 <comb_filter+0xc7>
    28fc:	339ef7        	bne	a14, a15, 2933 <comb_filter+0xc7>
    28ff:	00a072        	movi	a7, 0
    2902:	00a0b2        	movi	a11, 0
    2905:	1ef856        	bnez	a8, 2af8 <comb_filter+0x28c>

00002908 <comb_filter+0x9c>:
    2908:	1721a2        	l32i	a10, a1, 92
    290b:	162192        	l32i	a9, a1, 88
    290e:	f03d           	nop.n
    2910:	c099a0        	sub	a9, a9, a10
    2913:	333916        	beqz	a9, 2c4a <comb_filter+0x3de>
    2916:	f60481        	l32r	a8, 128 (f780 <CELT_memcpy>)
    2919:	1721b2        	l32i	a11, a1, 92
    291c:	1621a2        	l32i	a10, a1, 88
    291f:	c0c670        	sub	a12, a6, a7
    2922:	11cce0        	slli	a12, a12, 2
    2925:	41c1c0        	srli	a12, a12, 1
    2928:	a0a7a0        	addx4	a10, a7, a10
    292b:	a0b7b0        	addx4	a11, a7, a11
    292e:	0008e0        	callx8	a8
    2931:	f01d           	retw.n

00002933 <comb_filter+0xc7>:
    2933:	242172        	l32i	a7, a1, 144
    2936:	232182        	l32i	a8, a1, 140
    2939:	402104        	ae_lp16f.i	aep2, a1, 0
    293c:	0217e6        	bgei	a7, 1, 2942 <comb_filter+0xd6>
    293f:	00de86        	j	2cbd <comb_filter+0x451>
    2942:	f5cd31        	l32r	a3, 78 (7fff <celt_decode_with_ec+0x9b>)
    2945:	407154        	ae_lp16f.i	aep7, a1, 10
    2948:	406144        	ae_lp16f.i	aep6, a1, 8
    294b:	405134        	ae_lp16f.i	aep5, a1, 6
    294e:	404124        	ae_lp16f.i	aep4, a1, 4
    2951:	403114        	ae_lp16f.i	aep3, a1, 2
    2954:	049070        	extui	a9, a7, 0, 1
    2957:	172122        	l32i	a2, a1, 92
    295a:	60a040        	neg	a10, a4
    295d:	04aec2        	movi	a12, 0xfffffe04
    2960:	a0aa20        	addx4	a10, a10, a2
    2963:	aaca           	add.n	a10, a10, a12
    2965:	11c5e0        	slli	a12, a5, 2
    2968:	c0c2c0        	sub	a12, a2, a12
    296b:	f8ccf2        	addi	a15, a12, -8
    296e:	080916        	beqz	a9, 29f2 <comb_filter+0x186>
    2971:	812a92        	l32i	a9, a10, 0x204
    2974:	7d2a42        	l32i	a4, a10, 0x1f4
    2977:	802ae2        	l32i	a14, a10, 0x200
    297a:	7e2ad2        	l32i	a13, a10, 0x1f8
    297d:	282d           	ae_l16si.n	a2, a8, 0
    297f:	065122        	s16i	a2, a1, 12
    2982:	882b           	addi.n	a8, a8, 2
    2984:	c02320        	sub	a2, a3, a2
    2987:	ddea           	add.n	a13, a13, a14
    2989:	075122        	s16i	a2, a1, 14
    298c:	172122        	l32i	a2, a1, 92
    298f:	400174        	ae_lp16f.i	aep0, a1, 14
    2992:	eb41f7faee 	{ l32i	a14, a10, 0x1fc; ae_mulfp24s.ll	aeq3, aep0, aep2 }
    2997:	ea61fecebf 	{ ae_cvtq48a32s	aeq2, a14; ae_mulfp24s.ll	aeq1, aep0, aep3 }
    299c:	f8fffd020f 	{ ae_lq32f.i	aeq0, a2, 0; ae_roundsp24q48sym	aep1, aeq3 }
    29a1:	f64690449f 	{ add	a4, a4, a9; ae_mulafq32sp24s.h	aeq0, aeq2, aep1 }
    29a6:	eb81b02c9e 	{ l32i	a9, a12, 8; ae_mulfp24s.ll	aeq2, aep0, aep4 }
    29ab:	f8effecdff 	{ ae_cvtq48a32s	aeq3, a13; ae_roundsp24q48sym	aep1, aeq1 }
    29b0:	f647804aae 	{ addi	a10, a10, 4; ae_mulafq32sp24s.h	aeq0, aeq3, aep1 }
    29b5:	f8f7bec47f 	{ ae_cvtq48a32s	aeq1, a4; ae_roundsp24q48sym	aep0, aeq2 }
    29ba:	f443ac016f 	{ ae_lp16f.i	aep0, a1, 12; ae_mulafq32sp24s.h	aeq0, aeq1, aep0 }
    29bf:	eba1f01cee 	{ l32i	a14, a12, 4; ae_mulfp24s.ll	aeq3, aep0, aep5 }
    29c4:	eac1f01fde 	{ l32i	a13, a15, 4; ae_mulfp24s.ll	aeq1, aep0, aep6 }
    29c9:	f8fffd4c0f 	{ ae_lq32f.i	aeq2, a12, 0; ae_roundsp24q48sym	aep1, aeq3 }
    29ce:	f646b00f4e 	{ l32i	a4, a15, 0; ae_mulafq32sp24s.h	aeq0, aeq2, aep1 }
    29d3:	f8efd0ddef 	{ add	a13, a13, a14; ae_roundsp24q48sym	aep1, aeq1 }
    29d8:	ebe1becdff 	{ ae_cvtq48a32s	aeq3, a13; ae_mulfp24s.ll	aeq2, aep0, aep7 }
    29dd:	f64790449f 	{ add	a4, a4, a9; ae_mulafq32sp24s.h	aeq0, aeq3, aep1 }
    29e2:	f8f7bec47f 	{ ae_cvtq48a32s	aeq1, a4; ae_roundsp24q48sym	aep0, aeq2 }
    29e7:	f44380422e 	{ addi	a2, a2, 4; ae_mulafq32sp24s.h	aeq0, aeq1, aep0 }
    29ec:	fcccf2        	addi	a15, a12, -4
    29ef:	624b14        	ae_sq32f.iu	aeq0, a11, 4

000029f2 <comb_filter+0x186>:
    29f2:	02ed           	mov.n	a14, a2
    29f4:	419170        	srli	a9, a7, 1
    29f7:	0b2d           	mov.n	a2, a11
    29f9:	f19976        	loopnez	a9, 2aee <comb_filter+0x282>
    29fc:	289d           	ae_l16si.n	a9, a8, 0
    29fe:	065192        	s16i	a9, a1, 12
    2a01:	802ab2        	l32i	a11, a10, 0x200
    2a04:	c09390        	sub	a9, a3, a9
    2a07:	075192        	s16i	a9, a1, 14
    2a0a:	812a92        	l32i	a9, a10, 0x204
    2a0d:	7d2ac2        	l32i	a12, a10, 0x1f4
    2a10:	7e2ad2        	l32i	a13, a10, 0x1f8
    2a13:	400174        	ae_lp16f.i	aep0, a1, 14
    2a16:	ea81909c9f 	{ add	a9, a12, a9; ae_mulfp24s.ll	aeq0, aep0, aep4 }
    2a1b:	ea61d0bdbf 	{ add	a11, a13, a11; ae_mulfp24s.ll	aeq1, aep0, aep3 }
    2a20:	eb41b7face 	{ l32i	a12, a10, 0x1fc; ae_mulfp24s.ll	aeq2, aep0, aep2 }
    2a25:	f8efbecc7f 	{ ae_cvtq48a32s	aeq1, a12; ae_roundsp24q48sym	aep0, aeq1 }
    2a2a:	f8f7fd4e0f 	{ ae_lq32f.i	aeq2, a14, 0; ae_roundsp24q48sym	aep1, aeq2 }
    2a2f:	f547becb7f 	{ ae_cvtq48a32s	aeq1, a11; ae_mulafq32sp24s.h	aeq2, aeq1, aep1 }
    2a34:	f543bec97f 	{ ae_cvtq48a32s	aeq1, a9; ae_mulafq32sp24s.h	aeq2, aeq1, aep0 }
    2a39:	f8e7ec016f 	{ ae_lp16f.i	aep0, a1, 12; ae_roundsp24q48sym	aep1, aeq0 }
    2a3e:	eaa1b03f9e 	{ l32i	a9, a15, 12; ae_mulfp24s.ll	aeq0, aep0, aep5 }
    2a43:	f547b01fbe 	{ l32i	a11, a15, 4; ae_mulafq32sp24s.h	aeq2, aeq1, aep1 }
    2a48:	f8e7fd0f2f 	{ ae_lq32f.i	aeq0, a15, 8; ae_roundsp24q48sym	aep1, aeq0 }
    2a4d:	f546b04fce 	{ l32i	a12, a15, 16; ae_mulafq32sp24s.h	aeq2, aeq0, aep1 }
    2a52:	eac1b00fde 	{ l32i	a13, a15, 0; ae_mulfp24s.ll	aeq0, aep0, aep6 }
    2a57:	eae1d09b9f 	{ add	a9, a11, a9; ae_mulfp24s.ll	aeq1, aep0, aep7 }
    2a5c:	f8e7bec93f 	{ ae_cvtq48a32s	aeq0, a9; ae_roundsp24q48sym	aep0, aeq0 }
    2a61:	f542909dcf 	{ add	a9, a13, a12; ae_mulafq32sp24s.h	aeq2, aeq0, aep0 }
    2a66:	f8efbec93f 	{ ae_cvtq48a32s	aeq0, a9; ae_roundsp24q48sym	aep0, aeq1 }
    2a6b:	f542808eee 	{ addi	a14, a14, 8; ae_mulafq32sp24s.h	aeq2, aeq0, aep0 }
    2a70:	aa8b           	addi.n	a10, a10, 8
    2a72:	622214        	ae_sq32f.i	aeq2, a2, 4
    2a75:	389d           	ae_l16si.n	a9, a8, 2
    2a77:	065192        	s16i	a9, a1, 12
    2a7a:	7f2ab2        	l32i	a11, a10, 0x1fc
    2a7d:	c09390        	sub	a9, a3, a9
    2a80:	075192        	s16i	a9, a1, 14
    2a83:	802a92        	l32i	a9, a10, 0x200
    2a86:	7c2ac2        	l32i	a12, a10, 0x1f0
    2a89:	7d2ad2        	l32i	a13, a10, 0x1f4
    2a8c:	400174        	ae_lp16f.i	aep0, a1, 14
    2a8f:	ea81909c9f 	{ add	a9, a12, a9; ae_mulfp24s.ll	aeq0, aep0, aep4 }
    2a94:	ea61d0bdbf 	{ add	a11, a13, a11; ae_mulfp24s.ll	aeq1, aep0, aep3 }
    2a99:	eb41b7eace 	{ l32i	a12, a10, 0x1f8; ae_mulfp24s.ll	aeq2, aep0, aep2 }
    2a9e:	f8efbecc7f 	{ ae_cvtq48a32s	aeq1, a12; ae_roundsp24q48sym	aep0, aeq1 }
    2aa3:	f8f7fd4eff 	{ ae_lq32f.i	aeq2, a14, -4; ae_roundsp24q48sym	aep1, aeq2 }
    2aa8:	f547becb7f 	{ ae_cvtq48a32s	aeq1, a11; ae_mulafq32sp24s.h	aeq2, aeq1, aep1 }
    2aad:	f543bec97f 	{ ae_cvtq48a32s	aeq1, a9; ae_mulafq32sp24s.h	aeq2, aeq1, aep0 }
    2ab2:	f8e7ec016f 	{ ae_lp16f.i	aep0, a1, 12; ae_roundsp24q48sym	aep1, aeq0 }
    2ab7:	eaa1b04f9e 	{ l32i	a9, a15, 16; ae_mulfp24s.ll	aeq0, aep0, aep5 }
    2abc:	f547b02fbe 	{ l32i	a11, a15, 8; ae_mulafq32sp24s.h	aeq2, aeq1, aep1 }
    2ac1:	f8e7fd0f3f 	{ ae_lq32f.i	aeq0, a15, 12; ae_roundsp24q48sym	aep1, aeq0 }
    2ac6:	f546b05fce 	{ l32i	a12, a15, 20; ae_mulafq32sp24s.h	aeq2, aeq0, aep1 }
    2acb:	eac1b01fde 	{ l32i	a13, a15, 4; ae_mulfp24s.ll	aeq0, aep0, aep6 }
    2ad0:	eae1d09b9f 	{ add	a9, a11, a9; ae_mulfp24s.ll	aeq1, aep0, aep7 }
    2ad5:	f8e7bec93f 	{ ae_cvtq48a32s	aeq0, a9; ae_roundsp24q48sym	aep0, aeq0 }
    2ada:	f542909dcf 	{ add	a9, a13, a12; ae_mulafq32sp24s.h	aeq2, aeq0, aep0 }
    2adf:	f8efbec93f 	{ ae_cvtq48a32s	aeq0, a9; ae_roundsp24q48sym	aep0, aeq1 }
    2ae4:	f54280488e 	{ addi	a8, a8, 4; ae_mulafq32sp24s.h	aeq2, aeq0, aep0 }
    2ae9:	ff8b           	addi.n	a15, a15, 8
    2aeb:	626224        	ae_sq32f.iu	aeq2, a2, 8

00002aee <comb_filter+0x282>:
    2aee:	07bd           	mov.n	a11, a7

00002af0 <comb_filter+0x284>:
    2af0:	1521d2        	l32i	a13, a1, 84
    2af3:	f03d           	nop.n
    2af5:	e0fd16        	beqz	a13, 2908 <comb_filter+0x9c>

00002af8 <comb_filter+0x28c>:
    2af8:	c0d6b0        	sub	a13, a6, a11
    2afb:	172122        	l32i	a2, a1, 92
    2afe:	162142        	l32i	a4, a1, 88
    2b01:	14c1f2        	addi	a15, a1, 20
    2b04:	1421a2        	l32i	a10, a1, 80
    2b07:	122182        	l32i	a8, a1, 72
    2b0a:	132192        	l32i	a9, a1, 76
    2b0d:	095192        	s16i	a9, a1, 18
    2b10:	085182        	s16i	a8, a1, 16
    2b13:	0a51a2        	s16i	a10, a1, 20
    2b16:	402f04        	ae_lp16f.i	aep2, a15, 0
    2b19:	12c182        	addi	a8, a1, 18
    2b1c:	10c192        	addi	a9, a1, 16
    2b1f:	400904        	ae_lp16f.i	aep0, a9, 0
    2b22:	a04b40        	addx4	a4, a11, a4
    2b25:	a02b20        	addx4	a2, a11, a2
    2b28:	401804        	ae_lp16f.i	aep1, a8, 0
    2b2b:	11b5e0        	slli	a11, a5, 2
    2b2e:	c0b2b0        	sub	a11, a2, a11
    2b31:	0ba8           	l32i.n	a10, a11, 0
    2b33:	1bc8           	l32i.n	a12, a11, 4
    2b35:	fedbb2        	addmi	a11, a11, 0xfffffe00
    2b38:	7e2be2        	l32i	a14, a11, 0x1f8
    2b3b:	7f2bb2        	l32i	a11, a11, 0x1fc
    2b3e:	021de6        	bgei	a13, 1, 2b44 <comb_filter+0x2d8>
    2b41:	004146        	j	2c4a <comb_filter+0x3de>
    2b44:	14f0d0        	extui	a15, a13, 0, 2
    2b47:	608050        	neg	a8, a5
    2b4a:	a08820        	addx4	a8, a8, a2
    2b4d:	0d5d           	mov.n	a5, a13
    2b4f:	36af76        	loopgtz	a15, 2b89 <comb_filter+0x31d>
    2b52:	fbca           	add.n	a15, a11, a12
    2b54:	368a34        	ae_cvtq48a32s	aeq2, a10
    2b57:	28d8           	l32i.n	a13, a8, 8
    2b59:	d7e200488e 	{ addi	a8, a8, 4; ae_mulfq32sp16s.l	aeq2, aeq2, aep0 }
    2b5e:	364f34        	ae_cvtq48a32s	aeq1, a15
    2b61:	36a904        	ae_trunca32q48	a9, aeq2
    2b64:	d4e750eedf 	{ add	a14, a14, a13; ae_mulfq32sp16s.l	aeq1, aeq1, aep1 }
    2b69:	360e34        	ae_cvtq48a32s	aeq0, a14
    2b6c:	d4ea3f13ef 	{ ae_trunca32q48	a3, aeq1; ae_mulfq32sp16s.l	aeq0, aeq0, aep2 }
    2b71:	02e8           	l32i.n	a14, a2, 0
    2b73:	368f04        	ae_trunca32q48	a15, aeq0
    2b76:	224b           	addi.n	a2, a2, 4
    2b78:	ee9a           	add.n	a14, a14, a9
    2b7a:	ff3a           	add.n	a15, a15, a3
    2b7c:	eefa           	add.n	a14, a14, a15
    2b7e:	09e4e4        	ae_s32ip	a14, a4, 4
    2b81:	0bed           	mov.n	a14, a11
    2b83:	0abd           	mov.n	a11, a10
    2b85:	0cad           	mov.n	a10, a12
    2b87:	0dcd           	mov.n	a12, a13

00002b89 <comb_filter+0x31d>:
    2b89:	213250        	srai	a3, a5, 2
    2b8c:	f03d           	nop.n
    2b8e:	b8a376        	loopgtz	a3, 2c4a <comb_filter+0x3de>
    2b91:	2898           	l32i.n	a9, a8, 8
    2b93:	dbca           	add.n	a13, a11, a12
    2b95:	364d34        	ae_cvtq48a32s	aeq1, a13
    2b98:	d4e750ee9f 	{ add	a14, a14, a9; ae_mulfq32sp16s.l	aeq1, aeq1, aep1 }
    2b9d:	360e34        	ae_cvtq48a32s	aeq0, a14

00002ba0 <comb_filter+0x334>:
    2ba0:	d5ea3eca3f 	{ ae_cvtq48a32s	aeq0, a10; ae_mulfq32sp16s.l	aeq2, aeq0, aep2 }
    2ba5:	d4e27f1fef 	{ ae_trunca32q48	a15, aeq1; ae_mulfq32sp16s.l	aeq1, aeq0, aep0 }
    2baa:	36a304        	ae_trunca32q48	a3, aeq2
    2bad:	369d04        	ae_trunca32q48	a13, aeq1
    2bb0:	02e8           	l32i.n	a14, a2, 0
    2bb2:	33fa           	add.n	a3, a3, a15
    2bb4:	364c34        	ae_cvtq48a32s	aeq1, a12
    2bb7:	d4e350eedf 	{ add	a14, a14, a13; ae_mulfq32sp16s.l	aeq1, aeq1, aep0 }
    2bbc:	ee3a           	add.n	a14, a14, a3
    2bbe:	09e4e4        	ae_s32ip	a14, a4, 4
    2bc1:	38e8           	l32i.n	a14, a8, 12
    2bc3:	12d8           	l32i.n	a13, a2, 4
    2bc5:	369304        	ae_trunca32q48	a3, aeq1
    2bc8:	bbea           	add.n	a11, a11, a14
    2bca:	fa9a           	add.n	a15, a10, a9
    2bcc:	364b34        	ae_cvtq48a32s	aeq1, a11
    2bcf:	d4eb3ecf7f 	{ ae_cvtq48a32s	aeq1, a15; ae_mulfq32sp16s.l	aeq0, aeq1, aep2 }
    2bd4:	d4e750bcef 	{ add	a11, a12, a14; ae_mulfq32sp16s.l	aeq1, aeq1, aep1 }
    2bd9:	368b34        	ae_cvtq48a32s	aeq2, a11
    2bdc:	d6e67f1fef 	{ ae_trunca32q48	a15, aeq1; ae_mulfq32sp16s.l	aeq1, aeq2, aep1 }
    2be1:	368b04        	ae_trunca32q48	a11, aeq0
    2be4:	dd3a           	add.n	a13, a13, a3
    2be6:	360e34        	ae_cvtq48a32s	aeq0, a14
    2be9:	d4e210bbff 	{ add	a11, a11, a15; ae_mulfq32sp16s.l	aeq0, aeq0, aep0 }
    2bee:	bdba           	add.n	a11, a13, a11
    2bf0:	369d04        	ae_trunca32q48	a13, aeq1
    2bf3:	09e4b4        	ae_s32ip	a11, a4, 4
    2bf6:	48b8           	l32i.n	a11, a8, 16
    2bf8:	2238           	l32i.n	a3, a2, 8
    2bfa:	364934        	ae_cvtq48a32s	aeq1, a9
    2bfd:	d4e350f9bf 	{ add	a15, a9, a11; ae_mulfq32sp16s.l	aeq1, aeq1, aep0 }
    2c02:	368f34        	ae_cvtq48a32s	aeq2, a15
    2c05:	d7e610aabf 	{ add	a10, a10, a11; ae_mulfq32sp16s.l	aeq2, aeq2, aep1 }
    2c0a:	36ca34        	ae_cvtq48a32s	aeq3, a10
    2c0d:	d6eb7f1fef 	{ ae_trunca32q48	a15, aeq1; ae_mulfq32sp16s.l	aeq1, aeq3, aep2 }
    2c12:	0bad           	mov.n	a10, a11
    2c14:	369b04        	ae_trunca32q48	a11, aeq1
    2c17:	f3fa           	add.n	a15, a3, a15
    2c19:	36a304        	ae_trunca32q48	a3, aeq2
    2c1c:	bbda           	add.n	a11, a11, a13
    2c1e:	bfba           	add.n	a11, a15, a11
    2c20:	09e4b4        	ae_s32ip	a11, a4, 4
    2c23:	58f8           	l32i.n	a15, a8, 20
    2c25:	32b8           	l32i.n	a11, a2, 12
    2c27:	10c222        	addi	a2, a2, 16
    2c2a:	368d04        	ae_trunca32q48	a13, aeq0
    2c2d:	ccfa           	add.n	a12, a12, a15
    2c2f:	364c34        	ae_cvtq48a32s	aeq1, a12
    2c32:	d4eb53cfff 	{ or	a12, a15, a15; ae_mulfq32sp16s.l	aeq1, aeq1, aep2 }
    2c37:	dbda           	add.n	a13, a11, a13
    2c39:	369f04        	ae_trunca32q48	a15, aeq1
    2c3c:	0ebd           	mov.n	a11, a14
    2c3e:	10c882        	addi	a8, a8, 16
    2c41:	ef3a           	add.n	a14, a15, a3
    2c43:	edea           	add.n	a14, a13, a14
    2c45:	09e4e4        	ae_s32ip	a14, a4, 4
    2c48:	09ed           	mov.n	a14, a9

00002c4a <comb_filter+0x3de>:
    2c4a:	f01d           	retw.n

00002c4c <comb_filter+0x3e0>:
    2c4c:	c31856        	bnez	a8, 2881 <comb_filter+0x15>
    2c4f:	f71237        	beq	a2, a3, 2c4a <comb_filter+0x3de>
    2c52:	861b           	addi.n	a8, a6, 1
    2c54:	b38660        	movgez	a8, a6, a6
    2c57:	21a180        	srai	a10, a8, 1
    2c5a:	ec1aa6        	blti	a10, 1, 2c4a <comb_filter+0x3de>
    2c5d:	2193a0        	srai	a9, a10, 3
    2c60:	24b180        	extui	a11, a8, 1, 3
    2c63:	0bab76        	loopgtz	a11, 2c72 <comb_filter+0x406>
    2c66:	03d8           	l32i.n	a13, a3, 0
    2c68:	02d9           	s32i.n	a13, a2, 0
    2c6a:	13c8           	l32i.n	a12, a3, 4
    2c6c:	12c9           	s32i.n	a12, a2, 4
    2c6e:	338b           	addi.n	a3, a3, 8
    2c70:	228b           	addi.n	a2, a2, 8
    2c72:	45a976        	loopgtz	a9, 2cbb <comb_filter+0x44f>
    2c75:	0398           	l32i.n	a9, a3, 0
    2c77:	0299           	s32i.n	a9, a2, 0
    2c79:	1398           	l32i.n	a9, a3, 4
    2c7b:	1299           	s32i.n	a9, a2, 4
    2c7d:	2398           	l32i.n	a9, a3, 8
    2c7f:	2299           	s32i.n	a9, a2, 8
    2c81:	3398           	l32i.n	a9, a3, 12
    2c83:	3299           	s32i.n	a9, a2, 12
    2c85:	4398           	l32i.n	a9, a3, 16
    2c87:	4299           	s32i.n	a9, a2, 16
    2c89:	5398           	l32i.n	a9, a3, 20
    2c8b:	5299           	s32i.n	a9, a2, 20
    2c8d:	6398           	l32i.n	a9, a3, 24
    2c8f:	6299           	s32i.n	a9, a2, 24
    2c91:	7398           	l32i.n	a9, a3, 28
    2c93:	7299           	s32i.n	a9, a2, 28
    2c95:	8398           	l32i.n	a9, a3, 32
    2c97:	8299           	s32i.n	a9, a2, 32
    2c99:	9398           	l32i.n	a9, a3, 36
    2c9b:	9299           	s32i.n	a9, a2, 36
    2c9d:	a398           	l32i.n	a9, a3, 40
    2c9f:	a299           	s32i.n	a9, a2, 40
    2ca1:	b398           	l32i.n	a9, a3, 44
    2ca3:	b299           	s32i.n	a9, a2, 44
    2ca5:	c398           	l32i.n	a9, a3, 48
    2ca7:	c299           	s32i.n	a9, a2, 48
    2ca9:	d398           	l32i.n	a9, a3, 52
    2cab:	d299           	s32i.n	a9, a2, 52
    2cad:	e398           	l32i.n	a9, a3, 56
    2caf:	e299           	s32i.n	a9, a2, 56
    2cb1:	f398           	l32i.n	a9, a3, 60
    2cb3:	f299           	s32i.n	a9, a2, 60
    2cb5:	40c332        	addi	a3, a3, 64
    2cb8:	40c222        	addi	a2, a2, 64

00002cbb <comb_filter+0x44f>:
    2cbb:	f01d           	retw.n

00002cbd <comb_filter+0x451>:
    2cbd:	0b0c           	movi.n	a11, 0
    2cbf:	ff8b46        	j	2af0 <comb_filter+0x284>

00002cc2 <comb_filter+0x456>:
	...

00002cc4 <init_caps>:
    2cc4:	004136        	entry	a1, 32
    2cc7:	2288           	l32i.n	a8, a2, 8
    2cc9:	4418a6        	blti	a8, 1, 2d11 <init_caps+0x4d>
    2ccc:	0a0c           	movi.n	a10, 0
    2cce:	090c           	movi.n	a9, 0
    2cd0:	62c8           	l32i.n	a12, a2, 24
    2cd2:	1822b2        	l32i	a11, a2, 96
    2cd5:	401400        	ssl	a4
    2cd8:	904450        	addx2	a4, a4, a5
    2cdb:	440b           	addi.n	a4, a4, -1
    2cdd:	2d8076        	loop	a0, 2d0e <init_caps+0x4a>
    2ce0:	826840        	mull	a6, a8, a4
    2ce3:	7caa           	add.n	a7, a12, a10
    2ce5:	278d           	ae_l16si.n	a8, a7, 0
    2ce7:	696a           	add.n	a6, a9, a6
    2ce9:	377d           	ae_l16si.n	a7, a7, 2
    2ceb:	6b6a           	add.n	a6, a11, a6
    2ced:	000662        	l8ui	a6, a6, 0
    2cf0:	c07780        	sub	a7, a7, a8
    2cf3:	40c662        	addi	a6, a6, 64
    2cf6:	826560        	mull	a6, a5, a6
    2cf9:	a17700        	sll	a7, a7
    2cfc:	826670        	mull	a6, a6, a7
    2cff:	216260        	srai	a6, a6, 2
    2d02:	09e364        	ae_s32ip	a6, a3, 4
    2d05:	2288           	l32i.n	a8, a2, 8
    2d07:	aa2b           	addi.n	a10, a10, 2
    2d09:	991b           	addi.n	a9, a9, 1
    2d0b:	02a987        	bge	a9, a8, 2d11 <init_caps+0x4d>

00002d0e <init_caps+0x4a>:
    2d0e:	fff2c6        	j	2cdd <init_caps+0x19>

00002d11 <init_caps+0x4d>:
    2d11:	f01d           	retw.n

00002d13 <init_caps+0x4f>:
	...

00002d14 <opus_strerror>:
    2d14:	004136        	entry	a1, 32
    2d17:	0512e6        	bgei	a2, 1, 2d20 <opus_strerror+0xc>
    2d1a:	f8af32        	movi	a3, -8
    2d1d:	042327        	blt	a3, a2, 2d25 <opus_strerror+0x11>

00002d20 <opus_strerror+0xc>:
    2d20:	f50321        	l32r	a2, 12c (1057c <gains$8504_38_52+0xac>)
    2d23:	f01d           	retw.n

00002d25 <opus_strerror+0x11>:
    2d25:	f50231        	l32r	a3, 130 (14c90 <error_strings$8753_41_2>)
    2d28:	1122e0        	slli	a2, a2, 2
    2d2b:	c02320        	sub	a2, a3, a2
    2d2e:	0228           	l32i.n	a2, a2, 0
    2d30:	f01d           	retw.n

00002d32 <opus_strerror+0x1e>:
	...

00002d34 <opus_get_version_string>:
    2d34:	004136        	entry	a1, 32
    2d37:	f4ff21        	l32r	a2, 134 (1058c <gains$8504_38_52+0xbc>)
    2d3a:	f01d           	retw.n

00002d3c <opus_get_version_string+0x8>:
    2d3c:	00000000                                ....

00002d40 <ec_get_error>:
    2d40:	004136        	entry	a1, 32
    2d43:	b228           	l32i.n	a2, a2, 44
    2d45:	f01d           	retw.n

00002d47 <ec_get_error+0x7>:
	...

00002d48 <celt_encoder_get_size>:
    2d48:	004136        	entry	a1, 32
    2d4b:	f4f1a1        	l32r	a10, 110 (bb80 <MULT16_32_Q15X+0x4>)
    2d4e:	f4fa81        	l32r	a8, 138 (c248 <opus_custom_mode_create>)
    2d51:	c0a3b2        	movi	a11, 0x3c0
    2d54:	0c0c           	movi.n	a12, 0
    2d56:	0008e0        	callx8	a8
    2d59:	f4f881        	l32r	a8, 13c (2d68 <opus_custom_encoder_get_size>)
    2d5c:	02bd           	mov.n	a11, a2
    2d5e:	0008e0        	callx8	a8
    2d61:	0a2d           	mov.n	a2, a10
    2d63:	f01d           	retw.n

00002d65 <celt_encoder_get_size+0x1d>:
    2d65:	000000                                        ...

00002d68 <opus_custom_encoder_get_size>:
    2d68:	004136        	entry	a1, 32
    2d6b:	f4e971        	l32r	a7, 110 (bb80 <MULT16_32_Q15X+0x4>)
    2d6e:	2248           	l32i.n	a4, a2, 8
    2d70:	0268           	l32i.n	a6, a2, 0
    2d72:	1258           	l32i.n	a5, a2, 4
    2d74:	824430        	mull	a4, a4, a3
    2d77:	f4ea21        	l32r	a2, 120 (1f40 <quant_band+0x214>)
    2d7a:	1155e0        	slli	a5, a5, 2
    2d7d:	10d552        	addmi	a5, a5, 0x1000
    2d80:	825350        	mull	a5, a3, a5
    2d83:	904440        	addx2	a4, a4, a4
    2d86:	904450        	addx2	a4, a4, a5
    2d89:	f4e451        	l32r	a5, 11c (2ee0 <celt_encoder_init+0x74>)
    2d8c:	c06670        	sub	a6, a6, a7
    2d8f:	832560        	moveqz	a2, a5, a6
    2d92:	224a           	add.n	a2, a2, a4
    2d94:	02d222        	addmi	a2, a2, 0x200
    2d97:	d4c222        	addi	a2, a2, -44
    2d9a:	f01d           	retw.n

00002d9c <opus_custom_encoder_create>:
    2d9c:	004136        	entry	a1, 32
    2d9f:	02ad           	mov.n	a10, a2
    2da1:	f4e781        	l32r	a8, 140 (2de8 <opus_custom_encoder_init>)
    2da4:	03bd           	mov.n	a11, a3
    2da6:	20c440        	or	a12, a4, a4
    2da9:	0008e0        	callx8	a8
    2dac:	0a6d           	mov.n	a6, a10
    2dae:	8a8c           	beqz.n	a10, 2dba <opus_custom_encoder_create+0x1e>
    2db0:	f4e581        	l32r	a8, 144 (2f08 <opus_custom_encoder_destroy>)
    2db3:	02ad           	mov.n	a10, a2
    2db5:	0008e0        	callx8	a8
    2db8:	020c           	movi.n	a2, 0

00002dba <opus_custom_encoder_create+0x1e>:
    2dba:	04bd           	mov.n	a11, a4
    2dbc:	f4d891        	l32r	a9, 11c (2ee0 <celt_encoder_init+0x74>)
    2dbf:	f4d4d1        	l32r	a13, 110 (bb80 <MULT16_32_Q15X+0x4>)
    2dc2:	03ad           	mov.n	a10, a3
    2dc4:	03c8           	l32i.n	a12, a3, 0
    2dc6:	f4d631        	l32r	a3, 120 (1f40 <quant_band+0x214>)
    2dc9:	f4dc81        	l32r	a8, 13c (2d68 <opus_custom_encoder_get_size>)
    2dcc:	c0ccd0        	sub	a12, a12, a13
    2dcf:	8339c0        	moveqz	a3, a9, a12
    2dd2:	0008e0        	callx8	a8
    2dd5:	ea2a           	add.n	a14, a10, a2
    2dd7:	c0ee30        	sub	a14, a14, a3
    2dda:	7462e2        	s32i	a14, a2, 0x1d0
    2ddd:	258c           	beqz.n	a5, 2de3 <opus_custom_encoder_create+0x47>
    2ddf:	0569           	s32i.n	a6, a5, 0
    2de1:	f01d           	retw.n

00002de3 <opus_custom_encoder_create+0x47>:
    2de3:	f01d           	retw.n

00002de5 <opus_custom_encoder_create+0x49>:
    2de5:	000000                                        ...

00002de8 <opus_custom_encoder_init>:
    2de8:	004136        	entry	a1, 32
    2deb:	00a496        	bltz	a4, 2df9 <opus_custom_encoder_init+0x11>
    2dee:	0734e6        	bgei	a4, 3, 2df9 <opus_custom_encoder_init+0x11>
    2df1:	028c           	beqz.n	a2, 2df5 <opus_custom_encoder_init+0xd>
    2df3:	63cc           	bnez.n	a3, 2dfd <opus_custom_encoder_init+0x15>

00002df5 <opus_custom_encoder_init+0xd>:
    2df5:	927c           	movi.n	a2, -7
    2df7:	f01d           	retw.n

00002df9 <opus_custom_encoder_init+0x11>:
    2df9:	f27c           	movi.n	a2, -1
    2dfb:	f01d           	retw.n

00002dfd <opus_custom_encoder_init+0x15>:
    2dfd:	f4cf81        	l32r	a8, 13c (2d68 <opus_custom_encoder_get_size>)
    2e00:	03ad           	mov.n	a10, a3
    2e02:	20b440        	or	a11, a4, a4
    2e05:	0008e0        	callx8	a8
    2e08:	0acd           	mov.n	a12, a10
    2e0a:	f49c81        	l32r	a8, 7c (f6b0 <memset>)
    2e0d:	0b0c           	movi.n	a11, 0
    2e0f:	02ad           	mov.n	a10, a2
    2e11:	0008e0        	callx8	a8
    2e14:	64a0c2        	movi	a12, 100
    2e17:	03bd           	mov.n	a11, a3
    2e19:	f4a281        	l32r	a8, a4 (f6f0 <memcpy>)
    2e1c:	324b           	addi.n	a3, a2, 4
    2e1e:	03ad           	mov.n	a10, a3
    2e20:	0008e0        	callx8	a8
    2e23:	0239           	s32i.n	a3, a2, 0
    2e25:	1a6242        	s32i	a4, a2, 104
    2e28:	1b6242        	s32i	a4, a2, 108
    2e2b:	f4c781        	l32r	a8, 148 (6b3c <opus_custom_encoder_ctl>)
    2e2e:	fb7c           	movi.n	a11, -1
    2e30:	5a0c           	movi.n	a10, 5
    2e32:	891c           	movi.n	a9, 24
    2e34:	42c8           	l32i.n	a12, a2, 16
    2e36:	0d0c           	movi.n	a13, 0
    2e38:	1e0c           	movi.n	a14, 1
    2e3a:	2062e2        	s32i	a14, a2, 128
    2e3d:	2562e2        	s32i	a14, a2, 148
    2e40:	2662e2        	s32i	a14, a2, 152
    2e43:	1d62e2        	s32i	a14, a2, 116
    2e46:	2162d2        	s32i	a13, a2, 132
    2e49:	2b62d2        	s32i	a13, a2, 172
    2e4c:	2462d2        	s32i	a13, a2, 144
    2e4f:	1c62d2        	s32i	a13, a2, 112
    2e52:	2262c2        	s32i	a12, a2, 136
    2e55:	286292        	s32i	a9, a2, 160
    2e58:	1f62a2        	s32i	a10, a2, 124
    2e5b:	2362b2        	s32i	a11, a2, 140
    2e5e:	02ad           	mov.n	a10, a2
    2e60:	f4bbb1        	l32r	a11, 14c (fbc <stereo_merge+0x18c>)
    2e63:	0008e0        	callx8	a8
    2e66:	020c           	movi.n	a2, 0
    2e68:	f01d           	retw.n

00002e6a <opus_custom_encoder_init+0x82>:
	...

00002e6c <celt_encoder_init>:
    2e6c:	004136        	entry	a1, 32
    2e6f:	c0a3b2        	movi	a11, 0x3c0
    2e72:	f4b181        	l32r	a8, 138 (c248 <opus_custom_mode_create>)
    2e75:	f4a6a1        	l32r	a10, 110 (bb80 <MULT16_32_Q15X+0x4>)
    2e78:	0c0c           	movi.n	a12, 0
    2e7a:	0008e0        	callx8	a8
    2e7d:	0a6d           	mov.n	a6, a10
    2e7f:	002496        	bltz	a4, 2e85 <celt_encoder_init+0x19>
    2e82:	0334a6        	blti	a4, 3, 2e89 <celt_encoder_init+0x1d>

00002e85 <celt_encoder_init+0x19>:
    2e85:	f27c           	movi.n	a2, -1
    2e87:	f01d           	retw.n

00002e89 <celt_encoder_init+0x1d>:
    2e89:	028c           	beqz.n	a2, 2e8d <celt_encoder_init+0x21>
    2e8b:	2acc           	bnez.n	a10, 2e91 <celt_encoder_init+0x25>

00002e8d <celt_encoder_init+0x21>:
    2e8d:	927c           	movi.n	a2, -7
    2e8f:	f01d           	retw.n

00002e91 <celt_encoder_init+0x25>:
    2e91:	f4aa81        	l32r	a8, 13c (2d68 <opus_custom_encoder_get_size>)
    2e94:	04bd           	mov.n	a11, a4
    2e96:	0008e0        	callx8	a8
    2e99:	0acd           	mov.n	a12, a10
    2e9b:	f47881        	l32r	a8, 7c (f6b0 <memset>)
    2e9e:	0b0c           	movi.n	a11, 0
    2ea0:	02ad           	mov.n	a10, a2
    2ea2:	0008e0        	callx8	a8
    2ea5:	64a0c2        	movi	a12, 100
    2ea8:	06bd           	mov.n	a11, a6
    2eaa:	f47e81        	l32r	a8, a4 (f6f0 <memcpy>)
    2ead:	624b           	addi.n	a6, a2, 4
    2eaf:	20a660        	or	a10, a6, a6
    2eb2:	0008e0        	callx8	a8
    2eb5:	0269           	s32i.n	a6, a2, 0
    2eb7:	1a6242        	s32i	a4, a2, 104
    2eba:	1b6242        	s32i	a4, a2, 108
    2ebd:	2b6252        	s32i	a5, a2, 172
    2ec0:	f4a281        	l32r	a8, 148 (6b3c <opus_custom_encoder_ctl>)
    2ec3:	fb7c           	movi.n	a11, -1
    2ec5:	5a0c           	movi.n	a10, 5
    2ec7:	891c           	movi.n	a9, 24
    2ec9:	42c8           	l32i.n	a12, a2, 16
    2ecb:	0d0c           	movi.n	a13, 0
    2ecd:	1e0c           	movi.n	a14, 1
    2ecf:	2062e2        	s32i	a14, a2, 128
    2ed2:	2562e2        	s32i	a14, a2, 148
    2ed5:	2662e2        	s32i	a14, a2, 152
    2ed8:	1d62e2        	s32i	a14, a2, 116
    2edb:	2162d2        	s32i	a13, a2, 132
    2ede:	2462d2        	s32i	a13, a2, 144
    2ee1:	1c62d2        	s32i	a13, a2, 112
    2ee4:	2262c2        	s32i	a12, a2, 136
    2ee7:	286292        	s32i	a9, a2, 160
    2eea:	1f62a2        	s32i	a10, a2, 124
    2eed:	2362b2        	s32i	a11, a2, 140
    2ef0:	02ad           	mov.n	a10, a2
    2ef2:	f496b1        	l32r	a11, 14c (fbc <stereo_merge+0x18c>)
    2ef5:	0008e0        	callx8	a8
    2ef8:	f49681        	l32r	a8, 150 (2830 <resampling_factor>)
    2efb:	03ad           	mov.n	a10, a3
    2efd:	0008e0        	callx8	a8
    2f00:	2062a2        	s32i	a10, a2, 128
    2f03:	020c           	movi.n	a2, 0
    2f05:	f01d           	retw.n

00002f07 <celt_encoder_init+0x9b>:
	...

00002f08 <opus_custom_encoder_destroy>:
    2f08:	004136        	entry	a1, 32
    2f0b:	f01d           	retw.n

00002f0d <opus_custom_encoder_destroy+0x5>:
    2f0d:	000000                                        ...

00002f10 <transient_analysis>:
    2f10:	00e136        	entry	a1, 112
    2f13:	9129           	s32i.n	a2, a1, 36
    2f15:	4169           	s32i.n	a6, a1, 16
    2f17:	f465a1        	l32r	a10, ac (14e60 <global_stack>)
    2f1a:	3159           	s32i.n	a5, a1, 12
    2f1c:	e149           	s32i.n	a4, a1, 56
    2f1e:	0a88           	l32i.n	a8, a10, 0
    2f20:	e1b8           	l32i.n	a11, a1, 56
    2f22:	240c           	movi.n	a4, 2
    2f24:	c04480        	sub	a4, a4, a8
    2f27:	044040        	extui	a4, a4, 0, 1
    2f2a:	484a           	add.n	a4, a8, a4
    2f2c:	90c340        	addx2	a12, a3, a4
    2f2f:	0ac9           	s32i.n	a12, a10, 0
    2f31:	021be6        	bgei	a11, 1, 2f37 <transient_analysis+0x27>
    2f34:	009a46        	j	31a1 <transient_analysis+0x291>
    2f37:	2189           	s32i.n	a8, a1, 8
    2f39:	9aaf52        	movi	a5, -102
    2f3c:	070c           	movi.n	a7, 0
    2f3e:	060c           	movi.n	a6, 0
    2f40:	231b           	addi.n	a2, a3, 1
    2f42:	18c4b2        	addi	a11, a4, 24
    2f45:	fcc4c2        	addi	a12, a4, -4
    2f48:	1193e0        	slli	a9, a3, 2
    2f4b:	d199           	s32i.n	a9, a1, 52
    2f4d:	a1c9           	s32i.n	a12, a1, 40
    2f4f:	61b9           	s32i.n	a11, a1, 24
    2f51:	b32330        	movgez	a2, a3, a3
    2f54:	f169           	s32i.n	a6, a1, 60
    2f56:	1179           	s32i.n	a7, a1, 4
    2f58:	7fa062        	movi	a6, 127
    2f5b:	f47e71        	l32r	a7, 154 (105e0 <inv_table$8538_46_15>)
    2f5e:	212120        	srai	a2, a2, 1
    2f61:	90f220        	addx2	a15, a2, a2
    2f64:	21e120        	srai	a14, a2, 1
    2f67:	f2c2d2        	addi	a13, a2, -14
    2f6a:	01b2c0        	slli	a11, a2, 20
    2f6d:	c20b           	addi.n	a12, a2, -1
    2f6f:	81c9           	s32i.n	a12, a1, 32
    2f71:	51b9           	s32i.n	a11, a1, 20
    2f73:	21d2d0        	srai	a13, a13, 2
    2f76:	8eed           	ae_sext16	a14, a14
    2f78:	90ff50        	addx2	a15, a15, a5
    2f7b:	c1f9           	s32i.n	a15, a1, 48
    2f7d:	b1e9           	s32i.n	a14, a1, 44
    2f7f:	71d9           	s32i.n	a13, a1, 28
    2f81:	050c           	movi.n	a5, 0
    2f83:	001ac6        	j	2ff2 <transient_analysis+0xe2>

00002f86 <transient_analysis+0x76>:
    2f86:	0b0c           	movi.n	a11, 0
    2f88:	1021e2        	l32i	a14, a1, 64
    2f8b:	6198           	l32i.n	a9, a1, 24
    2f8d:	71c8           	l32i.n	a12, a1, 28
    2f8f:	d1eea0        	mul16s	a14, a14, a10
    2f92:	51d8           	l32i.n	a13, a1, 20
    2f94:	21e1e0        	srai	a14, a14, 1
    2f97:	ee1b           	addi.n	a14, a14, 1
    2f99:	d2dde0        	quos	a13, a13, a14
    2f9c:	9ded           	ae_zext16	a14, a13
    2f9e:	31d0d0        	srai	a13, a13, 16
    2fa1:	22ac76        	loopgtz	a12, 2fc7 <transient_analysis+0xb7>
    2fa4:	29ad           	ae_l16si.n	a10, a9, 0
    2fa6:	998b           	addi.n	a9, a9, 8
    2fa8:	aa1b           	addi.n	a10, a10, 1
    2faa:	8acd           	ae_sext16	a12, a10
    2fac:	82cce0        	mull	a12, a12, a14
    2faf:	d1aad0        	mul16s	a10, a10, a13
    2fb2:	21cfc0        	srai	a12, a12, 15
    2fb5:	90aac0        	addx2	a10, a10, a12
    2fb8:	1a8c           	beqz.n	a10, 2fbd <transient_analysis+0xad>
    2fba:	251aa6        	blti	a10, 1, 2fe3 <transient_analysis+0xd3>

00002fbd <transient_analysis+0xad>:
    2fbd:	43aa60        	min	a10, a10, a6

00002fc0 <transient_analysis+0xb0>:
    2fc0:	ca7a           	add.n	a12, a10, a7
    2fc2:	000cc2        	l8ui	a12, a12, 0
    2fc5:	bbca           	add.n	a11, a11, a12

00002fc7 <transient_analysis+0xb7>:
    2fc7:	e1f8           	l32i.n	a15, a1, 56
    2fc9:	11bb80        	slli	a11, a11, 8
    2fcc:	d198           	l32i.n	a9, a1, 52
    2fce:	c1c8           	l32i.n	a12, a1, 48
    2fd0:	f1d8           	l32i.n	a13, a1, 60
    2fd2:	559a           	add.n	a5, a5, a9
    2fd4:	d2bbc0        	quos	a11, a11, a12
    2fd7:	0dadb7        	bge	a13, a11, 2fe8 <transient_analysis+0xd8>
    2fda:	41d8           	l32i.n	a13, a1, 16
    2fdc:	f1b9           	s32i.n	a11, a1, 60
    2fde:	0d89           	s32i.n	a8, a13, 0
    2fe0:	000106        	j	2fe8 <transient_analysis+0xd8>

00002fe3 <transient_analysis+0xd3>:
    2fe3:	0a0c           	movi.n	a10, 0
    2fe5:	fff5c6        	j	2fc0 <transient_analysis+0xb0>

00002fe8 <transient_analysis+0xd8>:
    2fe8:	881b           	addi.n	a8, a8, 1
    2fea:	1189           	s32i.n	a8, a1, 4
    2fec:	c0ff80        	sub	a15, a15, a8
    2fef:	1b5f16        	beqz	a15, 31a8 <transient_analysis+0x298>

00002ff2 <transient_analysis+0xe2>:
    2ff2:	4113a6        	blti	a3, 1, 3037 <transient_analysis+0x127>
    2ff5:	9188           	l32i.n	a8, a1, 36
    2ff7:	858a           	add.n	a8, a5, a8
    2ff9:	08c8           	l32i.n	a12, a8, 0
    2ffb:	930b           	addi.n	a9, a3, -1
    2ffd:	884b           	addi.n	a8, a8, 4
    2fff:	21ccc0        	srai	a12, a12, 12
    3002:	0cdd           	mov.n	a13, a12
    3004:	11acf0        	slli	a10, a12, 1
    3007:	21e1c0        	srai	a14, a12, 1
    300a:	0cbd           	mov.n	a11, a12
    300c:	21b2b0        	srai	a11, a11, 2
    300f:	c0cce0        	sub	a12, a12, a14
    3012:	04ed           	mov.n	a14, a4
    3014:	09ceb4        	ae_s16ip	a11, a14, 2
    3017:	1ca976        	loopgtz	a9, 3037 <transient_analysis+0x127>
    301a:	0898           	l32i.n	a9, a8, 0
    301c:	c0ada0        	sub	a10, a13, a10
    301f:	884b           	addi.n	a8, a8, 4
    3021:	219c90        	srai	a9, a9, 12
    3024:	b9aa           	add.n	a11, a9, a10
    3026:	21d2b0        	srai	a13, a11, 2
    3029:	21a1b0        	srai	a10, a11, 1
    302c:	09ced4        	ae_s16ip	a13, a14, 2
    302f:	dbca           	add.n	a13, a11, a12
    3031:	c0c9a0        	sub	a12, a9, a10
    3034:	11a9f0        	slli	a10, a9, 1

00003037 <transient_analysis+0x127>:
    3037:	04ad           	mov.n	a10, a4
    3039:	f41081        	l32r	a8, 7c (f6b0 <memset>)
    303c:	0b0c           	movi.n	a11, 0
    303e:	8c1c           	movi.n	a12, 24
    3040:	0008e0        	callx8	a8
    3043:	0213e6        	bgei	a3, 1, 3049 <transient_analysis+0x139>
    3046:	004e06        	j	3182 <transient_analysis+0x272>
    3049:	0b0c           	movi.n	a11, 0
    304b:	0a0c           	movi.n	a10, 0
    304d:	048d           	mov.n	a8, a4
    304f:	219130        	srai	a9, a3, 1
    3052:	0d6307        	bbci	a3, 0, 3063 <transient_analysis+0x153>
    3055:	24cd           	ae_l16si.n	a12, a4, 0
    3057:	842b           	addi.n	a8, a4, 2
    3059:	43aca0        	min	a10, a12, a10
    305c:	53bcb0        	max	a11, a12, a11
    305f:	8bbd           	ae_sext16	a11, a11
    3061:	8aad           	ae_sext16	a10, a10
    3063:	19a976        	loopgtz	a9, 3080 <transient_analysis+0x170>
    3066:	289d           	ae_l16si.n	a9, a8, 0
    3068:	38cd           	ae_l16si.n	a12, a8, 2
    306a:	884b           	addi.n	a8, a8, 4
    306c:	43a9a0        	min	a10, a9, a10
    306f:	5399b0        	max	a9, a9, a11
    3072:	899d           	ae_sext16	a9, a9
    3074:	8aad           	ae_sext16	a10, a10
    3076:	43aca0        	min	a10, a12, a10
    3079:	539c90        	max	a9, a12, a9
    307c:	89bd           	ae_sext16	a11, a9
    307e:	8aad           	ae_sext16	a10, a10

00003080 <transient_analysis+0x170>:
    3080:	fd1c           	movi.n	a13, 31
    3082:	60e0a0        	neg	a14, a10
    3085:	53eeb0        	max	a14, a14, a11
    3088:	ee1b           	addi.n	a14, a14, 1
    308a:	40fee0        	nsau	a14, a14
    308d:	c0dde0        	sub	a13, a13, a14
    3090:	ee0c           	movi.n	a14, 14
    3092:	8ddd           	ae_sext16	a13, a13
    3094:	291de7        	beq	a13, a14, 30c1 <transient_analysis+0x1b1>
    3097:	2613a6        	blti	a3, 1, 30c1 <transient_analysis+0x1b1>

0000309a <transient_analysis+0x18a>:
    309a:	ef0c           	movi.n	a15, 14
    309c:	f81c           	movi.n	a8, 31
    309e:	6090a0        	neg	a9, a10
    30a1:	5399b0        	max	a9, a9, a11
    30a4:	991b           	addi.n	a9, a9, 1
    30a6:	40f990        	nsau	a9, a9
    30a9:	c08890        	sub	a8, a8, a9
    30ac:	888d           	ae_sext16	a8, a8
    30ae:	c0ff80        	sub	a15, a15, a8
    30b1:	401f00        	ssl	a15
    30b4:	048d           	mov.n	a8, a4
    30b6:	07a376        	loopgtz	a3, 30c1 <transient_analysis+0x1b1>
    30b9:	489d           	ae_l16ui.n	a9, a8, 0
    30bb:	a19900        	sll	a9, a9
    30be:	09c894        	ae_s16ip	a9, a8, 2

000030c1 <transient_analysis+0x1b1>:
    30c1:	a188           	l32i.n	a8, a1, 40
    30c3:	0212e6        	bgei	a2, 1, 30c9 <transient_analysis+0x1b9>
    30c6:	002ac6        	j	3175 <transient_analysis+0x265>
    30c9:	449814        	ae_lp16x2f.iu	aep1, a8, 4
    30cc:	021174        	ae_mulp24s.ll	aeq0, aep1, aep1
    30cf:	021104        	ae_mulap24s.hh	aeq0, aep1, aep1
    30d2:	f8e38000af 	{ movi	a10, 0; ae_roundsp16q48sym	aep0, aeq0 }
    30d7:	420104        	ae_sp16f.l.i	aep0, a1, 0
    30da:	219d           	ae_l16si.n	a9, a1, 0
    30dc:	b20b           	addi.n	a11, a2, -1
    30de:	04dd           	mov.n	a13, a4
    30e0:	08c9c2        	addi	a12, a9, 8
    30e3:	21c4c0        	srai	a12, a12, 4
    30e6:	09cdc4        	ae_s16ip	a12, a13, 2
    30e9:	21ab76        	loopgtz	a11, 310e <transient_analysis+0x1fe>
    30ec:	448814        	ae_lp16x2f.iu	aep0, a8, 4
    30ef:	ea0390aa9f 	{ add	a10, a10, a9; ae_mulp24s.ll	aeq0, aep0, aep0 }
    30f4:	020004        	ae_mulap24s.hh	aeq0, aep0, aep0
    30f7:	8cbd           	ae_sext16	a11, a12
    30f9:	1b8e04        	ae_roundsp16q48sym	aep0, aeq0
    30fc:	420104        	ae_sp16f.l.i	aep0, a1, 0
    30ff:	219d           	ae_l16si.n	a9, a1, 0
    3101:	c0c9b0        	sub	a12, a9, a11
    3104:	cc8b           	addi.n	a12, a12, 8
    3106:	21c4c0        	srai	a12, a12, 4
    3109:	cbca           	add.n	a12, a11, a12
    310b:	09cdc4        	ae_s16ip	a12, a13, 2

0000310e <transient_analysis+0x1fe>:
    310e:	ea9a           	add.n	a14, a10, a9
    3110:	6612a6        	blti	a2, 1, 317a <transient_analysis+0x26a>

00003113 <transient_analysis+0x203>:
    3113:	8188           	l32i.n	a8, a1, 32
    3115:	908840        	addx2	a8, a8, a4
    3118:	28ad           	ae_l16si.n	a10, a8, 0
    311a:	920b           	addi.n	a9, a2, -1
    311c:	0c0c           	movi.n	a12, 0
    311e:	aa4b           	addi.n	a10, a10, 4
    3120:	21a3a0        	srai	a10, a10, 3
    3123:	8aad           	ae_sext16	a10, a10
    3125:	68ad           	ae_s16i.n	a10, a8, 0
    3127:	53cca0        	max	a12, a12, a10
    312a:	fec882        	addi	a8, a8, -2
    312d:	17a976        	loopgtz	a9, 3148 <transient_analysis+0x238>
    3130:	289d           	ae_l16si.n	a9, a8, 0
    3132:	8cbd           	ae_sext16	a11, a12
    3134:	fec882        	addi	a8, a8, -2
    3137:	c099a0        	sub	a9, a9, a10
    313a:	994b           	addi.n	a9, a9, 4
    313c:	219390        	srai	a9, a9, 3
    313f:	9a9a           	add.n	a9, a10, a9
    3141:	89ad           	ae_sext16	a10, a9
    3143:	78ad           	ae_s16i.n	a10, a8, 2
    3145:	53cba0        	max	a12, a11, a10

00003148 <transient_analysis+0x238>:
    3148:	8c9d           	ae_sext16	a9, a12
    314a:	116192        	s32i	a9, a1, 68

0000314d <transient_analysis+0x23d>:
    314d:	f3c681        	l32r	a8, 68 (b914 <celt_sqrt>)
    3150:	0ead           	mov.n	a10, a14
    3152:	0008e0        	callx8	a8
    3155:	1061a2        	s32i	a10, a1, 64
    3158:	1121b2        	l32i	a11, a1, 68
    315b:	b1a8           	l32i.n	a10, a1, 44
    315d:	f3c281        	l32r	a8, 68 (b914 <celt_sqrt>)
    3160:	d1aab0        	mul16s	a10, a10, a11
    3163:	0008e0        	callx8	a8
    3166:	1188           	l32i.n	a8, a1, 4
    3168:	1f1c           	movi.n	a15, 17
    316a:	02af27        	bge	a15, a2, 3170 <transient_analysis+0x260>
    316d:	ff8546        	j	2f86 <transient_analysis+0x76>
    3170:	0b0c           	movi.n	a11, 0
    3172:	ff9446        	j	2fc7 <transient_analysis+0xb7>

00003175 <transient_analysis+0x265>:
    3175:	0e0c           	movi.n	a14, 0
    3177:	9812e6        	bgei	a2, 1, 3113 <transient_analysis+0x203>

0000317a <transient_analysis+0x26a>:
    317a:	0c0c           	movi.n	a12, 0
    317c:	1161c2        	s32i	a12, a1, 68
    317f:	fff286        	j	314d <transient_analysis+0x23d>

00003182 <transient_analysis+0x272>:
    3182:	fd1c           	movi.n	a13, 31
    3184:	1e0c           	movi.n	a14, 1
    3186:	40fee0        	nsau	a14, a14
    3189:	c0dde0        	sub	a13, a13, a14
    318c:	8ddd           	ae_sext16	a13, a13
    318e:	f2cdd2        	addi	a13, a13, -14
    3191:	f2cd16        	beqz	a13, 30c1 <transient_analysis+0x1b1>
    3194:	0b0c           	movi.n	a11, 0
    3196:	0a0c           	movi.n	a10, 0
    3198:	0213a6        	blti	a3, 1, 319e <transient_analysis+0x28e>
    319b:	ffbec6        	j	309a <transient_analysis+0x18a>
    319e:	ffc7c6        	j	30c1 <transient_analysis+0x1b1>

000031a1 <transient_analysis+0x291>:
    31a1:	2189           	s32i.n	a8, a1, 8
    31a3:	0f0c           	movi.n	a15, 0
    31a5:	0f61f2        	s32i	a15, a1, 60

000031a8 <transient_analysis+0x298>:
    31a8:	f128           	l32i.n	a2, a1, 60
    31aa:	1ba082        	movi	a8, 27
    31ad:	822280        	mull	a2, a2, a8
    31b0:	f3ae81        	l32r	a8, 68 (b914 <celt_sqrt>)
    31b3:	20a220        	or	a10, a2, a2
    31b6:	0008e0        	callx8	a8
    31b9:	a92c           	movi.n	a9, 42
    31bb:	37aa97        	bge	a10, a9, 31f6 <transient_analysis+0x2e6>
    31be:	080c           	movi.n	a8, 0

000031c0 <transient_analysis+0x2b0>:
    31c0:	a3a0b2        	movi	a11, 163
    31c3:	88ad           	ae_sext16	a10, a8
    31c5:	43aab0        	min	a10, a10, a11
    31c8:	71a0b2        	movi	a11, 113
    31cb:	d1aab0        	mul16s	a10, a10, a11
    31ce:	f3e2b1        	l32r	a11, 158 (fdc6a7f0 <_end+0xfdc5598c>)
    31d1:	f3a581        	l32r	a8, 68 (b914 <celt_sqrt>)
    31d4:	11aa20        	slli	a10, a10, 14
    31d7:	aaba           	add.n	a10, a10, a11
    31d9:	0b0c           	movi.n	a11, 0
    31db:	53aab0        	max	a10, a10, a11
    31de:	0008e0        	callx8	a8
    31e1:	31b8           	l32i.n	a11, a1, 12
    31e3:	2198           	l32i.n	a9, a1, 8
    31e5:	f188           	l32i.n	a8, a1, 60
    31e7:	6bad           	ae_s16i.n	a10, a11, 0
    31e9:	f3b0a1        	l32r	a10, ac (14e60 <global_stack>)
    31ec:	c8a022        	movi	a2, 200
    31ef:	722280        	salt	a2, a2, a8
    31f2:	0a99           	s32i.n	a9, a10, 0
    31f4:	f01d           	retw.n

000031f6 <transient_analysis+0x2e6>:
    31f6:	f39c81        	l32r	a8, 68 (b914 <celt_sqrt>)
    31f9:	02ad           	mov.n	a10, a2
    31fb:	f03d           	nop.n
    31fd:	0008e0        	callx8	a8
    3200:	d6ca82        	addi	a8, a10, -42
    3203:	ffee46        	j	31c0 <transient_analysis+0x2b0>

00003206 <transient_analysis+0x2f6>:
	...

00003208 <patch_transient_decision>:
    3208:	010136        	entry	a1, 128
    320b:	126122        	s32i	a2, a1, 72
    320e:	176142        	s32i	a4, a1, 92
    3211:	116152        	s32i	a5, a1, 68
    3214:	106162        	s32i	a6, a1, 64
    3217:	a51b           	addi.n	a10, a5, 1
    3219:	90b510        	addx2	a11, a5, a1
    321c:	07fd           	mov.n	a15, a7
    321e:	8f0b           	addi.n	a8, a15, -1
    3220:	907530        	addx2	a7, a5, a3
    3223:	277d           	ae_l16si.n	a7, a7, 0
    3225:	1f3816        	beqz	a8, 341c <patch_transient_decision+0x214>
    3228:	e45a           	add.n	a14, a4, a5
    322a:	90ee30        	addx2	a14, a14, a3
    322d:	2eed           	ae_l16si.n	a14, a14, 0
    322f:	53ee70        	max	a14, a14, a7
    3232:	6bed           	ae_s16i.n	a14, a11, 0
    3234:	022a67        	blt	a10, a6, 323a <patch_transient_decision+0x32>
    3237:	002406        	j	32cb <patch_transient_decision+0xc3>
    323a:	902a30        	addx2	a2, a10, a3
    323d:	7a4a           	add.n	a7, a10, a4
    323f:	907730        	addx2	a7, a7, a3
    3242:	ffd142        	addmi	a4, a1, 0xffffff00
    3245:	444b           	addi.n	a4, a4, 4
    3247:	904a40        	addx2	a4, a10, a4
    324a:	c0a650        	sub	a10, a6, a5
    324d:	aa0b           	addi.n	a10, a10, -1
    324f:	1490a0        	extui	a9, a10, 0, 2
    3252:	18a976        	loopgtz	a9, 326e <patch_transient_decision+0x66>
    3255:	7d9492        	l16si	a9, a4, 250
    3258:	22bd           	ae_l16si.n	a11, a2, 0
    325a:	278d           	ae_l16si.n	a8, a7, 0
    325c:	222b           	addi.n	a2, a2, 2
    325e:	772b           	addi.n	a7, a7, 2
    3260:	442b           	addi.n	a4, a4, 2
    3262:	fcd992        	addmi	a9, a9, 0xfffffc00
    3265:	5388b0        	max	a8, a8, a11
    3268:	538890        	max	a8, a8, a9
    326b:	7d5482        	s16i	a8, a4, 250

0000326e <patch_transient_decision+0x66>:
    326e:	046d           	mov.n	a6, a4
    3270:	2132a0        	srai	a3, a10, 2
    3273:	074d           	mov.n	a4, a7
    3275:	52a376        	loopgtz	a3, 32cb <patch_transient_decision+0xc3>
    3278:	223d           	ae_l16si.n	a3, a2, 0
    327a:	245d           	ae_l16si.n	a5, a4, 0
    327c:	7d9672        	l16si	a7, a6, 250
    327f:	328d           	ae_l16si.n	a8, a2, 2
    3281:	349d           	ae_l16si.n	a9, a4, 2
    3283:	0292a2        	l16si	a10, a2, 4
    3286:	0294b2        	l16si	a11, a4, 4
    3289:	0392c2        	l16si	a12, a2, 6
    328c:	0394d2        	l16si	a13, a4, 6
    328f:	668b           	addi.n	a6, a6, 8
    3291:	533530        	max	a3, a5, a3
    3294:	fcd752        	addmi	a5, a7, 0xfffffc00
    3297:	537980        	max	a7, a9, a8
    329a:	538ba0        	max	a8, a11, a10
    329d:	539dc0        	max	a9, a13, a12
    32a0:	228b           	addi.n	a2, a2, 8
    32a2:	448b           	addi.n	a4, a4, 8
    32a4:	533350        	max	a3, a3, a5
    32a7:	7a5632        	s16i	a3, a6, 244
    32aa:	833d           	ae_sext16	a3, a3
    32ac:	fcd332        	addmi	a3, a3, 0xfffffc00
    32af:	533730        	max	a3, a7, a3
    32b2:	7b5632        	s16i	a3, a6, 246
    32b5:	833d           	ae_sext16	a3, a3
    32b7:	fcd332        	addmi	a3, a3, 0xfffffc00
    32ba:	533830        	max	a3, a8, a3
    32bd:	7c5632        	s16i	a3, a6, 248
    32c0:	833d           	ae_sext16	a3, a3
    32c2:	fcd332        	addmi	a3, a3, 0xfffffc00
    32c5:	533930        	max	a3, a9, a3
    32c8:	7d5632        	s16i	a3, a6, 250

000032cb <patch_transient_decision+0xc3>:
    32cb:	102132        	l32i	a3, a1, 64
    32ce:	1121a2        	l32i	a10, a1, 68
    32d1:	fec332        	addi	a3, a3, -2
    32d4:	4c23a7        	blt	a3, a10, 3324 <patch_transient_decision+0x11c>
    32d7:	ffd142        	addmi	a4, a1, 0xffffff00
    32da:	102172        	l32i	a7, a1, 64
    32dd:	444b           	addi.n	a4, a4, 4
    32df:	904340        	addx2	a4, a3, a4
    32e2:	c077a0        	sub	a7, a7, a10
    32e5:	770b           	addi.n	a7, a7, -1
    32e7:	116707        	bbci	a7, 0, 32fc <patch_transient_decision+0xf4>
    32ea:	7f9482        	l16si	a8, a4, 254
    32ed:	7e9492        	l16si	a9, a4, 252
    32f0:	fec442        	addi	a4, a4, -2
    32f3:	fcd882        	addmi	a8, a8, 0xfffffc00
    32f6:	538890        	max	a8, a8, a9
    32f9:	7f5482        	s16i	a8, a4, 254

000032fc <patch_transient_decision+0xf4>:
    32fc:	042d           	mov.n	a2, a4
    32fe:	213170        	srai	a3, a7, 1
    3301:	1fa376        	loopgtz	a3, 3324 <patch_transient_decision+0x11c>
    3304:	7f9232        	l16si	a3, a2, 254
    3307:	7e9242        	l16si	a4, a2, 252
    330a:	7d9252        	l16si	a5, a2, 250
    330d:	fcc222        	addi	a2, a2, -4
    3310:	fcd332        	addmi	a3, a3, 0xfffffc00
    3313:	533340        	max	a3, a3, a4
    3316:	805232        	s16i	a3, a2, 0x100
    3319:	833d           	ae_sext16	a3, a3
    331b:	fcd332        	addmi	a3, a3, 0xfffffc00
    331e:	533350        	max	a3, a3, a5
    3321:	7f5232        	s16i	a3, a2, 254

00003324 <patch_transient_decision+0x11c>:
    3324:	0e0c           	movi.n	a14, 0
    3326:	060c           	movi.n	a6, 0
    3328:	102192        	l32i	a9, a1, 64
    332b:	2b0c           	movi.n	a11, 2
    332d:	1121a2        	l32i	a10, a1, 68
    3330:	0c0c           	movi.n	a12, 0
    3332:	1661c2        	s32i	a12, a1, 88
    3335:	53aab0        	max	a10, a10, a11
    3338:	d90b           	addi.n	a13, a9, -1
    333a:	1461d2        	s32i	a13, a1, 80
    333d:	1561a2        	s32i	a10, a1, 84
    3340:	00a0d2        	movi	a13, 0
    3343:	c099a0        	sub	a9, a9, a10
    3346:	ffc992        	addi	a9, a9, -1
    3349:	136192        	s32i	a9, a1, 76

0000334c <patch_transient_decision+0x144>:
    334c:	152182        	l32i	a8, a1, 84
    334f:	142192        	l32i	a9, a1, 80
    3352:	1321a2        	l32i	a10, a1, 76
    3355:	084d           	mov.n	a4, a8
    3357:	022897        	blt	a8, a9, 335d <patch_transient_decision+0x155>
    335a:	002686        	j	33f8 <patch_transient_decision+0x1f0>
    335d:	2e8a           	add.n	a2, a14, a8
    335f:	122152        	l32i	a5, a1, 72
    3362:	ffd182        	addmi	a8, a1, 0xffffff00
    3365:	884b           	addi.n	a8, a8, 4
    3367:	904480        	addx2	a4, a4, a8
    336a:	902250        	addx2	a2, a2, a5
    336d:	0a5d           	mov.n	a5, a10
    336f:	213250        	srai	a3, a5, 2
    3372:	14a0a0        	extui	a10, a10, 0, 2
    3375:	1aaa76        	loopgtz	a10, 3393 <patch_transient_decision+0x18b>
    3378:	7e9492        	l16si	a9, a4, 252
    337b:	228d           	ae_l16si.n	a8, a2, 0
    337d:	442b           	addi.n	a4, a4, 2
    337f:	222b           	addi.n	a2, a2, 2
    3381:	5388d0        	max	a8, a8, a13
    3384:	5399d0        	max	a9, a9, a13
    3387:	899d           	ae_sext16	a9, a9
    3389:	888d           	ae_sext16	a8, a8
    338b:	c08890        	sub	a8, a8, a9
    338e:	5388d0        	max	a8, a8, a13
    3391:	668a           	add.n	a6, a6, a8
    3393:	61a376        	loopgtz	a3, 33f8 <patch_transient_decision+0x1f0>
    3396:	223d           	ae_l16si.n	a3, a2, 0
    3398:	7e9452        	l16si	a5, a4, 252
    339b:	327d           	ae_l16si.n	a7, a2, 2
    339d:	7f9482        	l16si	a8, a4, 254
    33a0:	029292        	l16si	a9, a2, 4
    33a3:	8094a2        	l16si	a10, a4, 0x100
    33a6:	0392b2        	l16si	a11, a2, 6
    33a9:	8194c2        	l16si	a12, a4, 0x102
    33ac:	448b           	addi.n	a4, a4, 8
    33ae:	5333d0        	max	a3, a3, a13
    33b1:	5355d0        	max	a5, a5, a13
    33b4:	5377d0        	max	a7, a7, a13
    33b7:	5388d0        	max	a8, a8, a13
    33ba:	5399d0        	max	a9, a9, a13
    33bd:	53aad0        	max	a10, a10, a13
    33c0:	53bbd0        	max	a11, a11, a13
    33c3:	53ccd0        	max	a12, a12, a13
    33c6:	228b           	addi.n	a2, a2, 8
    33c8:	855d           	ae_sext16	a5, a5
    33ca:	833d           	ae_sext16	a3, a3
    33cc:	888d           	ae_sext16	a8, a8
    33ce:	877d           	ae_sext16	a7, a7
    33d0:	8aad           	ae_sext16	a10, a10
    33d2:	899d           	ae_sext16	a9, a9
    33d4:	8ccd           	ae_sext16	a12, a12
    33d6:	8bbd           	ae_sext16	a11, a11
    33d8:	c03350        	sub	a3, a3, a5
    33db:	c05780        	sub	a5, a7, a8
    33de:	c079a0        	sub	a7, a9, a10
    33e1:	c08bc0        	sub	a8, a11, a12
    33e4:	5333d0        	max	a3, a3, a13
    33e7:	5355d0        	max	a5, a5, a13
    33ea:	5377d0        	max	a7, a7, a13
    33ed:	5388d0        	max	a8, a8, a13
    33f0:	363a           	add.n	a3, a6, a3
    33f2:	335a           	add.n	a3, a3, a5
    33f4:	337a           	add.n	a3, a3, a7
    33f6:	638a           	add.n	a6, a3, a8

000033f8 <patch_transient_decision+0x1f0>:
    33f8:	1721a2        	l32i	a10, a1, 92
    33fb:	162192        	l32i	a9, a1, 88
    33fe:	eeaa           	add.n	a14, a14, a10
    3400:	991b           	addi.n	a9, a9, 1
    3402:	166192        	s32i	a9, a1, 88
    3405:	02a9f7        	bge	a9, a15, 340b <patch_transient_decision+0x203>
    3408:	ffd006        	j	334c <patch_transient_decision+0x144>
    340b:	132182        	l32i	a8, a1, 76
    340e:	8288f0        	mull	a8, a8, a15
    3411:	00a422        	movi	a2, 0x400
    3414:	d28680        	quos	a8, a6, a8
    3417:	722280        	salt	a2, a2, a8
    341a:	f01d           	retw.n

0000341c <patch_transient_decision+0x214>:
    341c:	6b7d           	ae_s16i.n	a7, a11, 0
    341e:	022a67        	blt	a10, a6, 3424 <patch_transient_decision+0x21c>
    3421:	ffa986        	j	32cb <patch_transient_decision+0xc3>
    3424:	902a30        	addx2	a2, a10, a3
    3427:	ffd142        	addmi	a4, a1, 0xffffff00
    342a:	c07650        	sub	a7, a6, a5
    342d:	770b           	addi.n	a7, a7, -1
    342f:	444b           	addi.n	a4, a4, 4
    3431:	904a40        	addx2	a4, a10, a4
    3434:	14b070        	extui	a11, a7, 0, 2
    3437:	11ab76        	loopgtz	a11, 344c <patch_transient_decision+0x244>
    343a:	228d           	ae_l16si.n	a8, a2, 0
    343c:	7d9492        	l16si	a9, a4, 250
    343f:	222b           	addi.n	a2, a2, 2
    3441:	442b           	addi.n	a4, a4, 2
    3443:	fcd992        	addmi	a9, a9, 0xfffffc00
    3446:	538890        	max	a8, a8, a9
    3449:	7d5482        	s16i	a8, a4, 250

0000344c <patch_transient_decision+0x244>:
    344c:	02ad           	mov.n	a10, a2
    344e:	213270        	srai	a3, a7, 2
    3451:	042d           	mov.n	a2, a4
    3453:	0a4d           	mov.n	a4, a10
    3455:	3aa376        	loopgtz	a3, 3493 <patch_transient_decision+0x28b>
    3458:	7d9232        	l16si	a3, a2, 250
    345b:	245d           	ae_l16si.n	a5, a4, 0
    345d:	346d           	ae_l16si.n	a6, a4, 2
    345f:	029472        	l16si	a7, a4, 4
    3462:	039482        	l16si	a8, a4, 6
    3465:	228b           	addi.n	a2, a2, 8
    3467:	fcd332        	addmi	a3, a3, 0xfffffc00
    346a:	448b           	addi.n	a4, a4, 8
    346c:	533530        	max	a3, a5, a3
    346f:	7a5232        	s16i	a3, a2, 244
    3472:	833d           	ae_sext16	a3, a3
    3474:	fcd332        	addmi	a3, a3, 0xfffffc00
    3477:	533630        	max	a3, a6, a3
    347a:	7b5232        	s16i	a3, a2, 246
    347d:	833d           	ae_sext16	a3, a3
    347f:	fcd332        	addmi	a3, a3, 0xfffffc00
    3482:	533730        	max	a3, a7, a3
    3485:	7c5232        	s16i	a3, a2, 248
    3488:	833d           	ae_sext16	a3, a3
    348a:	fcd332        	addmi	a3, a3, 0xfffffc00
    348d:	533830        	max	a3, a8, a3
    3490:	7d5232        	s16i	a3, a2, 250
    3493:	ff8d06        	j	32cb <patch_transient_decision+0xc3>

00003496 <patch_transient_decision+0x28e>:
	...

00003498 <compute_mdcts>:
    3498:	00e136        	entry	a1, 112
    349b:	5149           	s32i.n	a4, a1, 20
    349d:	9159           	s32i.n	a5, a1, 36
    349f:	92c8           	l32i.n	a12, a2, 36
    34a1:	7298           	l32i.n	a9, a2, 28
    34a3:	8179           	s32i.n	a7, a1, 32
    34a5:	6169           	s32i.n	a6, a1, 24
    34a7:	027d           	mov.n	a7, a2
    34a9:	1268           	l32i.n	a6, a2, 4
    34ab:	0d9316        	beqz	a3, 3588 <compute_mdcts+0xf0>
    34ae:	034d           	mov.n	a4, a3
    34b0:	09bd           	mov.n	a11, a9
    34b2:	0c9d           	mov.n	a9, a12

000034b4 <compute_mdcts+0x1c>:
    34b4:	e1b9           	s32i.n	a11, a1, 56
    34b6:	9138           	l32i.n	a3, a1, 36
    34b8:	38c7c2        	addi	a12, a7, 56
    34bb:	11d9e0        	slli	a13, a9, 2
    34be:	0f0c           	movi.n	a15, 0
    34c0:	080c           	movi.n	a8, 0
    34c2:	0a0c           	movi.n	a10, 0
    34c4:	b1a9           	s32i.n	a10, a1, 44
    34c6:	c189           	s32i.n	a8, a1, 48
    34c8:	d1f9           	s32i.n	a15, a1, 52
    34ca:	1061d2        	s32i	a13, a1, 64
    34cd:	f1c9           	s32i.n	a12, a1, 60
    34cf:	82d940        	mull	a13, a9, a4
    34d2:	1e21c2        	l32i	a12, a1, 120
    34d5:	a03430        	addx4	a3, a4, a3
    34d8:	1161c2        	s32i	a12, a1, 68
    34db:	41d9           	s32i.n	a13, a1, 16
    34dd:	11ede0        	slli	a14, a13, 2
    34e0:	a1e9           	s32i.n	a14, a1, 40
    34e2:	dd6a           	add.n	a13, a13, a6
    34e4:	11dde0        	slli	a13, a13, 2
    34e7:	71d9           	s32i.n	a13, a1, 28

000034e9 <compute_mdcts+0x51>:
    34e9:	2e14a6        	blti	a4, 1, 351b <compute_mdcts+0x83>
    34ec:	9188           	l32i.n	a8, a1, 36
    34ee:	b158           	l32i.n	a5, a1, 44
    34f0:	c128           	l32i.n	a2, a1, 48
    34f2:	558a           	add.n	a5, a5, a8
    34f4:	5188           	l32i.n	a8, a1, 20
    34f6:	228a           	add.n	a2, a2, a8

000034f8 <compute_mdcts+0x60>:
    34f8:	06ed           	mov.n	a14, a6
    34fa:	f1a8           	l32i.n	a10, a1, 60
    34fc:	02bd           	mov.n	a11, a2
    34fe:	05cd           	mov.n	a12, a5
    3500:	e1f8           	l32i.n	a15, a1, 56
    3502:	112192        	l32i	a9, a1, 68
    3505:	d7d8           	l32i.n	a13, a7, 52
    3507:	f31581        	l32r	a8, 15c (bb94 <clt_mdct_forward_c>)
    350a:	0149           	s32i.n	a4, a1, 0
    350c:	1199           	s32i.n	a9, a1, 4
    350e:	0008e0        	callx8	a8
    3511:	1021a2        	l32i	a10, a1, 64
    3514:	554b           	addi.n	a5, a5, 4
    3516:	22aa           	add.n	a2, a2, a10
    3518:	dc9537        	bne	a5, a3, 34f8 <compute_mdcts+0x60>

0000351b <compute_mdcts+0x83>:
    351b:	81c8           	l32i.n	a12, a1, 32
    351d:	7188           	l32i.n	a8, a1, 28
    351f:	c1f8           	l32i.n	a15, a1, 48
    3521:	a1d8           	l32i.n	a13, a1, 40
    3523:	d1b8           	l32i.n	a11, a1, 52
    3525:	b1e8           	l32i.n	a14, a1, 44
    3527:	33da           	add.n	a3, a3, a13
    3529:	bb1b           	addi.n	a11, a11, 1
    352b:	d1b9           	s32i.n	a11, a1, 52
    352d:	eeda           	add.n	a14, a14, a13
    352f:	ff8a           	add.n	a15, a15, a8
    3531:	c1f9           	s32i.n	a15, a1, 48
    3533:	0b61e2        	s32i	a14, a1, 44
    3536:	af2bc7        	blt	a11, a12, 34e9 <compute_mdcts+0x51>
    3539:	5c2c26        	beqi	a12, 2, 3599 <compute_mdcts+0x101>

0000353c <compute_mdcts+0xa4>:
    353c:	1d2142        	l32i	a4, a1, 116
    353f:	431426        	beqi	a4, 1, 3586 <compute_mdcts+0xee>
    3542:	020c           	movi.n	a2, 0
    3544:	91b8           	l32i.n	a11, a1, 36
    3546:	4158           	l32i.n	a5, a1, 16
    3548:	0c0c           	movi.n	a12, 0
    354a:	d1c9           	s32i.n	a12, a1, 52
    354c:	d27540        	quos	a7, a5, a4
    354f:	a0b7b0        	addx4	a11, a7, a11
    3552:	c05570        	sub	a5, a5, a7
    3555:	1155e0        	slli	a5, a5, 2

00003558 <compute_mdcts+0xc0>:
    3558:	9188           	l32i.n	a8, a1, 36
    355a:	05cd           	mov.n	a12, a5
    355c:	828a           	add.n	a8, a2, a8
    355e:	07a776        	loopgtz	a7, 3569 <compute_mdcts+0xd1>
    3561:	0898           	l32i.n	a9, a8, 0
    3563:	829940        	mull	a9, a9, a4
    3566:	09e894        	ae_s32ip	a9, a8, 4

00003569 <compute_mdcts+0xd1>:
    3569:	0b3d           	mov.n	a3, a11
    356b:	f2c481        	l32r	a8, 7c (f6b0 <memset>)
    356e:	0bad           	mov.n	a10, a11
    3570:	0b0c           	movi.n	a11, 0
    3572:	0008e0        	callx8	a8
    3575:	a1b8           	l32i.n	a11, a1, 40
    3577:	d198           	l32i.n	a9, a1, 52
    3579:	61a8           	l32i.n	a10, a1, 24
    357b:	22ba           	add.n	a2, a2, a11
    357d:	991b           	addi.n	a9, a9, 1
    357f:	b3ba           	add.n	a11, a3, a11
    3581:	d199           	s32i.n	a9, a1, 52
    3583:	d129a7        	blt	a9, a10, 3558 <compute_mdcts+0xc0>

00003586 <compute_mdcts+0xee>:
    3586:	f01d           	retw.n

00003588 <compute_mdcts+0xf0>:
    3588:	1c21d2        	l32i	a13, a1, 112
    358b:	140c           	movi.n	a4, 1
    358d:	c0b9d0        	sub	a11, a9, a13
    3590:	401d00        	ssl	a13
    3593:	a19c00        	sll	a9, a12
    3596:	ffc686        	j	34b4 <compute_mdcts+0x1c>

00003599 <compute_mdcts+0x101>:
    3599:	61e8           	l32i.n	a14, a1, 24
    359b:	9d1e66        	bnei	a14, 1, 353c <compute_mdcts+0xa4>
    359e:	91a8           	l32i.n	a10, a1, 36
    35a0:	4198           	l32i.n	a9, a1, 16
    35a2:	808da0        	add	a8, a13, a10
    35a5:	10a976        	loopgtz	a9, 35b9 <compute_mdcts+0x121>
    35a8:	0898           	l32i.n	a9, a8, 0
    35aa:	0ab8           	l32i.n	a11, a10, 0
    35ac:	884b           	addi.n	a8, a8, 4
    35ae:	219190        	srai	a9, a9, 1
    35b1:	21b1b0        	srai	a11, a11, 1
    35b4:	9b9a           	add.n	a9, a11, a9
    35b6:	09ea94        	ae_s32ip	a9, a10, 4

000035b9 <compute_mdcts+0x121>:
    35b9:	ffdfc6        	j	353c <compute_mdcts+0xa4>

000035bc <celt_preemphasis>:
    35bc:	004136        	entry	a1, 32
    35bf:	04dd           	mov.n	a13, a4
    35c1:	279d           	ae_l16si.n	a9, a7, 0
    35c3:	81f8           	l32i.n	a15, a1, 32
    35c5:	37ad           	ae_l16si.n	a10, a7, 2
    35c7:	036d           	mov.n	a6, a3
    35c9:	0fe8           	l32i.n	a14, a15, 0
    35cb:	083a16        	beqz	a10, 3652 <celt_preemphasis+0x96>
    35ce:	1155f0        	slli	a5, a5, 1
    35d1:	043d           	mov.n	a3, a4
    35d3:	064d           	mov.n	a4, a6
    35d5:	06a376        	loopgtz	a3, 35df <celt_preemphasis+0x23>
    35d8:	223d           	ae_l16si.n	a3, a2, 0
    35da:	09e434        	ae_s32ip	a3, a4, 4
    35dd:	225a           	add.n	a2, a2, a5

000035df <celt_preemphasis+0x23>:
    35df:	0297b2        	l16si	a11, a7, 4
    35e2:	681da6        	blti	a13, 1, 364e <celt_preemphasis+0x92>
    35e5:	0658           	l32i.n	a5, a6, 0
    35e7:	d15b50        	mul16s	a5, a11, a5
    35ea:	3d0b           	addi.n	a3, a13, -1
    35ec:	75ea           	add.n	a7, a5, a14
    35ee:	95cd           	ae_zext16	a12, a5
    35f0:	82c9c0        	mull	a12, a9, a12
    35f3:	978d           	ae_zext16	a8, a7
    35f5:	09e674        	ae_s32ip	a7, a6, 4
    35f8:	062d           	mov.n	a2, a6
    35fa:	828a80        	mull	a8, a10, a8
    35fd:	315050        	srai	a5, a5, 16
    3600:	d15950        	mul16s	a5, a9, a5
    3603:	21cfc0        	srai	a12, a12, 15
    3606:	317070        	srai	a7, a7, 16
    3609:	d17a70        	mul16s	a7, a10, a7
    360c:	218f80        	srai	a8, a8, 15
    360f:	2ea376        	loopgtz	a3, 3641 <celt_preemphasis+0x85>
    3612:	0238           	l32i.n	a3, a2, 0
    3614:	9045c0        	addx2	a4, a5, a12
    3617:	90c780        	addx2	a12, a7, a8
    361a:	d13b30        	mul16s	a3, a11, a3
    361d:	c04c40        	sub	a4, a12, a4
    3620:	93cd           	ae_zext16	a12, a3
    3622:	315030        	srai	a5, a3, 16
    3625:	334a           	add.n	a3, a3, a4
    3627:	317030        	srai	a7, a3, 16
    362a:	82c9c0        	mull	a12, a9, a12
    362d:	938d           	ae_zext16	a8, a3
    362f:	828a80        	mull	a8, a10, a8
    3632:	d15950        	mul16s	a5, a9, a5
    3635:	d17a70        	mul16s	a7, a10, a7
    3638:	218f80        	srai	a8, a8, 15
    363b:	09e234        	ae_s32ip	a3, a2, 4
    363e:	21cfc0        	srai	a12, a12, 15
    3641:	9025c0        	addx2	a2, a5, a12
    3644:	90e780        	addx2	a14, a7, a8
    3647:	c0ee20        	sub	a14, a14, a2
    364a:	0fe9           	s32i.n	a14, a15, 0
    364c:	f01d           	retw.n

0000364e <celt_preemphasis+0x92>:
    364e:	0fe9           	s32i.n	a14, a15, 0
    3650:	f01d           	retw.n

00003652 <celt_preemphasis+0x96>:
    3652:	f814a6        	blti	a4, 1, 364e <celt_preemphasis+0x92>
    3655:	340b           	addi.n	a3, a4, -1
    3657:	22cd           	ae_l16si.n	a12, a2, 0
    3659:	098d           	mov.n	a8, a9
    365b:	902520        	addx2	a2, a5, a2
    365e:	d17c90        	mul16s	a7, a12, a9
    3661:	1195f0        	slli	a9, a5, 1
    3664:	11cc40        	slli	a12, a12, 12
    3667:	c0cce0        	sub	a12, a12, a14
    366a:	09e6c4        	ae_s32ip	a12, a6, 4
    366d:	12a376        	loopgtz	a3, 3683 <celt_preemphasis+0xc7>
    3670:	223d           	ae_l16si.n	a3, a2, 0
    3672:	229a           	add.n	a2, a2, a9
    3674:	215370        	srai	a5, a7, 3
    3677:	114340        	slli	a4, a3, 12
    367a:	d17380        	mul16s	a7, a3, a8
    367d:	c03450        	sub	a3, a4, a5
    3680:	09e634        	ae_s32ip	a3, a6, 4

00003683 <celt_preemphasis+0xc7>:
    3683:	21e370        	srai	a14, a7, 3
    3686:	0fe9           	s32i.n	a14, a15, 0
    3688:	f01d           	retw.n

0000368a <celt_preemphasis+0xce>:
	...

0000368c <tf_analysis>:
    368c:	016136        	entry	a1, 176
    368f:	166162        	s32i	a6, a1, 88
    3692:	2e0c           	movi.n	a14, 2
    3694:	f286d1        	l32r	a13, ac (14e60 <global_stack>)
    3697:	156132        	s32i	a3, a1, 84
    369a:	4129           	s32i.n	a2, a1, 16
    369c:	05cd           	mov.n	a12, a5
    369e:	71c9           	s32i.n	a12, a1, 28
    36a0:	4198           	l32i.n	a9, a1, 16
    36a2:	152182        	l32i	a8, a1, 84
    36a5:	0d28           	l32i.n	a2, a13, 0
    36a7:	430c           	movi.n	a3, 4
    36a9:	f129           	s32i.n	a2, a1, 60
    36ab:	c0b320        	sub	a11, a3, a2
    36ae:	14b0b0        	extui	a11, a11, 0, 2
    36b1:	b2ba           	add.n	a11, a2, a11
    36b3:	a0f8b0        	addx4	a15, a8, a11
    36b6:	c05ef0        	sub	a5, a14, a15
    36b9:	045050        	extui	a5, a5, 0, 1
    36bc:	5f5a           	add.n	a5, a15, a5
    36be:	0d59           	s32i.n	a5, a13, 0
    36c0:	69a8           	l32i.n	a10, a9, 24
    36c2:	2d2122        	l32i	a2, a1, 180
    36c5:	1161f2        	s32i	a15, a1, 68
    36c8:	90a8a0        	addx2	a10, a8, a10
    36cb:	2afd           	ae_l16si.n	a15, a10, 0
    36cd:	ffdaa2        	addmi	a10, a10, 0xffffff00
    36d0:	7f9aa2        	l16si	a10, a10, 254
    36d3:	61b9           	s32i.n	a11, a1, 24
    36d5:	401200        	ssl	a2
    36d8:	c0ffa0        	sub	a15, a15, a10
    36db:	a1ff00        	sll	a15, a15
    36de:	90af50        	addx2	a10, a15, a5
    36e1:	c0eea0        	sub	a14, a14, a10
    36e4:	04e0e0        	extui	a14, a14, 0, 1
    36e7:	aaea           	add.n	a10, a10, a14
    36e9:	90ffa0        	addx2	a15, a15, a10
    36ec:	c0e3f0        	sub	a14, a3, a15
    36ef:	14e0e0        	extui	a14, a14, 0, 2
    36f2:	ffea           	add.n	a15, a15, a14
    36f4:	1261f2        	s32i	a15, a1, 72
    36f7:	11e8e0        	slli	a14, a8, 2
    36fa:	1061e2        	s32i	a14, a1, 64
    36fd:	a0f8f0        	addx4	a15, a8, a15
    3700:	c033f0        	sub	a3, a3, a15
    3703:	143030        	extui	a3, a3, 0, 2
    3706:	ff3a           	add.n	a15, a15, a3
    3708:	a038f0        	addx4	a3, a8, a15
    370b:	1361f2        	s32i	a15, a1, 76
    370e:	0d39           	s32i.n	a3, a13, 0
    3710:	043d           	mov.n	a3, a4
    3712:	07fd           	mov.n	a15, a7
    3714:	2e21d2        	l32i	a13, a1, 184
    3717:	1461d2        	s32i	a13, a1, 80
    371a:	170c           	movi.n	a7, 1
    371c:	040c           	movi.n	a4, 0
    371e:	0d49           	s32i.n	a4, a13, 0
    3720:	0218e6        	bgei	a8, 1, 3726 <tf_analysis+0x9a>
    3723:	007b46        	j	3914 <tf_analysis+0x288>
    3726:	51a9           	s32i.n	a10, a1, 20
    3728:	e1b9           	s32i.n	a11, a1, 56
    372a:	61b9           	s32i.n	a11, a1, 24
    372c:	2c21e2        	l32i	a14, a1, 176
    372f:	f28cc1        	l32r	a12, 160 (fffff000 <_end+0xfffea19c>)
    3732:	5e91d2        	l16si	a13, a1, 188
    3735:	208440        	or	a8, a4, a4
    3738:	fcca62        	addi	a6, a10, -4
    373b:	186162        	s32i	a6, a1, 96
    373e:	938230        	movnez	a8, a2, a3
    3741:	1e6182        	s32i	a8, a1, 120
    3744:	fcc562        	addi	a6, a5, -4
    3747:	f26381        	l32r	a8, d4 (2000 <quant_band_stereo+0x78>)
    374a:	1d6162        	s32i	a6, a1, 116
    374d:	302162        	l32i	a6, a1, 192
    3750:	c088d0        	sub	a8, a8, a13
    3753:	5388c0        	max	a8, a8, a12
    3756:	82ee60        	mull	a14, a14, a6
    3759:	1fa5c2        	movi	a12, 0x51f
    375c:	d188c0        	mul16s	a8, a8, a12
    375f:	00a062        	movi	a6, 0
    3762:	218e80        	srai	a8, a8, 14
    3765:	01c2c2        	addi	a12, a2, 1
    3768:	1c6182        	s32i	a8, a1, 112
    376b:	d188c0        	mul16s	a8, a8, a12
    376e:	a1c700        	sll	a12, a7
    3771:	1761c2        	s32i	a12, a1, 92
    3774:	888d           	ae_sext16	a8, a8
    3776:	196182        	s32i	a8, a1, 100
    3779:	1182f0        	slli	a8, a2, 1
    377c:	608080        	neg	a8, a8
    377f:	0d6182        	s32i	a8, a1, 52

00003782 <tf_analysis+0xf6>:
    3782:	2361f2        	s32i	a15, a1, 140
    3785:	2261e2        	s32i	a14, a1, 136
    3788:	216162        	s32i	a6, a1, 132
    378b:	05ad           	mov.n	a10, a5
    378d:	f24581        	l32r	a8, a4 (f6f0 <memcpy>)
    3790:	69c8           	l32i.n	a12, a9, 24
    3792:	040c           	movi.n	a4, 0
    3794:	401200        	ssl	a2
    3797:	cc6a           	add.n	a12, a12, a6
    3799:	2cdd           	ae_l16si.n	a13, a12, 0
    379b:	190c           	movi.n	a9, 1
    379d:	3ccd           	ae_l16si.n	a12, a12, 2
    379f:	a1bd00        	sll	a11, a13
    37a2:	beba           	add.n	a11, a14, a11
    37a4:	c0ccd0        	sub	a12, a12, a13
    37a7:	a17c00        	sll	a7, a12
    37aa:	90bbf0        	addx2	a11, a11, a15
    37ad:	cc0b           	addi.n	a12, a12, -1
    37af:	8349c0        	moveqz	a4, a9, a12
    37b2:	11c7f0        	slli	a12, a7, 1
    37b5:	1f61c2        	s32i	a12, a1, 124
    37b8:	0008e0        	callx8	a8
    37bb:	1d2182        	l32i	a8, a1, 116
    37be:	1e21e2        	l32i	a14, a1, 120
    37c1:	1c21d2        	l32i	a13, a1, 112
    37c4:	fc20c0176e 	{ addi	a6, a7, 1; ae_zerop48	aep1 }
    37c9:	b36770        	movgez	a6, a7, a7
    37cc:	216160        	srai	a6, a6, 1
    37cf:	1b16a6        	blti	a6, 1, 37ee <tf_analysis+0x162>
    37d2:	448814        	ae_lp16x2f.iu	aep0, a8, 4
    37d5:	07b804        	ae_absp24	aep0, aep0
    37d8:	cc400ff69e 	{ addi	a9, a6, -1; ae_sraip24	aep0, aep0, 8 }
    37dd:	0aa976        	loopgtz	a9, 37eb <tf_analysis+0x15f>
    37e0:	d8046d881f 	{ ae_lp16x2f.iu	aep0, a8, 4; ae_addp24	aep1, aep1, aep0 }
    37e5:	07b804        	ae_absp24	aep0, aep0
    37e8:	0f0404        	ae_sraip24	aep0, aep0, 8

000037eb <tf_analysis+0x15f>:
    37eb:	071014        	ae_addp24	aep1, aep1, aep0

000037ee <tf_analysis+0x162>:
    37ee:	561104        	ae_sp24x2s.i	aep1, a1, 0
    37f1:	11c8           	l32i.n	a12, a1, 4
    37f3:	01b8           	l32i.n	a11, a1, 0
    37f5:	d1dde0        	mul16s	a13, a13, a14
    37f8:	bbca           	add.n	a11, a11, a12
    37fa:	21efb0        	srai	a14, a11, 15
