
Build/lc3plus_codec_lib/pisplit_lc3plus_codec_all_position_independent.splitload.lib:     file format elf32-xtensa-le


Disassembly of section .text:

00000000 <_init-0x6e0>:
       0:	0000072c 0001616c 0001804c 00000000     ,...la..L.......
      10:	00018010 00000000 00018034 0002efc4     ........4.......
      20:	00018088 000008fc 000180a6 00000a74     ............t...
      30:	000180bd 00000bfc 00000bdc 000180d4     ................
      40:	00000c14 000180f2 00000d48 0001810e     ........H.......
      50:	00000d58 00018125 00000dec 0001813c     X...%.......<...
      60:	000008a8 00018060 00000800 22060801     ....`.........."
      70:	0000bb7f 0002e9a0 0002e9e0 0002e9c0     ................
      80:	0002ea00 0002ea20 0002ea40 00000f28     .... ...@...(...
      90:	00000fe8 000011dc 00000e18 00000e34     ............4...
      a0:	00000e68 0001347c 00001160 00000c78     h...|4..`...x...
      b0:	0002ea60 0002ea80 0002eae0 0002eb00     `...............
      c0:	0002eaa0 0002eac0 0002eb20 0002eb40     ........ ...@...
      d0:	0002eb60 0002eb80 0002eba0 0002ebc0     `...............
      e0:	0000128c 000013b4 00001230 00001278     ........0...x...
      f0:	000015bc 0000ac44 88888889 00010101     ....D...........
     100:	00012f78 000007c0 00013104 0001618c     x/.......1...a..
     110:	00011490 00010605 0000b898 0000bb7c     ............|...
     120:	0000a910 00018160 3dffffff 00018280     ....`......=....
     130:	0016302f 00018180 00018200 c1ffffff     /0..............
     140:	00018300 00018380 000183c0 00018440     ............@...
     150:	00018480 000185a0 80000001 00020d70     ............p...
     160:	00020f80 00020fc0 00020fe0 000210e0     ................
     170:	7fffff00 00021160 5a827999 00018d70     ....`....y.Zp...
     180:	0001a1e0 0001a4b0 0001a910 0001b950     ............P...
     190:	00019280 0001a280 0001a370 0001a690     ........p.......
     1a0:	0001acd0 0001b1d0 000185e0 046f8d46     ............F.o.
     1b0:	2b4e618e 0d230455 27e9446e 15553e3f     .aN+U.#.nD.'?>U.
     1c0:	22fb827b 1cb598cc 2d097390 d2f68c70     {..".....s.-p...
     1d0:	e34a6734 d816bb92 f2dcfbab 192469c1     4gJ..........i$.
     1e0:	2c62a163 25a0c5df 08d42aef d39d5e9d     c.b,...%.*...^..
     1f0:	e6db963f 89be50c3 30fbc54d cf043ab3     ?....P..M..0.:..
     200:	7641af3d 11517a7c d630a2dd 5a82799a     =.Av|zQ...0..y.Z
     210:	29cf5d23 a57d8666 000023b4 00001b98     #].)f.}..#......
     220:	00005848 000161e8 7bffffff 00016228     HX...a.....{(b..
     230:	00028ae0 00028ac0 00feffff 00028b00     ................
     240:	00028c10 0002efd4 00028d30 00029d30     ........0...0...
     250:	0002a5b0 0002efd0 0002ee20 0002efc8     ........ .......
     260:	0002efcc 0002edf0 0002ebe0 0002ed50     ............P...
     270:	0002ed70 7ffffffe 0fff0000 0002de80     p...............
     280:	0002e280 0002de50 00002458 000125c8     ....P...X$...%..
     290:	00005778 0002de30 0002de40 000028bc     xW..0...@....(..
     2a0:	00005744 000053e4 000056c8 0002e740     DW...S...V..@...
     2b0:	0002e790 00005200 0000528c 0002e850     .....R...R..P...
     2c0:	00001910 00008978 0001d3d0 000061b0     ....x........a..
     2d0:	00020670 0001ef00 00007848 00008e48     p.......Hx..H...
     2e0:	000096a8 0001fd10 00008168 00007f5c     ........h...\...
     2f0:	00006ad8 00006da4 0001c850 0001c960     .j...m..P...`...
     300:	0001cb30 0001cfe0 0001c880 0001c8b0     0...............
     310:	0001c900 0001c9d0 0001ca60 0001cc40     ........`...@...
     320:	0001cdd0 00007acc b0000001 478dde64     .....z......d..G
     330:	d18053ce 9d839db0 79bc3854 91261468     .S......T8.yh.&.
     340:	00007c14 0001d2f0 1e5f35c2 00001730     .|.......5_.0...
     350:	00001bf0 00002d08 003cbe80 0002de48     .....-....<.H...
     360:	0002de60 00010001 0000bfbc 0000a5e4     `...............
     370:	0000be78 0000a168 00004058 0000485c     x...h...X@..\H..
     380:	000050ac 00004948 0000cde4 0000b790     .P..HI..........
     390:	0000b5c8 00009df8 0000c000 000033b8     .............3..
     3a0:	0001631c 00016270 51eb851f 0000cb58     .c..pb.....QX...
     3b0:	000157c8 00009e80 0000cf80 0000b4d4     .W..............
     3c0:	0002dc20 00028640 00028650 68db8bad      ...@...P......h
     3d0:	00927c00 66666667 00016254 00028660     .|..gfffTb..`...
     3e0:	00027d00 0002c828 000284a8 0002c4d0     .}..(...........
     3f0:	0002c4a0 00028490 0002c4e0 00027cf0     .............|..
     400:	0002cd00 0002ccf0 00026fa0 0002c758     .........o..X...
     410:	000284b0 0002c480 00027cd0 00026f90     .........|...o..
     420:	0002c4c0 0002cce0 0002ccd0 00025700     .............W..
     430:	0002c668 000284b8 000256f0 00026f70     h........V..po..
     440:	0002c460 0002ccc0 0002ccb0 0002dc40     `...........@...
     450:	00001b50 00028a90 0002cc90 0002cc70     P...........p...
     460:	0002cc50 0000f748 00015638 00015200     P...H...8V...R..
     470:	0002ddd0 00016428 0000db40 00015170     ....(d..@...pQ..
     480:	00013bb0 000138b8 000163c0 00015d38     .;...8...c..8]..
     490:	000022f0 0002bfd0 0002bff0 0001fffe     ."..............
     4a0:	ec07ff50 0000ca15 0000c708 0000c3d8     P...............
     4b0:	0000cfa0 00001ad0 00001ec0 7d000001     ...............}
     4c0:	19003e81 0000cc50 0002e960 00001d24     .>..P...`...$...
     4d0:	3cbe6b83 0004e666 00001670 0009cccd     .k.<f...p.......
     4e0:	f0523471 000019b4 e7e467bb 436e439a     q4R......g...CnC
     4f0:	0000f1ec 00027333 0001f5c4 0003c7ae     ....3s..........
     500:	797cd707 0000d51d 3fff0000 1fff8000     ..|y.......?....
     510:	00002218 0002d7c0 0002d840 00001c44     ."......@...D...
     520:	0002d6f0 0002c010 00018500 00002324     ............$#..
     530:	0002ef20 0002ae30 0000fe2a 0000ffac      ...0...*.......
     540:	000101e2 0002d6b0 0002d690 0002d6e0     ................
     550:	0002d6e8 3ffffff0 0002b9b0 0002b9d0     .......?........
     560:	00002280 e56d0000 000288c8 000288d0     ."....m.........
     570:	000288e0 00028900 00028810 00028818     ................
     580:	00028820 00028840 00028790 00028798      ...@...........
     590:	00028710 00028730 00028960 00001dd4     ....0...`.......
     5a0:	7fff0000 00028920 00028940 13333333     .... ...@...333.
     5b0:	6ccccccd 0000de34 00028980 3f7fffff     ...l4..........?
     5c0:	000164a4 0000e8f8 00010220 0000f070     .d...... ...p...
     5d0:	0000e068 00010768 000049bc 00010c48     h...h....I..H...
     5e0:	0000d180 0000fad8 0000cfe8 00010510     ................
     5f0:	0000eb00 00012300 00003690 0002ef50     .....#...6..P...
     600:	0002e680 00012e98 00080026 00013234     ........&...42..
     610:	01080002 0002c530 0002c540 01280002     ....0...@.....(.
     620:	0002c510 0002c520 00e80003 00020004     .... ...........
     630:	0002c4f0 0002c500 000a4100 000927c0     .........A...'..
     640:	0007a120 000122a0 14f8b589 00013849      ...."......I8..
     650:	00001a50 0002ef80 00014ed4 00015064     P........N..dP..
     660:	00001870 0002dc90 0002dcb0 0002dc50     p...........P...
     670:	0002dc70 23333340 7ffeffff 0000200c     p...@33#..... ..
     680:	0002ef60 000070f8 0002ced0 0002ce90     `....p..........
     690:	0002cd10 0002cd90 0002cd50 0002cdd0     ........P.......
     6a0:	0002ce50 0002ce10 4001a36e 0002be10     P.......n..@....
     6b0:	0002be30 0002be90 0002beb0 0002be50     0...........P...
     6c0:	0002be70 00015814 0002ddf0 0002efa0     p....X..........
     6d0:	00015db0 0002efb0 00018018 000006f8     .]..............

000006e0 <_init>:
     6e0:	008136        	entry	a1, 64
     6e3:	fe4781        	l32r	a8, 0 (72c <frame_dummy>)
     6e6:	f03d           	nop.n
     6e8:	0008e0        	callx8	a8
     6eb:	fe4681        	l32r	a8, 4 (1616c <__do_global_ctors_aux>)
     6ee:	f03d           	nop.n
     6f0:	0008e0        	callx8	a8
     6f3:	f01d           	retw.n

000006f5 <_init+0x15>:
     6f5:	000000                                        ...

000006f8 <__do_global_dtors_aux>:
     6f8:	004136        	entry	a1, 32
     6fb:	fe4321        	l32r	a2, 8 (1804c <__do_global_dtors_aux.completed>)
     6fe:	000232        	l8ui	a3, a2, 0
     701:	23ec           	bnez.n	a3, 727 <__do_global_dtors_aux+0x2f>

00000703 <__do_global_dtors_aux+0xb>:
     703:	1248           	l32i.n	a4, a2, 4
     705:	0438           	l32i.n	a3, a4, 0
     707:	444b           	addi.n	a4, a4, 4
     709:	738c           	beqz.n	a3, 714 <__do_global_dtors_aux+0x1c>
     70b:	1249           	s32i.n	a4, a2, 4
     70d:	0003e0        	callx8	a3
     710:	fffbc6        	j	703 <__do_global_dtors_aux+0xb>

00000713 <__do_global_dtors_aux+0x1b>:
	...

00000714 <__do_global_dtors_aux+0x1c>:
     714:	fe3e31        	l32r	a3, c (0 <_text_start>)
     717:	fe3ea1        	l32r	a10, 10 (18010 <__FRAME_END__>)
     71a:	438c           	beqz.n	a3, 722 <__do_global_dtors_aux+0x2a>
     71c:	fe3c81        	l32r	a8, c (0 <_text_start>)
     71f:	0008e0        	callx8	a8
     722:	130c           	movi.n	a3, 1
     724:	004232        	s8i	a3, a2, 0
     727:	f01d           	retw.n

00000729 <__do_global_dtors_aux+0x31>:
     729:	000000                                        ...

0000072c <frame_dummy>:
     72c:	004136        	entry	a1, 32
     72f:	fe3921        	l32r	a2, 14 (0 <_text_start>)
     732:	fe37a1        	l32r	a10, 10 (18010 <__FRAME_END__>)
     735:	fe38b1        	l32r	a11, 18 (18034 <frame_dummy.object>)
     738:	428c           	beqz.n	a2, 740 <frame_dummy+0x14>
     73a:	fe3681        	l32r	a8, 14 (0 <_text_start>)
     73d:	0008e0        	callx8	a8

00000740 <frame_dummy+0x14>:
     740:	f01d           	retw.n

00000742 <frame_dummy+0x16>:
	...

00000744 <_start>:
     744:	004136        	entry	a1, 32
     747:	fe3531        	l32r	a3, 1c (2efc4 <printf_ptr>)
     74a:	0228           	l32i.n	a2, a2, 0
     74c:	fe35a1        	l32r	a10, 20 (18088 <export_parameter_array+0x28>)
     74f:	fe35b1        	l32r	a11, 24 (8fc <LC3PLUS_Enc_Get_MemSize>)
     752:	006322        	s32i	a2, a3, 0
     755:	0002e0        	callx8	a2
     758:	002322        	l32i	a2, a3, 0
     75b:	fe33a1        	l32r	a10, 28 (180a6 <export_parameter_array+0x46>)
     75e:	fe33b1        	l32r	a11, 2c (a74 <LC3PLUS_Enc_Init>)
     761:	0002e0        	callx8	a2
     764:	fe3321        	l32r	a2, 30 (180bd <export_parameter_array+0x5d>)
     767:	0348           	l32i.n	a4, a3, 0
     769:	fe32b1        	l32r	a11, 34 (bfc <LC3PLUS_Enc_Prcs>)
     76c:	20a220        	or	a10, a2, a2
     76f:	0004e0        	callx8	a4
     772:	002342        	l32i	a4, a3, 0
     775:	fe30b1        	l32r	a11, 38 (bdc <LC3PLUS_Enc_Set_BitRate>)
     778:	20a220        	or	a10, a2, a2
     77b:	0004e0        	callx8	a4
     77e:	002322        	l32i	a2, a3, 0
     781:	fe2ea1        	l32r	a10, 3c (180d4 <export_parameter_array+0x74>)
     784:	fe2fb1        	l32r	a11, 40 (c14 <LC3PLUS_Dec_Get_MemSize>)
     787:	0002e0        	callx8	a2
     78a:	002322        	l32i	a2, a3, 0
     78d:	fe2da1        	l32r	a10, 44 (180f2 <export_parameter_array+0x92>)
     790:	fe2eb1        	l32r	a11, 48 (d48 <LC3PLUS_Dec_Get_Param>)
     793:	0002e0        	callx8	a2
     796:	002322        	l32i	a2, a3, 0
     799:	fe2ca1        	l32r	a10, 4c (1810e <export_parameter_array+0xae>)
     79c:	fe2db1        	l32r	a11, 50 (d58 <LC3PLUS_Dec_Init>)
     79f:	0002e0        	callx8	a2
     7a2:	0328           	l32i.n	a2, a3, 0
     7a4:	fe2ca1        	l32r	a10, 54 (18125 <export_parameter_array+0xc5>)
     7a7:	fe2cb1        	l32r	a11, 58 (dec <LC3PLUS_Dec_Prcs>)
     7aa:	0002e0        	callx8	a2
     7ad:	0328           	l32i.n	a2, a3, 0
     7af:	fe2ba1        	l32r	a10, 5c (1813c <export_parameter_array+0xdc>)
     7b2:	fe2bb1        	l32r	a11, 60 (8a8 <LC3PLUS_Get_Version>)
     7b5:	0002e0        	callx8	a2
     7b8:	fe2b21        	l32r	a2, 64 (18060 <export_parameter_array>)
     7bb:	f01d           	retw.n

000007bd <_start+0x79>:
     7bd:	000000                                        ...

000007c0 <memset>:
     7c0:	004136        	entry	a1, 32
     7c3:	025d           	mov.n	a5, a2
     7c5:	12bc           	beqz.n	a2, 7fa <memset+0x3a>
     7c7:	f4ac           	beqz.n	a4, 7fa <memset+0x3a>
     7c9:	246040        	extui	a6, a4, 0, 3
     7cc:	052d           	mov.n	a2, a5
     7ce:	414340        	srli	a4, a4, 3
     7d1:	049676        	loopnez	a6, 7d9 <memset+0x19>
     7d4:	004232        	s8i	a3, a2, 0
     7d7:	221b           	addi.n	a2, a2, 1

000007d9 <memset+0x19>:
     7d9:	d49c           	beqz.n	a4, 7fa <memset+0x3a>
     7db:	f03d           	nop.n
     7dd:	199476        	loopnez	a4, 7fa <memset+0x3a>
     7e0:	004232        	s8i	a3, a2, 0
     7e3:	074232        	s8i	a3, a2, 7
     7e6:	064232        	s8i	a3, a2, 6
     7e9:	054232        	s8i	a3, a2, 5
     7ec:	014232        	s8i	a3, a2, 1
     7ef:	044232        	s8i	a3, a2, 4
     7f2:	034232        	s8i	a3, a2, 3
     7f5:	024232        	s8i	a3, a2, 2
     7f8:	228b           	addi.n	a2, a2, 8

000007fa <memset+0x3a>:
     7fa:	052d           	mov.n	a2, a5
     7fc:	f01d           	retw.n

000007fe <memset+0x3e>:
	...

00000800 <memcpy>:
     800:	004136        	entry	a1, 32
     803:	050c           	movi.n	a5, 0
     805:	083216        	beqz	a2, 88c <memcpy+0x8c>
     808:	080316        	beqz	a3, 88c <memcpy+0x8c>
     80b:	25b327        	bgeu	a3, a2, 834 <memcpy+0x34>
     80e:	534a           	add.n	a5, a3, a4
     810:	20b257        	bgeu	a2, a5, 834 <memcpy+0x34>
     813:	025d           	mov.n	a5, a2
     815:	073416        	beqz	a4, 88c <memcpy+0x8c>
     818:	343a           	add.n	a3, a4, a3
     81a:	ffc332        	addi	a3, a3, -1
     81d:	0d8476        	loop	a4, 82e <memcpy+0x2e>
     820:	524a           	add.n	a5, a2, a4
     822:	650b           	addi.n	a6, a5, -1
     824:	440b           	addi.n	a4, a4, -1
     826:	000352        	l8ui	a5, a3, 0
     829:	004652        	s8i	a5, a6, 0
     82c:	330b           	addi.n	a3, a3, -1

0000082e <memcpy+0x2e>:
     82e:	025d           	mov.n	a5, a2
     830:	001606        	j	88c <memcpy+0x8c>

00000833 <memcpy+0x33>:
	...

00000834 <memcpy+0x34>:
     834:	025d           	mov.n	a5, a2
     836:	052416        	beqz	a4, 88c <memcpy+0x8c>
     839:	245040        	extui	a5, a4, 0, 3
     83c:	026d           	mov.n	a6, a2
     83e:	414340        	srli	a4, a4, 3
     841:	099576        	loopnez	a5, 84e <memcpy+0x4e>
     844:	000352        	l8ui	a5, a3, 0
     847:	004652        	s8i	a5, a6, 0
     84a:	331b           	addi.n	a3, a3, 1
     84c:	661b           	addi.n	a6, a6, 1

0000084e <memcpy+0x4e>:
     84e:	025d           	mov.n	a5, a2
     850:	84bc           	beqz.n	a4, 88c <memcpy+0x8c>
     852:	202660        	or	a2, a6, a6
     855:	339476        	loopnez	a4, 88c <memcpy+0x8c>
     858:	000342        	l8ui	a4, a3, 0
     85b:	004242        	s8i	a4, a2, 0
     85e:	010342        	l8ui	a4, a3, 1
     861:	014242        	s8i	a4, a2, 1
     864:	020342        	l8ui	a4, a3, 2
     867:	024242        	s8i	a4, a2, 2
     86a:	030342        	l8ui	a4, a3, 3
     86d:	034242        	s8i	a4, a2, 3
     870:	040342        	l8ui	a4, a3, 4
     873:	044242        	s8i	a4, a2, 4
     876:	050342        	l8ui	a4, a3, 5
     879:	054242        	s8i	a4, a2, 5
     87c:	060342        	l8ui	a4, a3, 6
     87f:	064242        	s8i	a4, a2, 6
     882:	070342        	l8ui	a4, a3, 7
     885:	074242        	s8i	a4, a2, 7
     888:	338b           	addi.n	a3, a3, 8
     88a:	228b           	addi.n	a2, a2, 8

0000088c <memcpy+0x8c>:
     88c:	052d           	mov.n	a2, a5
     88e:	f01d           	retw.n

00000890 <memmove>:
     890:	004136        	entry	a1, 32
     893:	fdf551        	l32r	a5, 68 (800 <memcpy>)
     896:	02ad           	mov.n	a10, a2
     898:	03bd           	mov.n	a11, a3
     89a:	20c440        	or	a12, a4, a4
     89d:	0005e0        	callx8	a5
     8a0:	f01d           	retw.n

000008a2 <memmove+0x12>:
     8a2:	00000000                                 ......

000008a8 <LC3PLUS_Get_Version>:
     8a8:	004136        	entry	a1, 32
     8ab:	fdf021        	l32r	a2, 6c (22060801 <_end+0x22031829>)
     8ae:	f01d           	retw.n

000008b0 <lc3plus_sr_ms_chk>:
     8b0:	004136        	entry	a1, 32
     8b3:	fdef51        	l32r	a5, 70 (bb7f <LC3Plus_FillDecSetup+0x3>)
     8b6:	024d           	mov.n	a4, a2
     8b8:	120c           	movi.n	a2, 1
     8ba:	162547        	blt	a5, a4, 8d4 <lc3plus_sr_ms_chk+0x24>
     8bd:	7da052        	movi	a5, 125
     8c0:	115590        	slli	a5, a5, 7
     8c3:	211457        	beq	a4, a5, 8e8 <lc3plus_sr_ms_chk+0x38>
     8c6:	7da052        	movi	a5, 125
     8c9:	115580        	slli	a5, a5, 8
     8cc:	181457        	beq	a4, a5, 8e8 <lc3plus_sr_ms_chk+0x38>
     8cf:	0004c6        	j	8e6 <lc3plus_sr_ms_chk+0x36>

000008d2 <lc3plus_sr_ms_chk+0x22>:
	...

000008d4 <lc3plus_sr_ms_chk+0x24>:
     8d4:	77a152        	movi	a5, 0x177
     8d7:	115590        	slli	a5, a5, 7
     8da:	0a1457        	beq	a4, a5, 8e8 <lc3plus_sr_ms_chk+0x38>
     8dd:	77a152        	movi	a5, 0x177
     8e0:	115580        	slli	a5, a5, 8
     8e3:	011457        	beq	a4, a5, 8e8 <lc3plus_sr_ms_chk+0x38>
     8e6:	020c           	movi.n	a2, 0
     8e8:	941c           	movi.n	a4, 25
     8ea:	0c1347        	beq	a3, a4, 8fa <lc3plus_sr_ms_chk+0x4a>
     8ed:	243c           	movi.n	a4, 50
     8ef:	071347        	beq	a3, a4, 8fa <lc3plus_sr_ms_chk+0x4a>
     8f2:	64a042        	movi	a4, 100
     8f5:	011347        	beq	a3, a4, 8fa <lc3plus_sr_ms_chk+0x4a>
     8f8:	020c           	movi.n	a2, 0
     8fa:	f01d           	retw.n

000008fc <LC3PLUS_Enc_Get_MemSize>:
     8fc:	004136        	entry	a1, 32
     8ff:	fddcf1        	l32r	a15, 70 (bb7f <LC3Plus_FillDecSetup+0x3>)
     902:	025d           	mov.n	a5, a2
     904:	160c           	movi.n	a6, 1
     906:	162f37        	blt	a15, a3, 920 <LC3PLUS_Enc_Get_MemSize+0x24>
     909:	7da022        	movi	a2, 125
     90c:	112290        	slli	a2, a2, 7
     90f:	211327        	beq	a3, a2, 934 <LC3PLUS_Enc_Get_MemSize+0x38>
     912:	7da022        	movi	a2, 125
     915:	112280        	slli	a2, a2, 8
     918:	181327        	beq	a3, a2, 934 <LC3PLUS_Enc_Get_MemSize+0x38>
     91b:	0004c6        	j	932 <LC3PLUS_Enc_Get_MemSize+0x36>

0000091e <LC3PLUS_Enc_Get_MemSize+0x22>:
	...

00000920 <LC3PLUS_Enc_Get_MemSize+0x24>:
     920:	77a122        	movi	a2, 0x177
     923:	112290        	slli	a2, a2, 7
     926:	0a1327        	beq	a3, a2, 934 <LC3PLUS_Enc_Get_MemSize+0x38>
     929:	77a122        	movi	a2, 0x177
     92c:	112280        	slli	a2, a2, 8
     92f:	011327        	beq	a3, a2, 934 <LC3PLUS_Enc_Get_MemSize+0x38>
     932:	060c           	movi.n	a6, 0
     934:	971c           	movi.n	a7, 25
     936:	f27c           	movi.n	a2, -1
     938:	0d1477        	beq	a4, a7, 949 <LC3PLUS_Enc_Get_MemSize+0x4d>
     93b:	64a072        	movi	a7, 100
     93e:	071477        	beq	a4, a7, 949 <LC3PLUS_Enc_Get_MemSize+0x4d>
     941:	273c           	movi.n	a7, 50
     943:	021477        	beq	a4, a7, 949 <LC3PLUS_Enc_Get_MemSize+0x4d>
     946:	002406        	j	9da <LC3PLUS_Enc_Get_MemSize+0xde>
     949:	08d616        	beqz	a6, 9da <LC3PLUS_Enc_Get_MemSize+0xde>
     94c:	961c           	movi.n	a6, 25
     94e:	f27c           	movi.n	a2, -1
     950:	141467        	beq	a4, a6, 968 <LC3PLUS_Enc_Get_MemSize+0x6c>
     953:	263c           	movi.n	a6, 50
     955:	231467        	beq	a4, a6, 97c <LC3PLUS_Enc_Get_MemSize+0x80>
     958:	64a072        	movi	a7, 100
     95b:	f67c           	movi.n	a6, -1
     95d:	779477        	bne	a4, a7, 9d8 <LC3PLUS_Enc_Get_MemSize+0xdc>
     960:	240c           	movi.n	a4, 2
     962:	072566        	bnei	a5, 2, 96d <LC3PLUS_Enc_Get_MemSize+0x71>
     965:	000606        	j	981 <LC3PLUS_Enc_Get_MemSize+0x85>

00000968 <LC3PLUS_Enc_Get_MemSize+0x6c>:
     968:	040c           	movi.n	a4, 0
     96a:	132526        	beqi	a5, 2, 981 <LC3PLUS_Enc_Get_MemSize+0x85>
     96d:	77a152        	movi	a5, 0x177
     970:	115580        	slli	a5, a5, 8
     973:	199357        	bne	a3, a5, 990 <LC3PLUS_Enc_Get_MemSize+0x94>
     976:	fdc121        	l32r	a2, 7c (2e9c0 <T_96K_enc_mono>)
     979:	0014c6        	j	9d0 <LC3PLUS_Enc_Get_MemSize+0xd4>

0000097c <LC3PLUS_Enc_Get_MemSize+0x80>:
     97c:	140c           	movi.n	a4, 1
     97e:	eb2566        	bnei	a5, 2, 96d <LC3PLUS_Enc_Get_MemSize+0x71>
     981:	77a152        	movi	a5, 0x177
     984:	115580        	slli	a5, a5, 8
     987:	299357        	bne	a3, a5, 9b4 <LC3PLUS_Enc_Get_MemSize+0xb8>
     98a:	fdba21        	l32r	a2, 74 (2e9a0 <T_96K_enc_stereo>)
     98d:	000fc6        	j	9d0 <LC3PLUS_Enc_Get_MemSize+0xd4>

00000990 <LC3PLUS_Enc_Get_MemSize+0x94>:
     990:	7da052        	movi	a5, 125
     993:	115590        	slli	a5, a5, 7
     996:	2b1357        	beq	a3, a5, 9c5 <LC3PLUS_Enc_Get_MemSize+0xc9>
     999:	7da052        	movi	a5, 125
     99c:	115580        	slli	a5, a5, 8
     99f:	2a1357        	beq	a3, a5, 9cd <LC3PLUS_Enc_Get_MemSize+0xd1>
     9a2:	77a152        	movi	a5, 0x177
     9a5:	115590        	slli	a5, a5, 7
     9a8:	f67c           	movi.n	a6, -1
     9aa:	2a9357        	bne	a3, a5, 9d8 <LC3PLUS_Enc_Get_MemSize+0xdc>
     9ad:	fdb421        	l32r	a2, 80 (2ea00 <T_48K_enc_mono>)
     9b0:	000706        	j	9d0 <LC3PLUS_Enc_Get_MemSize+0xd4>

000009b3 <LC3PLUS_Enc_Get_MemSize+0xb7>:
	...

000009b4 <LC3PLUS_Enc_Get_MemSize+0xb8>:
     9b4:	77a152        	movi	a5, 0x177
     9b7:	115590        	slli	a5, a5, 7
     9ba:	f67c           	movi.n	a6, -1
     9bc:	189357        	bne	a3, a5, 9d8 <LC3PLUS_Enc_Get_MemSize+0xdc>
     9bf:	fdae21        	l32r	a2, 78 (2e9e0 <T_48K_enc_stereo>)
     9c2:	000286        	j	9d0 <LC3PLUS_Enc_Get_MemSize+0xd4>

000009c5 <LC3PLUS_Enc_Get_MemSize+0xc9>:
     9c5:	fdb021        	l32r	a2, 88 (2ea40 <T_16K_enc_mono>)
     9c8:	000106        	j	9d0 <LC3PLUS_Enc_Get_MemSize+0xd4>

000009cb <LC3PLUS_Enc_Get_MemSize+0xcf>:
	...

000009cd <LC3PLUS_Enc_Get_MemSize+0xd1>:
     9cd:	fdad21        	l32r	a2, 84 (2ea20 <T_32K_enc_mono>)
     9d0:	b03420        	addx8	a3, a4, a2
     9d3:	0328           	l32i.n	a2, a3, 0
     9d5:	012362        	l32i	a6, a3, 4
     9d8:	262a           	add.n	a2, a6, a2
     9da:	f01d           	retw.n

000009dc <lc3plus_get_enc_tab_memsize>:
     9dc:	004136        	entry	a1, 32
     9df:	f77c           	movi.n	a7, -1
     9e1:	981c           	movi.n	a8, 25
     9e3:	0679           	s32i.n	a7, a6, 0
     9e5:	0579           	s32i.n	a7, a5, 0
     9e7:	121487        	beq	a4, a8, 9fd <lc3plus_get_enc_tab_memsize+0x21>
     9ea:	273c           	movi.n	a7, 50
     9ec:	231477        	beq	a4, a7, a13 <lc3plus_get_enc_tab_memsize+0x37>
     9ef:	64a072        	movi	a7, 100
     9f2:	7a9477        	bne	a4, a7, a70 <lc3plus_get_enc_tab_memsize+0x94>
     9f5:	240c           	movi.n	a4, 2
     9f7:	072266        	bnei	a2, 2, a02 <lc3plus_get_enc_tab_memsize+0x26>
     9fa:	000686        	j	a18 <lc3plus_get_enc_tab_memsize+0x3c>

000009fd <lc3plus_get_enc_tab_memsize+0x21>:
     9fd:	040c           	movi.n	a4, 0
     9ff:	152226        	beqi	a2, 2, a18 <lc3plus_get_enc_tab_memsize+0x3c>
     a02:	77a122        	movi	a2, 0x177
     a05:	112280        	slli	a2, a2, 8
     a08:	1c9327        	bne	a3, a2, a28 <lc3plus_get_enc_tab_memsize+0x4c>
     a0b:	fd9c21        	l32r	a2, 7c (2e9c0 <T_96K_enc_mono>)
     a0e:	001486        	j	a64 <lc3plus_get_enc_tab_memsize+0x88>

00000a11 <lc3plus_get_enc_tab_memsize+0x35>:
	...

00000a13 <lc3plus_get_enc_tab_memsize+0x37>:
     a13:	140c           	movi.n	a4, 1
     a15:	e92266        	bnei	a2, 2, a02 <lc3plus_get_enc_tab_memsize+0x26>
     a18:	77a122        	movi	a2, 0x177
     a1b:	112280        	slli	a2, a2, 8
     a1e:	279327        	bne	a3, a2, a49 <lc3plus_get_enc_tab_memsize+0x6d>
     a21:	fd9421        	l32r	a2, 74 (2e9a0 <T_96K_enc_stereo>)
     a24:	000f06        	j	a64 <lc3plus_get_enc_tab_memsize+0x88>

00000a27 <lc3plus_get_enc_tab_memsize+0x4b>:
	...

00000a28 <lc3plus_get_enc_tab_memsize+0x4c>:
     a28:	7da022        	movi	a2, 125
     a2b:	112290        	slli	a2, a2, 7
     a2e:	261327        	beq	a3, a2, a58 <lc3plus_get_enc_tab_memsize+0x7c>
     a31:	7da022        	movi	a2, 125
     a34:	112280        	slli	a2, a2, 8
     a37:	261327        	beq	a3, a2, a61 <lc3plus_get_enc_tab_memsize+0x85>
     a3a:	77a122        	movi	a2, 0x177
     a3d:	112290        	slli	a2, a2, 7
     a40:	2c9327        	bne	a3, a2, a70 <lc3plus_get_enc_tab_memsize+0x94>
     a43:	fd8f21        	l32r	a2, 80 (2ea00 <T_48K_enc_mono>)
     a46:	000686        	j	a64 <lc3plus_get_enc_tab_memsize+0x88>

00000a49 <lc3plus_get_enc_tab_memsize+0x6d>:
     a49:	77a122        	movi	a2, 0x177
     a4c:	112290        	slli	a2, a2, 7
     a4f:	1d9327        	bne	a3, a2, a70 <lc3plus_get_enc_tab_memsize+0x94>
     a52:	fd8921        	l32r	a2, 78 (2e9e0 <T_48K_enc_stereo>)
     a55:	0002c6        	j	a64 <lc3plus_get_enc_tab_memsize+0x88>

00000a58 <lc3plus_get_enc_tab_memsize+0x7c>:
     a58:	fd8c21        	l32r	a2, 88 (2ea40 <T_16K_enc_mono>)
     a5b:	000146        	j	a64 <lc3plus_get_enc_tab_memsize+0x88>

00000a5e <lc3plus_get_enc_tab_memsize+0x82>:
     a5e:	000000                                        ...

00000a61 <lc3plus_get_enc_tab_memsize+0x85>:
     a61:	fd8821        	l32r	a2, 84 (2ea20 <T_32K_enc_mono>)
     a64:	b02420        	addx8	a2, a4, a2
     a67:	0238           	l32i.n	a3, a2, 0
     a69:	1228           	l32i.n	a2, a2, 4
     a6b:	0539           	s32i.n	a3, a5, 0
     a6d:	006622        	s32i	a2, a6, 0
     a70:	f01d           	retw.n

00000a72 <lc3plus_get_enc_tab_memsize+0x96>:
	...

00000a74 <LC3PLUS_Enc_Init>:
     a74:	00a136        	entry	a1, 80
     a77:	8169           	s32i.n	a6, a1, 32
     a79:	026d           	mov.n	a6, a2
     a7b:	fd6a21        	l32r	a2, 24 (8fc <LC3PLUS_Enc_Get_MemSize>)
     a7e:	05ad           	mov.n	a10, a5
     a80:	04bd           	mov.n	a11, a4
     a82:	07cd           	mov.n	a12, a7
     a84:	7199           	s32i.n	a9, a1, 28
     a86:	0002e0        	callx8	a2
     a89:	4181a0        	srli	a8, a10, 1
     a8c:	fec622        	addi	a2, a6, -2
     a8f:	988c           	beqz.n	a8, a9c <LC3PLUS_Enc_Init+0x28>
     a91:	090c           	movi.n	a9, 0
     a93:	300994        	ae_cvtp24a16x2.ll	aep0, a9, a9
     a96:	028876        	loop	a8, a9c <LC3PLUS_Enc_Init+0x28>
     a99:	428214        	ae_sp16f.l.iu	aep0, a2, 2

00000a9c <LC3PLUS_Enc_Init+0x28>:
     a9c:	046a07        	bbci	a10, 0, aa4 <LC3PLUS_Enc_Init+0x30>
     a9f:	080c           	movi.n	a8, 0
     aa1:	024282        	s8i	a8, a2, 2
     aa4:	8128           	l32i.n	a2, a1, 32
     aa6:	9f1c           	movi.n	a15, 25
     aa8:	f97c           	movi.n	a9, -1
     aaa:	0649           	s32i.n	a4, a6, 0
     aac:	1629           	s32i.n	a2, a6, 4
     aae:	0a5652        	s16i	a5, a6, 20
     ab1:	2639           	s32i.n	a3, a6, 8
     ab3:	1a17f7        	beq	a7, a15, ad1 <LC3PLUS_Enc_Init+0x5d>
     ab6:	223c           	movi.n	a2, 50
     ab8:	291727        	beq	a7, a2, ae5 <LC3PLUS_Enc_Init+0x71>
     abb:	64a022        	movi	a2, 100
     abe:	fa7c           	movi.n	a10, -1
     ac0:	7d9727        	bne	a7, a2, b41 <LC3PLUS_Enc_Init+0xcd>
     ac3:	220c           	movi.n	a2, 2
     ac5:	77a182        	movi	a8, 0x177
     ac8:	118880        	slli	a8, a8, 8
     acb:	0d2566        	bnei	a5, 2, adc <LC3PLUS_Enc_Init+0x68>
     ace:	000786        	j	af0 <LC3PLUS_Enc_Init+0x7c>

00000ad1 <LC3PLUS_Enc_Init+0x5d>:
     ad1:	020c           	movi.n	a2, 0
     ad3:	77a182        	movi	a8, 0x177
     ad6:	118880        	slli	a8, a8, 8
     ad9:	132526        	beqi	a5, 2, af0 <LC3PLUS_Enc_Init+0x7c>
     adc:	199487        	bne	a4, a8, af9 <LC3PLUS_Enc_Init+0x85>
     adf:	fd6781        	l32r	a8, 7c (2e9c0 <T_96K_enc_mono>)
     ae2:	001486        	j	b38 <LC3PLUS_Enc_Init+0xc4>

00000ae5 <LC3PLUS_Enc_Init+0x71>:
     ae5:	120c           	movi.n	a2, 1
     ae7:	77a182        	movi	a8, 0x177
     aea:	118880        	slli	a8, a8, 8
     aed:	eb2566        	bnei	a5, 2, adc <LC3PLUS_Enc_Init+0x68>
     af0:	289487        	bne	a4, a8, b1c <LC3PLUS_Enc_Init+0xa8>
     af3:	fd6081        	l32r	a8, 74 (2e9a0 <T_96K_enc_stereo>)
     af6:	000f86        	j	b38 <LC3PLUS_Enc_Init+0xc4>

00000af9 <LC3PLUS_Enc_Init+0x85>:
     af9:	7da082        	movi	a8, 125
     afc:	118890        	slli	a8, a8, 7
     aff:	2a1487        	beq	a4, a8, b2d <LC3PLUS_Enc_Init+0xb9>
     b02:	7da082        	movi	a8, 125
     b05:	118880        	slli	a8, a8, 8
     b08:	291487        	beq	a4, a8, b35 <LC3PLUS_Enc_Init+0xc1>
     b0b:	77a182        	movi	a8, 0x177
     b0e:	118890        	slli	a8, a8, 7
     b11:	fa7c           	movi.n	a10, -1
     b13:	2a9487        	bne	a4, a8, b41 <LC3PLUS_Enc_Init+0xcd>
     b16:	fd5a81        	l32r	a8, 80 (2ea00 <T_48K_enc_mono>)
     b19:	0006c6        	j	b38 <LC3PLUS_Enc_Init+0xc4>

00000b1c <LC3PLUS_Enc_Init+0xa8>:
     b1c:	77a182        	movi	a8, 0x177
     b1f:	118890        	slli	a8, a8, 7
     b22:	fa7c           	movi.n	a10, -1
     b24:	199487        	bne	a4, a8, b41 <LC3PLUS_Enc_Init+0xcd>
     b27:	fd5481        	l32r	a8, 78 (2e9e0 <T_48K_enc_stereo>)
     b2a:	000286        	j	b38 <LC3PLUS_Enc_Init+0xc4>

00000b2d <LC3PLUS_Enc_Init+0xb9>:
     b2d:	fd5681        	l32r	a8, 88 (2ea40 <T_16K_enc_mono>)
     b30:	000106        	j	b38 <LC3PLUS_Enc_Init+0xc4>

00000b33 <LC3PLUS_Enc_Init+0xbf>:
	...

00000b35 <LC3PLUS_Enc_Init+0xc1>:
     b35:	fd5381        	l32r	a8, 84 (2ea20 <T_32K_enc_mono>)
     b38:	b02280        	addx8	a2, a2, a8
     b3b:	002292        	l32i	a9, a2, 0
     b3e:	0122a2        	l32i	a10, a2, 4
     b41:	fd5221        	l32r	a2, 8c (f28 <lc3plus_enc_get_size>)
     b44:	a1a9           	s32i.n	a10, a1, 40
     b46:	2cc1d2        	addi	a13, a1, 44
     b49:	04ad           	mov.n	a10, a4
     b4b:	05bd           	mov.n	a11, a5
     b4d:	03cd           	mov.n	a12, a3
     b4f:	9199           	s32i.n	a9, a1, 36
     b51:	0002e0        	callx8	a2
     b54:	0a2d           	mov.n	a2, a10
     b56:	2a8c           	beqz.n	a10, b5c <LC3PLUS_Enc_Init+0xe8>
     b58:	f01d           	retw.n

00000b5a <LC3PLUS_Enc_Init+0xe6>:
	...

00000b5c <LC3PLUS_Enc_Init+0xe8>:
     b5c:	142182        	l32i	a8, a1, 80
     b5f:	7128           	l32i.n	a2, a1, 28
     b61:	621c           	movi.n	a2, 22
     b63:	188c           	beqz.n	a8, b68 <LC3PLUS_Enc_Init+0xf4>
     b65:	ef9857        	bne	a8, a5, b58 <LC3PLUS_Enc_Init+0xe4>
     b68:	fd4221        	l32r	a2, 70 (bb7f <LC3Plus_FillDecSetup+0x3>)
     b6b:	20c6a2        	addi	a10, a6, 32
     b6e:	f1cb           	addi.n	a15, a1, 12
     b70:	fd4891        	l32r	a9, 90 (fe8 <lc3plus_enc_init>)
     b73:	66a9           	s32i.n	a10, a6, 24
     b75:	11f9           	s32i.n	a15, a1, 4
     b77:	4189           	s32i.n	a8, a1, 16
     b79:	5189           	s32i.n	a8, a1, 20
     b7b:	10c182        	addi	a8, a1, 16
     b7e:	72e240        	salt	a14, a2, a4
     b81:	04bd           	mov.n	a11, a4
     b83:	05cd           	mov.n	a12, a5
     b85:	07dd           	mov.n	a13, a7
     b87:	03fd           	mov.n	a15, a3
     b89:	71a9           	s32i.n	a10, a1, 28
     b8b:	0189           	s32i.n	a8, a1, 0
     b8d:	0009e0        	callx8	a9
     b90:	0a2d           	mov.n	a2, a10
     b92:	fc2a56        	bnez	a10, b58 <LC3PLUS_Enc_Init+0xe4>
     b95:	66a8           	l32i.n	a10, a6, 24
     b97:	a128           	l32i.n	a2, a1, 40
     b99:	3129           	s32i.n	a2, a1, 12
     b9b:	2c5a22        	s16i	a2, a10, 88
     b9e:	fd3d21        	l32r	a2, 94 (11dc <lc3plus_enc_set_bitrate>)
     ba1:	81b8           	l32i.n	a11, a1, 32
     ba3:	0002e0        	callx8	a2
     ba6:	0a2d           	mov.n	a2, a10
     ba8:	faca56        	bnez	a10, b58 <LC3PLUS_Enc_Init+0xe4>
     bab:	66a8           	l32i.n	a10, a6, 24
     bad:	fd3a31        	l32r	a3, 98 (e18 <lc3plus_enc_get_delay>)
     bb0:	16c6b2        	addi	a11, a6, 22
     bb3:	020c           	movi.n	a2, 0
     bb5:	0b5622        	s16i	a2, a6, 22
     bb8:	0003e0        	callx8	a3
     bbb:	66a8           	l32i.n	a10, a6, 24
     bbd:	fd3731        	l32r	a3, 9c (e34 <lc3plus_enc_get_input_samples>)
     bc0:	10c6b2        	addi	a11, a6, 16
     bc3:	0003e0        	callx8	a3
     bc6:	66a8           	l32i.n	a10, a6, 24
     bc8:	fd3631        	l32r	a3, a0 (e68 <lc3plus_enc_get_real_bitrate>)
     bcb:	b6cb           	addi.n	a11, a6, 12
     bcd:	0003e0        	callx8	a3
     bd0:	9138           	l32i.n	a3, a1, 36
     bd2:	7148           	l32i.n	a4, a1, 28
     bd4:	343a           	add.n	a3, a4, a3
     bd6:	7639           	s32i.n	a3, a6, 28
     bd8:	f01d           	retw.n

00000bda <LC3PLUS_Enc_Init+0x166>:
	...

00000bdc <LC3PLUS_Enc_Set_BitRate>:
     bdc:	004136        	entry	a1, 32
     bdf:	62a8           	l32i.n	a10, a2, 24
     be1:	fd3021        	l32r	a2, a4 (1347c <LC3Plus_update_enc_bitrate>)
     be4:	03bd           	mov.n	a11, a3
     be6:	8a8c           	beqz.n	a10, bf2 <LC3PLUS_Enc_Set_BitRate+0x16>
     be8:	0a13a6        	blti	a3, 1, bf6 <LC3PLUS_Enc_Set_BitRate+0x1a>
     beb:	0002e0        	callx8	a2
     bee:	0a2d           	mov.n	a2, a10
     bf0:	f01d           	retw.n

00000bf2 <LC3PLUS_Enc_Set_BitRate+0x16>:
     bf2:	d20c           	movi.n	a2, 13
     bf4:	f01d           	retw.n

00000bf6 <LC3PLUS_Enc_Set_BitRate+0x1a>:
     bf6:	220c           	movi.n	a2, 2
     bf8:	f01d           	retw.n

00000bfa <LC3PLUS_Enc_Set_BitRate+0x1e>:
	...

00000bfc <LC3PLUS_Enc_Prcs>:
     bfc:	004136        	entry	a1, 32
     bff:	62a8           	l32i.n	a10, a2, 24
     c01:	72e8           	l32i.n	a14, a2, 28
     c03:	fd2921        	l32r	a2, a8 (1160 <lc3plus_enc_process_frame>)
     c06:	04bd           	mov.n	a11, a4
     c08:	03cd           	mov.n	a12, a3
     c0a:	20d550        	or	a13, a5, a5
     c0d:	0002e0        	callx8	a2
     c10:	0a2d           	mov.n	a2, a10
     c12:	f01d           	retw.n

00000c14 <LC3PLUS_Dec_Get_MemSize>:
     c14:	006136        	entry	a1, 48
     c17:	fd16f1        	l32r	a15, 70 (bb7f <LC3Plus_FillDecSetup+0x3>)
     c1a:	02ad           	mov.n	a10, a2
     c1c:	160c           	movi.n	a6, 1
     c1e:	162f37        	blt	a15, a3, c38 <LC3PLUS_Dec_Get_MemSize+0x24>
     c21:	7da022        	movi	a2, 125
     c24:	112290        	slli	a2, a2, 7
     c27:	211327        	beq	a3, a2, c4c <LC3PLUS_Dec_Get_MemSize+0x38>
     c2a:	7da022        	movi	a2, 125
     c2d:	112280        	slli	a2, a2, 8
     c30:	181327        	beq	a3, a2, c4c <LC3PLUS_Dec_Get_MemSize+0x38>
     c33:	0004c6        	j	c4a <LC3PLUS_Dec_Get_MemSize+0x36>

00000c36 <LC3PLUS_Dec_Get_MemSize+0x22>:
	...

00000c38 <LC3PLUS_Dec_Get_MemSize+0x24>:
     c38:	77a122        	movi	a2, 0x177
     c3b:	112290        	slli	a2, a2, 7
     c3e:	0a1327        	beq	a3, a2, c4c <LC3PLUS_Dec_Get_MemSize+0x38>
     c41:	77a122        	movi	a2, 0x177
     c44:	112280        	slli	a2, a2, 8
     c47:	011327        	beq	a3, a2, c4c <LC3PLUS_Dec_Get_MemSize+0x38>
     c4a:	060c           	movi.n	a6, 0
     c4c:	971c           	movi.n	a7, 25
     c4e:	f27c           	movi.n	a2, -1
     c50:	0a1477        	beq	a4, a7, c5e <LC3PLUS_Dec_Get_MemSize+0x4a>
     c53:	64a072        	movi	a7, 100
     c56:	041477        	beq	a4, a7, c5e <LC3PLUS_Dec_Get_MemSize+0x4a>
     c59:	273c           	movi.n	a7, 50
     c5b:	179477        	bne	a4, a7, c76 <LC3PLUS_Dec_Get_MemSize+0x62>
     c5e:	469c           	beqz.n	a6, c76 <LC3PLUS_Dec_Get_MemSize+0x62>
     c60:	fd1321        	l32r	a2, ac (c78 <lc3plus_get_dec_tab_memsize>)
     c63:	e1cb           	addi.n	a14, a1, 12
     c65:	f18b           	addi.n	a15, a1, 8
     c67:	03bd           	mov.n	a11, a3
     c69:	04cd           	mov.n	a12, a4
     c6b:	05dd           	mov.n	a13, a5
     c6d:	0002e0        	callx8	a2
     c70:	3128           	l32i.n	a2, a1, 12
     c72:	2138           	l32i.n	a3, a1, 8
     c74:	232a           	add.n	a2, a3, a2
     c76:	f01d           	retw.n

00000c78 <lc3plus_get_dec_tab_memsize>:
     c78:	004136        	entry	a1, 32
     c7b:	f87c           	movi.n	a8, -1
     c7d:	991c           	movi.n	a9, 25
     c7f:	0789           	s32i.n	a8, a7, 0
     c81:	0689           	s32i.n	a8, a6, 0
     c83:	151497        	beq	a4, a9, c9c <lc3plus_get_dec_tab_memsize+0x24>
     c86:	283c           	movi.n	a8, 50
     c88:	271487        	beq	a4, a8, cb3 <lc3plus_get_dec_tab_memsize+0x3b>
     c8b:	64a082        	movi	a8, 100
     c8e:	021487        	beq	a4, a8, c94 <lc3plus_get_dec_tab_memsize+0x1c>
     c91:	002c46        	j	d46 <lc3plus_get_dec_tab_memsize+0xce>
     c94:	240c           	movi.n	a4, 2
     c96:	072266        	bnei	a2, 2, ca1 <lc3plus_get_dec_tab_memsize+0x29>
     c99:	0006c6        	j	cb8 <lc3plus_get_dec_tab_memsize+0x40>

00000c9c <lc3plus_get_dec_tab_memsize+0x24>:
     c9c:	040c           	movi.n	a4, 0
     c9e:	162226        	beqi	a2, 2, cb8 <lc3plus_get_dec_tab_memsize+0x40>
     ca1:	77a122        	movi	a2, 0x177
     ca4:	112280        	slli	a2, a2, 8
     ca7:	1f9327        	bne	a3, a2, cca <lc3plus_get_dec_tab_memsize+0x52>
     caa:	543566        	bnei	a5, 3, d02 <lc3plus_get_dec_tab_memsize+0x8a>
     cad:	fd0421        	l32r	a2, c0 (2eaa0 <T_96K_dec_mono_aplc>)
     cb0:	0021c6        	j	d3b <lc3plus_get_dec_tab_memsize+0xc3>

00000cb3 <lc3plus_get_dec_tab_memsize+0x3b>:
     cb3:	140c           	movi.n	a4, 1
     cb5:	e82266        	bnei	a2, 2, ca1 <lc3plus_get_dec_tab_memsize+0x29>
     cb8:	77a122        	movi	a2, 0x177
     cbb:	112280        	slli	a2, a2, 8
     cbe:	2e9327        	bne	a3, a2, cf0 <lc3plus_get_dec_tab_memsize+0x78>
     cc1:	433566        	bnei	a5, 3, d08 <lc3plus_get_dec_tab_memsize+0x90>
     cc4:	fcfb21        	l32r	a2, b0 (2ea60 <T_96K_dec_stereo_aplc>)
     cc7:	001c06        	j	d3b <lc3plus_get_dec_tab_memsize+0xc3>

00000cca <lc3plus_get_dec_tab_memsize+0x52>:
     cca:	7da022        	movi	a2, 125
     ccd:	112290        	slli	a2, a2, 7
     cd0:	3c1327        	beq	a3, a2, d10 <lc3plus_get_dec_tab_memsize+0x98>
     cd3:	7da022        	movi	a2, 125
     cd6:	112280        	slli	a2, a2, 8
     cd9:	3c1327        	beq	a3, a2, d19 <lc3plus_get_dec_tab_memsize+0xa1>
     cdc:	77a122        	movi	a2, 0x177
     cdf:	112290        	slli	a2, a2, 7
     ce2:	609327        	bne	a3, a2, d46 <lc3plus_get_dec_tab_memsize+0xce>
     ce5:	3f3566        	bnei	a5, 3, d28 <lc3plus_get_dec_tab_memsize+0xb0>
     ce8:	fcf821        	l32r	a2, c8 (2eb20 <T_48K_dec_mono_aplc>)
     ceb:	001306        	j	d3b <lc3plus_get_dec_tab_memsize+0xc3>

00000cee <lc3plus_get_dec_tab_memsize+0x76>:
	...

00000cf0 <lc3plus_get_dec_tab_memsize+0x78>:
     cf0:	77a122        	movi	a2, 0x177
     cf3:	112290        	slli	a2, a2, 7
     cf6:	4c9327        	bne	a3, a2, d46 <lc3plus_get_dec_tab_memsize+0xce>
     cf9:	253566        	bnei	a5, 3, d22 <lc3plus_get_dec_tab_memsize+0xaa>
     cfc:	fcef21        	l32r	a2, b8 (2eae0 <T_48K_dec_stereo_aplc>)
     cff:	000e06        	j	d3b <lc3plus_get_dec_tab_memsize+0xc3>

00000d02 <lc3plus_get_dec_tab_memsize+0x8a>:
     d02:	fcf021        	l32r	a2, c4 (2eac0 <T_96K_dec_mono_std>)
     d05:	000c86        	j	d3b <lc3plus_get_dec_tab_memsize+0xc3>

00000d08 <lc3plus_get_dec_tab_memsize+0x90>:
     d08:	fceb21        	l32r	a2, b4 (2ea80 <T_96K_dec_stereo_std>)
     d0b:	000b06        	j	d3b <lc3plus_get_dec_tab_memsize+0xc3>

00000d0e <lc3plus_get_dec_tab_memsize+0x96>:
	...

00000d10 <lc3plus_get_dec_tab_memsize+0x98>:
     d10:	1c3566        	bnei	a5, 3, d30 <lc3plus_get_dec_tab_memsize+0xb8>
     d13:	fcf121        	l32r	a2, d8 (2eba0 <T_16K_dec_mono_aplc>)
     d16:	000846        	j	d3b <lc3plus_get_dec_tab_memsize+0xc3>

00000d19 <lc3plus_get_dec_tab_memsize+0xa1>:
     d19:	1b3566        	bnei	a5, 3, d38 <lc3plus_get_dec_tab_memsize+0xc0>
     d1c:	fced21        	l32r	a2, d0 (2eb60 <T_32K_dec_mono_aplc>)
     d1f:	000606        	j	d3b <lc3plus_get_dec_tab_memsize+0xc3>

00000d22 <lc3plus_get_dec_tab_memsize+0xaa>:
     d22:	fce621        	l32r	a2, bc (2eb00 <T_48K_dec_stereo_std>)
     d25:	000486        	j	d3b <lc3plus_get_dec_tab_memsize+0xc3>

00000d28 <lc3plus_get_dec_tab_memsize+0xb0>:
     d28:	fce921        	l32r	a2, cc (2eb40 <T_48K_dec_mono_std>)
     d2b:	000306        	j	d3b <lc3plus_get_dec_tab_memsize+0xc3>

00000d2e <lc3plus_get_dec_tab_memsize+0xb6>:
	...

00000d30 <lc3plus_get_dec_tab_memsize+0xb8>:
     d30:	fceb21        	l32r	a2, dc (2ebc0 <T_16K_dec_mono_std>)
     d33:	000106        	j	d3b <lc3plus_get_dec_tab_memsize+0xc3>

00000d36 <lc3plus_get_dec_tab_memsize+0xbe>:
	...

00000d38 <lc3plus_get_dec_tab_memsize+0xc0>:
     d38:	fce721        	l32r	a2, d4 (2eb80 <T_32K_dec_mono_std>)
     d3b:	b02420        	addx8	a2, a4, a2
     d3e:	0238           	l32i.n	a3, a2, 0
     d40:	1228           	l32i.n	a2, a2, 4
     d42:	0639           	s32i.n	a3, a6, 0
     d44:	0729           	s32i.n	a2, a7, 0
     d46:	f01d           	retw.n

00000d48 <LC3PLUS_Dec_Get_Param>:
     d48:	004136        	entry	a1, 32
     d4b:	3258           	l32i.n	a5, a2, 12
     d4d:	0992f2        	l16si	a15, a2, 18
     d50:	0359           	s32i.n	a5, a3, 0
     d52:	04f9           	s32i.n	a15, a4, 0
     d54:	f01d           	retw.n

00000d56 <LC3PLUS_Dec_Get_Param+0xe>:
	...

00000d58 <LC3PLUS_Dec_Init>:
     d58:	00a136        	entry	a1, 80
     d5b:	a139           	s32i.n	a3, a1, 40
     d5d:	2239           	s32i.n	a3, a2, 8
     d5f:	fcd331        	l32r	a3, ac (c78 <lc3plus_get_dec_tab_memsize>)
     d62:	24c1e2        	addi	a14, a1, 36
     d65:	20c1f2        	addi	a15, a1, 32
     d68:	05ad           	mov.n	a10, a5
     d6a:	04bd           	mov.n	a11, a4
     d6c:	06cd           	mov.n	a12, a6
     d6e:	07dd           	mov.n	a13, a7
     d70:	0249           	s32i.n	a4, a2, 0
     d72:	085252        	s16i	a5, a2, 16
     d75:	0003e0        	callx8	a3
     d78:	fcbe31        	l32r	a3, 70 (bb7f <LC3Plus_FillDecSetup+0x3>)
     d7b:	fcd981        	l32r	a8, e0 (128c <lc3plus_dec_get_size>)
     d7e:	2cc1f2        	addi	a15, a1, 44
     d81:	723340        	salt	a3, a3, a4
     d84:	04ad           	mov.n	a10, a4
     d86:	05bd           	mov.n	a11, a5
     d88:	07cd           	mov.n	a12, a7
     d8a:	06dd           	mov.n	a13, a6
     d8c:	03ed           	mov.n	a14, a3
     d8e:	0008e0        	callx8	a8
     d91:	3a8c           	beqz.n	a10, d98 <LC3PLUS_Dec_Init+0x40>

00000d93 <LC3PLUS_Dec_Init+0x3b>:
     d93:	0a2d           	mov.n	a2, a10
     d95:	f01d           	retw.n

00000d97 <LC3PLUS_Dec_Init+0x3f>:
	...

00000d98 <LC3PLUS_Dec_Init+0x40>:
     d98:	20c2a2        	addi	a10, a2, 32
     d9b:	a1f8           	l32i.n	a15, a1, 40
     d9d:	1cc182        	addi	a8, a1, 28
     da0:	fcd191        	l32r	a9, e4 (13b4 <lc3plus_dec_init>)
     da3:	52a9           	s32i.n	a10, a2, 20
     da5:	2189           	s32i.n	a8, a1, 8
     da7:	11f9           	s32i.n	a15, a1, 4
     da9:	04bd           	mov.n	a11, a4
     dab:	040c           	movi.n	a4, 0
     dad:	05cd           	mov.n	a12, a5
     daf:	07dd           	mov.n	a13, a7
     db1:	06ed           	mov.n	a14, a6
     db3:	03fd           	mov.n	a15, a3
     db5:	a1a9           	s32i.n	a10, a1, 40
     db7:	0149           	s32i.n	a4, a1, 0
     db9:	0009e0        	callx8	a9
     dbc:	fd3a56        	bnez	a10, d93 <LC3PLUS_Dec_Init+0x3b>
     dbf:	52a8           	l32i.n	a10, a2, 20
     dc1:	8138           	l32i.n	a3, a1, 32
     dc3:	7139           	s32i.n	a3, a1, 28
     dc5:	255a32        	s16i	a3, a10, 74
     dc8:	fcc831        	l32r	a3, e8 (1230 <lc3plus_dec_get_delay>)
     dcb:	12c2b2        	addi	a11, a2, 18
     dce:	095242        	s16i	a4, a2, 18
     dd1:	0003e0        	callx8	a3
     dd4:	52a8           	l32i.n	a10, a2, 20
     dd6:	fcc531        	l32r	a3, ec (1278 <lc3plus_dec_get_output_samples>)
     dd9:	b2cb           	addi.n	a11, a2, 12
     ddb:	0003e0        	callx8	a3
     dde:	9138           	l32i.n	a3, a1, 36
     de0:	a148           	l32i.n	a4, a1, 40
     de2:	0a0c           	movi.n	a10, 0
     de4:	343a           	add.n	a3, a4, a3
     de6:	6239           	s32i.n	a3, a2, 24
     de8:	0a2d           	mov.n	a2, a10
     dea:	f01d           	retw.n

00000dec <LC3PLUS_Dec_Prcs>:
     dec:	004136        	entry	a1, 32
     def:	116600        	slli	a6, a6, 16
     df2:	52a8           	l32i.n	a10, a2, 20
     df4:	62f8           	l32i.n	a15, a2, 24
     df6:	fcbe21        	l32r	a2, f0 (15bc <lc3plus_dec_process_frame>)
     df9:	20c650        	or	a12, a6, a5
     dfc:	03bd           	mov.n	a11, a3
     dfe:	07dd           	mov.n	a13, a7
     e00:	04ed           	mov.n	a14, a4
     e02:	0002e0        	callx8	a2
     e05:	0a2d           	mov.n	a2, a10
     e07:	f01d           	retw.n

00000e09 <LC3PLUS_Dec_Prcs+0x1d>:
     e09:	00000000                                 .......

00000e10 <lc3plus_enc_exit>:
     e10:	004136        	entry	a1, 32
     e13:	020c           	movi.n	a2, 0
     e15:	f01d           	retw.n

00000e17 <lc3plus_enc_exit+0x7>:
	...

00000e18 <lc3plus_enc_get_delay>:
     e18:	004136        	entry	a1, 32
     e1b:	129c           	beqz.n	a2, e30 <lc3plus_enc_get_delay+0x18>
     e1d:	179242        	l16si	a4, a2, 46
     e20:	1092f2        	l16si	a15, a2, 32
     e23:	020c           	movi.n	a2, 0
     e25:	1144f0        	slli	a4, a4, 1
     e28:	c04f40        	sub	a4, a15, a4
     e2b:	634d           	ae_s16i.n	a4, a3, 0
     e2d:	f01d           	retw.n

00000e2f <lc3plus_enc_get_delay+0x17>:
	...

00000e30 <lc3plus_enc_get_delay+0x18>:
     e30:	d20c           	movi.n	a2, 13
     e32:	f01d           	retw.n

00000e34 <lc3plus_enc_get_input_samples>:
     e34:	004136        	entry	a1, 32
     e37:	728c           	beqz.n	a2, e42 <lc3plus_enc_get_input_samples+0xe>
     e39:	109222        	l16si	a2, a2, 32
     e3c:	0329           	s32i.n	a2, a3, 0
     e3e:	020c           	movi.n	a2, 0
     e40:	f01d           	retw.n

00000e42 <lc3plus_enc_get_input_samples+0xe>:
     e42:	d20c           	movi.n	a2, 13
     e44:	f01d           	retw.n

00000e46 <lc3plus_enc_get_input_samples+0x12>:
	...

00000e48 <lc3plus_enc_get_num_bytes>:
     e48:	004136        	entry	a1, 32
     e4b:	529c           	beqz.n	a2, e64 <lc3plus_enc_get_num_bytes+0x1c>
     e4d:	6248           	l32i.n	a4, a2, 24
     e4f:	109252        	l16si	a5, a2, 32
     e52:	5268           	l32i.n	a6, a2, 20
     e54:	020c           	movi.n	a2, 0
     e56:	824450        	mull	a4, a4, a5
     e59:	11f6d0        	slli	a15, a6, 3
     e5c:	d244f0        	quos	a4, a4, a15
     e5f:	0349           	s32i.n	a4, a3, 0
     e61:	f01d           	retw.n

00000e63 <lc3plus_enc_get_num_bytes+0x1b>:
	...

00000e64 <lc3plus_enc_get_num_bytes+0x1c>:
     e64:	d20c           	movi.n	a2, 13
     e66:	f01d           	retw.n

00000e68 <lc3plus_enc_get_real_bitrate>:
     e68:	004136        	entry	a1, 32
     e6b:	069216        	beqz	a2, ed8 <lc3plus_enc_get_real_bitrate+0x70>
     e6e:	4e02f2        	l8ui	a15, a2, 78
     e71:	029d           	mov.n	a9, a2
     e73:	038d           	mov.n	a8, a3
     e75:	063f16        	beqz	a15, edc <lc3plus_enc_get_real_bitrate+0x74>
     e78:	119932        	l16si	a3, a9, 34
     e7b:	f27c           	movi.n	a2, -1
     e7d:	060c           	movi.n	a6, 0
     e7f:	5d13a6        	blti	a3, 1, ee0 <lc3plus_enc_get_real_bitrate+0x78>
     e82:	144030        	extui	a4, a3, 0, 2
     e85:	092d           	mov.n	a2, a9
     e87:	413230        	srli	a3, a3, 2
     e8a:	0b9476        	loopnez	a4, e99 <lc3plus_enc_get_real_bitrate+0x31>
     e8d:	0248           	l32i.n	a4, a2, 0
     e8f:	224b           	addi.n	a2, a2, 4
     e91:	05d442        	addmi	a4, a4, 0x500
     e94:	569452        	l16si	a5, a4, 172
     e97:	665a           	add.n	a6, a6, a5

00000e99 <lc3plus_enc_get_real_bitrate+0x31>:
     e99:	c3ac           	beqz.n	a3, ec9 <lc3plus_enc_get_real_bitrate+0x61>
     e9b:	2a9376        	loopnez	a3, ec9 <lc3plus_enc_get_real_bitrate+0x61>
     e9e:	0258           	l32i.n	a5, a2, 0
     ea0:	3248           	l32i.n	a4, a2, 12
     ea2:	2238           	l32i.n	a3, a2, 8
     ea4:	05d552        	addmi	a5, a5, 0x500
     ea7:	05d442        	addmi	a4, a4, 0x500
     eaa:	05d332        	addmi	a3, a3, 0x500
     ead:	569472        	l16si	a7, a4, 172
     eb0:	1248           	l32i.n	a4, a2, 4
     eb2:	569552        	l16si	a5, a5, 172
     eb5:	569332        	l16si	a3, a3, 172
     eb8:	05d442        	addmi	a4, a4, 0x500
     ebb:	569442        	l16si	a4, a4, 172
     ebe:	10c222        	addi	a2, a2, 16
     ec1:	565a           	add.n	a5, a6, a5
     ec3:	454a           	add.n	a4, a5, a4
     ec5:	343a           	add.n	a3, a4, a3
     ec7:	637a           	add.n	a6, a3, a7

00000ec9 <lc3plus_enc_get_real_bitrate+0x61>:
     ec9:	71a222        	movi	a2, 0x271
     ecc:	112290        	slli	a2, a2, 7
     ecf:	822620        	mull	a2, a6, a2
     ed2:	220b           	addi.n	a2, a2, -1
     ed4:	000206        	j	ee0 <lc3plus_enc_get_real_bitrate+0x78>

00000ed7 <lc3plus_enc_get_real_bitrate+0x6f>:
	...

00000ed8 <lc3plus_enc_get_real_bitrate+0x70>:
     ed8:	d20c           	movi.n	a2, 13
     eda:	f01d           	retw.n

00000edc <lc3plus_enc_get_real_bitrate+0x74>:
     edc:	420c           	movi.n	a2, 4
     ede:	f01d           	retw.n

00000ee0 <lc3plus_enc_get_real_bitrate+0x78>:
     ee0:	149932        	l16si	a3, a9, 40
     ee3:	fc8451        	l32r	a5, f4 (ac44 <LC3Plus_Dec_LC3+0x334>)
     ee6:	fc8471        	l32r	a7, f8 (88888889 <_end+0x888598b1>)
     ee9:	223a           	add.n	a2, a2, a3
     eeb:	d23230        	quos	a3, a2, a3
     eee:	0839           	s32i.n	a3, a8, 0
     ef0:	5948           	l32i.n	a4, a9, 20
     ef2:	020c           	movi.n	a2, 0
     ef4:	20aed2        	movi	a13, 0xfffffe20
     ef7:	2b9457        	bne	a4, a5, f26 <lc3plus_enc_get_real_bitrate+0xbe>
     efa:	b9a1f2        	movi	a15, 0x1b9
     efd:	b25370        	mulsh	a5, a3, a7
     f00:	553a           	add.n	a5, a5, a3
     f02:	056f50        	extui	a6, a5, 31, 1
     f05:	215850        	srai	a5, a5, 8
     f08:	556a           	add.n	a5, a5, a6
     f0a:	8265d0        	mull	a6, a5, a13
     f0d:	8255f0        	mull	a5, a5, a15
     f10:	e36a           	add.n	a14, a3, a6
     f12:	823ef0        	mull	a3, a14, a15
     f15:	b24370        	mulsh	a4, a3, a7
     f18:	343a           	add.n	a3, a4, a3
     f1a:	054f30        	extui	a4, a3, 31, 1
     f1d:	213830        	srai	a3, a3, 8
     f20:	334a           	add.n	a3, a3, a4
     f22:	335a           	add.n	a3, a3, a5
     f24:	0839           	s32i.n	a3, a8, 0
     f26:	f01d           	retw.n

00000f28 <lc3plus_enc_get_size>:
     f28:	004136        	entry	a1, 32
     f2b:	fc5161        	l32r	a6, 70 (bb7f <LC3Plus_FillDecSetup+0x3>)
     f2e:	02bd           	mov.n	a11, a2
     f30:	13a022        	movi	a2, 19
     f33:	1326b7        	blt	a6, a11, f4a <lc3plus_enc_get_size+0x22>
     f36:	7da062        	movi	a6, 125
     f39:	116690        	slli	a6, a6, 7
     f3c:	1c1b67        	beq	a11, a6, f5c <lc3plus_enc_get_size+0x34>
     f3f:	7da062        	movi	a6, 125
     f42:	116680        	slli	a6, a6, 8
     f45:	131b67        	beq	a11, a6, f5c <lc3plus_enc_get_size+0x34>

00000f48 <lc3plus_enc_get_size+0x20>:
     f48:	f01d           	retw.n

00000f4a <lc3plus_enc_get_size+0x22>:
     f4a:	77a162        	movi	a6, 0x177
     f4d:	116680        	slli	a6, a6, 8
     f50:	081b67        	beq	a11, a6, f5c <lc3plus_enc_get_size+0x34>
     f53:	77a162        	movi	a6, 0x177
     f56:	116690        	slli	a6, a6, 7
     f59:	eb9b67        	bne	a11, a6, f48 <lc3plus_enc_get_size+0x20>
     f5c:	630b           	addi.n	a6, a3, -1
     f5e:	520c           	movi.n	a2, 5
     f60:	e426f6        	bgeui	a6, 2, f48 <lc3plus_enc_get_size+0x20>
     f63:	f0c462        	addi	a6, a4, -16
     f66:	071c           	movi.n	a7, 16
     f68:	920c           	movi.n	a2, 9
     f6a:	da3767        	bltu	a7, a6, f48 <lc3plus_enc_get_size+0x20>
     f6d:	fc6371        	l32r	a7, fc (10101 <LC3Plus_processQuantizeSpec_fx+0x629>)
     f70:	0a0c           	movi.n	a10, 0
     f72:	03cd           	mov.n	a12, a3
     f74:	d05767        	bbc	a7, a6, f48 <lc3plus_enc_get_size+0x20>
     f77:	fc6261        	l32r	a6, 100 (12f78 <LC3Plus_alloc_encoder>)
     f7a:	04dd           	mov.n	a13, a4
     f7c:	020c           	movi.n	a2, 0
     f7e:	0006e0        	callx8	a6
     f81:	05a9           	s32i.n	a10, a5, 0
     f83:	f01d           	retw.n

00000f85 <lc3plus_enc_get_size+0x5d>:
     f85:	000000                                        ...

00000f88 <lc3plus_enc_supported_samplerate>:
     f88:	004136        	entry	a1, 32
     f8b:	fc3941        	l32r	a4, 70 (bb7f <LC3Plus_FillDecSetup+0x3>)
     f8e:	023d           	mov.n	a3, a2
     f90:	01a022        	movi	a2, 1
     f93:	132437        	blt	a4, a3, faa <lc3plus_enc_supported_samplerate+0x22>
     f96:	7da042        	movi	a4, 125
     f99:	114490        	slli	a4, a4, 7
     f9c:	081347        	beq	a3, a4, fa8 <lc3plus_enc_supported_samplerate+0x20>
     f9f:	7da042        	movi	a4, 125
     fa2:	114480        	slli	a4, a4, 8
     fa5:	139347        	bne	a3, a4, fbc <lc3plus_enc_supported_samplerate+0x34>

00000fa8 <lc3plus_enc_supported_samplerate+0x20>:
     fa8:	f01d           	retw.n

00000faa <lc3plus_enc_supported_samplerate+0x22>:
     faa:	77a142        	movi	a4, 0x177
     fad:	114490        	slli	a4, a4, 7
     fb0:	f41347        	beq	a3, a4, fa8 <lc3plus_enc_supported_samplerate+0x20>
     fb3:	77a142        	movi	a4, 0x177
     fb6:	114480        	slli	a4, a4, 8
     fb9:	eb1347        	beq	a3, a4, fa8 <lc3plus_enc_supported_samplerate+0x20>
     fbc:	020c           	movi.n	a2, 0
     fbe:	f01d           	retw.n

00000fc0 <lc3plus_enc_supported_channels>:
     fc0:	004136        	entry	a1, 32
     fc3:	230c           	movi.n	a3, 2
     fc5:	220b           	addi.n	a2, a2, -1
     fc7:	622230        	saltu	a2, a2, a3
     fca:	f01d           	retw.n

00000fcc <lc3plus_enc_supported_bitdepth>:
     fcc:	004136        	entry	a1, 32
     fcf:	f0c232        	addi	a3, a2, -16
     fd2:	041c           	movi.n	a4, 16
     fd4:	093437        	bltu	a4, a3, fe1 <lc3plus_enc_supported_bitdepth+0x15>
     fd7:	fc4941        	l32r	a4, fc (10101 <LC3Plus_processQuantizeSpec_fx+0x629>)
     fda:	120c           	movi.n	a2, 1
     fdc:	015437        	bbc	a4, a3, fe1 <lc3plus_enc_supported_bitdepth+0x15>
     fdf:	f01d           	retw.n

00000fe1 <lc3plus_enc_supported_bitdepth+0x15>:
     fe1:	020c           	movi.n	a2, 0
     fe3:	f01d           	retw.n

00000fe5 <lc3plus_enc_supported_bitdepth+0x19>:
     fe5:	000000                                        ...

00000fe8 <lc3plus_enc_init>:
     fe8:	008136        	entry	a1, 64
     feb:	02cd           	mov.n	a12, a2
     fed:	d20c           	movi.n	a2, 13
     fef:	6179           	s32i.n	a7, a1, 24
     ff1:	068c16        	beqz	a12, 105d <lc3plus_enc_init+0x75>
     ff4:	102172        	l32i	a7, a1, 64
     ff7:	06ed           	mov.n	a14, a6
     ff9:	6188           	l32i.n	a8, a1, 24
     ffb:	05e716        	beqz	a7, 105d <lc3plus_enc_init+0x75>
     ffe:	091c           	movi.n	a9, 16
    1000:	f0c882        	addi	a8, a8, -16
    1003:	920c           	movi.n	a2, 9
    1005:	543987        	bltu	a9, a8, 105d <lc3plus_enc_init+0x75>
    1008:	fc3d91        	l32r	a9, fc (10101 <LC3Plus_processQuantizeSpec_fx+0x629>)
    100b:	920c           	movi.n	a2, 9
    100d:	a40b           	addi.n	a10, a4, -1
    100f:	4a5987        	bbc	a9, a8, 105d <lc3plus_enc_init+0x75>
    1012:	520c           	movi.n	a2, 5
    1014:	452af6        	bgeui	a10, 2, 105d <lc3plus_enc_init+0x75>
    1017:	921c           	movi.n	a2, 25
    1019:	0c1527        	beq	a5, a2, 1029 <lc3plus_enc_init+0x41>
    101c:	64a022        	movi	a2, 100
    101f:	061527        	beq	a5, a2, 1029 <lc3plus_enc_init+0x41>
    1022:	2a3c           	movi.n	a10, 50
    1024:	a20c           	movi.n	a2, 10
    1026:	3395a7        	bne	a5, a10, 105d <lc3plus_enc_init+0x75>

00001029 <lc3plus_enc_init+0x41>:
    1029:	fc11a1        	l32r	a10, 70 (bb7f <LC3Plus_FillDecSetup+0x3>)
    102c:	77a122        	movi	a2, 0x177
    102f:	112280        	slli	a2, a2, 8
    1032:	122a37        	blt	a10, a3, 1048 <lc3plus_enc_init+0x60>
    1035:	7da022        	movi	a2, 125
    1038:	112290        	slli	a2, a2, 7
    103b:	171327        	beq	a3, a2, 1056 <lc3plus_enc_init+0x6e>
    103e:	7da0b2        	movi	a11, 125
    1041:	11bb80        	slli	a11, a11, 8
    1044:	000246        	j	1051 <lc3plus_enc_init+0x69>

00001047 <lc3plus_enc_init+0x5f>:
	...

00001048 <lc3plus_enc_init+0x60>:
    1048:	0a1327        	beq	a3, a2, 1056 <lc3plus_enc_init+0x6e>
    104b:	77a1b2        	movi	a11, 0x177
    104e:	11bb90        	slli	a11, a11, 7
    1051:	321c           	movi.n	a2, 19
    1053:	0693b7        	bne	a3, a11, 105d <lc3plus_enc_init+0x75>
    1056:	3b0c           	movi.n	a11, 3
    1058:	120c           	movi.n	a2, 1
    105a:	020bc7        	bnone	a11, a12, 1060 <lc3plus_enc_init+0x78>
    105d:	f01d           	retw.n

0000105f <lc3plus_enc_init+0x77>:
	...

00001060 <lc3plus_enc_init+0x78>:
    1060:	b24c           	movi.n	a2, 75
    1062:	0f9527        	bne	a5, a2, 1075 <lc3plus_enc_init+0x8d>
    1065:	77a1b2        	movi	a11, 0x177
    1068:	11bb80        	slli	a11, a11, 8
    106b:	a20c           	movi.n	a2, 10
    106d:	ec13b7        	beq	a3, a11, 105d <lc3plus_enc_init+0x75>
    1070:	a20c           	movi.n	a2, 10
    1072:	e71e26        	beqi	a14, 1, 105d <lc3plus_enc_init+0x75>
    1075:	042a37        	blt	a10, a3, 107d <lc3plus_enc_init+0x95>
    1078:	c20c           	movi.n	a2, 12
    107a:	fdfe56        	bnez	a14, 105d <lc3plus_enc_init+0x75>
    107d:	77a1b2        	movi	a11, 0x177
    1080:	11bb80        	slli	a11, a11, 8
    1083:	0493b7        	bne	a3, a11, 108b <lc3plus_enc_init+0xa3>
    1086:	321c           	movi.n	a2, 19
    1088:	fd1e16        	beqz	a14, 105d <lc3plus_enc_init+0x75>
    108b:	112a37        	blt	a10, a3, 10a0 <lc3plus_enc_init+0xb8>
    108e:	7da022        	movi	a2, 125
    1091:	112290        	slli	a2, a2, 7
    1094:	161327        	beq	a3, a2, 10ae <lc3plus_enc_init+0xc6>
    1097:	7da0a2        	movi	a10, 125
    109a:	11aa80        	slli	a10, a10, 8
    109d:	000206        	j	10a9 <lc3plus_enc_init+0xc1>

000010a0 <lc3plus_enc_init+0xb8>:
    10a0:	0a13b7        	beq	a3, a11, 10ae <lc3plus_enc_init+0xc6>
    10a3:	77a1a2        	movi	a10, 0x177
    10a6:	11aa90        	slli	a10, a10, 7
    10a9:	321c           	movi.n	a2, 19
    10ab:	ae93a7        	bne	a3, a10, 105d <lc3plus_enc_init+0x75>
    10ae:	0a1c           	movi.n	a10, 16
    10b0:	920c           	movi.n	a2, 9
    10b2:	a73a87        	bltu	a10, a8, 105d <lc3plus_enc_init+0x75>
    10b5:	920c           	movi.n	a2, 9
    10b7:	a25987        	bbc	a9, a8, 105d <lc3plus_enc_init+0x75>
    10ba:	fc1181        	l32r	a8, 100 (12f78 <LC3Plus_alloc_encoder>)
    10bd:	61d8           	l32i.n	a13, a1, 24
    10bf:	51c9           	s32i.n	a12, a1, 20
    10c1:	0a0c           	movi.n	a10, 0
    10c3:	03bd           	mov.n	a11, a3
    10c5:	04cd           	mov.n	a12, a4
    10c7:	0e2d           	mov.n	a2, a14
    10c9:	0008e0        	callx8	a8
    10cc:	0acd           	mov.n	a12, a10
    10ce:	fc0d81        	l32r	a8, 104 (7c0 <memset>)
    10d1:	51a8           	l32i.n	a10, a1, 20
    10d3:	0b0c           	movi.n	a11, 0
    10d5:	71c9           	s32i.n	a12, a1, 28
    10d7:	0008e0        	callx8	a8
    10da:	fc0b81        	l32r	a8, 108 (13104 <LC3Plus_FillEncSetup>)
    10dd:	51a8           	l32i.n	a10, a1, 20
    10df:	61f8           	l32i.n	a15, a1, 24
    10e1:	03bd           	mov.n	a11, a3
    10e3:	04cd           	mov.n	a12, a4
    10e5:	05dd           	mov.n	a13, a5
    10e7:	02ed           	mov.n	a14, a2
    10e9:	0179           	s32i.n	a7, a1, 0
    10eb:	0008e0        	callx8	a8
    10ee:	5198           	l32i.n	a9, a1, 20
    10f0:	02dd           	mov.n	a13, a2
    10f2:	0a2d           	mov.n	a2, a10
    10f4:	f65a56        	bnez	a10, 105d <lc3plus_enc_init+0x75>
    10f7:	04fd           	mov.n	a15, a4
    10f9:	054d           	mov.n	a4, a5
    10fb:	112152        	l32i	a5, a1, 68
    10fe:	71c8           	l32i.n	a12, a1, 28
    1100:	fc0181        	l32r	a8, 104 (7c0 <memset>)
    1103:	020c           	movi.n	a2, 0
    1105:	0b0c           	movi.n	a11, 0
    1107:	09ad           	mov.n	a10, a9
    1109:	0529           	s32i.n	a2, a5, 0
    110b:	0d2d           	mov.n	a2, a13
    110d:	0f6d           	mov.n	a6, a15
    110f:	0008e0        	callx8	a8
    1112:	02ed           	mov.n	a14, a2
    1114:	51a8           	l32i.n	a10, a1, 20
    1116:	61f8           	l32i.n	a15, a1, 24
    1118:	fbfc21        	l32r	a2, 108 (13104 <LC3Plus_FillEncSetup>)
    111b:	03bd           	mov.n	a11, a3
    111d:	06cd           	mov.n	a12, a6
    111f:	04dd           	mov.n	a13, a4
    1121:	0179           	s32i.n	a7, a1, 0
    1123:	0002e0        	callx8	a2
    1126:	5138           	l32i.n	a3, a1, 20
    1128:	0a2d           	mov.n	a2, a10
    112a:	f2fa56        	bnez	a10, 105d <lc3plus_enc_init+0x75>
    112d:	0528           	l32i.n	a2, a5, 0
    112f:	1f0c           	movi.n	a15, 1
    1131:	2c5322        	s16i	a2, a3, 88
    1134:	020c           	movi.n	a2, 0
    1136:	2b53f2        	s16i	a15, a3, 86
    1139:	f01d           	retw.n

0000113b <lc3plus_enc_init+0x153>:
	...

0000113c <lc3plus_enc_supported_frame_dms>:
    113c:	004136        	entry	a1, 32
    113f:	023d           	mov.n	a3, a2
    1141:	941c           	movi.n	a4, 25
    1143:	120c           	movi.n	a2, 1
    1145:	0c1347        	beq	a3, a4, 1155 <lc3plus_enc_supported_frame_dms+0x19>
    1148:	243c           	movi.n	a4, 50
    114a:	071347        	beq	a3, a4, 1155 <lc3plus_enc_supported_frame_dms+0x19>
    114d:	64a042        	movi	a4, 100
    1150:	011347        	beq	a3, a4, 1155 <lc3plus_enc_supported_frame_dms+0x19>
    1153:	020c           	movi.n	a2, 0

00001155 <lc3plus_enc_supported_frame_dms+0x19>:
    1155:	f01d           	retw.n

00001157 <lc3plus_enc_supported_frame_dms+0x1b>:
	...

00001158 <lc3plus_enc_supported_lfe>:
    1158:	004136        	entry	a1, 32
    115b:	120c           	movi.n	a2, 1
    115d:	f01d           	retw.n

0000115f <lc3plus_enc_supported_lfe+0x7>:
	...

00001160 <lc3plus_enc_process_frame>:
    1160:	004136        	entry	a1, 32
    1163:	027d           	mov.n	a7, a2
    1165:	d20c           	movi.n	a2, 13
    1167:	d79c           	beqz.n	a7, 1188 <lc3plus_enc_process_frame+0x28>
    1169:	b39c           	beqz.n	a3, 1188 <lc3plus_enc_process_frame+0x28>
    116b:	949c           	beqz.n	a4, 1188 <lc3plus_enc_process_frame+0x28>
    116d:	759c           	beqz.n	a5, 1188 <lc3plus_enc_process_frame+0x28>
    116f:	569c           	beqz.n	a6, 1188 <lc3plus_enc_process_frame+0x28>
    1171:	4e0722        	l8ui	a2, a7, 78
    1174:	5798           	l32i.n	a9, a7, 20
    1176:	fbbe81        	l32r	a8, 70 (bb7f <LC3Plus_FillDecSetup+0x3>)
    1179:	d28c           	beqz.n	a2, 118a <lc3plus_enc_process_frame+0x2a>
    117b:	092d           	mov.n	a2, a9
    117d:	112897        	blt	a8, a9, 1192 <lc3plus_enc_process_frame+0x32>
    1180:	261782        	l16ui	a8, a7, 76
    1183:	0ca022        	movi	a2, 12
    1186:	689c           	beqz.n	a8, 11a0 <lc3plus_enc_process_frame+0x40>

00001188 <lc3plus_enc_process_frame+0x28>:
    1188:	f01d           	retw.n

0000118a <lc3plus_enc_process_frame+0x2a>:
    118a:	420c           	movi.n	a2, 4
    118c:	f01d           	retw.n

0000118e <lc3plus_enc_process_frame+0x2e>:
    118e:	00000000                                ....

00001192 <lc3plus_enc_process_frame+0x32>:
    1192:	77a182        	movi	a8, 0x177
    1195:	118880        	slli	a8, a8, 8
    1198:	049287        	bne	a2, a8, 11a0 <lc3plus_enc_process_frame+0x40>
    119b:	261722        	l16ui	a2, a7, 76
    119e:	b2ac           	beqz.n	a2, 11cd <lc3plus_enc_process_frame+0x6d>
    11a0:	2c17b2        	l16ui	a11, a7, 88
    11a3:	fbda81        	l32r	a8, 10c (1618c <LC3Plus_lc3_scratch_init>)
    11a6:	3c0c           	movi.n	a12, 3
    11a8:	0d0c           	movi.n	a13, 0
    11aa:	06ad           	mov.n	a10, a6
    11ac:	020c           	movi.n	a2, 0
    11ae:	0008e0        	callx8	a8
    11b1:	0568           	l32i.n	a6, a5, 0
    11b3:	2a97c2        	l16si	a12, a7, 84
    11b6:	0aed           	mov.n	a14, a10
    11b8:	861b           	addi.n	a8, a6, 1
    11ba:	62f860        	saltu	a15, a8, a6
    11bd:	fbd461        	l32r	a6, 110 (11490 <LC3Plus_Enc_LC3>)
    11c0:	07ad           	mov.n	a10, a7
    11c2:	03bd           	mov.n	a11, a3
    11c4:	04dd           	mov.n	a13, a4
    11c6:	0006e0        	callx8	a6
    11c9:	05a9           	s32i.n	a10, a5, 0
    11cb:	f01d           	retw.n

000011cd <lc3plus_enc_process_frame+0x6d>:
    11cd:	321c           	movi.n	a2, 19
    11cf:	f01d           	retw.n

000011d1 <lc3plus_enc_process_frame+0x71>:
    11d1:	000000                                        ...

000011d4 <lc3plus_enc_set_bandwidth>:
    11d4:	004136        	entry	a1, 32
    11d7:	521c           	movi.n	a2, 21
    11d9:	f01d           	retw.n

000011db <lc3plus_enc_set_bandwidth+0x7>:
	...

000011dc <lc3plus_enc_set_bitrate>:
    11dc:	004136        	entry	a1, 32
    11df:	f28c           	beqz.n	a2, 11f2 <lc3plus_enc_set_bitrate+0x16>
    11e1:	1113a6        	blti	a3, 1, 11f6 <lc3plus_enc_set_bitrate+0x1a>
    11e4:	fbb041        	l32r	a4, a4 (1347c <LC3Plus_update_enc_bitrate>)
    11e7:	02ad           	mov.n	a10, a2
    11e9:	03bd           	mov.n	a11, a3
    11eb:	0004e0        	callx8	a4
    11ee:	0a2d           	mov.n	a2, a10
    11f0:	f01d           	retw.n

000011f2 <lc3plus_enc_set_bitrate+0x16>:
    11f2:	d20c           	movi.n	a2, 13
    11f4:	f01d           	retw.n

000011f6 <lc3plus_enc_set_bitrate+0x1a>:
    11f6:	220c           	movi.n	a2, 2
    11f8:	f01d           	retw.n

000011fa <lc3plus_enc_set_bitrate+0x1e>:
	...

000011fc <lc3plus_enc_set_ep_mode>:
    11fc:	004136        	entry	a1, 32
    11ff:	721c           	movi.n	a2, 23
    1201:	f01d           	retw.n

00001203 <lc3plus_enc_set_ep_mode+0x7>:
	...

00001204 <lc3plus_enc_set_ep_mode_request>:
    1204:	004136        	entry	a1, 32
    1207:	721c           	movi.n	a2, 23
    1209:	f01d           	retw.n

0000120b <lc3plus_enc_set_ep_mode_request+0x7>:
	...

0000120c <lc3plus_enc_supported_hrmode>:
    120c:	004136        	entry	a1, 32
    120f:	030c           	movi.n	a3, 0
    1211:	622320        	saltu	a2, a3, a2
    1214:	f01d           	retw.n

00001216 <lc3plus_enc_supported_hrmode+0xa>:
	...

00001218 <lc3plus_enc_version>:
    1218:	004136        	entry	a1, 32
    121b:	fbbe31        	l32r	a3, 114 (10605 <LC3Plus_processResidualCoding_fx+0xf5>)
    121e:	024d           	mov.n	a4, a2
    1220:	050c           	movi.n	a5, 0
    1222:	032d           	mov.n	a2, a3
    1224:	0459           	s32i.n	a5, a4, 0
    1226:	f01d           	retw.n

00001228 <lc3plus_dec_exit>:
    1228:	004136        	entry	a1, 32
    122b:	020c           	movi.n	a2, 0
    122d:	f01d           	retw.n

0000122f <lc3plus_dec_exit+0x7>:
	...

00001230 <lc3plus_dec_get_delay>:
    1230:	004136        	entry	a1, 32
    1233:	129c           	beqz.n	a2, 1248 <lc3plus_dec_get_delay+0x18>
    1235:	159242        	l16si	a4, a2, 42
    1238:	0d92f2        	l16si	a15, a2, 26
    123b:	020c           	movi.n	a2, 0
    123d:	1144f0        	slli	a4, a4, 1
    1240:	c04f40        	sub	a4, a15, a4
    1243:	634d           	ae_s16i.n	a4, a3, 0
    1245:	f01d           	retw.n

00001247 <lc3plus_dec_get_delay+0x17>:
	...

00001248 <lc3plus_dec_get_delay+0x18>:
    1248:	d20c           	movi.n	a2, 13
    124a:	f01d           	retw.n

0000124c <lc3plus_dec_get_ep_mode_request>:
    124c:	004136        	entry	a1, 32
    124f:	721c           	movi.n	a2, 23
    1251:	f01d           	retw.n

00001253 <lc3plus_dec_get_ep_mode_request+0x7>:
	...

00001254 <lc3plus_dec_get_epok_flags>:
    1254:	004136        	entry	a1, 32
    1257:	721c           	movi.n	a2, 23
    1259:	f01d           	retw.n

0000125b <lc3plus_dec_get_epok_flags+0x7>:
	...

0000125c <lc3plus_dec_get_error_report>:
    125c:	004136        	entry	a1, 32
    125f:	721c           	movi.n	a2, 23
    1261:	f01d           	retw.n

00001263 <lc3plus_dec_get_error_report+0x7>:
	...

00001264 <lc3plus_dec_get_last_error>:
    1264:	004136        	entry	a1, 32
    1267:	628c           	beqz.n	a2, 1271 <lc3plus_dec_get_last_error+0xd>
    1269:	f228           	l32i.n	a2, a2, 60
    126b:	0329           	s32i.n	a2, a3, 0
    126d:	020c           	movi.n	a2, 0
    126f:	f01d           	retw.n

00001271 <lc3plus_dec_get_last_error+0xd>:
    1271:	d20c           	movi.n	a2, 13
    1273:	f01d           	retw.n

00001275 <lc3plus_dec_get_last_error+0x11>:
    1275:	000000                                        ...

00001278 <lc3plus_dec_get_output_samples>:
    1278:	004136        	entry	a1, 32
    127b:	728c           	beqz.n	a2, 1286 <lc3plus_dec_get_output_samples+0xe>
    127d:	0d9222        	l16si	a2, a2, 26
    1280:	0329           	s32i.n	a2, a3, 0
    1282:	020c           	movi.n	a2, 0
    1284:	f01d           	retw.n

00001286 <lc3plus_dec_get_output_samples+0xe>:
    1286:	d20c           	movi.n	a2, 13
    1288:	f01d           	retw.n

0000128a <lc3plus_dec_get_output_samples+0x12>:
	...

0000128c <lc3plus_dec_get_size>:
    128c:	004136        	entry	a1, 32
    128f:	830b           	addi.n	a8, a3, -1
    1291:	02bd           	mov.n	a11, a2
    1293:	520c           	movi.n	a2, 5
    1295:	0128b6        	bltui	a8, 2, 129a <lc3plus_dec_get_size+0xe>

00001298 <lc3plus_dec_get_size+0xc>:
    1298:	f01d           	retw.n

0000129a <lc3plus_dec_get_size+0xe>:
    129a:	921c           	movi.n	a2, 25
    129c:	0c1527        	beq	a5, a2, 12ac <lc3plus_dec_get_size+0x20>
    129f:	64a022        	movi	a2, 100
    12a2:	061527        	beq	a5, a2, 12ac <lc3plus_dec_get_size+0x20>
    12a5:	283c           	movi.n	a8, 50
    12a7:	a20c           	movi.n	a2, 10
    12a9:	eb9587        	bne	a5, a8, 1298 <lc3plus_dec_get_size+0xc>
    12ac:	043426        	beqi	a4, 3, 12b4 <lc3plus_dec_get_size+0x28>
    12af:	021c           	movi.n	a2, 16
    12b1:	fe3456        	bnez	a4, 1298 <lc3plus_dec_get_size+0xc>
    12b4:	fb6f81        	l32r	a8, 70 (bb7f <LC3Plus_FillDecSetup+0x3>)
    12b7:	321c           	movi.n	a2, 19
    12b9:	77a192        	movi	a9, 0x177
    12bc:	1428b7        	blt	a8, a11, 12d4 <lc3plus_dec_get_size+0x48>
    12bf:	7da092        	movi	a9, 125
    12c2:	119990        	slli	a9, a9, 7
    12c5:	1a1b97        	beq	a11, a9, 12e3 <lc3plus_dec_get_size+0x57>
    12c8:	7da092        	movi	a9, 125
    12cb:	119980        	slli	a9, a9, 8
    12ce:	111b97        	beq	a11, a9, 12e3 <lc3plus_dec_get_size+0x57>
    12d1:	fff0c6        	j	1298 <lc3plus_dec_get_size+0xc>

000012d4 <lc3plus_dec_get_size+0x48>:
    12d4:	119980        	slli	a9, a9, 8
    12d7:	081b97        	beq	a11, a9, 12e3 <lc3plus_dec_get_size+0x57>
    12da:	77a192        	movi	a9, 0x177
    12dd:	119990        	slli	a9, a9, 7
    12e0:	b49b97        	bne	a11, a9, 1298 <lc3plus_dec_get_size+0xc>
    12e3:	b24c           	movi.n	a2, 75
    12e5:	0f9527        	bne	a5, a2, 12f8 <lc3plus_dec_get_size+0x6c>
    12e8:	77a192        	movi	a9, 0x177
    12eb:	119980        	slli	a9, a9, 8
    12ee:	a20c           	movi.n	a2, 10
    12f0:	a41b97        	beq	a11, a9, 1298 <lc3plus_dec_get_size+0xc>
    12f3:	a20c           	movi.n	a2, 10
    12f5:	9f1626        	beqi	a6, 1, 1298 <lc3plus_dec_get_size+0xc>
    12f8:	c20c           	movi.n	a2, 12
    12fa:	0228b7        	blt	a8, a11, 1300 <lc3plus_dec_get_size+0x74>
    12fd:	f97656        	bnez	a6, 1298 <lc3plus_dec_get_size+0xc>
    1300:	77a182        	movi	a8, 0x177
    1303:	118880        	slli	a8, a8, 8
    1306:	029b87        	bne	a11, a8, 130c <lc3plus_dec_get_size+0x80>
    1309:	f8b616        	beqz	a6, 1298 <lc3plus_dec_get_size+0xc>
    130c:	020c           	movi.n	a2, 0
    130e:	9cc582        	addi	a8, a5, -100
    1311:	626260        	saltu	a6, a2, a6
    1314:	622280        	saltu	a2, a2, a8
    1317:	206260        	or	a6, a2, a6
    131a:	042466        	bnei	a4, 2, 1322 <lc3plus_dec_get_size+0x96>
    131d:	121c           	movi.n	a2, 17
    131f:	f75656        	bnez	a6, 1298 <lc3plus_dec_get_size+0xc>
    1322:	3d0c           	movi.n	a13, 3
    1324:	06cc           	bnez.n	a6, 1328 <lc3plus_dec_get_size+0x9c>
    1326:	04dd           	mov.n	a13, a4
    1328:	240b           	addi.n	a2, a4, -1
    132a:	93d420        	movnez	a13, a4, a2
    132d:	fb7a41        	l32r	a4, 118 (b898 <LC3Plus_alloc_decoder>)
    1330:	0a0c           	movi.n	a10, 0
    1332:	03cd           	mov.n	a12, a3
    1334:	05ed           	mov.n	a14, a5
    1336:	020c           	movi.n	a2, 0
    1338:	0004e0        	callx8	a4
    133b:	07a9           	s32i.n	a10, a7, 0
    133d:	f01d           	retw.n

0000133f <lc3plus_dec_get_size+0xb3>:
	...

00001340 <lc3plus_dec_supported_channels>:
    1340:	004136        	entry	a1, 32
    1343:	230c           	movi.n	a3, 2
    1345:	220b           	addi.n	a2, a2, -1
    1347:	622230        	saltu	a2, a2, a3
    134a:	f01d           	retw.n

0000134c <lc3plus_dec_supported_frame_dms>:
    134c:	004136        	entry	a1, 32
    134f:	023d           	mov.n	a3, a2
    1351:	941c           	movi.n	a4, 25
    1353:	120c           	movi.n	a2, 1
    1355:	0c1347        	beq	a3, a4, 1365 <lc3plus_dec_supported_frame_dms+0x19>
    1358:	243c           	movi.n	a4, 50
    135a:	071347        	beq	a3, a4, 1365 <lc3plus_dec_supported_frame_dms+0x19>
    135d:	64a042        	movi	a4, 100
    1360:	011347        	beq	a3, a4, 1365 <lc3plus_dec_supported_frame_dms+0x19>
    1363:	020c           	movi.n	a2, 0

00001365 <lc3plus_dec_supported_frame_dms+0x19>:
    1365:	f01d           	retw.n

00001367 <lc3plus_dec_supported_frame_dms+0x1b>:
	...

00001368 <lc3_dec_supported_plc_method>:
    1368:	004136        	entry	a1, 32
    136b:	023d           	mov.n	a3, a2
    136d:	120c           	movi.n	a2, 1
    136f:	138c           	beqz.n	a3, 1374 <lc3_dec_supported_plc_method+0xc>
    1371:	013366        	bnei	a3, 3, 1376 <lc3_dec_supported_plc_method+0xe>

00001374 <lc3_dec_supported_plc_method+0xc>:
    1374:	f01d           	retw.n

00001376 <lc3_dec_supported_plc_method+0xe>:
    1376:	020c           	movi.n	a2, 0
    1378:	f01d           	retw.n

0000137a <lc3_dec_supported_plc_method+0x12>:
	...

0000137c <lc3plus_dec_supported_samplerate>:
    137c:	004136        	entry	a1, 32
    137f:	fb3c41        	l32r	a4, 70 (bb7f <LC3Plus_FillDecSetup+0x3>)
    1382:	023d           	mov.n	a3, a2
    1384:	120c           	movi.n	a2, 1
    1386:	132437        	blt	a4, a3, 139d <lc3plus_dec_supported_samplerate+0x21>
    1389:	7da042        	movi	a4, 125
    138c:	114490        	slli	a4, a4, 7
    138f:	081347        	beq	a3, a4, 139b <lc3plus_dec_supported_samplerate+0x1f>
    1392:	7da042        	movi	a4, 125
    1395:	114480        	slli	a4, a4, 8
    1398:	139347        	bne	a3, a4, 13af <lc3plus_dec_supported_samplerate+0x33>

0000139b <lc3plus_dec_supported_samplerate+0x1f>:
    139b:	f01d           	retw.n

0000139d <lc3plus_dec_supported_samplerate+0x21>:
    139d:	77a142        	movi	a4, 0x177
    13a0:	114490        	slli	a4, a4, 7
    13a3:	f41347        	beq	a3, a4, 139b <lc3plus_dec_supported_samplerate+0x1f>
    13a6:	77a142        	movi	a4, 0x177
    13a9:	114480        	slli	a4, a4, 8
    13ac:	eb1347        	beq	a3, a4, 139b <lc3plus_dec_supported_samplerate+0x1f>
    13af:	020c           	movi.n	a2, 0
    13b1:	f01d           	retw.n

000013b3 <lc3plus_dec_supported_samplerate+0x37>:
	...

000013b4 <lc3plus_dec_init>:
    13b4:	008136        	entry	a1, 64
    13b7:	02ac           	beqz.n	a2, 13db <lc3plus_dec_init+0x27>
    13b9:	1121e2        	l32i	a14, a1, 68
    13bc:	02cd           	mov.n	a12, a2
    13be:	081c           	movi.n	a8, 16
    13c0:	f0ce22        	addi	a2, a14, -16
    13c3:	07fd           	mov.n	a15, a7
    13c5:	067d           	mov.n	a7, a6
    13c7:	4b3827        	bltu	a8, a2, 1416 <lc3plus_dec_init+0x62>
    13ca:	fb4c81        	l32r	a8, fc (10101 <LC3Plus_processQuantizeSpec_fx+0x629>)
    13cd:	640b           	addi.n	a6, a4, -1
    13cf:	435827        	bbc	a8, a2, 1416 <lc3plus_dec_init+0x62>
    13d2:	0a26b6        	bltui	a6, 2, 13e0 <lc3plus_dec_init+0x2c>
    13d5:	520c           	movi.n	a2, 5
    13d7:	fc29           	s32i.n	a2, a12, 60
    13d9:	f01d           	retw.n

000013db <lc3plus_dec_init+0x27>:
    13db:	d20c           	movi.n	a2, 13
    13dd:	f01d           	retw.n

000013df <lc3plus_dec_init+0x2b>:
	...

000013e0 <lc3plus_dec_init+0x2c>:
    13e0:	921c           	movi.n	a2, 25
    13e2:	0a1727        	beq	a7, a2, 13f0 <lc3plus_dec_init+0x3c>
    13e5:	223c           	movi.n	a2, 50
    13e7:	051727        	beq	a7, a2, 13f0 <lc3plus_dec_init+0x3c>
    13ea:	64a022        	movi	a2, 100
    13ed:	659727        	bne	a7, a2, 1456 <lc3plus_dec_init+0xa2>
    13f0:	158c           	beqz.n	a5, 13f5 <lc3plus_dec_init+0x41>
    13f2:	263566        	bnei	a5, 3, 141c <lc3plus_dec_init+0x68>
    13f5:	fb1e81        	l32r	a8, 70 (bb7f <LC3Plus_FillDecSetup+0x3>)
    13f8:	77a122        	movi	a2, 0x177
    13fb:	112290        	slli	a2, a2, 7
    13fe:	202837        	blt	a8, a3, 1422 <lc3plus_dec_init+0x6e>
    1401:	7da022        	movi	a2, 125
    1404:	112290        	slli	a2, a2, 7
    1407:	231327        	beq	a3, a2, 142e <lc3plus_dec_init+0x7a>
    140a:	7da022        	movi	a2, 125
    140d:	112280        	slli	a2, a2, 8
    1410:	1a1327        	beq	a3, a2, 142e <lc3plus_dec_init+0x7a>
    1413:	001146        	j	145c <lc3plus_dec_init+0xa8>

00001416 <lc3plus_dec_init+0x62>:
    1416:	920c           	movi.n	a2, 9
    1418:	fc29           	s32i.n	a2, a12, 60
    141a:	f01d           	retw.n

0000141c <lc3plus_dec_init+0x68>:
    141c:	021c           	movi.n	a2, 16
    141e:	fc29           	s32i.n	a2, a12, 60
    1420:	f01d           	retw.n

00001422 <lc3plus_dec_init+0x6e>:
    1422:	081327        	beq	a3, a2, 142e <lc3plus_dec_init+0x7a>
    1425:	77a122        	movi	a2, 0x177
    1428:	112280        	slli	a2, a2, 8
    142b:	2d9327        	bne	a3, a2, 145c <lc3plus_dec_init+0xa8>
    142e:	b24c           	movi.n	a2, 75
    1430:	0b9727        	bne	a7, a2, 143f <lc3plus_dec_init+0x8b>
    1433:	77a122        	movi	a2, 0x177
    1436:	112280        	slli	a2, a2, 8
    1439:	191327        	beq	a3, a2, 1456 <lc3plus_dec_init+0xa2>
    143c:	161f26        	beqi	a15, 1, 1456 <lc3plus_dec_init+0xa2>
    143f:	022837        	blt	a8, a3, 1445 <lc3plus_dec_init+0x91>
    1442:	00af56        	bnez	a15, 1450 <lc3plus_dec_init+0x9c>
    1445:	77a192        	movi	a9, 0x177
    1448:	119980        	slli	a9, a9, 8
    144b:	139397        	bne	a3, a9, 1462 <lc3plus_dec_init+0xae>
    144e:	0fdc           	bnez.n	a15, 1462 <lc3plus_dec_init+0xae>
    1450:	c20c           	movi.n	a2, 12
    1452:	fc29           	s32i.n	a2, a12, 60
    1454:	f01d           	retw.n

00001456 <lc3plus_dec_init+0xa2>:
    1456:	a20c           	movi.n	a2, 10
    1458:	fc29           	s32i.n	a2, a12, 60
    145a:	f01d           	retw.n

0000145c <lc3plus_dec_init+0xa8>:
    145c:	321c           	movi.n	a2, 19
    145e:	fc29           	s32i.n	a2, a12, 60
    1460:	f01d           	retw.n

00001462 <lc3plus_dec_init+0xae>:
    1462:	052566        	bnei	a5, 2, 146b <lc3plus_dec_init+0xb7>
    1465:	64a022        	movi	a2, 100
    1468:	049727        	bne	a7, a2, 1470 <lc3plus_dec_init+0xbc>
    146b:	092566        	bnei	a5, 2, 1478 <lc3plus_dec_init+0xc4>
    146e:	6f8c           	beqz.n	a15, 1478 <lc3plus_dec_init+0xc4>
    1470:	121c           	movi.n	a2, 17
    1472:	fc29           	s32i.n	a2, a12, 60
    1474:	f01d           	retw.n

00001476 <lc3plus_dec_init+0xc2>:
	...

00001478 <lc3plus_dec_init+0xc4>:
    1478:	102122        	l32i	a2, a1, 64
    147b:	9cc762        	addi	a6, a7, -100
    147e:	0a0c           	movi.n	a10, 0
    1480:	528c           	beqz.n	a2, 1489 <lc3plus_dec_init+0xd5>
    1482:	721c           	movi.n	a2, 23
    1484:	fc29           	s32i.n	a2, a12, 60
    1486:	f01d           	retw.n

00001488 <lc3plus_dec_init+0xd4>:
	...

00001489 <lc3plus_dec_init+0xd5>:
    1489:	622a60        	saltu	a2, a10, a6
    148c:	62aaf0        	saltu	a10, a10, a15
    148f:	20a2a0        	or	a10, a2, a10
    1492:	3d0c           	movi.n	a13, 3
    1494:	0acc           	bnez.n	a10, 1498 <lc3plus_dec_init+0xe4>
    1496:	05dd           	mov.n	a13, a5
    1498:	921c           	movi.n	a2, 25
    149a:	0f1727        	beq	a7, a2, 14ad <lc3plus_dec_init+0xf9>
    149d:	64a022        	movi	a2, 100
    14a0:	091727        	beq	a7, a2, 14ad <lc3plus_dec_init+0xf9>
    14a3:	2b3c           	movi.n	a11, 50
    14a5:	a20c           	movi.n	a2, 10
    14a7:	0217b7        	beq	a7, a11, 14ad <lc3plus_dec_init+0xf9>
    14aa:	003bc6        	j	159d <lc3plus_dec_init+0x1e9>
    14ad:	043526        	beqi	a5, 3, 14b5 <lc3plus_dec_init+0x101>
    14b0:	021c           	movi.n	a2, 16
    14b2:	0e7556        	bnez	a5, 159d <lc3plus_dec_init+0x1e9>
    14b5:	321c           	movi.n	a2, 19
    14b7:	162837        	blt	a8, a3, 14d1 <lc3plus_dec_init+0x11d>
    14ba:	7da082        	movi	a8, 125
    14bd:	118890        	slli	a8, a8, 7
    14c0:	1c1387        	beq	a3, a8, 14e0 <lc3plus_dec_init+0x12c>
    14c3:	7da082        	movi	a8, 125
    14c6:	118880        	slli	a8, a8, 8
    14c9:	131387        	beq	a3, a8, 14e0 <lc3plus_dec_init+0x12c>
    14cc:	003346        	j	159d <lc3plus_dec_init+0x1e9>

000014cf <lc3plus_dec_init+0x11b>:
	...

000014d1 <lc3plus_dec_init+0x11d>:
    14d1:	0b1397        	beq	a3, a9, 14e0 <lc3plus_dec_init+0x12c>
    14d4:	77a182        	movi	a8, 0x177
    14d7:	118890        	slli	a8, a8, 7
    14da:	021387        	beq	a3, a8, 14e0 <lc3plus_dec_init+0x12c>
    14dd:	002f06        	j	159d <lc3plus_dec_init+0x1e9>
    14e0:	b24c           	movi.n	a2, 75
    14e2:	180c           	movi.n	a8, 1
    14e4:	129727        	bne	a7, a2, 14fa <lc3plus_dec_init+0x146>
    14e7:	c02390        	sub	a2, a3, a9
    14ea:	bf0b           	addi.n	a11, a15, -1
    14ec:	622280        	saltu	a2, a2, a8
    14ef:	629b80        	saltu	a9, a11, a8
    14f2:	209290        	or	a9, a2, a9
    14f5:	a20c           	movi.n	a2, 10
    14f7:	0a2956        	bnez	a9, 159d <lc3plus_dec_init+0x1e9>
    14fa:	fec522        	addi	a2, a5, -2
    14fd:	622280        	saltu	a2, a2, a8
    1500:	1082a0        	and	a8, a2, a10
    1503:	121c           	movi.n	a2, 17
    1505:	094856        	bnez	a8, 159d <lc3plus_dec_init+0x1e9>
    1508:	250b           	addi.n	a2, a5, -1
    150a:	fb0381        	l32r	a8, 118 (b898 <LC3Plus_alloc_decoder>)
    150d:	93d520        	movnez	a13, a5, a2
    1510:	0c5d           	mov.n	a5, a12
    1512:	61e9           	s32i.n	a14, a1, 24
    1514:	0a0c           	movi.n	a10, 0
    1516:	03bd           	mov.n	a11, a3
    1518:	04cd           	mov.n	a12, a4
    151a:	07ed           	mov.n	a14, a7
    151c:	51f9           	s32i.n	a15, a1, 20
    151e:	0d2d           	mov.n	a2, a13
    1520:	0008e0        	callx8	a8
    1523:	faf881        	l32r	a8, 104 (7c0 <memset>)
    1526:	0acd           	mov.n	a12, a10
    1528:	0b0c           	movi.n	a11, 0
    152a:	05ad           	mov.n	a10, a5
    152c:	41c9           	s32i.n	a12, a1, 16
    152e:	0008e0        	callx8	a8
    1531:	6188           	l32i.n	a8, a1, 24
    1533:	fafa91        	l32r	a9, 11c (bb7c <LC3Plus_FillDecSetup>)
    1536:	1189           	s32i.n	a8, a1, 4
    1538:	5188           	l32i.n	a8, a1, 20
    153a:	0f0c           	movi.n	a15, 0
    153c:	05ad           	mov.n	a10, a5
    153e:	03bd           	mov.n	a11, a3
    1540:	04cd           	mov.n	a12, a4
    1542:	02dd           	mov.n	a13, a2
    1544:	07ed           	mov.n	a14, a7
    1546:	0189           	s32i.n	a8, a1, 0
    1548:	0009e0        	callx8	a9
    154b:	61e8           	l32i.n	a14, a1, 24
    154d:	04fd           	mov.n	a15, a4
    154f:	024d           	mov.n	a4, a2
    1551:	0a2d           	mov.n	a2, a10
    1553:	046a56        	bnez	a10, 159d <lc3plus_dec_init+0x1e9>
    1556:	122162        	l32i	a6, a1, 72
    1559:	020c           	movi.n	a2, 0
    155b:	41c8           	l32i.n	a12, a1, 16
    155d:	0629           	s32i.n	a2, a6, 0
    155f:	7169           	s32i.n	a6, a1, 28
    1561:	046d           	mov.n	a6, a4
    1563:	fae841        	l32r	a4, 104 (7c0 <memset>)
    1566:	0b0c           	movi.n	a11, 0
    1568:	05ad           	mov.n	a10, a5
    156a:	4139           	s32i.n	a3, a1, 16
    156c:	0e3d           	mov.n	a3, a14
    156e:	0f2d           	mov.n	a2, a15
    1570:	0004e0        	callx8	a4
    1573:	02cd           	mov.n	a12, a2
    1575:	41b8           	l32i.n	a11, a1, 16
    1577:	fae921        	l32r	a2, 11c (bb7c <LC3Plus_FillDecSetup>)
    157a:	0f0c           	movi.n	a15, 0
    157c:	05ad           	mov.n	a10, a5
    157e:	06dd           	mov.n	a13, a6
    1580:	07ed           	mov.n	a14, a7
    1582:	5198           	l32i.n	a9, a1, 20
    1584:	1139           	s32i.n	a3, a1, 4
    1586:	0199           	s32i.n	a9, a1, 0
    1588:	0002e0        	callx8	a2
    158b:	0a2d           	mov.n	a2, a10
    158d:	cacc           	bnez.n	a10, 159d <lc3plus_dec_init+0x1e9>
    158f:	7128           	l32i.n	a2, a1, 28
    1591:	1f0c           	movi.n	a15, 1
    1593:	2455f2        	s16i	a15, a5, 72
    1596:	0228           	l32i.n	a2, a2, 0
    1598:	255522        	s16i	a2, a5, 74
    159b:	020c           	movi.n	a2, 0
    159d:	f01d           	retw.n

0000159f <lc3plus_dec_init+0x1eb>:
	...

000015a0 <lc3plus_dec_supported_bitdepth>:
    15a0:	004136        	entry	a1, 32
    15a3:	f0c232        	addi	a3, a2, -16
    15a6:	041c           	movi.n	a4, 16
    15a8:	093437        	bltu	a4, a3, 15b5 <lc3plus_dec_supported_bitdepth+0x15>
    15ab:	fad441        	l32r	a4, fc (10101 <LC3Plus_processQuantizeSpec_fx+0x629>)
    15ae:	120c           	movi.n	a2, 1
    15b0:	015437        	bbc	a4, a3, 15b5 <lc3plus_dec_supported_bitdepth+0x15>
    15b3:	f01d           	retw.n

000015b5 <lc3plus_dec_supported_bitdepth+0x15>:
    15b5:	020c           	movi.n	a2, 0
    15b7:	f01d           	retw.n

000015b9 <lc3plus_dec_supported_bitdepth+0x19>:
    15b9:	000000                                        ...

000015bc <lc3plus_dec_process_frame>:
    15bc:	006136        	entry	a1, 48
    15bf:	92bc           	beqz.n	a2, 15fc <lc3plus_dec_process_frame+0x40>
    15c1:	180c           	movi.n	a8, 1
    15c3:	0f0c           	movi.n	a15, 0
    15c5:	628380        	saltu	a8, a3, a8
    15c8:	629f40        	saltu	a9, a15, a4
    15cb:	02ad           	mov.n	a10, a2
    15cd:	108890        	and	a8, a8, a9
    15d0:	f2f9           	s32i.n	a15, a2, 60
    15d2:	a8ec           	bnez.n	a8, 1600 <lc3plus_dec_process_frame+0x44>
    15d4:	86ac           	beqz.n	a6, 1600 <lc3plus_dec_process_frame+0x44>
    15d6:	67ac           	beqz.n	a7, 1600 <lc3plus_dec_process_frame+0x44>
    15d8:	02a496        	bltz	a4, 1606 <lc3plus_dec_process_frame+0x4a>
    15db:	942d           	ae_zext16	a2, a4
    15dd:	e3a482        	movi	a8, 0x4e3
    15e0:	22b287        	bgeu	a2, a8, 1606 <lc3plus_dec_process_frame+0x4a>
    15e3:	5a28           	l32i.n	a2, a10, 20
    15e5:	faa281        	l32r	a8, 70 (bb7f <LC3Plus_FillDecSetup+0x3>)
    15e8:	77a192        	movi	a9, 0x177
    15eb:	11b980        	slli	a11, a9, 8
    15ee:	1a2827        	blt	a8, a2, 160c <lc3plus_dec_process_frame+0x50>
    15f1:	201a22        	l16ui	a2, a10, 64
    15f4:	c29c           	beqz.n	a2, 1614 <lc3plus_dec_process_frame+0x58>
    15f6:	c20c           	movi.n	a2, 12
    15f8:	fa29           	s32i.n	a2, a10, 60
    15fa:	f01d           	retw.n

000015fc <lc3plus_dec_process_frame+0x40>:
    15fc:	d20c           	movi.n	a2, 13
    15fe:	f01d           	retw.n

00001600 <lc3plus_dec_process_frame+0x44>:
    1600:	d20c           	movi.n	a2, 13
    1602:	fa29           	s32i.n	a2, a10, 60
    1604:	f01d           	retw.n

00001606 <lc3plus_dec_process_frame+0x4a>:
    1606:	b20c           	movi.n	a2, 11
    1608:	fa29           	s32i.n	a2, a10, 60
    160a:	f01d           	retw.n

0000160c <lc3plus_dec_process_frame+0x50>:
    160c:	0492b7        	bne	a2, a11, 1614 <lc3plus_dec_process_frame+0x58>
    160f:	201a22        	l16ui	a2, a10, 64
    1612:	32bc           	beqz.n	a2, 1649 <lc3plus_dec_process_frame+0x8d>
    1614:	fdc582        	addi	a8, a5, -3
    1617:	120c           	movi.n	a2, 1
    1619:	832580        	moveqz	a2, a5, a8
    161c:	251ab2        	l16ui	a11, a10, 74
    161f:	fabb81        	l32r	a8, 10c (1618c <LC3Plus_lc3_scratch_init>)
    1622:	832550        	moveqz	a2, a5, a5
    1625:	0a5d           	mov.n	a5, a10
    1627:	3c0c           	movi.n	a12, 3
    1629:	0d0c           	movi.n	a13, 0
    162b:	07ad           	mov.n	a10, a7
    162d:	0008e0        	callx8	a8
    1630:	2395e2        	l16si	a14, a5, 70
    1633:	fabb71        	l32r	a7, 120 (a910 <LC3Plus_Dec_LC3>)
    1636:	0afd           	mov.n	a15, a10
    1638:	05ad           	mov.n	a10, a5
    163a:	03bd           	mov.n	a11, a3
    163c:	04cd           	mov.n	a12, a4
    163e:	06dd           	mov.n	a13, a6
    1640:	0129           	s32i.n	a2, a1, 0
    1642:	0007e0        	callx8	a7
    1645:	0a2d           	mov.n	a2, a10
    1647:	f01d           	retw.n

00001649 <lc3plus_dec_process_frame+0x8d>:
    1649:	321c           	movi.n	a2, 19
    164b:	fa29           	s32i.n	a2, a10, 60
    164d:	f01d           	retw.n

0000164f <lc3plus_dec_process_frame+0x93>:
	...

00001650 <lc3plus_dec_supported_hrmode>:
    1650:	004136        	entry	a1, 32
    1653:	030c           	movi.n	a3, 0
    1655:	622320        	saltu	a2, a3, a2
    1658:	f01d           	retw.n

0000165a <lc3plus_dec_supported_hrmode+0xa>:
	...

0000165c <lc3plus_dec_version>:
    165c:	004136        	entry	a1, 32
    165f:	faad31        	l32r	a3, 114 (10605 <LC3Plus_processResidualCoding_fx+0xf5>)
    1662:	024d           	mov.n	a4, a2
    1664:	050c           	movi.n	a5, 0
    1666:	032d           	mov.n	a2, a3
    1668:	0459           	s32i.n	a5, a4, 0
    166a:	f01d           	retw.n

0000166c <lc3plus_dec_version+0x10>:
    166c:	00000000                                ....

00001670 <LC3Plus_BASOP_Util_Log2>:
    1670:	004136        	entry	a1, 32
    1673:	090226        	beqi	a2, -1, 1680 <LC3Plus_BASOP_Util_Log2+0x10>
    1676:	22dc           	bnez.n	a2, 168c <LC3Plus_BASOP_Util_Log2+0x1c>
    1678:	f27c           	movi.n	a2, -1
    167a:	012210        	slli	a2, a2, 31
    167d:	f01d           	retw.n

0000167f <LC3Plus_BASOP_Util_Log2+0xf>:
	...

00001680 <LC3Plus_BASOP_Util_Log2+0x10>:
    1680:	f21c           	movi.n	a2, 31
    1682:	f37c           	movi.n	a3, -1
    1684:	012270        	slli	a2, a2, 25
    1687:	000b86        	j	16b9 <LC3Plus_BASOP_Util_Log2+0x49>

0000168a <LC3Plus_BASOP_Util_Log2+0x1a>:
	...

0000168c <LC3Plus_BASOP_Util_Log2+0x1c>:
    168c:	313f20        	srai	a3, a2, 31
    168f:	303320        	xor	a3, a3, a2
    1692:	40f330        	nsau	a3, a3
    1695:	140c           	movi.n	a4, 1
    1697:	c04430        	sub	a4, a4, a3
    169a:	400400        	ssr	a4
    169d:	530b           	addi.n	a5, a3, -1
    169f:	b14020        	sra	a4, a2
    16a2:	401500        	ssl	a5
    16a5:	a16200        	sll	a6, a2
    16a8:	ff7c           	movi.n	a15, -1
    16aa:	836430        	moveqz	a6, a4, a3
    16ad:	4131f0        	srli	a3, a15, 1
    16b0:	c03360        	sub	a3, a3, a6
    16b3:	012570        	slli	a2, a5, 25
    16b6:	313030        	srai	a3, a3, 16

000016b9 <LC3Plus_BASOP_Util_Log2+0x49>:
    16b9:	300334        	ae_cvtp24a16x2.ll	aep0, a3, a3
    16bc:	ea0340aa4f 	{ movi	a4, 170; ae_mulfs32p16s.ll	aeq1, aep0, aep0 }
    16c1:	fa98f1        	l32r	a15, 124 (18160 <LC3Plus_ldCoeff>)
    16c4:	099d24        	ae_truncp24q48x2	aep2, aeq1, aeq1
    16c7:	0922a4        	ae_truncp16	aep2, aep2
    16ca:	eb0b6d9f0f 	{ ae_lp16x2f.iu	aep1, a15, 0; ae_mulfs32p16s.ll	aeq3, aep2, aep0 }
    16cf:	e820adef1f 	{ ae_lp16x2f.iu	aep6, a15, 4; ae_mulfp24s.hh	aeq0, aep0, aep1 }
    16d4:	fade6dcf1f 	{ ae_lp16x2f.iu	aep4, a15, 4; ae_truncp24q48x2	aep5, aeq3, aeq3 }
    16d9:	012134        	ae_mulafp24s.ll	aeq0, aep2, aep1
    16dc:	095294        	ae_truncp16	aep1, aep5
    16df:	009074        	ae_mulfs32p16s.ll	aeq2, aep1, aep0
    16e2:	011604        	ae_mulafp24s.hh	aeq0, aep1, aep6
    16e5:	09ae74        	ae_truncp24q48x2	aep7, aeq2, aeq2
    16e8:	097294        	ae_truncp16	aep1, aep7
    16eb:	009874        	ae_mulfs32p16s.ll	aeq3, aep1, aep0
    16ee:	e2c7adef1f 	{ ae_lp16x2f.iu	aep6, a15, 4; ae_mulafp24s.ll	aeq0, aep1, aep6 }
    16f3:	09bf34        	ae_truncp24q48x2	aep3, aeq3, aeq3
    16f6:	093294        	ae_truncp16	aep1, aep3
    16f9:	009074        	ae_mulfs32p16s.ll	aeq2, aep1, aep0
    16fc:	011404        	ae_mulafp24s.hh	aeq0, aep1, aep4
    16ff:	09ae54        	ae_truncp24q48x2	aep5, aeq2, aeq2
    1702:	095294        	ae_truncp16	aep1, aep5
    1705:	009874        	ae_mulfs32p16s.ll	aeq3, aep1, aep0
    1708:	011434        	ae_mulafp24s.ll	aeq0, aep1, aep4
    170b:	09bf04        	ae_truncp24q48x2	aep0, aeq3, aeq3
    170e:	090284        	ae_truncp16	aep0, aep0
    1711:	010604        	ae_mulafp24s.hh	aeq0, aep0, aep6
    1714:	38d442        	addmi	a4, a4, 0x3800
    1717:	f84258f44f 	{ ae_cvtp24a16x2.ll	aep7, a4, a4; ae_truncp24q48x2	aep1, aeq0, aeq0 }
    171c:	f8c7fb001f 	{ ae_sraiq56	aeq0, aeq0, 1; ae_truncp16	aep1, aep1 }
    1721:	021704        	ae_mulap24s.hh	aeq0, aep1, aep7
    1724:	368304        	ae_trunca32q48	a3, aeq0
    1727:	213530        	srai	a3, a3, 5
    172a:	c02320        	sub	a2, a3, a2
    172d:	f01d           	retw.n

0000172f <LC3Plus_BASOP_Util_Log2+0xbf>:
	...

00001730 <LC3Plus_BASOP_Util_InvLog2>:
    1730:	004136        	entry	a1, 32
    1733:	146c           	movi.n	a4, -31
    1735:	023d           	mov.n	a3, a2
    1737:	014470        	slli	a4, a4, 25
    173a:	00a022        	movi	a2, 0
    173d:	03a347        	bge	a3, a4, 1744 <LC3Plus_BASOP_Util_InvLog2+0x14>

00001740 <LC3Plus_BASOP_Util_InvLog2+0x10>:
    1740:	f01d           	retw.n

00001742 <LC3Plus_BASOP_Util_InvLog2+0x12>:
	...

00001744 <LC3Plus_BASOP_Util_InvLog2+0x14>:
    1744:	fa7921        	l32r	a2, 128 (3dffffff <_end+0x3dfd1027>)
    1747:	fa7951        	l32r	a5, 12c (18280 <LC3Plus_exp2x_tab_long>)
    174a:	fa7961        	l32r	a6, 130 (16302f <_end+0x134057>)
    174d:	07a237        	bge	a2, a3, 1758 <LC3Plus_BASOP_Util_InvLog2+0x28>
    1750:	120c           	movi.n	a2, 1
    1752:	012220        	slli	a2, a2, 30
    1755:	f01d           	retw.n

00001757 <LC3Plus_BASOP_Util_InvLog2+0x27>:
	...

00001758 <LC3Plus_BASOP_Util_InvLog2+0x28>:
    1758:	061316        	beqz	a3, 17bd <LC3Plus_BASOP_Util_InvLog2+0x8d>
    175b:	fa76b1        	l32r	a11, 134 (18180 <LC3Plus_exp2_tab_long>)
    175e:	fa76c1        	l32r	a12, 138 (18200 <LC3Plus_exp2w_tab_long>)
    1761:	942030        	extui	a2, a3, 0, 10
    1764:	444a30        	extui	a4, a3, 10, 5
    1767:	457430        	extui	a7, a3, 20, 5
    176a:	44df30        	extui	a13, a3, 15, 5
    176d:	a04450        	addx4	a4, a4, a5
    1770:	822260        	mull	a2, a2, a6
    1773:	a057b0        	addx4	a5, a7, a11
    1776:	a06dc0        	addx4	a6, a13, a12
    1779:	0558           	l32i.n	a5, a5, 0
    177b:	0668           	l32i.n	a6, a6, 0
    177d:	0448           	l32i.n	a4, a4, 0
    177f:	f52020        	extui	a2, a2, 16, 16
    1782:	82e560        	mull	a14, a5, a6
    1785:	b25560        	mulsh	a5, a5, a6
    1788:	242a           	add.n	a2, a4, a2
    178a:	054fe0        	extui	a4, a14, 31, 1
    178d:	904540        	addx2	a4, a5, a4
    1790:	825420        	mull	a5, a4, a2
    1793:	b22420        	mulsh	a2, a4, a2
    1796:	05ff50        	extui	a15, a5, 31, 1
    1799:	9022f0        	addx2	a2, a2, a15
    179c:	a013e6        	bgei	a3, 1, 1740 <LC3Plus_BASOP_Util_InvLog2+0x10>
    179f:	313930        	srai	a3, a3, 25
    17a2:	d47c           	movi.n	a4, -3
    17a4:	633b           	addi.n	a6, a3, 3
    17a6:	c05430        	sub	a5, a4, a3
    17a9:	401600        	ssl	a6
    17ac:	a1f200        	sll	a15, a2
    17af:	400500        	ssr	a5
    17b2:	723430        	salt	a3, a4, a3
    17b5:	b12020        	sra	a2, a2
    17b8:	932f30        	movnez	a2, a15, a3
    17bb:	f01d           	retw.n

000017bd <LC3Plus_BASOP_Util_InvLog2+0x8d>:
    17bd:	120c           	movi.n	a2, 1
    17bf:	012240        	slli	a2, a2, 28
    17c2:	f01d           	retw.n

000017c4 <LC3Plus_BASOP_Util_InvLog2_pos>:
    17c4:	004136        	entry	a1, 32
    17c7:	fa5df1        	l32r	a15, 13c (c1ffffff <_end+0xc1fd1027>)
    17ca:	024d           	mov.n	a4, a2
    17cc:	f51c           	movi.n	a5, 31
    17ce:	062f27        	blt	a15, a2, 17d8 <LC3Plus_BASOP_Util_InvLog2_pos+0x14>
    17d1:	020c           	movi.n	a2, 0
    17d3:	632d           	ae_s16i.n	a2, a3, 0
    17d5:	f01d           	retw.n

000017d7 <LC3Plus_BASOP_Util_InvLog2_pos+0x13>:
	...

000017d8 <LC3Plus_BASOP_Util_InvLog2_pos+0x14>:
    17d8:	012570        	slli	a2, a5, 25
    17db:	0a2427        	blt	a4, a2, 17e9 <LC3Plus_BASOP_Util_InvLog2_pos+0x25>
    17de:	f21c           	movi.n	a2, 31
    17e0:	1f0c           	movi.n	a15, 1
    17e2:	632d           	ae_s16i.n	a2, a3, 0
    17e4:	012f20        	slli	a2, a15, 30
    17e7:	f01d           	retw.n

000017e9 <LC3Plus_BASOP_Util_InvLog2_pos+0x25>:
    17e9:	053416        	beqz	a4, 1840 <LC3Plus_BASOP_Util_InvLog2_pos+0x7c>
    17ec:	fa5171        	l32r	a7, 130 (16302f <_end+0x134057>)
    17ef:	fa51b1        	l32r	a11, 134 (18180 <LC3Plus_exp2_tab_long>)
    17f2:	fa51c1        	l32r	a12, 138 (18200 <LC3Plus_exp2w_tab_long>)
    17f5:	942040        	extui	a2, a4, 0, 10
    17f8:	458440        	extui	a8, a4, 20, 5
    17fb:	fa4c61        	l32r	a6, 12c (18280 <LC3Plus_exp2x_tab_long>)
    17fe:	44df40        	extui	a13, a4, 15, 5
    1801:	822270        	mull	a2, a2, a7
    1804:	a088b0        	addx4	a8, a8, a11
    1807:	a07dc0        	addx4	a7, a13, a12
    180a:	445a40        	extui	a5, a4, 10, 5
    180d:	0888           	l32i.n	a8, a8, 0
    180f:	0778           	l32i.n	a7, a7, 0
    1811:	a06560        	addx4	a6, a5, a6
    1814:	0668           	l32i.n	a6, a6, 0
    1816:	82e870        	mull	a14, a8, a7
    1819:	f52020        	extui	a2, a2, 16, 16
    181c:	b27870        	mulsh	a7, a8, a7
    181f:	262a           	add.n	a2, a6, a2
    1821:	056fe0        	extui	a6, a14, 31, 1
    1824:	906760        	addx2	a6, a7, a6
    1827:	827620        	mull	a7, a6, a2
    182a:	b22620        	mulsh	a2, a6, a2
    182d:	05ff70        	extui	a15, a7, 31, 1
    1830:	315940        	srai	a5, a4, 25
    1833:	9022f0        	addx2	a2, a2, a15
    1836:	1414a6        	blti	a4, 1, 184e <LC3Plus_BASOP_Util_InvLog2_pos+0x8a>
    1839:	453b           	addi.n	a4, a5, 3
    183b:	634d           	ae_s16i.n	a4, a3, 0
    183d:	f01d           	retw.n

0000183f <LC3Plus_BASOP_Util_InvLog2_pos+0x7b>:
	...

00001840 <LC3Plus_BASOP_Util_InvLog2_pos+0x7c>:
    1840:	f27c           	movi.n	a2, -1
    1842:	f42020        	extui	a2, a2, 0, 16
    1845:	1f0c           	movi.n	a15, 1
    1847:	632d           	ae_s16i.n	a2, a3, 0
    1849:	012f40        	slli	a2, a15, 28
    184c:	f01d           	retw.n

0000184e <LC3Plus_BASOP_Util_InvLog2_pos+0x8a>:
    184e:	d67c           	movi.n	a6, -3
    1850:	c53b           	addi.n	a12, a5, 3
    1852:	401c00        	ssl	a12
    1855:	c0d650        	sub	a13, a6, a5
    1858:	a1f200        	sll	a15, a2
    185b:	400d00        	ssr	a13
    185e:	040c           	movi.n	a4, 0
    1860:	72e650        	salt	a14, a6, a5
    1863:	b12020        	sra	a2, a2
    1866:	634d           	ae_s16i.n	a4, a3, 0
    1868:	932fe0        	movnez	a2, a15, a14
    186b:	f01d           	retw.n

0000186d <LC3Plus_BASOP_Util_InvLog2_pos+0xa9>:
    186d:	000000                                        ...

00001870 <LC3Plus_Sqrt16>:
    1870:	004136        	entry	a1, 32
    1873:	728c           	beqz.n	a2, 187e <LC3Plus_Sqrt16+0xe>
    1875:	0f0266        	bnei	a2, -1, 1888 <LC3Plus_Sqrt16+0x18>
    1878:	f50c           	movi.n	a5, 15
    187a:	000086        	j	1880 <LC3Plus_Sqrt16+0x10>

0000187d <LC3Plus_Sqrt16+0xd>:
	...

0000187e <LC3Plus_Sqrt16+0xe>:
    187e:	050c           	movi.n	a5, 0
    1880:	234d           	ae_l16si.n	a4, a3, 0
    1882:	c04450        	sub	a4, a4, a5
    1885:	000a06        	j	18b1 <LC3Plus_Sqrt16+0x41>

00001888 <LC3Plus_Sqrt16+0x18>:
    1888:	214f20        	srai	a4, a2, 15
    188b:	304420        	xor	a4, a4, a2
    188e:	236d           	ae_l16si.n	a6, a3, 0
    1890:	40f480        	nsau	a8, a4
    1893:	efc852        	addi	a5, a8, -17
    1896:	071c           	movi.n	a7, 16
    1898:	c04650        	sub	a4, a6, a5
    189b:	123787        	bltu	a7, a8, 18b1 <LC3Plus_Sqrt16+0x41>
    189e:	605050        	neg	a5, a5
    18a1:	400500        	ssr	a5
    18a4:	b12020        	sra	a2, a2
    18a7:	12dc           	bnez.n	a2, 18bc <LC3Plus_Sqrt16+0x4c>
    18a9:	020c           	movi.n	a2, 0
    18ab:	3ee407        	bbsi	a4, 0, 18ed <LC3Plus_Sqrt16+0x7d>
    18ae:	001306        	j	18fe <LC3Plus_Sqrt16+0x8e>

000018b1 <LC3Plus_Sqrt16+0x41>:
    18b1:	401500        	ssl	a5
    18b4:	a12200        	sll	a2, a2
    18b7:	822d           	ae_sext16	a2, a2
    18b9:	fec216        	beqz	a2, 18a9 <LC3Plus_Sqrt16+0x39>
    18bc:	c0d252        	addmi	a5, a2, 0xffffc000
    18bf:	fa2061        	l32r	a6, 140 (18300 <LC3Plus_SqrtTable>)
    18c2:	fa2071        	l32r	a7, 144 (18380 <LC3Plus_SqrtDiffTable>)
    18c5:	115590        	slli	a5, a5, 7
    18c8:	315050        	srai	a5, a5, 16
    18cb:	a06560        	addx4	a6, a5, a6
    18ce:	905570        	addx2	a5, a5, a7
    18d1:	255d           	ae_l16si.n	a5, a5, 0
    18d3:	84d020        	extui	a13, a2, 0, 9
    18d6:	0668           	l32i.n	a6, a6, 0
    18d8:	112df0        	slli	a2, a13, 1
    18db:	1e0c           	movi.n	a14, 1
    18dd:	117e10        	slli	a7, a14, 15
    18e0:	d12250        	mul16s	a2, a2, a5
    18e3:	f67a           	add.n	a15, a6, a7
    18e5:	22fa           	add.n	a2, a2, a15
    18e7:	f52020        	extui	a2, a2, 16, 16
    18ea:	106407        	bbci	a4, 0, 18fe <LC3Plus_Sqrt16+0x8e>
    18ed:	82a052        	movi	a5, 130
    18f0:	5ad552        	addmi	a5, a5, 0x5a00
    18f3:	822d           	ae_sext16	a2, a2
    18f5:	d12250        	mul16s	a2, a2, a5
    18f8:	40d222        	addmi	a2, a2, 0x4000
    18fb:	412f20        	srli	a2, a2, 15
    18fe:	844d           	ae_sext16	a4, a4
    1900:	441b           	addi.n	a4, a4, 1
    1902:	114420        	slli	a4, a4, 14
    1905:	414f40        	srli	a4, a4, 15
    1908:	822d           	ae_sext16	a2, a2
    190a:	634d           	ae_s16i.n	a4, a3, 0
    190c:	f01d           	retw.n

0000190e <LC3Plus_Sqrt16+0x9e>:
	...

00001910 <LC3Plus_ISqrt16>:
    1910:	004136        	entry	a1, 32
    1913:	728c           	beqz.n	a2, 191e <LC3Plus_ISqrt16+0xe>
    1915:	0f0266        	bnei	a2, -1, 1928 <LC3Plus_ISqrt16+0x18>
    1918:	f50c           	movi.n	a5, 15
    191a:	000086        	j	1920 <LC3Plus_ISqrt16+0x10>

0000191d <LC3Plus_ISqrt16+0xd>:
	...

0000191e <LC3Plus_ISqrt16+0xe>:
    191e:	050c           	movi.n	a5, 0
    1920:	234d           	ae_l16si.n	a4, a3, 0
    1922:	c04450        	sub	a4, a4, a5
    1925:	0008c6        	j	194c <LC3Plus_ISqrt16+0x3c>

00001928 <LC3Plus_ISqrt16+0x18>:
    1928:	214f20        	srai	a4, a2, 15
    192b:	304420        	xor	a4, a4, a2
    192e:	236d           	ae_l16si.n	a6, a3, 0
    1930:	40f480        	nsau	a8, a4
    1933:	efc852        	addi	a5, a8, -17
    1936:	071c           	movi.n	a7, 16
    1938:	c04650        	sub	a4, a6, a5
    193b:	0d3787        	bltu	a7, a8, 194c <LC3Plus_ISqrt16+0x3c>
    193e:	605050        	neg	a5, a5
    1941:	400500        	ssr	a5
    1944:	b12020        	sra	a2, a2
    1947:	000246        	j	1954 <LC3Plus_ISqrt16+0x44>

0000194a <LC3Plus_ISqrt16+0x3a>:
	...

0000194c <LC3Plus_ISqrt16+0x3c>:
    194c:	401500        	ssl	a5
    194f:	a12200        	sll	a2, a2
    1952:	822d           	ae_sext16	a2, a2
    1954:	c0d252        	addmi	a5, a2, 0xffffc000
    1957:	f9fc61        	l32r	a6, 148 (183c0 <LC3Plus_ISqrtTable>)
    195a:	f9fca1        	l32r	a10, 14c (18440 <LC3Plus_ISqrtDiffTable>)
    195d:	115590        	slli	a5, a5, 7
    1960:	315050        	srai	a5, a5, 16
    1963:	a06560        	addx4	a6, a5, a6
    1966:	9055a0        	addx2	a5, a5, a10
    1969:	255d           	ae_l16si.n	a5, a5, 0
    196b:	84b020        	extui	a11, a2, 0, 9
    196e:	0668           	l32i.n	a6, a6, 0
    1970:	d12b50        	mul16s	a2, a11, a5
    1973:	1c0c           	movi.n	a12, 1
    1975:	1122f0        	slli	a2, a2, 1
    1978:	115c10        	slli	a5, a12, 15
    197b:	c02620        	sub	a2, a6, a2
    197e:	225a           	add.n	a2, a2, a5
    1980:	82a0d2        	movi	a13, 130
    1983:	315020        	srai	a5, a2, 16
    1986:	5add62        	addmi	a6, a13, 0x5a00
    1989:	d15560        	mul16s	a5, a5, a6
    198c:	847d           	ae_sext16	a7, a4
    198e:	180c           	movi.n	a8, 1
    1990:	40d552        	addmi	a5, a5, 0x4000
    1993:	118800        	slli	a8, a8, 16
    1996:	117710        	slli	a7, a7, 15
    1999:	c07870        	sub	a7, a8, a7
    199c:	04e040        	extui	a14, a4, 0, 1
    199f:	f52020        	extui	a2, a2, 16, 16
    19a2:	415f50        	srli	a5, a5, 15
    19a5:	9352e0        	movnez	a5, a2, a14
    19a8:	31f070        	srai	a15, a7, 16
    19ab:	852d           	ae_sext16	a2, a5
    19ad:	63fd           	ae_s16i.n	a15, a3, 0
    19af:	f01d           	retw.n

000019b1 <LC3Plus_ISqrt16+0xa1>:
    19b1:	000000                                        ...

000019b4 <LC3Plus_Inv16>:
    19b4:	004136        	entry	a1, 32
    19b7:	140c           	movi.n	a4, 1
    19b9:	80d442        	addmi	a4, a4, 0xffff8000
    19bc:	f57c           	movi.n	a5, -1
    19be:	534240        	max	a4, a2, a4
    19c1:	f45050        	extui	a5, a5, 0, 16
    19c4:	604140        	abs	a4, a4
    19c7:	070547        	bnone	a5, a4, 19d2 <LC3Plus_Inv16+0x1e>
    19ca:	109457        	bne	a4, a5, 19de <LC3Plus_Inv16+0x2a>
    19cd:	f60c           	movi.n	a6, 15
    19cf:	000046        	j	19d4 <LC3Plus_Inv16+0x20>

000019d2 <LC3Plus_Inv16+0x1e>:
    19d2:	060c           	movi.n	a6, 0
    19d4:	237d           	ae_l16si.n	a7, a3, 0
    19d6:	845d           	ae_sext16	a5, a4
    19d8:	c04760        	sub	a4, a7, a6
    19db:	000946        	j	1a04 <LC3Plus_Inv16+0x50>

000019de <LC3Plus_Inv16+0x2a>:
    19de:	845d           	ae_sext16	a5, a4
    19e0:	416f50        	srli	a6, a5, 15
    19e3:	30f640        	xor	a15, a6, a4
    19e6:	8f4d           	ae_sext16	a4, a15
    19e8:	237d           	ae_l16si.n	a7, a3, 0
    19ea:	40f490        	nsau	a9, a4
    19ed:	efc962        	addi	a6, a9, -17
    19f0:	081c           	movi.n	a8, 16
    19f2:	c04760        	sub	a4, a7, a6
    19f5:	0b3897        	bltu	a8, a9, 1a04 <LC3Plus_Inv16+0x50>
    19f8:	606060        	neg	a6, a6
    19fb:	400600        	ssr	a6
    19fe:	b15050        	sra	a5, a5
    1a01:	0001c6        	j	1a0c <LC3Plus_Inv16+0x58>

00001a04 <LC3Plus_Inv16+0x50>:
    1a04:	401600        	ssl	a6
    1a07:	a15500        	sll	a5, a5
    1a0a:	855d           	ae_sext16	a5, a5
    1a0c:	c0d562        	addmi	a6, a5, 0xffffc000
    1a0f:	f9d071        	l32r	a7, 150 (18480 <LC3Plus_InvTable>)
    1a12:	f9d081        	l32r	a8, 154 (185a0 <LC3Plus_InvDiffTable>)
    1a15:	116690        	slli	a6, a6, 7
    1a18:	316060        	srai	a6, a6, 16
    1a1b:	a07670        	addx4	a7, a6, a7
    1a1e:	906680        	addx2	a6, a6, a8
    1a21:	266d           	ae_l16si.n	a6, a6, 0
    1a23:	84c050        	extui	a12, a5, 0, 9
    1a26:	115cf0        	slli	a5, a12, 1
    1a29:	d15560        	mul16s	a5, a5, a6
    1a2c:	0778           	l32i.n	a7, a7, 0
    1a2e:	1155f0        	slli	a5, a5, 1
    1a31:	1d0c           	movi.n	a13, 1
    1a33:	118d10        	slli	a8, a13, 15
    1a36:	c05750        	sub	a5, a7, a5
    1a39:	558a           	add.n	a5, a5, a8
    1a3b:	f55050        	extui	a5, a5, 16, 16
    1a3e:	60f050        	neg	a15, a5
    1a41:	1e0c           	movi.n	a14, 1
    1a43:	b3f520        	movgez	a15, a5, a2
    1a46:	c04e40        	sub	a4, a14, a4
    1a49:	8f2d           	ae_sext16	a2, a15
    1a4b:	634d           	ae_s16i.n	a4, a3, 0
    1a4d:	f01d           	retw.n

00001a4f <LC3Plus_Inv16+0x9b>:
	...

00001a50 <LC3Plus_getScaleFactor16>:
    1a50:	004136        	entry	a1, 32
    1a53:	fd20c0034f 	{ movi	a4, 3; ae_zerop48	aep3 }
    1a58:	fc20ff30bf 	{ ae_movp48	aep2, aep3; ae_zerop48	aep1 }
    1a5d:	0f0427        	bnone	a4, a2, 1a70 <LC3Plus_getScaleFactor16+0x20>
    1a60:	02c242        	addi	a4, a2, 2
    1a63:	408204        	ae_lp16f.iu	aep0, a2, 0
    1a66:	d90e0ff33e 	{ addi	a3, a3, -1; ae_maxp24s	aep2, aep3, aep0 }
    1a6b:	d80ed3244f 	{ or	a2, a4, a4; ae_minp24s	aep1, aep3, aep0 }

00001a70 <LC3Plus_getScaleFactor16+0x20>:
    1a70:	833d           	ae_sext16	a3, a3
    1a72:	448204        	ae_lp16x2f.iu	aep0, a2, 0
    1a75:	0f23a6        	blti	a3, 2, 1a88 <LC3Plus_getScaleFactor16+0x38>
    1a78:	214130        	srai	a4, a3, 1
    1a7b:	f03d           	nop.n
    1a7d:	078476        	loop	a4, 1a88 <LC3Plus_getScaleFactor16+0x38>
    1a80:	072824        	ae_maxp24s	aep2, aep2, aep0
    1a83:	d806ed821f 	{ ae_lp16x2f.iu	aep0, a2, 4; ae_minp24s	aep1, aep1, aep0 }
    1a88:	086307        	bbci	a3, 0, 1a94 <LC3Plus_getScaleFactor16+0x44>
    1a8b:	1a8b04        	ae_selp24.hl	aep0, aep0, aep3
    1a8e:	072824        	ae_maxp24s	aep2, aep2, aep0
    1a91:	071894        	ae_minp24s	aep1, aep1, aep0
    1a94:	dd25fe222f 	{ ae_selp24.lh	aep0, aep2, aep2; ae_selp24.lh	aep3, aep1, aep1 }
    1a99:	d80a00104f 	{ movi	a4, 16; ae_maxp24s	aep0, aep2, aep0 }
    1a9e:	d866ff026f 	{ ae_trunca16p24s.l	a2, aep0; ae_minp24s	aep1, aep1, aep3 }
    1aa3:	361324        	ae_trunca16p24s.l	a3, aep1
    1aa6:	40e250        	nsa	a5, a2
    1aa9:	40e360        	nsa	a6, a3
    1aac:	f0c552        	addi	a5, a5, -16
    1aaf:	f0c662        	addi	a6, a6, -16
    1ab2:	115500        	slli	a5, a5, 16
    1ab5:	116600        	slli	a6, a6, 16
    1ab8:	922d           	ae_zext16	a2, a2
    1aba:	315050        	srai	a5, a5, 16
    1abd:	933d           	ae_zext16	a3, a3
    1abf:	316060        	srai	a6, a6, 16
    1ac2:	835420        	moveqz	a5, a4, a2
    1ac5:	836430        	moveqz	a6, a4, a3
    1ac8:	432560        	min	a2, a5, a6
    1acb:	342020        	extui	a2, a2, 0, 4
    1ace:	f01d           	retw.n

00001ad0 <LC3Plus_getScaleFactor16_0>:
    1ad0:	004136        	entry	a1, 32
    1ad3:	fd20c0034f 	{ movi	a4, 3; ae_zerop48	aep3 }
    1ad8:	fc20ff30bf 	{ ae_movp48	aep2, aep3; ae_zerop48	aep1 }
    1add:	0f0427        	bnone	a4, a2, 1af0 <LC3Plus_getScaleFactor16_0+0x20>
    1ae0:	02c242        	addi	a4, a2, 2
    1ae3:	408204        	ae_lp16f.iu	aep0, a2, 0
    1ae6:	d90e0ff33e 	{ addi	a3, a3, -1; ae_maxp24s	aep2, aep3, aep0 }
    1aeb:	d80ed3244f 	{ or	a2, a4, a4; ae_minp24s	aep1, aep3, aep0 }

00001af0 <LC3Plus_getScaleFactor16_0+0x20>:
    1af0:	833d           	ae_sext16	a3, a3
    1af2:	448204        	ae_lp16x2f.iu	aep0, a2, 0
    1af5:	0f23a6        	blti	a3, 2, 1b08 <LC3Plus_getScaleFactor16_0+0x38>
    1af8:	214130        	srai	a4, a3, 1
    1afb:	f03d           	nop.n
    1afd:	078476        	loop	a4, 1b08 <LC3Plus_getScaleFactor16_0+0x38>
    1b00:	072824        	ae_maxp24s	aep2, aep2, aep0
    1b03:	d806ed821f 	{ ae_lp16x2f.iu	aep0, a2, 4; ae_minp24s	aep1, aep1, aep0 }
    1b08:	086307        	bbci	a3, 0, 1b14 <LC3Plus_getScaleFactor16_0+0x44>
    1b0b:	1a8b04        	ae_selp24.hl	aep0, aep0, aep3
    1b0e:	072824        	ae_maxp24s	aep2, aep2, aep0
    1b11:	071894        	ae_minp24s	aep1, aep1, aep0
    1b14:	dd25fe222f 	{ ae_selp24.lh	aep0, aep2, aep2; ae_selp24.lh	aep3, aep1, aep1 }
    1b19:	d80a00104f 	{ movi	a4, 16; ae_maxp24s	aep0, aep2, aep0 }
    1b1e:	d866ff026f 	{ ae_trunca16p24s.l	a2, aep0; ae_minp24s	aep1, aep1, aep3 }
    1b23:	361324        	ae_trunca16p24s.l	a3, aep1
    1b26:	40e250        	nsa	a5, a2
    1b29:	40e360        	nsa	a6, a3
    1b2c:	f0c552        	addi	a5, a5, -16
    1b2f:	f0c662        	addi	a6, a6, -16
    1b32:	115500        	slli	a5, a5, 16
    1b35:	116600        	slli	a6, a6, 16
    1b38:	922d           	ae_zext16	a2, a2
    1b3a:	315050        	srai	a5, a5, 16
    1b3d:	933d           	ae_zext16	a3, a3
    1b3f:	316060        	srai	a6, a6, 16
    1b42:	835420        	moveqz	a5, a4, a2
    1b45:	836430        	moveqz	a6, a4, a3
    1b48:	432560        	min	a2, a5, a6
    1b4b:	f01d           	retw.n

00001b4d <LC3Plus_getScaleFactor16_0+0x7d>:
    1b4d:	000000                                        ...

00001b50 <LC3Plus_getScaleFactor32_Q>:
    1b50:	004136        	entry	a1, 32
    1b53:	0ad084        	ae_zeroq56	aeq3
    1b56:	fd24bf31bf 	{ ae_movq56	aeq2, aeq3; ae_zeroq56	aeq1 }
    1b5b:	0d13a6        	blti	a3, 1, 1b6c <LC3Plus_getScaleFactor32_Q+0x1c>
    1b5e:	601204        	ae_lq32f.iu	aeq0, a2, 0
    1b61:	078376        	loop	a3, 1b6c <LC3Plus_getScaleFactor32_Q+0x1c>
    1b64:	0182c4        	ae_maxq56s	aeq2, aeq2, aeq0
    1b67:	f906bd121f 	{ ae_lq32f.iu	aeq0, a2, 4; ae_minq56s	aeq1, aeq1, aeq0 }

00001b6c <LC3Plus_getScaleFactor32_Q+0x1c>:
    1b6c:	d4d83f22af 	{ ae_nsaq56s	a2, aeq2; ae_eqq56	b0, aeq2, aeq3 }
    1b71:	d45c7f13af 	{ ae_nsaq56s	a3, aeq1; ae_eqq56	b1, aeq1, aeq3 }
    1b76:	042c           	movi.n	a4, 32
    1b78:	f8c222        	addi	a2, a2, -8
    1b7b:	f8c332        	addi	a3, a3, -8
    1b7e:	112200        	slli	a2, a2, 16
    1b81:	113300        	slli	a3, a3, 16
    1b84:	312020        	srai	a2, a2, 16
    1b87:	313030        	srai	a3, a3, 16
    1b8a:	d32400        	movt	a2, a4, b0
    1b8d:	d33410        	movt	a3, a4, b1
    1b90:	432230        	min	a2, a2, a3
    1b93:	442020        	extui	a2, a2, 0, 5
    1b96:	f01d           	retw.n

00001b98 <LC3Plus_getScaleFactor32>:
    1b98:	004136        	entry	a1, 32
    1b9b:	fd20ef820f 	{ ae_lp24x2f.iu	aep0, a2, 0; ae_zerop48	aep3 }
    1ba0:	fc20ff30bf 	{ ae_movp48	aep2, aep3; ae_zerop48	aep1 }
    1ba5:	0f23a6        	blti	a3, 2, 1bb8 <LC3Plus_getScaleFactor32+0x20>
    1ba8:	214130        	srai	a4, a3, 1
    1bab:	f03d           	nop.n
    1bad:	078476        	loop	a4, 1bb8 <LC3Plus_getScaleFactor32+0x20>
    1bb0:	072824        	ae_maxp24s	aep2, aep2, aep0
    1bb3:	d806ef821f 	{ ae_lp24x2f.iu	aep0, a2, 8; ae_minp24s	aep1, aep1, aep0 }

00001bb8 <LC3Plus_getScaleFactor32+0x20>:
    1bb8:	086307        	bbci	a3, 0, 1bc4 <LC3Plus_getScaleFactor32+0x2c>
    1bbb:	1a8b04        	ae_selp24.hl	aep0, aep0, aep3
    1bbe:	072824        	ae_maxp24s	aep2, aep2, aep0
    1bc1:	071894        	ae_minp24s	aep1, aep1, aep0
    1bc4:	dd25fe222f 	{ ae_selp24.lh	aep0, aep2, aep2; ae_selp24.lh	aep3, aep1, aep1 }
    1bc9:	d80a00204f 	{ movi	a4, 32; ae_maxp24s	aep0, aep2, aep0 }
    1bce:	d866ff025f 	{ ae_cvta32p24.l	a2, aep0; ae_minp24s	aep1, aep1, aep3 }
    1bd3:	0013d4        	ae_cvta32p24.l	a3, aep1
    1bd6:	40e250        	nsa	a5, a2
    1bd9:	40e360        	nsa	a6, a3
    1bdc:	855d           	ae_sext16	a5, a5
    1bde:	866d           	ae_sext16	a6, a6
    1be0:	835420        	moveqz	a5, a4, a2
    1be3:	836430        	moveqz	a6, a4, a3
    1be6:	432560        	min	a2, a5, a6
    1be9:	442020        	extui	a2, a2, 0, 5
    1bec:	f01d           	retw.n

00001bee <LC3Plus_getScaleFactor32+0x56>:
	...

00001bf0 <LC3Plus_getScaleFactor32_0>:
    1bf0:	004136        	entry	a1, 32
    1bf3:	fd20ef820f 	{ ae_lp24x2f.iu	aep0, a2, 0; ae_zerop48	aep3 }
    1bf8:	fc20ff30bf 	{ ae_movp48	aep2, aep3; ae_zerop48	aep1 }
    1bfd:	0f23a6        	blti	a3, 2, 1c10 <LC3Plus_getScaleFactor32_0+0x20>
    1c00:	214130        	srai	a4, a3, 1
    1c03:	f03d           	nop.n
    1c05:	078476        	loop	a4, 1c10 <LC3Plus_getScaleFactor32_0+0x20>
    1c08:	072824        	ae_maxp24s	aep2, aep2, aep0
    1c0b:	d806ef821f 	{ ae_lp24x2f.iu	aep0, a2, 8; ae_minp24s	aep1, aep1, aep0 }

00001c10 <LC3Plus_getScaleFactor32_0+0x20>:
    1c10:	086307        	bbci	a3, 0, 1c1c <LC3Plus_getScaleFactor32_0+0x2c>
    1c13:	1a8b04        	ae_selp24.hl	aep0, aep0, aep3
    1c16:	072824        	ae_maxp24s	aep2, aep2, aep0
    1c19:	071894        	ae_minp24s	aep1, aep1, aep0
    1c1c:	dd25fe222f 	{ ae_selp24.lh	aep0, aep2, aep2; ae_selp24.lh	aep3, aep1, aep1 }
    1c21:	d80a00204f 	{ movi	a4, 32; ae_maxp24s	aep0, aep2, aep0 }
    1c26:	d866ff025f 	{ ae_cvta32p24.l	a2, aep0; ae_minp24s	aep1, aep1, aep3 }
    1c2b:	0013d4        	ae_cvta32p24.l	a3, aep1
    1c2e:	40e250        	nsa	a5, a2
    1c31:	40e360        	nsa	a6, a3
    1c34:	855d           	ae_sext16	a5, a5
    1c36:	866d           	ae_sext16	a6, a6
    1c38:	835420        	moveqz	a5, a4, a2
    1c3b:	836430        	moveqz	a6, a4, a3
    1c3e:	432560        	min	a2, a5, a6
    1c41:	f01d           	retw.n

00001c43 <LC3Plus_getScaleFactor32_0+0x53>:
	...

00001c44 <LC3Plus_BASOP_Util_Divide3216_Scale>:
    1c44:	006136        	entry	a1, 48
    1c47:	52ac           	beqz.n	a2, 1c70 <LC3Plus_BASOP_Util_Divide3216_Scale+0x2c>
    1c49:	f94351        	l32r	a5, 158 (80000001 <_end+0x7ffd1029>)
    1c4c:	160c           	movi.n	a6, 1
    1c4e:	80d662        	addmi	a6, a6, 0xffff8000
    1c51:	535250        	max	a5, a2, a5
    1c54:	53f360        	max	a15, a3, a6
    1c57:	606150        	abs	a6, a5
    1c5a:	f57020        	extui	a7, a2, 16, 16
    1c5d:	6051f0        	abs	a5, a15
    1c60:	140626        	beqi	a6, -1, 1c78 <LC3Plus_BASOP_Util_Divide3216_Scale+0x34>
    1c63:	b6dc           	bnez.n	a6, 1c82 <LC3Plus_BASOP_Util_Divide3216_Scale+0x3e>
    1c65:	f27c           	movi.n	a2, -1
    1c67:	f42020        	extui	a2, a2, 0, 16
    1c6a:	080c           	movi.n	a8, 0
    1c6c:	000c86        	j	1ca2 <LC3Plus_BASOP_Util_Divide3216_Scale+0x5e>

00001c6f <LC3Plus_BASOP_Util_Divide3216_Scale+0x2b>:
	...

00001c70 <LC3Plus_BASOP_Util_Divide3216_Scale+0x2c>:
    1c70:	030c           	movi.n	a3, 0
    1c72:	020c           	movi.n	a2, 0
    1c74:	643d           	ae_s16i.n	a3, a4, 0
    1c76:	f01d           	retw.n

00001c78 <LC3Plus_BASOP_Util_Divide3216_Scale+0x34>:
    1c78:	f67c           	movi.n	a6, -1
    1c7a:	016620        	slli	a6, a6, 30
    1c7d:	e21c           	movi.n	a2, 30
    1c7f:	000846        	j	1ca4 <LC3Plus_BASOP_Util_Divide3216_Scale+0x60>

00001c82 <LC3Plus_BASOP_Util_Divide3216_Scale+0x3e>:
    1c82:	312f60        	srai	a2, a6, 31
    1c85:	302260        	xor	a2, a2, a6
    1c88:	40f290        	nsau	a9, a2
    1c8b:	280c           	movi.n	a8, 2
    1c8d:	c08890        	sub	a8, a8, a9
    1c90:	400800        	ssr	a8
    1c93:	fec922        	addi	a2, a9, -2
    1c96:	b18060        	sra	a8, a6
    1c99:	401200        	ssl	a2
    1c9c:	a16600        	sll	a6, a6
    1c9f:	0129f6        	bgeui	a9, 2, 1ca4 <LC3Plus_BASOP_Util_Divide3216_Scale+0x60>
    1ca2:	086d           	mov.n	a6, a8
    1ca4:	f87c           	movi.n	a8, -1
    1ca6:	f48080        	extui	a8, a8, 0, 16
    1ca9:	303730        	xor	a3, a7, a3
    1cac:	080857        	bnone	a8, a5, 1cb8 <LC3Plus_BASOP_Util_Divide3216_Scale+0x74>
    1caf:	0d9587        	bne	a5, a8, 1cc0 <LC3Plus_BASOP_Util_Divide3216_Scale+0x7c>
    1cb2:	f70c           	movi.n	a7, 15
    1cb4:	000086        	j	1cba <LC3Plus_BASOP_Util_Divide3216_Scale+0x76>

00001cb7 <LC3Plus_BASOP_Util_Divide3216_Scale+0x73>:
	...

00001cb8 <LC3Plus_BASOP_Util_Divide3216_Scale+0x74>:
    1cb8:	070c           	movi.n	a7, 0
    1cba:	858d           	ae_sext16	a8, a5
    1cbc:	000846        	j	1ce1 <LC3Plus_BASOP_Util_Divide3216_Scale+0x9d>

00001cbf <LC3Plus_BASOP_Util_Divide3216_Scale+0x7b>:
	...

00001cc0 <LC3Plus_BASOP_Util_Divide3216_Scale+0x7c>:
    1cc0:	858d           	ae_sext16	a8, a5
    1cc2:	417f80        	srli	a7, a8, 15
    1cc5:	30f750        	xor	a15, a7, a5
    1cc8:	8f5d           	ae_sext16	a5, a15
    1cca:	40f550        	nsau	a5, a5
    1ccd:	091c           	movi.n	a9, 16
    1ccf:	efc572        	addi	a7, a5, -17
    1cd2:	0b3957        	bltu	a9, a5, 1ce1 <LC3Plus_BASOP_Util_Divide3216_Scale+0x9d>
    1cd5:	605070        	neg	a5, a7
    1cd8:	400500        	ssr	a5
    1cdb:	b15080        	sra	a5, a8
    1cde:	0001c6        	j	1ce9 <LC3Plus_BASOP_Util_Divide3216_Scale+0xa5>

00001ce1 <LC3Plus_BASOP_Util_Divide3216_Scale+0x9d>:
    1ce1:	401700        	ssl	a7
    1ce4:	a15800        	sll	a5, a8
    1ce7:	855d           	ae_sext16	a5, a5
    1ce9:	360634        	ae_cvtq48a32s	aeq0, a6
    1cec:	f86395272f 	{ sub	a2, a7, a2; ae_roundsp16q48asym	aep0, aeq0 }
    1cf1:	420164        	ae_sp16f.l.i	aep0, a1, 12
    1cf4:	061162        	l16ui	a6, a1, 12
    1cf7:	958d           	ae_zext16	a8, a5
    1cf9:	833d           	ae_sext16	a3, a3
    1cfb:	642d           	ae_s16i.n	a2, a4, 0
    1cfd:	0f9687        	bne	a6, a8, 1d10 <LC3Plus_BASOP_Util_Divide3216_Scale+0xcc>
    1d00:	ffa022        	movi	a2, 255
    1d03:	7fd222        	addmi	a2, a2, 0x7f00
    1d06:	604020        	neg	a4, a2
    1d09:	b34230        	movgez	a4, a2, a3
    1d0c:	842d           	ae_sext16	a2, a4
    1d0e:	f01d           	retw.n

00001d10 <LC3Plus_BASOP_Util_Divide3216_Scale+0xcc>:
    1d10:	862d           	ae_sext16	a2, a6
    1d12:	112210        	slli	a2, a2, 15
    1d15:	d22250        	quos	a2, a2, a5
    1d18:	604020        	neg	a4, a2
    1d1b:	b34230        	movgez	a4, a2, a3
    1d1e:	842d           	ae_sext16	a2, a4
    1d20:	f01d           	retw.n

00001d22 <LC3Plus_BASOP_Util_Divide3216_Scale+0xde>:
	...

00001d24 <LC3Plus_BASOP_Util_Divide1616_Scale>:
    1d24:	004136        	entry	a1, 32
    1d27:	f67c           	movi.n	a6, -1
    1d29:	f46060        	extui	a6, a6, 0, 16
    1d2c:	607120        	abs	a7, a2
    1d2f:	220677        	bnone	a6, a7, 1d55 <LC3Plus_BASOP_Util_Divide1616_Scale+0x31>
    1d32:	875d           	ae_sext16	a5, a7
    1d34:	418f50        	srli	a8, a5, 15
    1d37:	30f870        	xor	a15, a8, a7
    1d3a:	8f7d           	ae_sext16	a7, a15
    1d3c:	091c           	movi.n	a9, 16
    1d3e:	40f770        	nsau	a7, a7
    1d41:	608130        	abs	a8, a3
    1d44:	153977        	bltu	a9, a7, 1d5d <LC3Plus_BASOP_Util_Divide1616_Scale+0x39>
    1d47:	191c           	movi.n	a9, 17
    1d49:	c09970        	sub	a9, a9, a7
    1d4c:	400900        	ssr	a9
    1d4f:	b15050        	sra	a5, a5
    1d52:	000486        	j	1d68 <LC3Plus_BASOP_Util_Divide1616_Scale+0x44>

00001d55 <LC3Plus_BASOP_Util_Divide1616_Scale+0x31>:
    1d55:	030c           	movi.n	a3, 0
    1d57:	020c           	movi.n	a2, 0
    1d59:	643d           	ae_s16i.n	a3, a4, 0
    1d5b:	f01d           	retw.n

00001d5d <LC3Plus_BASOP_Util_Divide1616_Scale+0x39>:
    1d5d:	efc792        	addi	a9, a7, -17
    1d60:	401900        	ssl	a9
    1d63:	a15500        	sll	a5, a5
    1d66:	855d           	ae_sext16	a5, a5
    1d68:	291c           	movi.n	a9, 18
    1d6a:	c07970        	sub	a7, a9, a7
    1d6d:	215150        	srai	a5, a5, 1
    1d70:	647d           	ae_s16i.n	a7, a4, 0
    1d72:	370687        	bnone	a6, a8, 1dad <LC3Plus_BASOP_Util_Divide1616_Scale+0x89>
    1d75:	886d           	ae_sext16	a6, a8
    1d77:	41af60        	srli	a10, a6, 15
    1d7a:	30ea80        	xor	a14, a10, a8
    1d7d:	8e8d           	ae_sext16	a8, a14
    1d7f:	40f8f0        	nsau	a15, a8
    1d82:	091c           	movi.n	a9, 16
    1d84:	efcf82        	addi	a8, a15, -17
    1d87:	2639f7        	bltu	a9, a15, 1db1 <LC3Plus_BASOP_Util_Divide1616_Scale+0x8d>
    1d8a:	609080        	neg	a9, a8
    1d8d:	400900        	ssr	a9
    1d90:	b16060        	sra	a6, a6
    1d93:	f87a           	add.n	a15, a8, a7
    1d95:	302320        	xor	a2, a3, a2
    1d98:	64fd           	ae_s16i.n	a15, a4, 0
    1d9a:	251567        	beq	a5, a6, 1dc3 <LC3Plus_BASOP_Util_Divide1616_Scale+0x9f>
    1d9d:	113510        	slli	a3, a5, 15
    1da0:	d23360        	quos	a3, a3, a6
    1da3:	604030        	neg	a4, a3
    1da6:	b34320        	movgez	a4, a3, a2
    1da9:	842d           	ae_sext16	a2, a4
    1dab:	f01d           	retw.n

00001dad <LC3Plus_BASOP_Util_Divide1616_Scale+0x89>:
    1dad:	060c           	movi.n	a6, 0
    1daf:	080c           	movi.n	a8, 0
    1db1:	401800        	ssl	a8
    1db4:	a16600        	sll	a6, a6
    1db7:	866d           	ae_sext16	a6, a6
    1db9:	f87a           	add.n	a15, a8, a7
    1dbb:	302320        	xor	a2, a3, a2
    1dbe:	64fd           	ae_s16i.n	a15, a4, 0
    1dc0:	d99567        	bne	a5, a6, 1d9d <LC3Plus_BASOP_Util_Divide1616_Scale+0x79>
    1dc3:	ffa032        	movi	a3, 255
    1dc6:	7fd332        	addmi	a3, a3, 0x7f00
    1dc9:	604030        	neg	a4, a3
    1dcc:	b34320        	movgez	a4, a3, a2
    1dcf:	842d           	ae_sext16	a2, a4
    1dd1:	f01d           	retw.n

00001dd3 <LC3Plus_BASOP_Util_Divide1616_Scale+0xaf>:
	...

00001dd4 <LC3Plus_Norm32Norm>:
    1dd4:	004136        	entry	a1, 32
    1dd7:	fe24bd320f 	{ ae_lq32f.iu	aeq1, a2, 0; ae_zeroq56	aeq2 }
    1ddc:	0a1084        	ae_zeroq56	aeq0
    1ddf:	3524a6        	blti	a4, 2, 1e18 <LC3Plus_Norm32Norm+0x44>
    1de2:	fc24fe930f 	{ ae_slaasq56s	aeq0, aeq1, a3; nop }
    1de7:	216140        	srai	a6, a4, 1
    1dea:	f867bd721f 	{ ae_lq32f.iu	aeq3, a2, 4; ae_roundsp24q48asym	aep0, aeq0 }
    1def:	fc147eb34f 	{ ae_slaasq56s	aeq1, aeq3, a3; ae_movq56	aeq0, aeq2 }
    1df4:	e4020ff66e 	{ addi	a6, a6, -1; ae_mulap24s.hh	aeq0, aep0, aep0 }
    1df9:	f86fbd321f 	{ ae_lq32f.iu	aeq1, a2, 4; ae_roundsp24q48asym	aep0, aeq1 }
    1dfe:	139676        	loopnez	a6, 1e15 <LC3Plus_Norm32Norm+0x41>
    1e01:	e4023e934f 	{ ae_slaasq56s	aeq1, aeq1, a3; ae_mulap24s.hh	aeq0, aep0, aep0 }
    1e06:	f86fbd321f 	{ ae_lq32f.iu	aeq1, a2, 4; ae_roundsp24q48asym	aep0, aeq1 }
    1e0b:	e4023e934f 	{ ae_slaasq56s	aeq1, aeq1, a3; ae_mulap24s.hh	aeq0, aep0, aep0 }
    1e10:	f86fbd321f 	{ ae_lq32f.iu	aeq1, a2, 4; ae_roundsp24q48asym	aep0, aeq1 }

00001e15 <LC3Plus_Norm32Norm+0x41>:
    1e15:	020004        	ae_mulap24s.hh	aeq0, aep0, aep0

00001e18 <LC3Plus_Norm32Norm+0x44>:
    1e18:	0a6407        	bbci	a4, 0, 1e26 <LC3Plus_Norm32Norm+0x52>
    1e1b:	fc24fe934f 	{ ae_slaasq56s	aeq1, aeq1, a3; nop }
    1e20:	1b9d04        	ae_roundsp24q48asym	aep0, aeq1
    1e23:	020004        	ae_mulap24s.hh	aeq0, aep0, aep0
    1e26:	d4503f02af 	{ ae_nsaq56s	a2, aeq0; ae_eqq56	b0, aeq0, aeq2 }
    1e2b:	a70c           	movi.n	a7, 10
    1e2d:	160c           	movi.n	a6, 1
    1e2f:	c02720        	sub	a2, a7, a2
    1e32:	217120        	srai	a7, a2, 1
    1e35:	d37600        	movt	a7, a6, b0
    1e38:	11f7f0        	slli	a15, a7, 1
    1e3b:	34cfb4        	ae_sraaq56	aeq3, aeq0, a15
    1e3e:	36b204        	ae_trunca32q48	a2, aeq3
    1e41:	c03370        	sub	a3, a3, a7
    1e44:	217f40        	srai	a7, a4, 15
    1e47:	828c           	beqz.n	a2, 1e53 <LC3Plus_Norm32Norm+0x7f>
    1e49:	349c           	beqz.n	a4, 1e60 <LC3Plus_Norm32Norm+0x8c>
    1e4b:	160466        	bnei	a4, -1, 1e65 <LC3Plus_Norm32Norm+0x91>
    1e4e:	f70c           	movi.n	a7, 15
    1e50:	000b06        	j	1e80 <LC3Plus_Norm32Norm+0xac>

00001e53 <LC3Plus_Norm32Norm+0x7f>:
    1e53:	020c           	movi.n	a2, 0
    1e55:	1133f0        	slli	a3, a3, 1
    1e58:	c03630        	sub	a3, a6, a3
    1e5b:	653d           	ae_s16i.n	a3, a5, 0
    1e5d:	f01d           	retw.n

00001e5f <LC3Plus_Norm32Norm+0x8b>:
	...

00001e60 <LC3Plus_Norm32Norm+0x8c>:
    1e60:	070c           	movi.n	a7, 0
    1e62:	000686        	j	1e80 <LC3Plus_Norm32Norm+0xac>

00001e65 <LC3Plus_Norm32Norm+0x91>:
    1e65:	307740        	xor	a7, a7, a4
    1e68:	40f790        	nsau	a9, a7
    1e6b:	081c           	movi.n	a8, 16
    1e6d:	efc972        	addi	a7, a9, -17
    1e70:	0c3897        	bltu	a8, a9, 1e80 <LC3Plus_Norm32Norm+0xac>
    1e73:	608070        	neg	a8, a7
    1e76:	400800        	ssr	a8
    1e79:	b14040        	sra	a4, a4
    1e7c:	000206        	j	1e88 <LC3Plus_Norm32Norm+0xb4>

00001e7f <LC3Plus_Norm32Norm+0xab>:
	...

00001e80 <LC3Plus_Norm32Norm+0xac>:
    1e80:	401700        	ssl	a7
    1e83:	a14400        	sll	a4, a4
    1e86:	844d           	ae_sext16	a4, a4
    1e88:	d87c           	movi.n	a8, -3
    1e8a:	f48080        	extui	a8, a8, 0, 16
    1e8d:	f90c           	movi.n	a9, 15
    1e8f:	82c480        	mull	a12, a4, a8
    1e92:	c0a970        	sub	a10, a9, a7
    1e95:	b2d480        	mulsh	a13, a4, a8
    1e98:	41ffc0        	srli	a15, a12, 15
    1e9b:	60e0a0        	neg	a14, a10
    1e9e:	400e00        	ssr	a14
    1ea1:	1bedf0        	depbits	a15, a13, 17, 15
    1ea4:	b140f0        	sra	a4, a15
    1ea7:	401a00        	ssl	a10
    1eaa:	72b970        	salt	a11, a9, a7
    1ead:	a18f00        	sll	a8, a15
    1eb0:	9384b0        	movnez	a8, a4, a11
    1eb3:	282a           	add.n	a2, a8, a2
    1eb5:	1133f0        	slli	a3, a3, 1
    1eb8:	c03630        	sub	a3, a6, a3
    1ebb:	653d           	ae_s16i.n	a3, a5, 0
    1ebd:	f01d           	retw.n

00001ebf <LC3Plus_Norm32Norm+0xeb>:
	...

00001ec0 <LC3Plus_Scale_sig>:
    1ec0:	004136        	entry	a1, 32
    1ec3:	360c           	movi.n	a6, 3
    1ec5:	945d           	ae_zext16	a5, a4
    1ec7:	1d0627        	bnone	a6, a2, 1ee8 <LC3Plus_Scale_sig+0x28>
    1eca:	1314a6        	blti	a4, 1, 1ee1 <LC3Plus_Scale_sig+0x21>
    1ecd:	f60c           	movi.n	a6, 15
    1ecf:	227d           	ae_l16si.n	a7, a2, 0
    1ed1:	436560        	min	a6, a5, a6
    1ed4:	401600        	ssl	a6
    1ed7:	a16700        	sll	a6, a7

00001eda <LC3Plus_Scale_sig+0x1a>:
    1eda:	626d           	ae_s16i.n	a6, a2, 0
    1edc:	000106        	j	1ee4 <LC3Plus_Scale_sig+0x24>

00001edf <LC3Plus_Scale_sig+0x1f>:
	...

00001ee1 <LC3Plus_Scale_sig+0x21>:
    1ee1:	079496        	bltz	a4, 1f5e <LC3Plus_Scale_sig+0x9e>
    1ee4:	222b           	addi.n	a2, a2, 2
    1ee6:	330b           	addi.n	a3, a3, -1
    1ee8:	2914a6        	blti	a4, 1, 1f15 <LC3Plus_Scale_sig+0x55>
    1eeb:	f60c           	movi.n	a6, 15
    1eed:	436560        	min	a6, a5, a6
    1ef0:	835d           	ae_sext16	a5, a3
    1ef2:	449204        	ae_lp16x2f.iu	aep1, a2, 0
    1ef5:	031664        	wur.ae_sar	a6
    1ef8:	0d25a6        	blti	a5, 2, 1f09 <LC3Plus_Scale_sig+0x49>
    1efb:	216150        	srai	a6, a5, 1
    1efe:	078676        	loop	a6, 1f09 <LC3Plus_Scale_sig+0x49>
    1f01:	f827ad921f 	{ ae_lp16x2f.iu	aep1, a2, 4; ae_sllssp24s	aep0, aep1 }
    1f06:	4602f4        	ae_sp16x2f.i	aep0, a2, -4
    1f09:	086507        	bbci	a5, 0, 1f15 <LC3Plus_Scale_sig+0x55>
    1f0c:	0b1084        	ae_sllssp24s	aep0, aep1
    1f0f:	1a8084        	ae_selp24.lh	aep0, aep0, aep0
    1f12:	420204        	ae_sp16f.l.i	aep0, a2, 0
    1f15:	004496        	bltz	a4, 1f1d <LC3Plus_Scale_sig+0x5d>
    1f18:	f01d           	retw.n

00001f1a <LC3Plus_Scale_sig+0x5a>:
    1f1a:	000000                                        ...

00001f1d <LC3Plus_Scale_sig+0x5d>:
    1f1d:	157c           	movi.n	a5, -15
    1f1f:	534450        	max	a4, a4, a5
    1f22:	604040        	neg	a4, a4
    1f25:	833d           	ae_sext16	a3, a3
    1f27:	448204        	ae_lp16x2f.iu	aep0, a2, 0
    1f2a:	031644        	wur.ae_sar	a4
    1f2d:	1c23a6        	blti	a3, 2, 1f4d <LC3Plus_Scale_sig+0x8d>
    1f30:	214130        	srai	a4, a3, 1
    1f33:	f8a3cff44e 	{ addi	a4, a4, -1; ae_srasp24	aep1, aep0 }
    1f38:	f8e6ed821f 	{ ae_lp16x2f.iu	aep0, a2, 4; ae_roundsp16asym	aep1, aep1 }
    1f3d:	099476        	loopnez	a4, 1f4a <LC3Plus_Scale_sig+0x8a>
    1f40:	f8a3b312ff 	{ ae_sp16x2f.i	aep1, a2, -4; ae_srasp24	aep0, aep0 }
    1f45:	f8e2ed821f 	{ ae_lp16x2f.iu	aep0, a2, 4; ae_roundsp16asym	aep1, aep0 }

00001f4a <LC3Plus_Scale_sig+0x8a>:
    1f4a:	4612f4        	ae_sp16x2f.i	aep1, a2, -4

00001f4d <LC3Plus_Scale_sig+0x8d>:
    1f4d:	c76307        	bbci	a3, 0, 1f18 <LC3Plus_Scale_sig+0x58>
    1f50:	0b0384        	ae_srasp24	aep0, aep0
    1f53:	090184        	ae_roundsp16asym	aep0, aep0
    1f56:	1a8084        	ae_selp24.lh	aep0, aep0, aep0
    1f59:	420204        	ae_sp16f.l.i	aep0, a2, 0
    1f5c:	f01d           	retw.n

00001f5e <LC3Plus_Scale_sig+0x9e>:
    1f5e:	167c           	movi.n	a6, -15
    1f60:	536460        	max	a6, a4, a6
    1f63:	f77c           	movi.n	a7, -1
    1f65:	606060        	neg	a6, a6
    1f68:	22ed           	ae_l16si.n	a14, a2, 0
    1f6a:	117710        	slli	a7, a7, 15
    1f6d:	400600        	ssr	a6
    1f70:	b17070        	sra	a7, a7
    1f73:	d167e0        	mul16s	a6, a7, a14
    1f76:	1f0c           	movi.n	a15, 1
    1f78:	117f10        	slli	a7, a15, 15
    1f7b:	1166f0        	slli	a6, a6, 1
    1f7e:	c06760        	sub	a6, a7, a6
    1f81:	f56060        	extui	a6, a6, 16, 16
    1f84:	ffd486        	j	1eda <LC3Plus_Scale_sig+0x1a>

00001f87 <LC3Plus_Scale_sig+0xc7>:
	...

00001f88 <LC3Plus_Scale_sig_sat>:
    1f88:	004136        	entry	a1, 32
    1f8b:	2114a6        	blti	a4, 1, 1fb0 <LC3Plus_Scale_sig_sat+0x28>
    1f8e:	2113a6        	blti	a3, 1, 1fb3 <LC3Plus_Scale_sig_sat+0x2b>
    1f91:	225d           	ae_l16si.n	a5, a2, 0
    1f93:	401400        	ssl	a4
    1f96:	e30b           	addi.n	a14, a3, -1
    1f98:	a1f500        	sll	a15, a5
    1f9b:	af3d           	ae_clamps16	a3, a15
    1f9d:	0a9e76        	loopnez	a14, 1fab <LC3Plus_Scale_sig_sat+0x23>
    1fa0:	324d           	ae_l16si.n	a4, a2, 2
    1fa2:	623d           	ae_s16i.n	a3, a2, 0
    1fa4:	222b           	addi.n	a2, a2, 2
    1fa6:	a13400        	sll	a3, a4
    1fa9:	a33d           	ae_clamps16	a3, a3

00001fab <LC3Plus_Scale_sig_sat+0x23>:
    1fab:	623d           	ae_s16i.n	a3, a2, 0
    1fad:	000086        	j	1fb3 <LC3Plus_Scale_sig_sat+0x2b>

00001fb0 <LC3Plus_Scale_sig_sat+0x28>:
    1fb0:	001496        	bltz	a4, 1fb5 <LC3Plus_Scale_sig_sat+0x2d>
    1fb3:	f01d           	retw.n

00001fb5 <LC3Plus_Scale_sig_sat+0x2d>:
    1fb5:	fa13a6        	blti	a3, 1, 1fb3 <LC3Plus_Scale_sig_sat+0x2b>
    1fb8:	157c           	movi.n	a5, -15
    1fba:	534450        	max	a4, a4, a5
    1fbd:	f67c           	movi.n	a6, -1
    1fbf:	605040        	neg	a5, a4
    1fc2:	116610        	slli	a6, a6, 15
    1fc5:	400500        	ssr	a5
    1fc8:	fc7c           	movi.n	a12, -1
    1fca:	b16060        	sra	a6, a6
    1fcd:	015c10        	slli	a5, a12, 31
    1fd0:	401400        	ssl	a4
    1fd3:	a15500        	sll	a5, a5
    1fd6:	315050        	srai	a5, a5, 16
    1fd9:	a35640        	movltz	a5, a6, a4
    1fdc:	227d           	ae_l16si.n	a7, a2, 0
    1fde:	1155f0        	slli	a5, a5, 1
    1fe1:	60e050        	neg	a14, a5
    1fe4:	1d0c           	movi.n	a13, 1
    1fe6:	825e70        	mull	a5, a14, a7
    1fe9:	114d10        	slli	a4, a13, 15
    1fec:	f30b           	addi.n	a15, a3, -1
    1fee:	554a           	add.n	a5, a5, a4
    1ff0:	0e3d           	mov.n	a3, a14
    1ff2:	0d9f76        	loopnez	a15, 2003 <LC3Plus_Scale_sig_sat+0x7b>
    1ff5:	326d           	ae_l16si.n	a6, a2, 2
    1ff7:	315050        	srai	a5, a5, 16
    1ffa:	625d           	ae_s16i.n	a5, a2, 0
    1ffc:	825360        	mull	a5, a3, a6
    1fff:	222b           	addi.n	a2, a2, 2
    2001:	554a           	add.n	a5, a5, a4

00002003 <LC3Plus_Scale_sig_sat+0x7b>:
    2003:	313050        	srai	a3, a5, 16
    2006:	ffe846        	j	1fab <LC3Plus_Scale_sig_sat+0x23>

00002009 <LC3Plus_Scale_sig_sat+0x81>:
    2009:	000000                                        ...

0000200c <LC3Plus_Copy_Scale_sig>:
    200c:	004136        	entry	a1, 32
    200f:	fec332        	addi	a3, a3, -2
    2012:	b59c           	beqz.n	a5, 2031 <LC3Plus_Copy_Scale_sig+0x25>
    2014:	034596        	bltz	a5, 204c <LC3Plus_Copy_Scale_sig+0x40>
    2017:	031654        	wur.ae_sar	a5
    201a:	2a14a6        	blti	a4, 1, 2048 <LC3Plus_Copy_Scale_sig+0x3c>
    201d:	408204        	ae_lp16f.iu	aep0, a2, 0
    2020:	088476        	loop	a4, 202c <LC3Plus_Copy_Scale_sig+0x20>
    2023:	0b0084        	ae_sllssp24s	aep0, aep0
    2026:	428314        	ae_sp16f.l.iu	aep0, a3, 2
    2029:	408214        	ae_lp16f.iu	aep0, a2, 2

0000202c <LC3Plus_Copy_Scale_sig+0x20>:
    202c:	000606        	j	2048 <LC3Plus_Copy_Scale_sig+0x3c>

0000202f <LC3Plus_Copy_Scale_sig+0x23>:
	...

00002031 <LC3Plus_Copy_Scale_sig+0x25>:
    2031:	f57c           	movi.n	a5, -1
    2033:	415150        	srli	a5, a5, 1
    2036:	0e0547        	bnone	a5, a4, 2048 <LC3Plus_Copy_Scale_sig+0x3c>
    2039:	104450        	and	a4, a4, a5
    203c:	408204        	ae_lp16f.iu	aep0, a2, 0
    203f:	058476        	loop	a4, 2048 <LC3Plus_Copy_Scale_sig+0x3c>
    2042:	428314        	ae_sp16f.l.iu	aep0, a3, 2
    2045:	408214        	ae_lp16f.iu	aep0, a2, 2

00002048 <LC3Plus_Copy_Scale_sig+0x3c>:
    2048:	f01d           	retw.n

0000204a <LC3Plus_Copy_Scale_sig+0x3e>:
	...

0000204c <LC3Plus_Copy_Scale_sig+0x40>:
    204c:	605050        	neg	a5, a5
    204f:	400500        	ssr	a5
    2052:	f214a6        	blti	a4, 1, 2048 <LC3Plus_Copy_Scale_sig+0x3c>
    2055:	f57c           	movi.n	a5, -1
    2057:	115510        	slli	a5, a5, 15
    205a:	b15050        	sra	a5, a5
    205d:	300554        	ae_cvtp24a16x2.ll	aep0, a5, a5
    2060:	fc182c920f 	{ ae_lp16f.iu	aep1, a2, 0; ae_negsp24s	aep0, aep0 }
    2065:	0b8476        	loop	a4, 2074 <LC3Plus_Copy_Scale_sig+0x68>
    2068:	011074        	ae_mulfp24s.ll	aeq0, aep1, aep0
    206b:	1b8f14        	ae_roundsp16q48asym	aep1, aeq0
    206e:	429314        	ae_sp16f.l.iu	aep1, a3, 2
    2071:	409214        	ae_lp16f.iu	aep1, a2, 2

00002074 <LC3Plus_Copy_Scale_sig+0x68>:
    2074:	fff406        	j	2048 <LC3Plus_Copy_Scale_sig+0x3c>

00002077 <LC3Plus_Copy_Scale_sig+0x6b>:
	...

00002078 <LC3Plus_BASOP_Util_Add_Mant32Exp>:
    2078:	004136        	entry	a1, 32
    207b:	833520        	moveqz	a3, a5, a2
    207e:	835340        	moveqz	a5, a3, a4
    2081:	c08350        	sub	a8, a3, a5
    2084:	176c           	movi.n	a7, -31
    2086:	888d           	ae_sext16	a8, a8
    2088:	537780        	max	a7, a7, a8
    208b:	ff1c           	movi.n	a15, 31
    208d:	437f70        	min	a7, a15, a7
    2090:	048796        	bltz	a7, 20dc <LC3Plus_BASOP_Util_Add_Mant32Exp+0x64>
    2093:	ffaf82        	movi	a8, -1
    2096:	f48080        	extui	a8, a8, 0, 16
    2099:	050877        	bnone	a8, a7, 20a2 <LC3Plus_BASOP_Util_Add_Mant32Exp+0x2a>
    209c:	400700        	ssr	a7
    209f:	b14040        	sra	a4, a4

000020a2 <LC3Plus_BASOP_Util_Add_Mant32Exp+0x2a>:
    20a2:	212120        	srai	a2, a2, 1
    20a5:	214140        	srai	a4, a4, 1
    20a8:	442a           	add.n	a4, a4, a2
    20aa:	420426        	beqi	a4, -1, 20f0 <LC3Plus_BASOP_Util_Add_Mant32Exp+0x78>
    20ad:	020c           	movi.n	a2, 0
    20af:	070c           	movi.n	a7, 0
    20b1:	34ac           	beqz.n	a4, 20d8 <LC3Plus_BASOP_Util_Add_Mant32Exp+0x60>
    20b3:	312f40        	srai	a2, a4, 31
    20b6:	302240        	xor	a2, a2, a4
    20b9:	40f220        	nsau	a2, a2
    20bc:	720b           	addi.n	a7, a2, -1
    20be:	87bc           	beqz.n	a7, 20fa <LC3Plus_BASOP_Util_Add_Mant32Exp+0x82>
    20c0:	608070        	neg	a8, a7
    20c3:	400800        	ssr	a8
    20c6:	b18040        	sra	a8, a4
    20c9:	401700        	ssl	a7
    20cc:	a14400        	sll	a4, a4
    20cf:	834820        	moveqz	a4, a8, a2
    20d2:	64ec           	bnez.n	a4, 20fc <LC3Plus_BASOP_Util_Add_Mant32Exp+0x84>
    20d4:	020c           	movi.n	a2, 0
    20d6:	070c           	movi.n	a7, 0
    20d8:	667d           	ae_s16i.n	a7, a6, 0
    20da:	f01d           	retw.n

000020dc <LC3Plus_BASOP_Util_Add_Mant32Exp+0x64>:
    20dc:	607070        	neg	a7, a7
    20df:	400700        	ssr	a7
    20e2:	b12020        	sra	a2, a2
    20e5:	212120        	srai	a2, a2, 1
    20e8:	214140        	srai	a4, a4, 1
    20eb:	442a           	add.n	a4, a4, a2
    20ed:	bc0466        	bnei	a4, -1, 20ad <LC3Plus_BASOP_Util_Add_Mant32Exp+0x35>
    20f0:	f47c           	movi.n	a4, -1
    20f2:	014410        	slli	a4, a4, 31
    20f5:	f71c           	movi.n	a7, 31
    20f7:	000046        	j	20fc <LC3Plus_BASOP_Util_Add_Mant32Exp+0x84>

000020fa <LC3Plus_BASOP_Util_Add_Mant32Exp+0x82>:
    20fa:	070c           	movi.n	a7, 0
    20fc:	532350        	max	a2, a3, a5
    20ff:	321b           	addi.n	a3, a2, 1
    2101:	c07370        	sub	a7, a3, a7
    2104:	042d           	mov.n	a2, a4
    2106:	667d           	ae_s16i.n	a7, a6, 0
    2108:	f01d           	retw.n

0000210a <LC3Plus_BASOP_Util_Add_Mant32Exp+0x92>:
	...

0000210c <LC3Plus_BASOP_Util_Cmp_Mant32Exp>:
    210c:	004136        	entry	a1, 32
    210f:	270226        	beqi	a2, -1, 213a <LC3Plus_BASOP_Util_Cmp_Mant32Exp+0x2e>
    2112:	060c           	movi.n	a6, 0
    2114:	c2ac           	beqz.n	a2, 2144 <LC3Plus_BASOP_Util_Cmp_Mant32Exp+0x38>
    2116:	316f20        	srai	a6, a2, 31
    2119:	306620        	xor	a6, a6, a2
    211c:	40f680        	nsau	a8, a6
    211f:	780b           	addi.n	a7, a8, -1
    2121:	026d           	mov.n	a6, a2
    2123:	d79c           	beqz.n	a7, 2144 <LC3Plus_BASOP_Util_Cmp_Mant32Exp+0x38>
    2125:	606070        	neg	a6, a7
    2128:	400600        	ssr	a6
    212b:	b19020        	sra	a9, a2
    212e:	401700        	ssl	a7
    2131:	a16200        	sll	a6, a2
    2134:	836980        	moveqz	a6, a9, a8
    2137:	000186        	j	2141 <LC3Plus_BASOP_Util_Cmp_Mant32Exp+0x35>

0000213a <LC3Plus_BASOP_Util_Cmp_Mant32Exp+0x2e>:
    213a:	f67c           	movi.n	a6, -1
    213c:	016610        	slli	a6, a6, 31
    213f:	f71c           	movi.n	a7, 31
    2141:	c03370        	sub	a3, a3, a7
    2144:	c48c           	beqz.n	a4, 2154 <LC3Plus_BASOP_Util_Cmp_Mant32Exp+0x48>
    2146:	160466        	bnei	a4, -1, 2160 <LC3Plus_BASOP_Util_Cmp_Mant32Exp+0x54>
    2149:	f47c           	movi.n	a4, -1
    214b:	e1c552        	addi	a5, a5, -31
    214e:	014410        	slli	a4, a4, 31
    2151:	000f46        	j	2192 <LC3Plus_BASOP_Util_Cmp_Mant32Exp+0x86>

00002154 <LC3Plus_BASOP_Util_Cmp_Mant32Exp+0x48>:
    2154:	935360        	movnez	a5, a3, a6
    2157:	040c           	movi.n	a4, 0
    2159:	080c           	movi.n	a8, 0
    215b:	053d           	mov.n	a3, a5
    215d:	001506        	j	21b5 <LC3Plus_BASOP_Util_Cmp_Mant32Exp+0xa9>

00002160 <LC3Plus_BASOP_Util_Cmp_Mant32Exp+0x54>:
    2160:	312f40        	srai	a2, a4, 31
    2163:	302240        	xor	a2, a2, a4
    2166:	40f220        	nsau	a2, a2
    2169:	720b           	addi.n	a7, a2, -1
    216b:	37ac           	beqz.n	a7, 2192 <LC3Plus_BASOP_Util_Cmp_Mant32Exp+0x86>
    216d:	608070        	neg	a8, a7
    2170:	400800        	ssr	a8
    2173:	b18040        	sra	a8, a4
    2176:	401700        	ssl	a7
    2179:	a14400        	sll	a4, a4
    217c:	c05570        	sub	a5, a5, a7
    217f:	834820        	moveqz	a4, a8, a2
    2182:	833560        	moveqz	a3, a5, a6
    2185:	c4cc           	bnez.n	a4, 2195 <LC3Plus_BASOP_Util_Cmp_Mant32Exp+0x89>
    2187:	040c           	movi.n	a4, 0
    2189:	035d           	mov.n	a5, a3
    218b:	080c           	movi.n	a8, 0
    218d:	000906        	j	21b5 <LC3Plus_BASOP_Util_Cmp_Mant32Exp+0xa9>

00002190 <LC3Plus_BASOP_Util_Cmp_Mant32Exp+0x84>:
	...

00002192 <LC3Plus_BASOP_Util_Cmp_Mant32Exp+0x86>:
    2192:	833560        	moveqz	a3, a5, a6
    2195:	058f40        	extui	a8, a4, 31, 1
    2198:	0416a6        	blti	a6, 1, 21a0 <LC3Plus_BASOP_Util_Cmp_Mant32Exp+0x94>
    219b:	170c           	movi.n	a7, 1
    219d:	007496        	bltz	a4, 21a8 <LC3Plus_BASOP_Util_Cmp_Mant32Exp+0x9c>
    21a0:	0116d6        	bgez	a6, 21b5 <LC3Plus_BASOP_Util_Cmp_Mant32Exp+0xa9>
    21a3:	f77c           	movi.n	a7, -1
    21a5:	0c14a6        	blti	a4, 1, 21b5 <LC3Plus_BASOP_Util_Cmp_Mant32Exp+0xa9>
    21a8:	c03350        	sub	a3, a3, a5
    21ab:	120c           	movi.n	a2, 1
    21ad:	935d           	ae_zext16	a5, a3
    21af:	625520        	saltu	a5, a5, a2
    21b2:	000706        	j	21d2 <LC3Plus_BASOP_Util_Cmp_Mant32Exp+0xc6>

000021b5 <LC3Plus_BASOP_Util_Cmp_Mant32Exp+0xa9>:
    21b5:	c03350        	sub	a3, a3, a5
    21b8:	c07640        	sub	a7, a6, a4
    21bb:	120c           	movi.n	a2, 1
    21bd:	935d           	ae_zext16	a5, a3
    21bf:	625520        	saltu	a5, a5, a2
    21c2:	c7cc           	bnez.n	a7, 21d2 <LC3Plus_BASOP_Util_Cmp_Mant32Exp+0xc6>
    21c4:	f97c           	movi.n	a9, -1
    21c6:	f49090        	extui	a9, a9, 0, 16
    21c9:	020c           	movi.n	a2, 0
    21cb:	038937        	bany	a9, a3, 21d2 <LC3Plus_BASOP_Util_Cmp_Mant32Exp+0xc6>
    21ce:	822d           	ae_sext16	a2, a2
    21d0:	f01d           	retw.n

000021d2 <LC3Plus_BASOP_Util_Cmp_Mant32Exp+0xc6>:
    21d2:	01e696        	bltz	a6, 21f4 <LC3Plus_BASOP_Util_Cmp_Mant32Exp+0xe8>
    21d5:	120c           	movi.n	a2, 1
    21d7:	08cc           	bnez.n	a8, 21db <LC3Plus_BASOP_Util_Cmp_Mant32Exp+0xcf>
    21d9:	f27c           	movi.n	a2, -1

000021db <LC3Plus_BASOP_Util_Cmp_Mant32Exp+0xcf>:
    21db:	fef496        	bltz	a4, 21ce <LC3Plus_BASOP_Util_Cmp_Mant32Exp+0xc2>
    21de:	833d           	ae_sext16	a3, a3
    21e0:	040c           	movi.n	a4, 0
    21e2:	160c           	movi.n	a6, 1
    21e4:	458c           	beqz.n	a5, 21ec <LC3Plus_BASOP_Util_Cmp_Mant32Exp+0xe0>
    21e6:	725470        	salt	a5, a4, a7
    21e9:	932650        	movnez	a2, a6, a5
    21ec:	723430        	salt	a3, a4, a3
    21ef:	932630        	movnez	a2, a6, a3
    21f2:	f01d           	retw.n

000021f4 <LC3Plus_BASOP_Util_Cmp_Mant32Exp+0xe8>:
    21f4:	589c           	beqz.n	a8, 220d <LC3Plus_BASOP_Util_Cmp_Mant32Exp+0x101>
    21f6:	833d           	ae_sext16	a3, a3
    21f8:	f47c           	movi.n	a4, -1
    21fa:	658c           	beqz.n	a5, 2204 <LC3Plus_BASOP_Util_Cmp_Mant32Exp+0xf8>
    21fc:	020c           	movi.n	a2, 0
    21fe:	722270        	salt	a2, a2, a7
    2201:	904240        	addx2	a4, a2, a4
    2204:	120c           	movi.n	a2, 1
    2206:	b32430        	movgez	a2, a4, a3
    2209:	822d           	ae_sext16	a2, a2
    220b:	f01d           	retw.n

0000220d <LC3Plus_BASOP_Util_Cmp_Mant32Exp+0x101>:
    220d:	f27c           	movi.n	a2, -1
    220f:	f42020        	extui	a2, a2, 0, 16
    2212:	822d           	ae_sext16	a2, a2
    2214:	f01d           	retw.n

00002216 <LC3Plus_BASOP_Util_Cmp_Mant32Exp+0x10a>:
	...

00002218 <LC3Plus_Isqrt>:
    2218:	004136        	entry	a1, 32
    221b:	5412a6        	blti	a2, 1, 2273 <LC3Plus_Isqrt+0x5b>
    221e:	f7cf41        	l32r	a4, 15c (20d70 <LC3Plus_isqrt_table>)
    2221:	656720        	extui	a6, a2, 23, 7
    2224:	e4e820        	extui	a14, a2, 8, 15
    2227:	a04640        	addx4	a4, a6, a4
    222a:	1468           	l32i.n	a6, a4, 4
    222c:	0478           	l32i.n	a7, a4, 0
    222e:	435d           	ae_l16ui.n	a5, a3, 0
    2230:	c06670        	sub	a6, a6, a7
    2233:	8286e0        	mull	a8, a6, a14
    2236:	b226e0        	mulsh	a2, a6, a14
    2239:	41ff80        	srli	a15, a8, 15
    223c:	1be2f0        	depbits	a15, a2, 17, 15
    223f:	854d           	ae_sext16	a4, a5
    2241:	27fa           	add.n	a2, a7, a15
    2243:	1a6507        	bbci	a5, 0, 2261 <LC3Plus_Isqrt+0x49>
    2246:	82a062        	movi	a6, 130
    2249:	5ad662        	addmi	a6, a6, 0x5a00
    224c:	82e260        	mull	a14, a2, a6
    224f:	045050        	extui	a5, a5, 0, 1
    2252:	b2f260        	mulsh	a15, a2, a6
    2255:	401500        	ssl	a5
    2258:	415fe0        	srli	a5, a14, 15
    225b:	1bef50        	depbits	a5, a15, 17, 15
    225e:	a12500        	sll	a2, a5

00002261 <LC3Plus_Isqrt+0x49>:
    2261:	150c           	movi.n	a5, 1
    2263:	115500        	slli	a5, a5, 16
    2266:	114410        	slli	a4, a4, 15
    2269:	c04540        	sub	a4, a5, a4
    226c:	f54040        	extui	a4, a4, 16, 16
    226f:	634d           	ae_s16i.n	a4, a3, 0
    2271:	f01d           	retw.n

00002273 <LC3Plus_Isqrt+0x5b>:
    2273:	f27c           	movi.n	a2, -1
    2275:	040c           	movi.n	a4, 0
    2277:	412120        	srli	a2, a2, 1
    227a:	634d           	ae_s16i.n	a4, a3, 0
    227c:	f01d           	retw.n

0000227e <LC3Plus_Isqrt+0x66>:
	...

00002280 <LC3Plus_BASOP_Util_Log2_16>:
    2280:	006136        	entry	a1, 48
    2283:	05f216        	beqz	a2, 22e6 <LC3Plus_BASOP_Util_Log2_16+0x66>
    2286:	360234        	ae_cvtq48a32s	aeq0, a2
    2289:	364604        	ae_nsaq56s	a6, aeq0
    228c:	dfaf42        	movi	a4, -33
    228f:	114410        	slli	a4, a4, 15
    2292:	eec662        	addi	a6, a6, -18
    2295:	116600        	slli	a6, a6, 16
    2298:	316060        	srai	a6, a6, 16
    229b:	fc24fe860f 	{ ae_slaasq56s	aeq0, aeq0, a6; nop }
    22a0:	364434        	ae_cvtq48a32s	aeq1, a4
    22a3:	f9663f0eef 	{ ae_trunca32q48	a14, aeq0; ae_addq56	aeq1, aeq0, aeq1 }
    22a8:	f86b8fffbf 	{ movi	a11, -1; ae_roundsp16q48asym	aep0, aeq1 }
    22ad:	420164        	ae_sp16f.l.i	aep0, a1, 12
    22b0:	f7acc1        	l32r	a12, 160 (20f80 <LC3Plus_Log2_16_table1>)
    22b3:	069152        	l16si	a5, a1, 12
    22b6:	f7abd1        	l32r	a13, 164 (20fc0 <LC3Plus_Log2_16_table2>)
    22b9:	3026b0        	xor	a2, a6, a11
    22bc:	a045c0        	addx4	a4, a5, a12
    22bf:	9055d0        	addx2	a5, a5, a13
    22c2:	255d           	ae_l16si.n	a5, a5, 0
    22c4:	223a           	add.n	a2, a2, a3
    22c6:	9436e0        	extui	a3, a14, 6, 10
    22c9:	0448           	l32i.n	a4, a4, 0
    22cb:	1133f0        	slli	a3, a3, 1
    22ce:	1f0c           	movi.n	a15, 1
    22d0:	116f10        	slli	a6, a15, 15
    22d3:	d13350        	mul16s	a3, a3, a5
    22d6:	446a           	add.n	a4, a4, a6
    22d8:	334a           	add.n	a3, a3, a4
    22da:	112270        	slli	a2, a2, 9
    22dd:	f53030        	extui	a3, a3, 16, 16
    22e0:	223a           	add.n	a2, a2, a3
    22e2:	822d           	ae_sext16	a2, a2
    22e4:	f01d           	retw.n

000022e6 <LC3Plus_BASOP_Util_Log2_16+0x66>:
    22e6:	120c           	movi.n	a2, 1
    22e8:	112210        	slli	a2, a2, 15
    22eb:	822d           	ae_sext16	a2, a2
    22ed:	f01d           	retw.n

000022ef <LC3Plus_BASOP_Util_Log2_16+0x6f>:
	...

000022f0 <LC3Plus_BASOP_Util_InvLog2_16>:
    22f0:	004136        	entry	a1, 32
    22f3:	f79e51        	l32r	a5, 16c (210e0 <LC3Plus_InvLog2_16_table2>)
    22f6:	f79c41        	l32r	a4, 168 (20fe0 <LC3Plus_InvLog2_16_table1>)
    22f9:	547520        	extui	a7, a2, 5, 6
    22fc:	905750        	addx2	a5, a7, a5
    22ff:	a04740        	addx4	a4, a7, a4
    2302:	25dd           	ae_l16si.n	a13, a5, 0
    2304:	44c020        	extui	a12, a2, 0, 5
    2307:	0448           	l32i.n	a4, a4, 0
    2309:	160c           	movi.n	a6, 1
    230b:	11ecb0        	slli	a14, a12, 5
    230e:	418b20        	srli	a8, a2, 11
    2311:	116610        	slli	a6, a6, 15
    2314:	d12ed0        	mul16s	a2, a14, a13
    2317:	446a           	add.n	a4, a4, a6
    2319:	224a           	add.n	a2, a2, a4
    231b:	f81b           	addi.n	a15, a8, 1
    231d:	312020        	srai	a2, a2, 16
    2320:	63fd           	ae_s16i.n	a15, a3, 0
    2322:	f01d           	retw.n

00002324 <LC3Plus_invFixp>:
    2324:	004136        	entry	a1, 32
    2327:	0f22f6        	bgeui	a2, 2, 233a <LC3Plus_invFixp+0x16>
    232a:	232d           	ae_l16si.n	a2, a3, 0
    232c:	f41c           	movi.n	a4, 31
    232e:	ff7c           	movi.n	a15, -1
    2330:	c04420        	sub	a4, a4, a2
    2333:	4121f0        	srli	a2, a15, 1
    2336:	634d           	ae_s16i.n	a4, a3, 0
    2338:	f01d           	retw.n

0000233a <LC3Plus_invFixp+0x16>:
    233a:	0d0226        	beqi	a2, -1, 234b <LC3Plus_invFixp+0x27>
    233d:	314f20        	srai	a4, a2, 31
    2340:	304420        	xor	a4, a4, a2
    2343:	40f440        	nsau	a4, a4
    2346:	440b           	addi.n	a4, a4, -1
    2348:	000046        	j	234d <LC3Plus_invFixp+0x29>

0000234b <LC3Plus_invFixp+0x27>:
    234b:	f41c           	movi.n	a4, 31
    234d:	401400        	ssl	a4
    2350:	f78951        	l32r	a5, 174 (21160 <LC3Plus_invSqrtTab>)
    2353:	a12200        	sll	a2, a2
    2356:	656720        	extui	a6, a2, 23, 7
    2359:	a07650        	addx4	a7, a6, a5
    235c:	f78591        	l32r	a9, 170 (7fffff00 <_end+0x7ffd0f28>)
    235f:	1758           	l32i.n	a5, a7, 4
    2361:	07f8           	l32i.n	a15, a7, 0
    2363:	11a280        	slli	a10, a2, 8
    2366:	106a90        	and	a6, a10, a9
    2369:	c085f0        	sub	a8, a5, a15
    236c:	b2b860        	mulsh	a11, a8, a6
    236f:	442b           	addi.n	a4, a4, 2
    2371:	902bf0        	addx2	a2, a11, a15
    2374:	1909a7        	bnone	a9, a10, 2391 <LC3Plus_invFixp+0x6d>
    2377:	f97c           	movi.n	a9, -1
    2379:	019910        	slli	a9, a9, 31
    237c:	c0f960        	sub	a15, a9, a6
    237f:	2778           	l32i.n	a7, a7, 8
    2381:	b26f60        	mulsh	a6, a15, a6
    2384:	585a           	add.n	a5, a8, a5
    2386:	c05570        	sub	a5, a5, a7
    2389:	1166f0        	slli	a6, a6, 1
    238c:	b25560        	mulsh	a5, a5, a6
    238f:	252a           	add.n	a2, a5, a2
    2391:	086407        	bbci	a4, 0, 239d <LC3Plus_invFixp+0x79>
    2394:	f77951        	l32r	a5, 178 (5a827999 <_end+0x5a7f89c1>)
    2397:	b22250        	mulsh	a2, a2, a5
    239a:	1122e0        	slli	a2, a2, 2
    239d:	e67c           	movi.n	a6, -2
    239f:	235d           	ae_l16si.n	a5, a3, 0
    23a1:	f46060        	extui	a6, a6, 0, 16
    23a4:	104460        	and	a4, a4, a6
    23a7:	c04450        	sub	a4, a4, a5
    23aa:	441b           	addi.n	a4, a4, 1
    23ac:	b22220        	mulsh	a2, a2, a2
    23af:	634d           	ae_s16i.n	a4, a3, 0
    23b1:	f01d           	retw.n

000023b3 <LC3Plus_invFixp+0x8f>:
	...

000023b4 <LC3Plus_BASOP_getTables>:
    23b4:	004136        	entry	a1, 32
    23b7:	f77161        	l32r	a6, 17c (18d70 <LC3Plus_SineTable320>)
    23ba:	9fa072        	movi	a7, 159
    23bd:	23a757        	bge	a7, a5, 23e4 <LC3Plus_BASOP_getTables+0x30>
    23c0:	3fa172        	movi	a7, 0x13f
    23c3:	35a757        	bge	a7, a5, 23fc <LC3Plus_BASOP_getTables+0x48>
    23c6:	40a172        	movi	a7, 0x140
    23c9:	571577        	beq	a5, a7, 2424 <LC3Plus_BASOP_getTables+0x70>
    23cc:	e0a162        	movi	a6, 0x1e0
    23cf:	591567        	beq	a5, a6, 242c <LC3Plus_BASOP_getTables+0x78>
    23d2:	c0a362        	movi	a6, 0x3c0
    23d5:	7b9567        	bne	a5, a6, 2454 <LC3Plus_BASOP_getTables+0xa0>
    23d8:	f76d51        	l32r	a5, 18c (1b950 <LC3Plus_SineWindow960>)
    23db:	f76d61        	l32r	a6, 190 (19280 <LC3Plus_SineTable960>)
    23de:	270c           	movi.n	a7, 2
    23e0:	001a86        	j	244e <LC3Plus_BASOP_getTables+0x9a>

000023e3 <LC3Plus_BASOP_getTables+0x2f>:
	...

000023e4 <LC3Plus_BASOP_getTables+0x30>:
    23e4:	f74c           	movi.n	a7, 79
    23e6:	262757        	blt	a7, a5, 2410 <LC3Plus_BASOP_getTables+0x5c>
    23e9:	882c           	movi.n	a8, 40
    23eb:	071c           	movi.n	a7, 16
    23ed:	471587        	beq	a5, a8, 2438 <LC3Plus_BASOP_getTables+0x84>
    23f0:	c63c           	movi.n	a6, 60
    23f2:	5e9567        	bne	a5, a6, 2454 <LC3Plus_BASOP_getTables+0xa0>
    23f5:	f76751        	l32r	a5, 194 (1a280 <LC3Plus_SineWindow60>)
    23f8:	000d46        	j	2431 <LC3Plus_BASOP_getTables+0x7d>

000023fb <LC3Plus_BASOP_getTables+0x47>:
	...

000023fc <LC3Plus_BASOP_getTables+0x48>:
    23fc:	a0a072        	movi	a7, 160
    23ff:	3d1577        	beq	a5, a7, 2440 <LC3Plus_BASOP_getTables+0x8c>
    2402:	f0a062        	movi	a6, 240
    2405:	4b9567        	bne	a5, a6, 2454 <LC3Plus_BASOP_getTables+0xa0>
    2408:	f76051        	l32r	a5, 188 (1a910 <LC3Plus_SineWindow240>)
    240b:	470c           	movi.n	a7, 4
    240d:	000806        	j	2431 <LC3Plus_BASOP_getTables+0x7d>

00002410 <LC3Plus_BASOP_getTables+0x5c>:
    2410:	075c           	movi.n	a7, 80
    2412:	331577        	beq	a5, a7, 2449 <LC3Plus_BASOP_getTables+0x95>
    2415:	78a062        	movi	a6, 120
    2418:	389567        	bne	a5, a6, 2454 <LC3Plus_BASOP_getTables+0xa0>
    241b:	f75a51        	l32r	a5, 184 (1a4b0 <LC3Plus_SineWindow120>)
    241e:	870c           	movi.n	a7, 8
    2420:	000346        	j	2431 <LC3Plus_BASOP_getTables+0x7d>

00002423 <LC3Plus_BASOP_getTables+0x6f>:
	...

00002424 <LC3Plus_BASOP_getTables+0x70>:
    2424:	f75f51        	l32r	a5, 1a0 (1acd0 <LC3Plus_SineWindow320>)
    2427:	270c           	movi.n	a7, 2
    2429:	000846        	j	244e <LC3Plus_BASOP_getTables+0x9a>

0000242c <LC3Plus_BASOP_getTables+0x78>:
    242c:	f75e51        	l32r	a5, 1a4 (1b1d0 <LC3Plus_SineWindow480>)
    242f:	270c           	movi.n	a7, 2
    2431:	f75d61        	l32r	a6, 1a8 (185e0 <LC3Plus_SineTable480>)
    2434:	000586        	j	244e <LC3Plus_BASOP_getTables+0x9a>

00002437 <LC3Plus_BASOP_getTables+0x83>:
	...

00002438 <LC3Plus_BASOP_getTables+0x84>:
    2438:	f75251        	l32r	a5, 180 (1a1e0 <SineWindow40>)
    243b:	0003c6        	j	244e <LC3Plus_BASOP_getTables+0x9a>

0000243e <LC3Plus_BASOP_getTables+0x8a>:
	...

00002440 <LC3Plus_BASOP_getTables+0x8c>:
    2440:	f75751        	l32r	a5, 19c (1a690 <LC3Plus_SineWindow160>)
    2443:	470c           	movi.n	a7, 4
    2445:	000146        	j	244e <LC3Plus_BASOP_getTables+0x9a>

00002448 <LC3Plus_BASOP_getTables+0x94>:
	...

00002449 <LC3Plus_BASOP_getTables+0x95>:
    2449:	f75351        	l32r	a5, 198 (1a370 <LC3Plus_SineWindow80>)
    244c:	870c           	movi.n	a7, 8
    244e:	0369           	s32i.n	a6, a3, 0
    2450:	647d           	ae_s16i.n	a7, a4, 0
    2452:	0259           	s32i.n	a5, a2, 0
    2454:	f01d           	retw.n

00002456 <LC3Plus_BASOP_getTables+0xa2>:
	...

00002458 <LC3Plus_dct32_fx>:
    2458:	00e136        	entry	a1, 112
    245b:	a248           	l32i.n	a4, a2, 40
    245d:	5258           	l32i.n	a5, a2, 20
    245f:	d268           	l32i.n	a6, a2, 52
    2461:	2278           	l32i.n	a7, a2, 8
    2463:	82a0c2        	movi	a12, 130
    2466:	7ea0f2        	movi	a15, 126
    2469:	136132        	s32i	a3, a1, 76
    246c:	5adc32        	addmi	a3, a12, 0x5a00
    246f:	c08540        	sub	a8, a5, a4
    2472:	c0d760        	sub	a13, a7, a6
    2475:	454a           	add.n	a4, a5, a4
    2477:	676a           	add.n	a6, a7, a6
    2479:	c09640        	sub	a9, a6, a4
    247c:	82ed30        	mull	a14, a13, a3
    247f:	a5dff2        	addmi	a15, a15, 0xffffa500
    2482:	b199           	s32i.n	a9, a1, 44
    2484:	b25d30        	mulsh	a5, a13, a3
    2487:	8298f0        	mull	a9, a8, a15
    248a:	82a830        	mull	a10, a8, a3
    248d:	417fe0        	srli	a7, a14, 15
    2490:	446a           	add.n	a4, a4, a6
    2492:	b2b830        	mulsh	a11, a8, a3
    2495:	b288f0        	mulsh	a8, a8, a15
    2498:	1be570        	depbits	a7, a5, 17, 15
    249b:	415f90        	srli	a5, a9, 15
    249e:	a149           	s32i.n	a4, a1, 40
    24a0:	414fa0        	srli	a4, a10, 15
    24a3:	1beb40        	depbits	a4, a11, 17, 15
    24a6:	1be850        	depbits	a5, a8, 17, 15
    24a9:	e268           	l32i.n	a6, a2, 56
    24ab:	1288           	l32i.n	a8, a2, 4
    24ad:	b2c8           	l32i.n	a12, a2, 44
    24af:	42d8           	l32i.n	a13, a2, 16
    24b1:	447a           	add.n	a4, a4, a7
    24b3:	757a           	add.n	a7, a5, a7
    24b5:	9298           	l32i.n	a9, a2, 36
    24b7:	62a8           	l32i.n	a10, a2, 24
    24b9:	c258           	l32i.n	a5, a2, 48
    24bb:	32b8           	l32i.n	a11, a2, 12
    24bd:	c03dc0        	sub	a3, a13, a12
    24c0:	cdca           	add.n	a12, a13, a12
    24c2:	d86a           	add.n	a13, a8, a6
    24c4:	c06860        	sub	a6, a8, a6
    24c7:	c0eb50        	sub	a14, a11, a5
    24ca:	5b5a           	add.n	a5, a11, a5
    24cc:	1261c2        	s32i	a12, a1, 72
    24cf:	c0ba90        	sub	a11, a10, a9
    24d2:	c08640        	sub	a8, a6, a4
    24d5:	446a           	add.n	a4, a4, a6
    24d7:	bea0c2        	movi	a12, 190
    24da:	82a062        	movi	a6, 130
    24dd:	9a9a           	add.n	a9, a10, a9
    24df:	116152        	s32i	a5, a1, 68
    24e2:	c05b70        	sub	a5, a11, a7
    24e5:	91d9           	s32i.n	a13, a1, 36
    24e7:	89dca2        	addmi	a10, a12, 0xffff8900
    24ea:	77ba           	add.n	a7, a7, a11
    24ec:	5ad6c2        	addmi	a12, a6, 0x5a00
    24ef:	4d0c           	movi.n	a13, 4
    24f1:	8199           	s32i.n	a9, a1, 32
    24f3:	2179           	s32i.n	a7, a1, 8
    24f5:	cfdd72        	addmi	a7, a13, 0xffffcf00
    24f8:	829ec0        	mull	a9, a14, a12
    24fb:	82d3c0        	mull	a13, a3, a12
    24fe:	b2bec0        	mulsh	a11, a14, a12
    2501:	82e3f0        	mull	a14, a3, a15
    2504:	b2f3f0        	mulsh	a15, a3, a15
    2507:	b233c0        	mulsh	a3, a3, a12
    250a:	416f90        	srli	a6, a9, 15
    250d:	419fd0        	srli	a9, a13, 15
    2510:	1beb60        	depbits	a6, a11, 17, 15
    2513:	1be390        	depbits	a9, a3, 17, 15
    2516:	41bfe0        	srli	a11, a14, 15
    2519:	e96a           	add.n	a14, a9, a6
    251b:	8298           	l32i.n	a9, a2, 32
    251d:	72c8           	l32i.n	a12, a2, 28
    251f:	1befb0        	depbits	a11, a15, 17, 15
    2522:	3b6a           	add.n	a3, a11, a6
    2524:	dc9a           	add.n	a13, a12, a9
    2526:	c0cc90        	sub	a12, a12, a9
    2529:	1061d2        	s32i	a13, a1, 64
    252c:	b2d570        	mulsh	a13, a5, a7
    252f:	b298a0        	mulsh	a9, a8, a10
    2532:	827570        	mull	a7, a5, a7
    2535:	82a8a0        	mull	a10, a8, a10
    2538:	6c3a           	add.n	a6, a12, a3
    253a:	f2b8           	l32i.n	a11, a2, 60
    253c:	02f8           	l32i.n	a15, a2, 0
    253e:	3169           	s32i.n	a6, a1, 12
    2540:	416f70        	srli	a6, a7, 15
    2543:	c02c30        	sub	a2, a12, a3
    2546:	413fa0        	srli	a3, a10, 15
    2549:	1bed60        	depbits	a6, a13, 17, 15
    254c:	1be930        	depbits	a3, a9, 17, 15
    254f:	336a           	add.n	a3, a3, a6
    2551:	761c           	movi.n	a6, 23
    2553:	c32a           	add.n	a12, a3, a2
    2555:	c0d230        	sub	a13, a2, a3
    2558:	d8d622        	addmi	a2, a6, 0xffffd800
    255b:	823d20        	mull	a3, a13, a2
    255e:	fca072        	movi	a7, 252
    2561:	4159           	s32i.n	a5, a1, 16
    2563:	30d752        	addmi	a5, a7, 0x3000
    2566:	b22d20        	mulsh	a2, a13, a2
    2569:	413f30        	srli	a3, a3, 15
    256c:	82a850        	mull	a10, a8, a5
    256f:	1be230        	depbits	a3, a2, 17, 15
    2572:	b29850        	mulsh	a9, a8, a5
    2575:	5139           	s32i.n	a3, a1, 20
    2577:	413fa0        	srli	a3, a10, 15
    257a:	1be930        	depbits	a3, a9, 17, 15
    257d:	21a8           	l32i.n	a10, a1, 8
    257f:	f139           	s32i.n	a3, a1, 60
    2581:	234c           	movi.n	a3, 66
    2583:	76d362        	addmi	a6, a3, 0x7600
    2586:	827460        	mull	a7, a4, a6
    2589:	71c9           	s32i.n	a12, a1, 28
    258b:	82ca50        	mull	a12, a10, a5
    258e:	61d9           	s32i.n	a13, a1, 24
    2590:	b2da50        	mulsh	a13, a10, a5
    2593:	828450        	mull	a8, a4, a5
    2596:	b26460        	mulsh	a6, a4, a6
    2599:	412fc0        	srli	a2, a12, 15
    259c:	413f70        	srli	a3, a7, 15
    259f:	1be630        	depbits	a3, a6, 17, 15
    25a2:	1bed20        	depbits	a2, a13, 17, 15
    25a5:	417f80        	srli	a7, a8, 15
    25a8:	c08fb0        	sub	a8, a15, a11
    25ab:	b25450        	mulsh	a5, a4, a5
    25ae:	923a           	add.n	a9, a2, a3
    25b0:	bea5c2        	movi	a12, 0x5be
    25b3:	4e8a           	add.n	a4, a14, a8
    25b5:	c02490        	sub	a2, a4, a9
    25b8:	a03cc0        	addx4	a3, a12, a12
    25bb:	82d230        	mull	a13, a2, a3
    25be:	fca062        	movi	a6, 252
    25c1:	41cfd0        	srli	a12, a13, 15
    25c4:	22d6d2        	addmi	a13, a6, 0x2200
    25c7:	e1b9           	s32i.n	a11, a1, 56
    25c9:	82b2d0        	mull	a11, a2, a13
    25cc:	b23230        	mulsh	a3, a2, a3
    25cf:	b222d0        	mulsh	a2, a2, a13
    25d2:	1be570        	depbits	a7, a5, 17, 15
    25d5:	415fb0        	srli	a5, a11, 15
    25d8:	1be250        	depbits	a5, a2, 17, 15
    25db:	6fa622        	movi	a2, 0x66f
    25de:	c0b8e0        	sub	a11, a8, a14
    25e1:	f08220        	subx8	a8, a2, a2
    25e4:	494a           	add.n	a4, a9, a4
    25e6:	829480        	mull	a9, a4, a8
    25e9:	70a4e2        	movi	a14, 0x470
    25ec:	1be3c0        	depbits	a12, a3, 17, 15
    25ef:	b28480        	mulsh	a8, a4, a8
    25f2:	8234e0        	mull	a3, a4, a14
    25f5:	419f90        	srli	a9, a9, 15
    25f8:	b244e0        	mulsh	a4, a4, a14
    25fb:	1be890        	depbits	a9, a8, 17, 15
    25fe:	418f30        	srli	a8, a3, 15
    2601:	1be480        	depbits	a8, a4, 17, 15
    2604:	bea042        	movi	a4, 190
    2607:	89d462        	addmi	a6, a4, 0xffff8900
    260a:	822a60        	mull	a2, a10, a6
    260d:	b2aa60        	mulsh	a10, a10, a6
    2610:	414f20        	srli	a4, a2, 15
    2613:	1bea40        	depbits	a4, a10, 17, 15
    2616:	91a932        	movi	a3, 0xfffff991
    2619:	474a           	add.n	a4, a7, a4
    261b:	f07330        	subx8	a7, a3, a3
    261e:	3138           	l32i.n	a3, a1, 12
    2620:	a43a           	add.n	a10, a4, a3
    2622:	822a70        	mull	a2, a10, a7
    2625:	b27a70        	mulsh	a7, a10, a7
    2628:	412f20        	srli	a2, a2, 15
    262b:	1be720        	depbits	a2, a7, 17, 15
    262e:	228a           	add.n	a2, a2, a8
    2630:	828ae0        	mull	a8, a10, a14
    2633:	b2aae0        	mulsh	a10, a10, a14
    2636:	2129           	s32i.n	a2, a1, 8
    2638:	412f80        	srli	a2, a8, 15
    263b:	1bea20        	depbits	a2, a10, 17, 15
    263e:	292a           	add.n	a2, a9, a2
    2640:	42aae2        	movi	a14, 0xfffffa42
    2643:	d129           	s32i.n	a2, a1, 52
    2645:	c04340        	sub	a4, a3, a4
    2648:	a02ee0        	addx4	a2, a14, a14
    264b:	823420        	mull	a3, a4, a2
    264e:	b22420        	mulsh	a2, a4, a2
    2651:	419f30        	srli	a9, a3, 15
    2654:	1be290        	depbits	a9, a2, 17, 15
    2657:	8274d0        	mull	a7, a4, a13
    265a:	4188           	l32i.n	a8, a1, 16
    265c:	295a           	add.n	a2, a9, a5
    265e:	b234d0        	mulsh	a3, a4, a13
    2661:	3129           	s32i.n	a2, a1, 12
    2663:	412f70        	srli	a2, a7, 15
    2666:	1be320        	depbits	a2, a3, 17, 15
    2669:	829860        	mull	a9, a8, a6
    266c:	2c2a           	add.n	a2, a12, a2
    266e:	b23860        	mulsh	a3, a8, a6
    2671:	f1a8           	l32i.n	a10, a1, 60
    2673:	c129           	s32i.n	a2, a1, 48
    2675:	412f90        	srli	a2, a9, 15
    2678:	1be320        	depbits	a2, a3, 17, 15
    267b:	22aa           	add.n	a2, a2, a10
    267d:	61a4c2        	movi	a12, 0x461
    2680:	903cc0        	addx2	a3, a12, a12
    2683:	d2ba           	add.n	a13, a2, a11
    2685:	82ed30        	mull	a14, a13, a3
    2688:	b23d30        	mulsh	a3, a13, a3
    268b:	41afe0        	srli	a10, a14, 15
    268e:	1be3a0        	depbits	a10, a3, 17, 15
    2691:	e34c           	movi.n	a3, 78
    2693:	2bd362        	addmi	a6, a3, 0x2b00
    2696:	825d60        	mull	a5, a13, a6
    2699:	b24d60        	mulsh	a4, a13, a6
    269c:	413f50        	srli	a3, a5, 15
    269f:	e9a072        	movi	a7, 233
    26a2:	1be430        	depbits	a3, a4, 17, 15
    26a5:	27d742        	addmi	a4, a7, 0x2700
    26a8:	c02b20        	sub	a2, a11, a2
    26ab:	595c           	movi.n	a9, 85
    26ad:	828240        	mull	a8, a2, a4
    26b0:	15d972        	addmi	a7, a9, 0x1500
    26b3:	61d8           	l32i.n	a13, a1, 24
    26b5:	b24240        	mulsh	a4, a2, a4
    26b8:	82b270        	mull	a11, a2, a7
    26bb:	415f80        	srli	a5, a8, 15
    26be:	b22270        	mulsh	a2, a2, a7
    26c1:	51c8           	l32i.n	a12, a1, 20
    26c3:	1be450        	depbits	a5, a4, 17, 15
    26c6:	414fb0        	srli	a4, a11, 15
    26c9:	82ed70        	mull	a14, a13, a7
    26cc:	1be240        	depbits	a4, a2, 17, 15
    26cf:	b28d70        	mulsh	a8, a13, a7
    26d2:	2c4a           	add.n	a2, a12, a4
    26d4:	414fe0        	srli	a4, a14, 15
    26d7:	71c8           	l32i.n	a12, a1, 28
    26d9:	1be840        	depbits	a4, a8, 17, 15
    26dc:	9fabd2        	movi	a13, 0xfffffb9f
    26df:	b54a           	add.n	a11, a5, a4
    26e1:	905dd0        	addx2	a5, a13, a13
    26e4:	82ec50        	mull	a14, a12, a5
    26e7:	b27c50        	mulsh	a7, a12, a5
    26ea:	414fe0        	srli	a4, a14, 15
    26ed:	1be740        	depbits	a4, a7, 17, 15
    26f0:	828c60        	mull	a8, a12, a6
    26f3:	b29c60        	mulsh	a9, a12, a6
    26f6:	b1c8           	l32i.n	a12, a1, 44
    26f8:	343a           	add.n	a3, a4, a3
    26fa:	82a0d2        	movi	a13, 130
    26fd:	4139           	s32i.n	a3, a1, 16
    26ff:	413f80        	srli	a3, a8, 15
    2702:	5add62        	addmi	a6, a13, 0x5a00
    2705:	1be930        	depbits	a3, a9, 17, 15
    2708:	82ec60        	mull	a14, a12, a6
    270b:	9188           	l32i.n	a8, a1, 36
    270d:	8198           	l32i.n	a9, a1, 32
    270f:	5129           	s32i.n	a2, a1, 20
    2711:	b22c60        	mulsh	a2, a12, a6
    2714:	415fe0        	srli	a5, a14, 15
    2717:	e178           	l32i.n	a7, a1, 56
    2719:	c0c890        	sub	a12, a8, a9
    271c:	1be250        	depbits	a5, a2, 17, 15
    271f:	a128           	l32i.n	a2, a1, 40
    2721:	82dc60        	mull	a13, a12, a6
    2724:	61b9           	s32i.n	a11, a1, 24
    2726:	ba3a           	add.n	a11, a10, a3
    2728:	af7a           	add.n	a10, a15, a7
    272a:	f98a           	add.n	a15, a9, a8
    272c:	b2ec60        	mulsh	a14, a12, a6
    272f:	41cfd0        	srli	a12, a13, 15
    2732:	df2a           	add.n	a13, a15, a2
    2734:	119d30        	slli	a9, a13, 13
    2737:	314fd0        	srai	a4, a13, 31
    273a:	c563d0        	extui	a6, a13, 19, 13
    273d:	070c           	movi.n	a7, 0
    273f:	1beec0        	depbits	a12, a14, 17, 15
    2742:	71b9           	s32i.n	a11, a1, 28
    2744:	0ac640        	depbits	a4, a6, 0, 13
    2747:	62b790        	saltu	a11, a7, a9
    274a:	1e5c           	movi.n	a14, 81
    274c:	c08f20        	sub	a8, a15, a2
    274f:	24ba           	add.n	a2, a4, a11
    2751:	11de42        	addmi	a4, a14, 0x1100
    2754:	82f840        	mull	a15, a8, a4
    2757:	603090        	neg	a3, a9
    275a:	419ff0        	srli	a9, a15, 15
    275d:	1021f2        	l32i	a15, a1, 64
    2760:	413f30        	srli	a3, a3, 15
    2763:	0122f0        	slli	a2, a2, 17
    2766:	c02320        	sub	a2, a3, a2
    2769:	07aa62        	movi	a6, 0xfffffa07
    276c:	8129           	s32i.n	a2, a1, 32
    276e:	f02660        	subx8	a2, a6, a6
    2771:	b24840        	mulsh	a4, a8, a4
    2774:	827820        	mull	a7, a8, a2
    2777:	5c5a           	add.n	a5, a12, a5
    2779:	49a662        	movi	a6, 0x649
    277c:	c0baf0        	sub	a11, a10, a15
    277f:	b2e820        	mulsh	a14, a8, a2
    2782:	1be490        	depbits	a9, a4, 17, 15
    2785:	c02b50        	sub	a2, a11, a5
    2788:	1146e0        	slli	a4, a6, 2
    278b:	418f70        	srli	a8, a7, 15
    278e:	827240        	mull	a7, a2, a4
    2791:	1bee80        	depbits	a8, a14, 17, 15
    2794:	416f70        	srli	a6, a7, 15
    2797:	b2e240        	mulsh	a14, a2, a4
    279a:	a1a072        	movi	a7, 161
    279d:	25d742        	addmi	a4, a7, 0x2500
    27a0:	1bee60        	depbits	a6, a14, 17, 15
    27a3:	82e240        	mull	a14, a2, a4
    27a6:	55ba           	add.n	a5, a5, a11
    27a8:	63a0b2        	movi	a11, 99
    27ab:	2cdb32        	addmi	a3, a11, 0x2c00
    27ae:	b22240        	mulsh	a2, a2, a4
    27b1:	a169           	s32i.n	a6, a1, 40
    27b3:	416fe0        	srli	a6, a14, 15
    27b6:	82e530        	mull	a14, a5, a3
    27b9:	1be260        	depbits	a6, a2, 17, 15
    27bc:	b22530        	mulsh	a2, a5, a3
    27bf:	35a232        	movi	a3, 0x235
    27c2:	41bfe0        	srli	a11, a14, 15
    27c5:	11e3e0        	slli	a14, a3, 2
    27c8:	8245e0        	mull	a4, a5, a14
    27cb:	b255e0        	mulsh	a5, a5, a14
    27ce:	417f40        	srli	a7, a4, 15
    27d1:	112132        	l32i	a3, a1, 68
    27d4:	122142        	l32i	a4, a1, 72
    27d7:	1be570        	depbits	a7, a5, 17, 15
    27da:	f9a552        	movi	a5, 0x5f9
    27dd:	9169           	s32i.n	a6, a1, 36
    27df:	6faa           	add.n	a6, a15, a10
    27e1:	f0f550        	subx8	a15, a5, a5
    27e4:	543a           	add.n	a5, a4, a3
    27e6:	1be2b0        	depbits	a11, a2, 17, 15
    27e9:	c02650        	sub	a2, a6, a5
    27ec:	82a2f0        	mull	a10, a2, a15
    27ef:	b2f2f0        	mulsh	a15, a2, a15
    27f2:	41afa0        	srli	a10, a10, 15
    27f5:	1befa0        	depbits	a10, a15, 17, 15
    27f8:	fa9a           	add.n	a15, a10, a9
    27fa:	1a5c           	movi.n	a10, 81
    27fc:	11da92        	addmi	a9, a10, 0x1100
    27ff:	82a290        	mull	a10, a2, a9
    2802:	b22290        	mulsh	a2, a2, a9
    2805:	41afa0        	srli	a10, a10, 15
    2808:	2192d0        	srai	a9, a13, 2
    280b:	81d8           	l32i.n	a13, a1, 32
    280d:	1be2a0        	depbits	a10, a2, 17, 15
    2810:	665a           	add.n	a6, a6, a5
    2812:	2a8a           	add.n	a2, a10, a8
    2814:	c08340        	sub	a8, a3, a4
    2817:	213260        	srai	a3, a6, 2
    281a:	a3da           	add.n	a10, a3, a13
    281c:	339a           	add.n	a3, a3, a9
    281e:	b198           	l32i.n	a9, a1, 44
    2820:	7ea062        	movi	a6, 126
    2823:	a5d642        	addmi	a4, a6, 0xffffa500
    2826:	82d940        	mull	a13, a9, a4
    2829:	b29940        	mulsh	a9, a9, a4
    282c:	415fd0        	srli	a5, a13, 15
    282f:	1be950        	depbits	a5, a9, 17, 15
    2832:	5c5a           	add.n	a5, a12, a5
    2834:	958a           	add.n	a9, a5, a8
    2836:	82c9e0        	mull	a12, a9, a14
    2839:	b2e9e0        	mulsh	a14, a9, a14
    283c:	41dfc0        	srli	a13, a12, 15
    283f:	9da042        	movi	a4, 157
    2842:	1beed0        	depbits	a13, a14, 17, 15
    2845:	d3d4e2        	addmi	a14, a4, 0xffffd300
    2848:	8269e0        	mull	a6, a9, a14
    284b:	b299e0        	mulsh	a9, a9, a14
    284e:	4bda           	add.n	a4, a11, a13
    2850:	41df60        	srli	a13, a6, 15
    2853:	1be9d0        	depbits	a13, a9, 17, 15
    2856:	6d7a           	add.n	a6, a13, a7
    2858:	b7a972        	movi	a7, 0xfffff9b7
    285b:	1197e0        	slli	a9, a7, 2
    285e:	c05850        	sub	a5, a8, a5
    2861:	a1a0c2        	movi	a12, 161
    2864:	828590        	mull	a8, a5, a9
    2867:	25dc72        	addmi	a7, a12, 0x2500
    286a:	b29590        	mulsh	a9, a5, a9
    286d:	82d570        	mull	a13, a5, a7
    2870:	418f80        	srli	a8, a8, 15
    2873:	b25570        	mulsh	a5, a5, a7
    2876:	a1e8           	l32i.n	a14, a1, 40
    2878:	1be980        	depbits	a8, a9, 17, 15
    287b:	419fd0        	srli	a9, a13, 15
    287e:	1be590        	depbits	a9, a5, 17, 15
    2881:	91b8           	l32i.n	a11, a1, 36
    2883:	5e9a           	add.n	a5, a14, a9
    2885:	132192        	l32i	a9, a1, 76
    2888:	88ba           	add.n	a8, a8, a11
    288a:	5178           	l32i.n	a7, a1, 20
    288c:	6989           	s32i.n	a8, a9, 24
    288e:	49f9           	s32i.n	a15, a9, 16
    2890:	89a9           	s32i.n	a10, a9, 32
    2892:	6188           	l32i.n	a8, a1, 24
    2894:	41a8           	l32i.n	a10, a1, 16
    2896:	71b8           	l32i.n	a11, a1, 28
    2898:	31c8           	l32i.n	a12, a1, 12
    289a:	c1d8           	l32i.n	a13, a1, 48
    289c:	d1e8           	l32i.n	a14, a1, 52
    289e:	21f8           	l32i.n	a15, a1, 8
    28a0:	a959           	s32i.n	a5, a9, 40
    28a2:	2949           	s32i.n	a4, a9, 8
    28a4:	e969           	s32i.n	a6, a9, 56
    28a6:	c929           	s32i.n	a2, a9, 48
    28a8:	0939           	s32i.n	a3, a9, 0
    28aa:	b979           	s32i.n	a7, a9, 44
    28ac:	5989           	s32i.n	a8, a9, 20
    28ae:	39a9           	s32i.n	a10, a9, 12
    28b0:	d9b9           	s32i.n	a11, a9, 52
    28b2:	79c9           	s32i.n	a12, a9, 28
    28b4:	99d9           	s32i.n	a13, a9, 36
    28b6:	19e9           	s32i.n	a14, a9, 4
    28b8:	f9f9           	s32i.n	a15, a9, 60
    28ba:	f01d           	retw.n

000028bc <LC3Plus_idct32_32_fx>:
    28bc:	00e136        	entry	a1, 112
    28bf:	026d           	mov.n	a6, a2
    28c1:	136132        	s32i	a3, a1, 76
    28c4:	12a8           	l32i.n	a10, a2, 4
    28c6:	f2b8           	l32i.n	a11, a2, 60
    28c8:	92f8           	l32i.n	a15, a2, 36
    28ca:	7258           	l32i.n	a5, a2, 28
    28cc:	5238           	l32i.n	a3, a2, 20
    28ce:	b2e8           	l32i.n	a14, a2, 44
    28d0:	d228           	l32i.n	a2, a2, 52
    28d2:	f63881        	l32r	a8, 1b4 (d230455 <_end+0xd20147d>)
    28d5:	36c8           	l32i.n	a12, a6, 12
    28d7:	f63671        	l32r	a7, 1b0 (2b4e618e <_end+0x2b4b71b6>)
    28da:	824280        	mull	a4, a2, a8
    28dd:	f63691        	l32r	a9, 1b8 (27e9446e <_end+0x27e65496>)
    28e0:	b28280        	mulsh	a8, a2, a8
    28e3:	054f40        	extui	a4, a4, 31, 1
    28e6:	904840        	addx2	a4, a8, a4
    28e9:	e149           	s32i.n	a4, a1, 56
    28eb:	824c70        	mull	a4, a12, a7
    28ee:	827390        	mull	a7, a3, a9
    28f1:	b29390        	mulsh	a9, a3, a9
    28f4:	058f70        	extui	a8, a7, 31, 1
    28f7:	909980        	addx2	a9, a9, a8
    28fa:	5199           	s32i.n	a9, a1, 20
    28fc:	f63081        	l32r	a8, 1bc (15553e3f <_end+0x15524e67>)
    28ff:	f63091        	l32r	a9, 1c0 (22fb827b <_end+0x22f892a3>)
    2902:	054f40        	extui	a4, a4, 31, 1
    2905:	6149           	s32i.n	a4, a1, 24
    2907:	824e80        	mull	a4, a14, a8
    290a:	828590        	mull	a8, a5, a9
    290d:	054f40        	extui	a4, a4, 31, 1
    2910:	057f80        	extui	a7, a8, 31, 1
    2913:	f62c81        	l32r	a8, 1c4 (1cb598cc <_end+0x1cb2a8f4>)
    2916:	3179           	s32i.n	a7, a1, 12
    2918:	2149           	s32i.n	a4, a1, 8
    291a:	829f80        	mull	a9, a15, a8
    291d:	b27f80        	mulsh	a7, a15, a8
    2920:	054f90        	extui	a4, a9, 31, 1
    2923:	909740        	addx2	a9, a7, a4
    2926:	f62871        	l32r	a7, 1c8 (2d097390 <_end+0x2d0683b8>)
    2929:	f620d1        	l32r	a13, 1ac (46f8d46 <_end+0x46c9d6e>)
    292c:	824a70        	mull	a4, a10, a7
    292f:	828bd0        	mull	a8, a11, a13
    2932:	b27a70        	mulsh	a7, a10, a7
    2935:	054f40        	extui	a4, a4, 31, 1
    2938:	904740        	addx2	a4, a7, a4
    293b:	057f80        	extui	a7, a8, 31, 1
    293e:	828ad0        	mull	a8, a10, a13
    2941:	b2aad0        	mulsh	a10, a10, a13
    2944:	058f80        	extui	a8, a8, 31, 1
    2947:	b2dbd0        	mulsh	a13, a11, a13
    294a:	908a80        	addx2	a8, a10, a8
    294d:	f61fa1        	l32r	a10, 1cc (d2f68c70 <_end+0xd2f39c98>)
    2950:	907d70        	addx2	a7, a13, a7
    2953:	474a           	add.n	a4, a7, a4
    2955:	82dba0        	mull	a13, a11, a10
    2958:	b27ba0        	mulsh	a7, a11, a10
    295b:	f619a1        	l32r	a10, 1c0 (22fb827b <_end+0x22f892a3>)
    295e:	d149           	s32i.n	a4, a1, 52
    2960:	054fd0        	extui	a4, a13, 31, 1
    2963:	904740        	addx2	a4, a7, a4
    2966:	82bfa0        	mull	a11, a15, a10
    2969:	b2dfa0        	mulsh	a13, a15, a10
    296c:	31f8           	l32i.n	a15, a1, 12
    296e:	448a           	add.n	a4, a4, a8
    2970:	b285a0        	mulsh	a8, a5, a10
    2973:	7149           	s32i.n	a4, a1, 28
    2975:	9078f0        	addx2	a7, a8, a15
    2978:	779a           	add.n	a7, a7, a9
    297a:	f61591        	l32r	a9, 1d0 (e34a6734 <_end+0xe347775c>)
    297d:	054fb0        	extui	a4, a11, 31, 1
    2980:	f60fb1        	l32r	a11, 1bc (15553e3f <_end+0x15524e67>)
    2983:	82a590        	mull	a10, a5, a9
    2986:	b25590        	mulsh	a5, a5, a9
    2989:	3179           	s32i.n	a7, a1, 12
    298b:	057fa0        	extui	a7, a10, 31, 1
    298e:	f611a1        	l32r	a10, 1d4 (d816bb92 <_end+0xd813cbba>)
    2991:	904d40        	addx2	a4, a13, a4
    2994:	905570        	addx2	a5, a5, a7
    2997:	82d3b0        	mull	a13, a3, a11
    299a:	2188           	l32i.n	a8, a1, 8
    299c:	f54a           	add.n	a15, a5, a4
    299e:	b233b0        	mulsh	a3, a3, a11
    29a1:	b25eb0        	mulsh	a5, a14, a11
    29a4:	5198           	l32i.n	a9, a1, 20
    29a6:	f60271        	l32r	a7, 1b0 (2b4e618e <_end+0x2b4b71b6>)
    29a9:	054fd0        	extui	a4, a13, 31, 1
    29ac:	82dea0        	mull	a13, a14, a10
    29af:	903340        	addx2	a3, a3, a4
    29b2:	904580        	addx2	a4, a5, a8
    29b5:	b25ea0        	mulsh	a5, a14, a10
    29b8:	b49a           	add.n	a11, a4, a9
    29ba:	054fd0        	extui	a4, a13, 31, 1
    29bd:	828270        	mull	a8, a2, a7
    29c0:	904540        	addx2	a4, a5, a4
    29c3:	a43a           	add.n	a10, a4, a3
    29c5:	053f80        	extui	a3, a8, 31, 1
    29c8:	f60481        	l32r	a8, 1d8 (f2dcfbab <_end+0xf2da0bd3>)
    29cb:	b29270        	mulsh	a9, a2, a7
    29ce:	b2dc70        	mulsh	a13, a12, a7
    29d1:	6178           	l32i.n	a7, a1, 24
    29d3:	90e930        	addx2	a14, a9, a3
    29d6:	829c80        	mull	a9, a12, a8
    29d9:	b24c80        	mulsh	a4, a12, a8
    29dc:	902d70        	addx2	a2, a13, a7
    29df:	05df90        	extui	a13, a9, 31, 1
    29e2:	9084d0        	addx2	a8, a4, a13
    29e5:	48ea           	add.n	a4, a8, a14
    29e7:	e1e8           	l32i.n	a14, a1, 56
    29e9:	a658           	l32i.n	a5, a6, 40
    29eb:	f5fcc1        	l32r	a12, 1dc (192469c1 <_end+0x192179e9>)
    29ee:	32ea           	add.n	a3, a2, a14
    29f0:	7128           	l32i.n	a2, a1, 28
    29f2:	66d8           	l32i.n	a13, a6, 24
    29f4:	2678           	l32i.n	a7, a6, 8
    29f6:	c082f0        	sub	a8, a2, a15
    29f9:	ff2a           	add.n	a15, a15, a2
    29fb:	61f9           	s32i.n	a15, a1, 24
    29fd:	f3ba           	add.n	a15, a3, a11
    29ff:	2189           	s32i.n	a8, a1, 8
    2a01:	c083b0        	sub	a8, a3, a11
    2a04:	e1f9           	s32i.n	a15, a1, 56
    2a06:	34aa           	add.n	a3, a4, a10
    2a08:	c0b4a0        	sub	a11, a4, a10
    2a0b:	d148           	l32i.n	a4, a1, 52
    2a0d:	31f8           	l32i.n	a15, a1, 12
    2a0f:	f5f4e1        	l32r	a14, 1e0 (2c62a163 <_end+0x2c5fb18b>)
    2a12:	e698           	l32i.n	a9, a6, 56
    2a14:	2f4a           	add.n	a2, a15, a4
    2a16:	c0a4f0        	sub	a10, a4, a15
    2a19:	82f5c0        	mull	a15, a5, a12
    2a1c:	f5f241        	l32r	a4, 1e4 (25a0c5df <_end+0x259dd607>)
    2a1f:	5139           	s32i.n	a3, a1, 20
    2a21:	053ff0        	extui	a3, a15, 31, 1
    2a24:	b2c5c0        	mulsh	a12, a5, a12
    2a27:	f5f0f1        	l32r	a15, 1e8 (8d42aef <_end+0x8d13b17>)
    2a2a:	d129           	s32i.n	a2, a1, 52
    2a2c:	822d40        	mull	a2, a13, a4
    2a2f:	903c30        	addx2	a3, a12, a3
    2a32:	8247e0        	mull	a4, a7, a14
    2a35:	4139           	s32i.n	a3, a1, 16
    2a37:	053f20        	extui	a3, a2, 31, 1
    2a3a:	8229f0        	mull	a2, a9, a15
    2a3d:	05cf40        	extui	a12, a4, 31, 1
    2a40:	b2e7e0        	mulsh	a14, a7, a14
    2a43:	8247f0        	mull	a4, a7, a15
    2a46:	b277f0        	mulsh	a7, a7, a15
    2a49:	b2f9f0        	mulsh	a15, a9, a15
    2a4c:	052f20        	extui	a2, a2, 31, 1
    2a4f:	902f20        	addx2	a2, a15, a2
    2a52:	f5e6f1        	l32r	a15, 1ec (d39d5e9d <_end+0xd39a6ec5>)
    2a55:	90cec0        	addx2	a12, a14, a12
    2a58:	05ef40        	extui	a14, a4, 31, 1
    2a5b:	9047e0        	addx2	a4, a7, a14
    2a5e:	8279f0        	mull	a7, a9, a15
    2a61:	b2e9f0        	mulsh	a14, a9, a15
    2a64:	22ca           	add.n	a2, a2, a12
    2a66:	05cf70        	extui	a12, a7, 31, 1
    2a69:	907ec0        	addx2	a7, a14, a12
    2a6c:	f74a           	add.n	a15, a7, a4
    2a6e:	f5dd41        	l32r	a4, 1e4 (25a0c5df <_end+0x259dd607>)
    2a71:	f5dfe1        	l32r	a14, 1f0 (e6db963f <_end+0xe6d8a667>)
    2a74:	41c8           	l32i.n	a12, a1, 16
    2a76:	827540        	mull	a7, a5, a4
    2a79:	b29d40        	mulsh	a9, a13, a4
    2a7c:	b25540        	mulsh	a5, a5, a4
    2a7f:	31f9           	s32i.n	a15, a1, 12
    2a81:	054f70        	extui	a4, a7, 31, 1
    2a84:	82fde0        	mull	a15, a13, a14
    2a87:	905540        	addx2	a5, a5, a4
    2a8a:	b24de0        	mulsh	a4, a13, a14
    2a8d:	903930        	addx2	a3, a9, a3
    2a90:	7129           	s32i.n	a2, a1, 28
    2a92:	23ca           	add.n	a2, a3, a12
    2a94:	053ff0        	extui	a3, a15, 31, 1
    2a97:	903430        	addx2	a3, a4, a3
    2a9a:	935a           	add.n	a9, a3, a5
    2a9c:	4199           	s32i.n	a9, a1, 16
    2a9e:	f5d7e1        	l32r	a14, 1fc (cf043ab3 <_end+0xcf014adb>)
    2aa1:	f5d431        	l32r	a3, 1f4 (89be50c3 <_end+0x89bb60eb>)
    2aa4:	2198           	l32i.n	a9, a1, 8
    2aa6:	f5d441        	l32r	a4, 1f8 (30fbc54d <_end+0x30f8d575>)
    2aa9:	82fbe0        	mull	a15, a11, a14
    2aac:	82c930        	mull	a12, a9, a3
    2aaf:	c129           	s32i.n	a2, a1, 48
    2ab1:	b22be0        	mulsh	a2, a11, a14
    2ab4:	055fc0        	extui	a5, a12, 31, 1
    2ab7:	05cff0        	extui	a12, a15, 31, 1
    2aba:	90f2c0        	addx2	a15, a2, a12
    2abd:	82da40        	mull	a13, a10, a4
    2ac0:	82cb30        	mull	a12, a11, a3
    2ac3:	82e830        	mull	a14, a8, a3
    2ac6:	822840        	mull	a2, a8, a4
    2ac9:	b2bb30        	mulsh	a11, a11, a3
    2acc:	057fd0        	extui	a7, a13, 31, 1
    2acf:	05dfe0        	extui	a13, a14, 31, 1
    2ad2:	05ef20        	extui	a14, a2, 31, 1
    2ad5:	052fc0        	extui	a2, a12, 31, 1
    2ad8:	90cb20        	addx2	a12, a11, a2
    2adb:	f5c9b1        	l32r	a11, 200 (7641af3d <_end+0x763ebf65>)
    2ade:	823ab0        	mull	a3, a10, a11
    2ae1:	b22ab0        	mulsh	a2, a10, a11
    2ae4:	b2aa40        	mulsh	a10, a10, a4
    2ae7:	05bf30        	extui	a11, a3, 31, 1
    2aea:	9032b0        	addx2	a3, a2, a11
    2aed:	b22840        	mulsh	a2, a8, a4
    2af0:	907a70        	addx2	a7, a10, a7
    2af3:	82b940        	mull	a11, a9, a4
    2af6:	b2a940        	mulsh	a10, a9, a4
    2af9:	f5be41        	l32r	a4, 1f4 (89be50c3 <_end+0x89bb60eb>)
    2afc:	9022e0        	addx2	a2, a2, a14
    2aff:	2c2a           	add.n	a2, a12, a2
    2b01:	b28840        	mulsh	a8, a8, a4
    2b04:	b29940        	mulsh	a9, a9, a4
    2b07:	9088d0        	addx2	a8, a8, a13
    2b0a:	e8fa           	add.n	a14, a8, a15
    2b0c:	05ffb0        	extui	a15, a11, 31, 1
    2b0f:	2129           	s32i.n	a2, a1, 8
    2b11:	902af0        	addx2	a2, a10, a15
    2b14:	223a           	add.n	a2, a2, a3
    2b16:	130c           	movi.n	a3, 1
    2b18:	905950        	addx2	a5, a9, a5
    2b1b:	1261e2        	s32i	a14, a1, 72
    2b1e:	b129           	s32i.n	a2, a1, 44
    2b20:	019330        	slli	a9, a3, 29
    2b23:	0628           	l32i.n	a2, a6, 0
    2b25:	8648           	l32i.n	a4, a6, 32
    2b27:	46c8           	l32i.n	a12, a6, 16
    2b29:	c638           	l32i.n	a3, a6, 48
    2b2b:	3168           	l32i.n	a6, a1, 12
    2b2d:	41e8           	l32i.n	a14, a1, 16
    2b2f:	d75a           	add.n	a13, a7, a5
    2b31:	f57c           	movi.n	a5, -1
    2b33:	01b530        	slli	a11, a5, 29
    2b36:	c0f6e0        	sub	a15, a6, a14
    2b39:	5e6a           	add.n	a5, a14, a6
    2b3b:	826290        	mull	a6, a2, a9
    2b3e:	8284b0        	mull	a8, a4, a11
    2b41:	1161f2        	s32i	a15, a1, 68
    2b44:	05ff60        	extui	a15, a6, 31, 1
    2b47:	b22290        	mulsh	a2, a2, a9
    2b4a:	b264b0        	mulsh	a6, a4, a11
    2b4d:	3159           	s32i.n	a5, a1, 12
    2b4f:	055f80        	extui	a5, a8, 31, 1
    2b52:	a1d9           	s32i.n	a13, a1, 40
    2b54:	90f2f0        	addx2	a15, a2, a15
    2b57:	902650        	addx2	a2, a6, a5
    2b5a:	f5abd1        	l32r	a13, 208 (d630a2dd <_end+0xd62db305>)
    2b5d:	22fa           	add.n	a2, a2, a15
    2b5f:	f5a971        	l32r	a7, 204 (11517a7c <_end+0x114e8aa4>)
    2b62:	4129           	s32i.n	a2, a1, 16
    2b64:	7158           	l32i.n	a5, a1, 28
    2b66:	c128           	l32i.n	a2, a1, 48
    2b68:	8263d0        	mull	a6, a3, a13
    2b6b:	f5a8a1        	l32r	a10, 20c (5a82799a <_end+0x5a7f89c2>)
    2b6e:	c0b520        	sub	a11, a5, a2
    2b71:	525a           	add.n	a5, a2, a5
    2b73:	052f60        	extui	a2, a6, 31, 1
    2b76:	b2d3d0        	mulsh	a13, a3, a13
    2b79:	826370        	mull	a6, a3, a7
    2b7c:	828c70        	mull	a8, a12, a7
    2b7f:	b23370        	mulsh	a3, a3, a7
    2b82:	7159           	s32i.n	a5, a1, 28
    2b84:	905d20        	addx2	a5, a13, a2
    2b87:	052f60        	extui	a2, a6, 31, 1
    2b8a:	b27c70        	mulsh	a7, a12, a7
    2b8d:	902320        	addx2	a2, a3, a2
    2b90:	823ba0        	mull	a3, a11, a10
    2b93:	058f80        	extui	a8, a8, 31, 1
    2b96:	90d780        	addx2	a13, a7, a8
    2b99:	f139           	s32i.n	a3, a1, 60
    2b9b:	a188           	l32i.n	a8, a1, 40
    2b9d:	122132        	l32i	a3, a1, 72
    2ba0:	106122        	s32i	a2, a1, 64
    2ba3:	25da           	add.n	a2, a5, a13
    2ba5:	c05830        	sub	a5, a8, a3
    2ba8:	c129           	s32i.n	a2, a1, 48
    2baa:	f59961        	l32r	a6, 210 (29cf5d23 <_end+0x29cc6d4b>)
    2bad:	9159           	s32i.n	a5, a1, 36
    2baf:	6158           	l32i.n	a5, a1, 24
    2bb1:	5128           	l32i.n	a2, a1, 20
    2bb3:	82e490        	mull	a14, a4, a9
    2bb6:	827c60        	mull	a7, a12, a6
    2bb9:	c0d520        	sub	a13, a5, a2
    2bbc:	b2cc60        	mulsh	a12, a12, a6
    2bbf:	b24490        	mulsh	a4, a4, a9
    2bc2:	f168           	l32i.n	a6, a1, 60
    2bc4:	81d9           	s32i.n	a13, a1, 32
    2bc6:	05dfe0        	extui	a13, a14, 31, 1
    2bc9:	9044d0        	addx2	a4, a4, a13
    2bcc:	b2bba0        	mulsh	a11, a11, a10
    2bcf:	44fa           	add.n	a4, a4, a15
    2bd1:	05ef70        	extui	a14, a7, 31, 1
    2bd4:	1021f2        	l32i	a15, a1, 64
    2bd7:	057f60        	extui	a7, a6, 31, 1
    2bda:	5149           	s32i.n	a4, a1, 20
    2bdc:	904ce0        	addx2	a4, a12, a14
    2bdf:	90cb70        	addx2	a12, a11, a7
    2be2:	1121e2        	l32i	a14, a1, 68
    2be5:	f58bb1        	l32r	a11, 214 (a57d8666 <_end+0xa57a968e>)
    2be8:	525a           	add.n	a5, a2, a5
    2bea:	6159           	s32i.n	a5, a1, 24
    2bec:	538a           	add.n	a5, a3, a8
    2bee:	8f4a           	add.n	a8, a15, a4
    2bf0:	21d8           	l32i.n	a13, a1, 8
    2bf2:	b1f8           	l32i.n	a15, a1, 44
    2bf4:	8128           	l32i.n	a2, a1, 32
    2bf6:	829eb0        	mull	a9, a14, a11
    2bf9:	823ea0        	mull	a3, a14, a10
    2bfc:	054f90        	extui	a4, a9, 31, 1
    2bff:	c07fd0        	sub	a7, a15, a13
    2c02:	6dfa           	add.n	a6, a13, a15
    2c04:	82d2a0        	mull	a13, a2, a10
    2c07:	2149           	s32i.n	a4, a1, 8
    2c09:	054f30        	extui	a4, a3, 31, 1
    2c0c:	b232a0        	mulsh	a3, a2, a10
    2c0f:	b149           	s32i.n	a4, a1, 44
    2c11:	054fd0        	extui	a4, a13, 31, 1
    2c14:	b29ea0        	mulsh	a9, a14, a10
    2c17:	0afd           	mov.n	a15, a10
    2c19:	904340        	addx2	a4, a3, a4
    2c1c:	82a2b0        	mull	a10, a2, a11
    2c1f:	9138           	l32i.n	a3, a1, 36
    2c21:	b222b0        	mulsh	a2, a2, a11
    2c24:	a199           	s32i.n	a9, a1, 40
    2c26:	059fa0        	extui	a9, a10, 31, 1
    2c29:	909290        	addx2	a9, a2, a9
    2c2c:	8223b0        	mull	a2, a3, a11
    2c2f:	b2a3b0        	mulsh	a10, a3, a11
    2c32:	0bdd           	mov.n	a13, a11
    2c34:	82b3f0        	mull	a11, a3, a15
    2c37:	052f20        	extui	a2, a2, 31, 1
    2c3a:	902a20        	addx2	a2, a10, a2
    2c3d:	05afb0        	extui	a10, a11, 31, 1
    2c40:	b233f0        	mulsh	a3, a3, a15
    2c43:	82b7f0        	mull	a11, a7, a15
    2c46:	b277f0        	mulsh	a7, a7, a15
    2c49:	9033a0        	addx2	a3, a3, a10
    2c4c:	05afb0        	extui	a10, a11, 31, 1
    2c4f:	9077a0        	addx2	a7, a7, a10
    2c52:	b37a           	add.n	a11, a3, a7
    2c54:	272a           	add.n	a2, a7, a2
    2c56:	e138           	l32i.n	a3, a1, 56
    2c58:	d178           	l32i.n	a7, a1, 52
    2c5a:	9129           	s32i.n	a2, a1, 36
    2c5c:	81b9           	s32i.n	a11, a1, 32
    2c5e:	c02730        	sub	a2, a7, a3
    2c61:	a37a           	add.n	a10, a3, a7
    2c63:	8232f0        	mull	a3, a2, a15
    2c66:	b272f0        	mulsh	a7, a2, a15
    2c69:	05bf30        	extui	a11, a3, 31, 1
    2c6c:	9077b0        	addx2	a7, a7, a11
    2c6f:	b47a           	add.n	a11, a4, a7
    2c71:	779a           	add.n	a7, a7, a9
    2c73:	b24ed0        	mulsh	a4, a14, a13
    2c76:	b198           	l32i.n	a9, a1, 44
    2c78:	a1d8           	l32i.n	a13, a1, 40
    2c7a:	4138           	l32i.n	a3, a1, 16
    2c7c:	c128           	l32i.n	a2, a1, 48
    2c7e:	90ed90        	addx2	a14, a13, a9
    2c81:	9eca           	add.n	a9, a14, a12
    2c83:	d23a           	add.n	a13, a2, a3
    2c85:	c0ed90        	sub	a14, a13, a9
    2c88:	fe5a           	add.n	a15, a14, a5
    2c8a:	c05e50        	sub	a5, a14, a5
    2c8d:	1321e2        	l32i	a14, a1, 76
    2c90:	6ef9           	s32i.n	a15, a14, 24
    2c92:	fd9a           	add.n	a15, a13, a9
    2c94:	9e59           	s32i.n	a5, a14, 36
    2c96:	c05f60        	sub	a5, a15, a6
    2c99:	ee59           	s32i.n	a5, a14, 56
    2c9b:	c05320        	sub	a5, a3, a2
    2c9e:	5128           	l32i.n	a2, a1, 20
    2ca0:	9f6a           	add.n	a9, a15, a6
    2ca2:	71f8           	l32i.n	a15, a1, 28
    2ca4:	6138           	l32i.n	a3, a1, 24
    2ca6:	682a           	add.n	a6, a8, a2
    2ca8:	1e99           	s32i.n	a9, a14, 4
    2caa:	c096f0        	sub	a9, a6, a15
    2cad:	d93a           	add.n	a13, a9, a3
    2caf:	c09930        	sub	a9, a9, a3
    2cb2:	66fa           	add.n	a6, a6, a15
    2cb4:	31f8           	l32i.n	a15, a1, 12
    2cb6:	8e99           	s32i.n	a9, a14, 32
    2cb8:	2198           	l32i.n	a9, a1, 8
    2cba:	36aa           	add.n	a3, a6, a10
    2cbc:	7ed9           	s32i.n	a13, a14, 28
    2cbe:	c0d280        	sub	a13, a2, a8
    2cc1:	c066a0        	sub	a6, a6, a10
    2cc4:	fe69           	s32i.n	a6, a14, 60
    2cc6:	6dfa           	add.n	a6, a13, a15
    2cc8:	c08df0        	sub	a8, a13, a15
    2ccb:	904490        	addx2	a4, a4, a9
    2cce:	0e39           	s32i.n	a3, a14, 0
    2cd0:	36ba           	add.n	a3, a6, a11
    2cd2:	c066b0        	sub	a6, a6, a11
    2cd5:	81b8           	l32i.n	a11, a1, 32
    2cd7:	91f8           	l32i.n	a15, a1, 36
    2cd9:	4c4a           	add.n	a4, a12, a4
    2cdb:	a54a           	add.n	a10, a5, a4
    2cdd:	287a           	add.n	a2, a8, a7
    2cdf:	c04540        	sub	a4, a5, a4
    2ce2:	c07870        	sub	a7, a8, a7
    2ce5:	4e29           	s32i.n	a2, a14, 16
    2ce7:	caba           	add.n	a12, a10, a11
    2ce9:	c0dab0        	sub	a13, a10, a11
    2cec:	54fa           	add.n	a5, a4, a15
    2cee:	c024f0        	sub	a2, a4, a15
    2cf1:	3e39           	s32i.n	a3, a14, 12
    2cf3:	ce69           	s32i.n	a6, a14, 48
    2cf5:	be79           	s32i.n	a7, a14, 44
    2cf7:	5e59           	s32i.n	a5, a14, 20
    2cf9:	ae29           	s32i.n	a2, a14, 40
    2cfb:	2ec9           	s32i.n	a12, a14, 8
    2cfd:	ded9           	s32i.n	a13, a14, 52
    2cff:	f01d           	retw.n

00002d01 <LC3Plus_idct32_32_fx+0x445>:
    2d01:	00000000                                 .......

00002d08 <LC3Plus_dct_IV_XT>:
    2d08:	00e136        	entry	a1, 112
    2d0b:	027d           	mov.n	a7, a2
    2d0d:	f54221        	l32r	a2, 218 (23b4 <LC3Plus_BASOP_getTables>)
    2d10:	21f150        	srai	a15, a5, 1
    2d13:	3cc1a2        	addi	a10, a1, 60
    2d16:	38c1b2        	addi	a11, a1, 56
    2d19:	c1cb           	addi.n	a12, a1, 12
    2d1b:	05dd           	mov.n	a13, a5
    2d1d:	126162        	s32i	a6, a1, 72
    2d20:	116132        	s32i	a3, a1, 68
    2d23:	1061f2        	s32i	a15, a1, 64
    2d26:	0002e0        	callx8	a2
    2d29:	a0a570        	addx4	a10, a5, a7
    2d2c:	fcca62        	addi	a6, a10, -4
    2d2f:	0225e6        	bgei	a5, 2, 2d35 <LC3Plus_dct_IV_XT+0x2d>
    2d32:	004106        	j	2e3a <LC3Plus_dct_IV_XT+0x132>
    2d35:	102182        	l32i	a8, a1, 64
    2d38:	0f2122        	l32i	a2, a1, 60
    2d3b:	203660        	or	a3, a6, a6
    2d3e:	01c892        	addi	a9, a8, 1
    2d41:	208770        	or	a8, a7, a7
    2d44:	449204        	ae_lp16x2f.iu	aep1, a2, 0
    2d47:	601304        	ae_lq32f.iu	aeq0, a3, 0
    2d4a:	605804        	ae_lq32f.iu	aeq1, a8, 0
    2d4d:	419190        	srli	a9, a9, 1
    2d50:	fc24fe94cf 	{ ae_slaasq56s	aeq3, aeq1, a4; nop }
    2d55:	fc24fe848f 	{ ae_slaasq56s	aeq2, aeq0, a4; nop }
    2d5a:	44a214        	ae_lp16x2f.iu	aep2, a2, 4
    2d5d:	d98976        	loop	a9, 2e3a <LC3Plus_dct_IV_XT+0x132>
    2d60:	fa496d821f 	{ ae_lp16x2f.iu	aep0, a2, 4; ae_mulq32sp16u.h	aeq1, aeq3, aep2 }
    2d65:	fa442df21f 	{ ae_lp16x2f.iu	aep7, a2, 4; ae_mulq32sp16u.h	aeq0, aeq2, aep1 }
    2d6a:	355434        	ae_sraiq56	aeq1, aeq1, 16
    2d6d:	fa453a012f 	{ ae_sq56s.i	aeq0, a1, 16; ae_mulq32sp16u.h	aeq0, aeq3, aep1 }
    2d72:	f6ebfa014f 	{ ae_sq56s.i	aeq0, a1, 32; ae_mulaq32sp16s.l	aeq1, aeq3, aep2 }
    2d77:	610124        	ae_lq56.i	aeq0, a1, 16
    2d7a:	350434        	ae_sraiq56	aeq0, aeq0, 16
    2d7d:	631134        	ae_sq56s.i	aeq1, a1, 24
    2d80:	614144        	ae_lq56.i	aeq1, a1, 32
    2d83:	630124        	ae_sq56s.i	aeq0, a1, 16
    2d86:	fa487b140f 	{ ae_sraiq56	aeq0, aeq1, 16; ae_mulq32sp16u.h	aeq1, aeq2, aep2 }
    2d8b:	f6e7bde12f 	{ ae_lq56.i	aeq3, a1, 16; ae_mulaq32sp16s.l	aeq0, aeq3, aep1 }
    2d90:	f7e6fa114f 	{ ae_sq56s.i	aeq1, a1, 32; ae_mulaq32sp16s.l	aeq3, aeq2, aep1 }
    2d95:	fc247d281f 	{ ae_lq32f.i	aeq1, a8, 4; ae_roundsq32asym	aeq0, aeq0 }
    2d9a:	633124        	ae_sq56s.i	aeq3, a1, 16
    2d9d:	61c144        	ae_lq56.i	aeq3, a1, 32
    2da0:	35f434        	ae_sraiq56	aeq3, aeq3, 16
    2da3:	f7eafe948f 	{ ae_slaasq56s	aeq2, aeq1, a4; ae_mulaq32sp16s.l	aeq3, aeq2, aep2 }
    2da8:	037ba4        	ae_mulq32sp16u.h	aeq1, aeq2, aep7
    2dab:	06f934        	ae_roundsq32asym	aeq3, aeq3
    2dae:	fbe63a114f 	{ ae_sq56s.i	aeq1, a1, 32; ae_addq56	aeq3, aeq0, aeq3 }
    2db3:	fa407d814f 	{ ae_lq56.i	aeq0, a1, 32; ae_mulq32sp16u.h	aeq1, aeq2, aep0 }
    2db8:	350434        	ae_sraiq56	aeq0, aeq0, 16
    2dbb:	f6feb9b80f 	{ ae_sq32f.i	aeq3, a8, 0; ae_mulaq32sp16s.l	aeq0, aeq2, aep7 }
    2dc0:	61c124        	ae_lq56.i	aeq3, a1, 16
    2dc3:	355434        	ae_sraiq56	aeq1, aeq1, 16
    2dc6:	fc3c7a014f 	{ ae_sq56s.i	aeq0, a1, 32; ae_roundsq32asym	aeq0, aeq3 }
    2dcb:	f6e2fd63ff 	{ ae_lq32f.i	aeq3, a3, -4; ae_mulaq32sp16s.l	aeq1, aeq2, aep0 }
    2dd0:	618134        	ae_lq56.i	aeq2, a1, 24
    2dd3:	fd2c7eb4cf 	{ ae_slaasq56s	aeq3, aeq3, a4; ae_roundsq32asym	aeq1, aeq1 }
    2dd8:	fc347a012f 	{ ae_sq56s.i	aeq0, a1, 16; ae_roundsq32asym	aeq0, aeq2 }
    2ddd:	fb413a013f 	{ ae_sq56s.i	aeq0, a1, 24; ae_mulq32sp16u.h	aeq2, aeq3, aep0 }
    2de2:	610124        	ae_lq56.i	aeq0, a1, 16
    2de5:	fb5d3a216f 	{ ae_sq56s.i	aeq2, a1, 48; ae_mulq32sp16u.h	aeq2, aeq3, aep7 }
    2dea:	632154        	ae_sq56s.i	aeq2, a1, 40
    2ded:	618134        	ae_lq56.i	aeq2, a1, 24
    2df0:	f8a2fdc16f 	{ ae_lq56.i	aeq2, a1, 48; ae_subq56	aeq0, aeq0, aeq2 }
    2df5:	630124        	ae_sq56s.i	aeq0, a1, 16
    2df8:	352434        	ae_sraiq56	aeq0, aeq2, 16
    2dfb:	f6e3bdc15f 	{ ae_lq56.i	aeq2, a1, 40; ae_mulaq32sp16s.l	aeq0, aeq3, aep0 }
    2e00:	35a434        	ae_sraiq56	aeq2, aeq2, 16
    2e03:	f7ffbde14f 	{ ae_lq56.i	aeq3, a1, 32; ae_mulaq32sp16s.l	aeq2, aeq3, aep7 }
    2e08:	ff3c7a113f 	{ ae_sq56s.i	aeq1, a1, 24; ae_roundsq32asym	aeq3, aeq3 }
    2e0d:	fc247da12f 	{ ae_lq56.i	aeq1, a1, 16; ae_roundsq32asym	aeq0, aeq0 }
    2e12:	f83af9981f 	{ ae_sq32f.i	aeq1, a8, 4; ae_subq56	aeq0, aeq3, aeq0 }
    2e17:	fe3479830f 	{ ae_sq32f.i	aeq0, a3, 0; ae_roundsq32asym	aeq2, aeq2 }
    2e1c:	61c134        	ae_lq56.i	aeq3, a1, 24
    2e1f:	f8fa2d921f 	{ ae_lp16x2f.iu	aep1, a2, 4; ae_addq56	aeq0, aeq3, aeq2 }
    2e24:	44a214        	ae_lp16x2f.iu	aep2, a2, 4
    2e27:	6203f4        	ae_sq32f.i	aeq0, a3, -4
    2e2a:	6013e4        	ae_lq32f.iu	aeq0, a3, -8
    2e2d:	605824        	ae_lq32f.iu	aeq1, a8, 8
    2e30:	fc24fe848f 	{ ae_slaasq56s	aeq2, aeq0, a4; nop }
    2e35:	fc24fe94cf 	{ ae_slaasq56s	aeq3, aeq1, a4; nop }

00002e3a <LC3Plus_dct_IV_XT+0x132>:
    2e3a:	f4f821        	l32r	a2, 21c (1b98 <LC3Plus_getScaleFactor32>)
    2e3d:	41a9           	s32i.n	a10, a1, 16
    2e3f:	f8ca42        	addi	a4, a10, -8
    2e42:	20a770        	or	a10, a7, a7
    2e45:	20b550        	or	a11, a5, a5
    2e48:	0002e0        	callx8	a2
    2e4b:	102192        	l32i	a9, a1, 64
    2e4e:	020c           	movi.n	a2, 0
    2e50:	538a20        	max	a8, a10, a2
    2e53:	1415a6        	blti	a5, 1, 2e6b <LC3Plus_dct_IV_XT+0x163>
    2e56:	073d           	mov.n	a3, a7
    2e58:	882d           	ae_sext16	a2, a8
    2e5a:	601304        	ae_lq32f.iu	aeq0, a3, 0
    2e5d:	0a8576        	loop	a5, 2e6b <LC3Plus_dct_IV_XT+0x163>
    2e60:	fc24fe820f 	{ ae_slaasq56s	aeq0, aeq0, a2; nop }
    2e65:	620304        	ae_sq32f.i	aeq0, a3, 0
    2e68:	601314        	ae_lq32f.iu	aeq0, a3, 4

00002e6b <LC3Plus_dct_IV_XT+0x163>:
    2e6b:	1121e2        	l32i	a14, a1, 68
    2e6e:	1221f2        	l32i	a15, a1, 72
    2e71:	b74b           	addi.n	a11, a7, 4
    2e73:	2e2d           	ae_l16si.n	a2, a14, 0
    2e75:	2d0c           	movi.n	a13, 2
    2e77:	20a770        	or	a10, a7, a7
    2e7a:	c02280        	sub	a2, a2, a8
    2e7d:	6e2d           	ae_s16i.n	a2, a14, 0
    2e7f:	f4e821        	l32r	a2, 220 (5848 <LC3Plus_BASOP_cfft>)
    2e82:	20c990        	or	a12, a9, a9
    2e85:	0002e0        	callx8	a2
    2e88:	069132        	l16si	a3, a1, 12
    2e8b:	e128           	l32i.n	a2, a1, 56
    2e8d:	1798           	l32i.n	a9, a7, 4
    2e8f:	0488           	l32i.n	a8, a4, 0
    2e91:	b02320        	addx8	a2, a3, a2
    2e94:	219190        	srai	a9, a9, 1
    2e97:	12c8           	l32i.n	a12, a2, 4
    2e99:	14a8           	l32i.n	a10, a4, 4
    2e9b:	02b8           	l32i.n	a11, a2, 0
    2e9d:	609090        	neg	a9, a9
    2ea0:	1499           	s32i.n	a9, a4, 4
    2ea2:	8298b0        	mull	a9, a8, a11
    2ea5:	82eac0        	mull	a14, a10, a12
    2ea8:	b248b0        	mulsh	a4, a8, a11
    2eab:	b2f8c0        	mulsh	a15, a8, a12
    2eae:	8288c0        	mull	a8, a8, a12
    2eb1:	b2dac0        	mulsh	a13, a10, a12
    2eb4:	b2cab0        	mulsh	a12, a10, a11
    2eb7:	82aab0        	mull	a10, a10, a11
    2eba:	07b8           	l32i.n	a11, a7, 0
    2ebc:	058f80        	extui	a8, a8, 31, 1
    2ebf:	05afa0        	extui	a10, a10, 31, 1
    2ec2:	059f90        	extui	a9, a9, 31, 1
    2ec5:	05efe0        	extui	a14, a14, 31, 1
    2ec8:	904490        	addx2	a4, a4, a9
    2ecb:	908f80        	addx2	a8, a15, a8
    2ece:	2191b0        	srai	a9, a11, 1
    2ed1:	90bde0        	addx2	a11, a13, a14
    2ed4:	90aca0        	addx2	a10, a12, a10
    2ed7:	441b           	addi.n	a4, a4, 1
    2ed9:	881b           	addi.n	a8, a8, 1
    2edb:	aa1b           	addi.n	a10, a10, 1
    2edd:	eb1b           	addi.n	a14, a11, 1
    2edf:	0799           	s32i.n	a9, a7, 0
    2ee1:	214140        	srai	a4, a4, 1
    2ee4:	2191e0        	srai	a9, a14, 1
    2ee7:	218180        	srai	a8, a8, 1
    2eea:	21a1a0        	srai	a10, a10, 1
    2eed:	41f8           	l32i.n	a15, a1, 16
    2eef:	c04490        	sub	a4, a4, a9
    2ef2:	8a8a           	add.n	a8, a10, a8
    2ef4:	448204        	ae_lp16x2f.iu	aep0, a2, 0
    2ef7:	360434        	ae_cvtq48a32s	aeq0, a4
    2efa:	364834        	ae_cvtq48a32s	aeq1, a8
    2efd:	441214        	ae_lp16x2f.i	aep1, a2, 4
    2f00:	620714        	ae_sq32f.i	aeq0, a7, 4
    2f03:	621fe4        	ae_sq32f.i	aeq1, a15, -8
    2f06:	60d724        	ae_lq32f.iu	aeq3, a7, 8
    2f09:	fa453d471f 	{ ae_lq32f.i	aeq2, a7, 4; ae_mulq32sp16u.h	aeq0, aeq3, aep1 }
    2f0e:	030ba4        	ae_mulq32sp16u.h	aeq1, aeq2, aep0
    2f11:	350434        	ae_sraiq56	aeq0, aeq0, 16
    2f14:	f6e7bb144f 	{ ae_sraiq56	aeq1, aeq1, 16; ae_mulaq32sp16s.l	aeq0, aeq3, aep1 }
    2f19:	030994        	ae_mulaq32sp16s.l	aeq1, aeq2, aep0
    2f1c:	060934        	ae_roundsq32asym	aeq0, aeq0
    2f1f:	fd2c7a012f 	{ ae_sq56s.i	aeq0, a1, 16; ae_roundsq32asym	aeq1, aeq1 }
    2f24:	631134        	ae_sq56s.i	aeq1, a1, 24
    2f27:	0295e6        	bgei	a5, 10, 2f2d <LC3Plus_dct_IV_XT+0x225>
    2f2a:	002cc6        	j	2fe1 <LC3Plus_dct_IV_XT+0x2d9>
    2f2d:	102142        	l32i	a4, a1, 64
    2f30:	1133d0        	slli	a3, a3, 3
    2f33:	441b           	addi.n	a4, a4, 1
    2f35:	214140        	srai	a4, a4, 1
    2f38:	440b           	addi.n	a4, a4, -1
    2f3a:	ffc442        	addi	a4, a4, -1
    2f3d:	a08476        	loop	a4, 2fe1 <LC3Plus_dct_IV_XT+0x2d9>
    2f40:	0303e4        	ae_mulq32sp16u.h	aeq0, aeq3, aep0
    2f43:	031ba4        	ae_mulq32sp16u.h	aeq1, aeq2, aep1
    2f46:	350434        	ae_sraiq56	aeq0, aeq0, 16
    2f49:	f6e3bb144f 	{ ae_sraiq56	aeq1, aeq1, 16; ae_mulaq32sp16s.l	aeq0, aeq3, aep0 }
    2f4e:	f6e6fde13f 	{ ae_lq56.i	aeq3, a1, 24; ae_mulaq32sp16s.l	aeq1, aeq2, aep1 }
    2f53:	060934        	ae_roundsq32asym	aeq0, aeq0
    2f56:	065934        	ae_roundsq32asym	aeq1, aeq1
    2f59:	0109c4        	ae_addq56	aeq0, aeq0, aeq1
    2f5c:	620704        	ae_sq32f.i	aeq0, a7, 0
    2f5f:	458234        	ae_lp16x2f.xu	aep0, a2, a3
    2f62:	6096e4        	ae_lq32f.iu	aeq2, a6, -8
    2f65:	fa407d812f 	{ ae_lq56.i	aeq0, a1, 16; ae_mulq32sp16u.h	aeq1, aeq2, aep0 }
    2f6a:	f8a6ed121f 	{ ae_lp16x2f.i	aep1, a2, 4; ae_subq56	aeq0, aeq0, aeq3 }
    2f6f:	fb447b144f 	{ ae_sraiq56	aeq1, aeq1, 16; ae_mulq32sp16u.h	aeq3, aeq2, aep1 }
    2f74:	f6e2fa012f 	{ ae_sq56s.i	aeq0, a1, 16; ae_mulaq32sp16s.l	aeq1, aeq2, aep0 }
    2f79:	6006f4        	ae_lq32f.i	aeq0, a6, -4
    2f7c:	f8407a113f 	{ ae_sq56s.i	aeq1, a1, 24; ae_mulq32sp16u.h	aeq1, aeq0, aep0 }
    2f81:	35f434        	ae_sraiq56	aeq3, aeq3, 16
    2f84:	f8447a115f 	{ ae_sq56s.i	aeq1, a1, 40; ae_mulq32sp16u.h	aeq1, aeq0, aep1 }
    2f89:	f7e6fdc15f 	{ ae_lq56.i	aeq2, a1, 40; ae_mulaq32sp16s.l	aeq3, aeq2, aep1 }
    2f8e:	631144        	ae_sq56s.i	aeq1, a1, 32
    2f91:	ff3c7da14f 	{ ae_lq56.i	aeq1, a1, 32; ae_roundsq32asym	aeq3, aeq3 }
    2f96:	35a434        	ae_sraiq56	aeq2, aeq2, 16
    2f99:	f5e2bb144f 	{ ae_sraiq56	aeq1, aeq1, 16; ae_mulaq32sp16s.l	aeq2, aeq0, aep0 }
    2f9e:	f4e6fd813f 	{ ae_lq56.i	aeq0, a1, 24; ae_mulaq32sp16s.l	aeq1, aeq0, aep1 }
    2fa3:	060934        	ae_roundsq32asym	aeq0, aeq0
    2fa6:	fe347a013f 	{ ae_sq56s.i	aeq0, a1, 24; ae_roundsq32asym	aeq2, aeq2 }
    2fab:	fab6fd812f 	{ ae_lq56.i	aeq0, a1, 16; ae_subq56	aeq2, aeq2, aeq3 }
    2fb0:	fd2c7de13f 	{ ae_lq56.i	aeq3, a1, 24; ae_roundsq32asym	aeq1, aeq1 }
    2fb5:	f87e39860f 	{ ae_sq32f.i	aeq0, a6, 0; ae_addq56	aeq0, aeq3, aeq1 }
    2fba:	622714        	ae_sq32f.i	aeq2, a7, 4
    2fbd:	6206f4        	ae_sq32f.i	aeq0, a6, -4
    2fc0:	60d724        	ae_lq32f.iu	aeq3, a7, 8
    2fc3:	fa453d471f 	{ ae_lq32f.i	aeq2, a7, 4; ae_mulq32sp16u.h	aeq0, aeq3, aep1 }
    2fc8:	030ba4        	ae_mulq32sp16u.h	aeq1, aeq2, aep0
    2fcb:	350434        	ae_sraiq56	aeq0, aeq0, 16
    2fce:	f6e7bb144f 	{ ae_sraiq56	aeq1, aeq1, 16; ae_mulaq32sp16s.l	aeq0, aeq3, aep1 }
    2fd3:	030994        	ae_mulaq32sp16s.l	aeq1, aeq2, aep0
    2fd6:	060934        	ae_roundsq32asym	aeq0, aeq0
    2fd9:	fd2c7a012f 	{ ae_sq56s.i	aeq0, a1, 16; ae_roundsq32asym	aeq1, aeq1 }
    2fde:	631134        	ae_sq56s.i	aeq1, a1, 24

00002fe1 <LC3Plus_dct_IV_XT+0x2d9>:
    2fe1:	fa4100822f 	{ movi	a2, 130; ae_mulq32sp16u.h	aeq0, aeq3, aep0 }
    2fe6:	5ad222        	addmi	a2, a2, 0x5a00
    2fe9:	fa443b044f 	{ ae_sraiq56	aeq1, aeq0, 16; ae_mulq32sp16u.h	aeq0, aeq2, aep1 }
    2fee:	f6e3c4c14e 	{ addi	a4, a1, 76; ae_mulaq32sp16s.l	aeq1, aeq3, aep0 }
    2ff3:	350434        	ae_sraiq56	aeq0, aeq0, 16
    2ff6:	031194        	ae_mulaq32sp16s.l	aeq0, aeq2, aep1
    2ff9:	069934        	ae_roundsq32asym	aeq2, aeq1
    2ffc:	06c934        	ae_roundsq32asym	aeq3, aeq0
    2fff:	f8f63dc12f 	{ ae_lq56.i	aeq2, a1, 16; ae_addq56	aeq0, aeq2, aeq3 }
    3004:	61c134        	ae_lq56.i	aeq3, a1, 24
    3007:	f9baf9870f 	{ ae_sq32f.i	aeq0, a7, 0; ae_subq56	aeq1, aeq3, aeq2 }
    300c:	f48031        	l32r	a3, 20c (5a82799a <_end+0x5a7f89c2>)
    300f:	fe1498f32f 	{ ae_cvtp24a16x2.ll	aep7, a3, a2; ae_negq56	aeq2, aeq1 }
    3014:	6016e4        	ae_lq32f.iu	aeq0, a6, -8
    3017:	6046f4        	ae_lq32f.i	aeq1, a6, -4
    301a:	622604        	ae_sq32f.i	aeq2, a6, 0
    301d:	467404        	ae_sp16x2f.i	aep7, a4, 0
    3020:	440404        	ae_lp16x2f.i	aep0, a4, 0
    3023:	f9413111ee 	{ l32i	a14, a1, 68; ae_mulq32sp16u.h	aeq2, aeq1, aep0 }
    3028:	038b24        	ae_mulq32sp16u.h	aeq3, aeq0, aep0
    302b:	35a434        	ae_sraiq56	aeq2, aeq2, 16
    302e:	f5e3bb34cf 	{ ae_sraiq56	aeq3, aeq3, 16; ae_mulaq32sp16s.l	aeq2, aeq1, aep0 }
    3033:	f5e2e00efe 	{ l16si	a15, a14, 0; ae_mulaq32sp16s.l	aeq3, aeq0, aep0 }
    3038:	012bc4        	ae_addq56	aeq0, aeq2, aeq3
    303b:	2f2b           	addi.n	a2, a15, 2
    303d:	f9b6f986ff 	{ ae_sq32f.i	aeq0, a6, -4; ae_subq56	aeq1, aeq2, aeq3 }
    3042:	6e2d           	ae_s16i.n	a2, a14, 0
    3044:	621714        	ae_sq32f.i	aeq1, a7, 4
    3047:	f01d           	retw.n

00003049 <LC3Plus_dct_IV_XT+0x341>:
    3049:	000000                                        ...

0000304c <LC3Plus_dct_IV>:
    304c:	00a136        	entry	a1, 80
    304f:	037d           	mov.n	a7, a3
    3051:	f47131        	l32r	a3, 218 (23b4 <LC3Plus_BASOP_getTables>)
    3054:	21f140        	srai	a15, a4, 1
    3057:	a1cb           	addi.n	a10, a1, 12
    3059:	b18b           	addi.n	a11, a1, 8
    305b:	c14b           	addi.n	a12, a1, 4
    305d:	04dd           	mov.n	a13, a4
    305f:	0a6152        	s32i	a5, a1, 40
    3062:	0661f2        	s32i	a15, a1, 24
    3065:	0003e0        	callx8	a3
    3068:	a0f420        	addx4	a15, a4, a2
    306b:	02ad           	mov.n	a10, a2
    306d:	f8cf22        	addi	a2, a15, -8
    3070:	9129           	s32i.n	a2, a1, 36
    3072:	81a9           	s32i.n	a10, a1, 32
    3074:	7149           	s32i.n	a4, a1, 28
    3076:	0224e6        	bgei	a4, 2, 307c <LC3Plus_dct_IV+0x30>
    3079:	003906        	j	3161 <LC3Plus_dct_IV+0x115>
    307c:	6138           	l32i.n	a3, a1, 24
    307e:	f57c           	movi.n	a5, -1
    3080:	f67c           	movi.n	a6, -1
    3082:	431b           	addi.n	a4, a3, 1
    3084:	41e140        	srli	a14, a4, 1
    3087:	3128           	l32i.n	a2, a1, 12
    3089:	9148           	l32i.n	a4, a1, 36
    308b:	015510        	slli	a5, a5, 31
    308e:	416160        	srli	a6, a6, 1
    3091:	07fd           	mov.n	a15, a7
    3093:	0a3d           	mov.n	a3, a10
    3095:	5159           	s32i.n	a5, a1, 20
    3097:	4169           	s32i.n	a6, a1, 16
    3099:	be8e76        	loop	a14, 315b <LC3Plus_dct_IV+0x10f>
    309c:	1478           	l32i.n	a7, a4, 4
    309e:	0258           	l32i.n	a5, a2, 0
    30a0:	0368           	l32i.n	a6, a3, 0
    30a2:	1288           	l32i.n	a8, a2, 4
    30a4:	b29750        	mulsh	a9, a7, a5
    30a7:	82b750        	mull	a11, a7, a5
    30aa:	b2a680        	mulsh	a10, a6, a8
    30ad:	05bfb0        	extui	a11, a11, 31, 1
    30b0:	9099b0        	addx2	a9, a9, a11
    30b3:	991b           	addi.n	a9, a9, 1
    30b5:	21b190        	srai	a11, a9, 1
    30b8:	82c680        	mull	a12, a6, a8
    30bb:	b29780        	mulsh	a9, a7, a8
    30be:	05cfc0        	extui	a12, a12, 31, 1
    30c1:	90aac0        	addx2	a10, a10, a12
    30c4:	aa1b           	addi.n	a10, a10, 1
    30c6:	21a1a0        	srai	a10, a10, 1
    30c9:	c0eba0        	sub	a14, a11, a10
    30cc:	828780        	mull	a8, a7, a8
    30cf:	b27650        	mulsh	a7, a6, a5
    30d2:	058f80        	extui	a8, a8, 31, 1
    30d5:	908980        	addx2	a8, a9, a8
    30d8:	881b           	addi.n	a8, a8, 1
    30da:	218180        	srai	a8, a8, 1
    30dd:	825650        	mull	a5, a6, a5
    30e0:	04c8           	l32i.n	a12, a4, 0
    30e2:	055f50        	extui	a5, a5, 31, 1
    30e5:	905750        	addx2	a5, a7, a5
    30e8:	551b           	addi.n	a5, a5, 1
    30ea:	215150        	srai	a5, a5, 1
    30ed:	d85a           	add.n	a13, a8, a5
    30ef:	22b8           	l32i.n	a11, a2, 8
    30f1:	1398           	l32i.n	a9, a3, 4
    30f3:	3288           	l32i.n	a8, a2, 12
    30f5:	b25cb0        	mulsh	a5, a12, a11
    30f8:	826cb0        	mull	a6, a12, a11
    30fb:	b27980        	mulsh	a7, a9, a8
    30fe:	056f60        	extui	a6, a6, 31, 1
    3101:	905560        	addx2	a5, a5, a6
    3104:	551b           	addi.n	a5, a5, 1
    3106:	21a150        	srai	a10, a5, 1
    3109:	826980        	mull	a6, a9, a8
    310c:	b25c80        	mulsh	a5, a12, a8
    310f:	056f60        	extui	a6, a6, 31, 1
    3112:	906760        	addx2	a6, a7, a6
    3115:	661b           	addi.n	a6, a6, 1
    3117:	216160        	srai	a6, a6, 1
    311a:	c06a60        	sub	a6, a10, a6
    311d:	828c80        	mull	a8, a12, a8
    3120:	b279b0        	mulsh	a7, a9, a11
    3123:	058f80        	extui	a8, a8, 31, 1
    3126:	905580        	addx2	a5, a5, a8
    3129:	551b           	addi.n	a5, a5, 1
    312b:	215150        	srai	a5, a5, 1
    312e:	8289b0        	mull	a8, a9, a11
    3131:	03d9           	s32i.n	a13, a3, 0
    3133:	058f80        	extui	a8, a8, 31, 1
    3136:	907780        	addx2	a7, a7, a8
    3139:	771b           	addi.n	a7, a7, 1
    313b:	217170        	srai	a7, a7, 1
    313e:	557a           	add.n	a5, a5, a7
    3140:	13e9           	s32i.n	a14, a3, 4
    3142:	0459           	s32i.n	a5, a4, 0
    3144:	605060        	neg	a5, a6
    3147:	5188           	l32i.n	a8, a1, 20
    3149:	4178           	l32i.n	a7, a1, 16
    314b:	10c222        	addi	a2, a2, 16
    314e:	c06680        	sub	a6, a6, a8
    3151:	835760        	moveqz	a5, a7, a6
    3154:	1459           	s32i.n	a5, a4, 4
    3156:	338b           	addi.n	a3, a3, 8
    3158:	f8c442        	addi	a4, a4, -8

0000315b <LC3Plus_dct_IV+0x10f>:
    315b:	81a8           	l32i.n	a10, a1, 32
    315d:	7148           	l32i.n	a4, a1, 28
    315f:	0f7d           	mov.n	a7, a15

00003161 <LC3Plus_dct_IV+0x115>:
    3161:	f42e21        	l32r	a2, 21c (1b98 <LC3Plus_getScaleFactor32>)
    3164:	04bd           	mov.n	a11, a4
    3166:	0002e0        	callx8	a2
    3169:	8198           	l32i.n	a9, a1, 32
    316b:	61c8           	l32i.n	a12, a1, 24
    316d:	020c           	movi.n	a2, 0
    316f:	536a20        	max	a6, a10, a2
    3172:	3c14a6        	blti	a4, 1, 31b2 <LC3Plus_dct_IV+0x166>
    3175:	7138           	l32i.n	a3, a1, 28
    3177:	401600        	ssl	a6
    317a:	092d           	mov.n	a2, a9
    317c:	144030        	extui	a4, a3, 0, 2
    317f:	413230        	srli	a3, a3, 2
    3182:	089476        	loopnez	a4, 318e <LC3Plus_dct_IV+0x142>
    3185:	0248           	l32i.n	a4, a2, 0
    3187:	a14400        	sll	a4, a4
    318a:	0249           	s32i.n	a4, a2, 0
    318c:	224b           	addi.n	a2, a2, 4

0000318e <LC3Plus_dct_IV+0x142>:
    318e:	03ac           	beqz.n	a3, 31b2 <LC3Plus_dct_IV+0x166>
    3190:	1e9376        	loopnez	a3, 31b2 <LC3Plus_dct_IV+0x166>
    3193:	0238           	l32i.n	a3, a2, 0
    3195:	3258           	l32i.n	a5, a2, 12
    3197:	2248           	l32i.n	a4, a2, 8
    3199:	a13300        	sll	a3, a3
    319c:	a15500        	sll	a5, a5
    319f:	a14400        	sll	a4, a4
    31a2:	3259           	s32i.n	a5, a2, 12
    31a4:	1258           	l32i.n	a5, a2, 4
    31a6:	0239           	s32i.n	a3, a2, 0
    31a8:	2249           	s32i.n	a4, a2, 8
    31aa:	a13500        	sll	a3, a5
    31ad:	1239           	s32i.n	a3, a2, 4
    31af:	10c222        	addi	a2, a2, 16

000031b2 <LC3Plus_dct_IV+0x166>:
    31b2:	272d           	ae_l16si.n	a2, a7, 0
    31b4:	a1f8           	l32i.n	a15, a1, 40
    31b6:	b94b           	addi.n	a11, a9, 4
    31b8:	c02260        	sub	a2, a2, a6
    31bb:	672d           	ae_s16i.n	a2, a7, 0
    31bd:	f41821        	l32r	a2, 220 (5848 <LC3Plus_BASOP_cfft>)
    31c0:	2d0c           	movi.n	a13, 2
    31c2:	09ad           	mov.n	a10, a9
    31c4:	07ed           	mov.n	a14, a7
    31c6:	b179           	s32i.n	a7, a1, 44
    31c8:	0002e0        	callx8	a2
    31cb:	81e8           	l32i.n	a14, a1, 32
    31cd:	029132        	l16si	a3, a1, 4
    31d0:	2128           	l32i.n	a2, a1, 8
    31d2:	91f8           	l32i.n	a15, a1, 36
    31d4:	1e58           	l32i.n	a5, a14, 4
    31d6:	b07320        	addx8	a7, a3, a2
    31d9:	0f48           	l32i.n	a4, a15, 0
    31db:	0788           	l32i.n	a8, a7, 0
    31dd:	215150        	srai	a5, a5, 1
    31e0:	1798           	l32i.n	a9, a7, 4
    31e2:	1f68           	l32i.n	a6, a15, 4
    31e4:	82a480        	mull	a10, a4, a8
    31e7:	605050        	neg	a5, a5
    31ea:	1f59           	s32i.n	a5, a15, 4
    31ec:	b25480        	mulsh	a5, a4, a8
    31ef:	05afa0        	extui	a10, a10, 31, 1
    31f2:	9055a0        	addx2	a5, a5, a10
    31f5:	82c690        	mull	a12, a6, a9
    31f8:	b2d490        	mulsh	a13, a4, a9
    31fb:	824490        	mull	a4, a4, a9
    31fe:	b2b690        	mulsh	a11, a6, a9
    3201:	b29680        	mulsh	a9, a6, a8
    3204:	826680        	mull	a6, a6, a8
    3207:	0ea8           	l32i.n	a10, a14, 0
    3209:	054f40        	extui	a4, a4, 31, 1
    320c:	056f60        	extui	a6, a6, 31, 1
    320f:	05cfc0        	extui	a12, a12, 31, 1
    3212:	2181a0        	srai	a8, a10, 1
    3215:	904d40        	addx2	a4, a13, a4
    3218:	906960        	addx2	a6, a9, a6
    321b:	90abc0        	addx2	a10, a11, a12
    321e:	551b           	addi.n	a5, a5, 1
    3220:	441b           	addi.n	a4, a4, 1
    3222:	661b           	addi.n	a6, a6, 1
    3224:	da1b           	addi.n	a13, a10, 1
    3226:	0e89           	s32i.n	a8, a14, 0
    3228:	215150        	srai	a5, a5, 1
    322b:	2181d0        	srai	a8, a13, 1
    322e:	214140        	srai	a4, a4, 1
    3231:	216160        	srai	a6, a6, 1
    3234:	c05580        	sub	a5, a5, a8
    3237:	446a           	add.n	a4, a4, a6
    3239:	1e59           	s32i.n	a5, a14, 4
    323b:	0f49           	s32i.n	a4, a15, 0
    323d:	0758           	l32i.n	a5, a7, 0
    323f:	3e48           	l32i.n	a4, a14, 12
    3241:	2e68           	l32i.n	a6, a14, 8
    3243:	1778           	l32i.n	a7, a7, 4
    3245:	b28450        	mulsh	a8, a4, a5
    3248:	829450        	mull	a9, a4, a5
    324b:	82b670        	mull	a11, a6, a7
    324e:	b2d650        	mulsh	a13, a6, a5
    3251:	825650        	mull	a5, a6, a5
    3254:	b2a670        	mulsh	a10, a6, a7
    3257:	b2c470        	mulsh	a12, a4, a7
    325a:	827470        	mull	a7, a4, a7
    325d:	056f90        	extui	a6, a9, 31, 1
    3260:	057f70        	extui	a7, a7, 31, 1
    3263:	055f50        	extui	a5, a5, 31, 1
    3266:	05bfb0        	extui	a11, a11, 31, 1
    3269:	909860        	addx2	a9, a8, a6
    326c:	905d50        	addx2	a5, a13, a5
    326f:	908ab0        	addx2	a8, a10, a11
    3272:	907c70        	addx2	a7, a12, a7
    3275:	71d8           	l32i.n	a13, a1, 28
    3277:	691b           	addi.n	a6, a9, 1
    3279:	881b           	addi.n	a8, a8, 1
    327b:	771b           	addi.n	a7, a7, 1
    327d:	551b           	addi.n	a5, a5, 1
    327f:	216160        	srai	a6, a6, 1
    3282:	218180        	srai	a8, a8, 1
    3285:	217170        	srai	a7, a7, 1
    3288:	215150        	srai	a5, a5, 1
    328b:	f8cf42        	addi	a4, a15, -8
    328e:	c08680        	sub	a8, a6, a8
    3291:	775a           	add.n	a7, a7, a5
    3293:	029de6        	bgei	a13, 10, 3299 <LC3Plus_dct_IV+0x24d>
    3296:	003906        	j	337e <LC3Plus_dct_IV+0x332>
    3299:	6158           	l32i.n	a5, a1, 24
    329b:	933d           	ae_zext16	a3, a3
    329d:	4129           	s32i.n	a2, a1, 16
    329f:	551b           	addi.n	a5, a5, 1
    32a1:	21d150        	srai	a13, a5, 1
    32a4:	2d0b           	addi.n	a2, a13, -1
    32a6:	620b           	addi.n	a6, a2, -1
    32a8:	f33a           	add.n	a15, a3, a3
    32aa:	5139           	s32i.n	a3, a1, 20
    32ac:	043d           	mov.n	a3, a4
    32ae:	0e2d           	mov.n	a2, a14
    32b0:	0f4d           	mov.n	a4, a15
    32b2:	bc8676        	loop	a6, 3372 <LC3Plus_dct_IV+0x326>
    32b5:	0358           	l32i.n	a5, a3, 0
    32b7:	849d           	ae_sext16	a9, a4
    32b9:	41b8           	l32i.n	a11, a1, 16
    32bb:	13a8           	l32i.n	a10, a3, 4
    32bd:	5168           	l32i.n	a6, a1, 20
    32bf:	608080        	neg	a8, a8
    32c2:	b0e9b0        	addx8	a14, a9, a11
    32c5:	446a           	add.n	a4, a4, a6
    32c7:	0ed8           	l32i.n	a13, a14, 0
    32c9:	1e68           	l32i.n	a6, a14, 4
    32cb:	1389           	s32i.n	a8, a3, 4
    32cd:	2279           	s32i.n	a7, a2, 8
    32cf:	b2c5d0        	mulsh	a12, a5, a13
    32d2:	82b5d0        	mull	a11, a5, a13
    32d5:	b29a60        	mulsh	a9, a10, a6
    32d8:	828a60        	mull	a8, a10, a6
    32db:	b27560        	mulsh	a7, a5, a6
    32de:	826560        	mull	a6, a5, a6
    32e1:	b25ad0        	mulsh	a5, a10, a13
    32e4:	82aad0        	mull	a10, a10, a13
    32e7:	05bfb0        	extui	a11, a11, 31, 1
    32ea:	058f80        	extui	a8, a8, 31, 1
    32ed:	056f60        	extui	a6, a6, 31, 1
    32f0:	05afa0        	extui	a10, a10, 31, 1
    32f3:	90bcb0        	addx2	a11, a12, a11
    32f6:	908980        	addx2	a8, a9, a8
    32f9:	909760        	addx2	a9, a7, a6
    32fc:	9075a0        	addx2	a7, a5, a10
    32ff:	5b1b           	addi.n	a5, a11, 1
    3301:	681b           	addi.n	a6, a8, 1
    3303:	891b           	addi.n	a8, a9, 1
    3305:	971b           	addi.n	a9, a7, 1
    3307:	215150        	srai	a5, a5, 1
    330a:	216160        	srai	a6, a6, 1
    330d:	217180        	srai	a7, a8, 1
    3310:	218190        	srai	a8, a9, 1
    3313:	c05560        	sub	a5, a5, a6
    3316:	678a           	add.n	a6, a7, a8
    3318:	3259           	s32i.n	a5, a2, 12
    331a:	0369           	s32i.n	a6, a3, 0
    331c:	f8c332        	addi	a3, a3, -8
    331f:	5278           	l32i.n	a7, a2, 20
    3321:	42b8           	l32i.n	a11, a2, 16
    3323:	0ec8           	l32i.n	a12, a14, 0
    3325:	1ea8           	l32i.n	a10, a14, 4
    3327:	228b           	addi.n	a2, a2, 8
    3329:	b287c0        	mulsh	a8, a7, a12
    332c:	82d7c0        	mull	a13, a7, a12
    332f:	b26ba0        	mulsh	a6, a11, a10
    3332:	829ba0        	mull	a9, a11, a10
    3335:	b257a0        	mulsh	a5, a7, a10
    3338:	82a7a0        	mull	a10, a7, a10
    333b:	b27bc0        	mulsh	a7, a11, a12
    333e:	82cbc0        	mull	a12, a11, a12
    3341:	05bfd0        	extui	a11, a13, 31, 1
    3344:	059f90        	extui	a9, a9, 31, 1
    3347:	05afa0        	extui	a10, a10, 31, 1
    334a:	05cfc0        	extui	a12, a12, 31, 1
    334d:	9088b0        	addx2	a8, a8, a11
    3350:	909690        	addx2	a9, a6, a9
    3353:	9065a0        	addx2	a6, a5, a10
    3356:	9077c0        	addx2	a7, a7, a12
    3359:	581b           	addi.n	a5, a8, 1
    335b:	891b           	addi.n	a8, a9, 1
    335d:	961b           	addi.n	a9, a6, 1
    335f:	771b           	addi.n	a7, a7, 1
    3361:	215150        	srai	a5, a5, 1
    3364:	216180        	srai	a6, a8, 1
    3367:	219190        	srai	a9, a9, 1
    336a:	217170        	srai	a7, a7, 1
    336d:	c08560        	sub	a8, a5, a6
    3370:	797a           	add.n	a7, a9, a7

00003372 <LC3Plus_dct_IV+0x326>:
    3372:	034d           	mov.n	a4, a3
    3374:	02ed           	mov.n	a14, a2
    3376:	f38b           	addi.n	a15, a3, 8
    3378:	228b           	addi.n	a2, a2, 8
    337a:	000086        	j	3380 <LC3Plus_dct_IV+0x334>

0000337d <LC3Plus_dct_IV+0x331>:
	...

0000337e <LC3Plus_dct_IV+0x332>:
    337e:	2e8b           	addi.n	a2, a14, 8
    3380:	3ecb           	addi.n	a3, a14, 12
    3382:	fccf92        	addi	a9, a15, -4
    3385:	0458           	l32i.n	a5, a4, 0
    3387:	f3a161        	l32r	a6, 20c (5a82799a <_end+0x5a7f89c2>)
    338a:	09a8           	l32i.n	a10, a9, 0
    338c:	b1c8           	l32i.n	a12, a1, 44
    338e:	b25560        	mulsh	a5, a5, a6
    3391:	b26a60        	mulsh	a6, a10, a6
    3394:	2cbd           	ae_l16si.n	a11, a12, 0
    3396:	1155f0        	slli	a5, a5, 1
    3399:	1166f0        	slli	a6, a6, 1
    339c:	215150        	srai	a5, a5, 1
    339f:	216160        	srai	a6, a6, 1
    33a2:	f65a           	add.n	a15, a6, a5
    33a4:	eb2b           	addi.n	a14, a11, 2
    33a6:	608080        	neg	a8, a8
    33a9:	c05560        	sub	a5, a5, a6
    33ac:	04f9           	s32i.n	a15, a4, 0
    33ae:	0359           	s32i.n	a5, a3, 0
    33b0:	0989           	s32i.n	a8, a9, 0
    33b2:	6ced           	ae_s16i.n	a14, a12, 0
    33b4:	0279           	s32i.n	a7, a2, 0
    33b6:	f01d           	retw.n

000033b8 <LC3Plus_processSnsInterpolateScf_fx>:
    33b8:	008136        	entry	a1, 64
    33bb:	3139           	s32i.n	a3, a1, 12
    33bd:	f39931        	l32r	a3, 224 (161e8 <LC3Plus_lc3_scratch_push>)
    33c0:	00a1b2        	movi	a11, 0x100
    33c3:	07ad           	mov.n	a10, a7
    33c5:	5169           	s32i.n	a6, a1, 20
    33c7:	4159           	s32i.n	a5, a1, 16
    33c9:	2149           	s32i.n	a4, a1, 8
    33cb:	0003e0        	callx8	a3
    33ce:	0a6d           	mov.n	a6, a10
    33d0:	00a1b2        	movi	a11, 0x100
    33d3:	20a770        	or	a10, a7, a7
    33d6:	066172        	s32i	a7, a1, 24
    33d9:	0003e0        	callx8	a3
    33dc:	0248           	l32i.n	a4, a2, 0
    33de:	0649           	s32i.n	a4, a6, 0
    33e0:	0278           	l32i.n	a7, a2, 0
    33e2:	024d           	mov.n	a4, a2
    33e4:	1679           	s32i.n	a7, a6, 4
    33e6:	601404        	ae_lq32f.iu	aeq0, a4, 0
    33e9:	604414        	ae_lq32f.i	aeq1, a4, 4
    33ec:	f82ac00f5f 	{ movi	a5, 15; ae_subq56	aeq0, aeq1, aeq0 }
    33f1:	3540f4        	ae_sraiq56	aeq1, aeq0, 3
    33f4:	419150        	srli	a9, a5, 1
    33f7:	0258           	l32i.n	a5, a2, 0
    33f9:	369804        	ae_trunca32q48	a8, aeq1
    33fc:	3500b4        	ae_sraiq56	aeq0, aeq0, 2
    33ff:	36cb           	addi.n	a3, a6, 12
    3401:	885a           	add.n	a8, a8, a5
    3403:	368504        	ae_trunca32q48	a5, aeq0
    3406:	fcc3e2        	addi	a14, a3, -4
    3409:	51b8           	l32i.n	a11, a1, 20
    340b:	f85a           	add.n	a15, a8, a5
    340d:	7f5a           	add.n	a7, a15, a5
    340f:	601414        	ae_lq32f.iu	aeq0, a4, 4
    3412:	0e89           	s32i.n	a8, a14, 0
    3414:	03f9           	s32i.n	a15, a3, 0
    3416:	1379           	s32i.n	a7, a3, 4
    3418:	775a           	add.n	a7, a7, a5
    341a:	2379           	s32i.n	a7, a3, 8
    341c:	71a9           	s32i.n	a10, a1, 28
    341e:	1169           	s32i.n	a6, a1, 4
    3420:	224b           	addi.n	a2, a2, 4
    3422:	10c332        	addi	a3, a3, 16
    3425:	539976        	loopnez	a9, 347c <LC3Plus_processSnsInterpolateScf_fx+0xc4>
    3428:	604414        	ae_lq32f.i	aeq1, a4, 4
    342b:	f92afd141f 	{ ae_lq32f.iu	aeq0, a4, 4; ae_subq56	aeq1, aeq1, aeq0 }
    3430:	0258           	l32i.n	a5, a2, 0
    3432:	fcc382        	addi	a8, a3, -4
    3435:	3590f4        	ae_sraiq56	aeq2, aeq1, 3
    3438:	36a604        	ae_trunca32q48	a6, aeq2
    343b:	3550b4        	ae_sraiq56	aeq1, aeq1, 2
    343e:	369704        	ae_trunca32q48	a7, aeq1
    3441:	565a           	add.n	a5, a6, a5
    3443:	0859           	s32i.n	a5, a8, 0
    3445:	557a           	add.n	a5, a5, a7
    3447:	0359           	s32i.n	a5, a3, 0
    3449:	557a           	add.n	a5, a5, a7
    344b:	1359           	s32i.n	a5, a3, 4
    344d:	557a           	add.n	a5, a5, a7
    344f:	2359           	s32i.n	a5, a3, 8
    3451:	604414        	ae_lq32f.i	aeq1, a4, 4
    3454:	fa2afd141f 	{ ae_lq32f.iu	aeq0, a4, 4; ae_subq56	aeq2, aeq1, aeq0 }
    3459:	1278           	l32i.n	a7, a2, 4
    345b:	228b           	addi.n	a2, a2, 8
    345d:	3560f4        	ae_sraiq56	aeq1, aeq2, 3
    3460:	369604        	ae_trunca32q48	a6, aeq1
    3463:	3560b4        	ae_sraiq56	aeq1, aeq2, 2
    3466:	369504        	ae_trunca32q48	a5, aeq1
    3469:	667a           	add.n	a6, a6, a7
    346b:	4869           	s32i.n	a6, a8, 16
    346d:	665a           	add.n	a6, a6, a5
    346f:	4369           	s32i.n	a6, a3, 16
    3471:	665a           	add.n	a6, a6, a5
    3473:	5369           	s32i.n	a6, a3, 20
    3475:	665a           	add.n	a6, a6, a5
    3477:	6369           	s32i.n	a6, a3, 24
    3479:	20c332        	addi	a3, a3, 32

0000347c <LC3Plus_processSnsInterpolateScf_fx+0xc4>:
    347c:	1148           	l32i.n	a4, a1, 4
    347e:	c0cb32        	addi	a3, a11, -64
    3481:	833d           	ae_sext16	a3, a3
    3483:	3d2422        	l32i	a2, a4, 244
    3486:	064c           	movi.n	a6, 64
    3488:	c076b0        	sub	a7, a6, a11
    348b:	225a           	add.n	a2, a2, a5
    348d:	3e6422        	s32i	a2, a4, 248
    3490:	225a           	add.n	a2, a2, a5
    3492:	3f6422        	s32i	a2, a4, 252
    3495:	0803d6        	bgez	a3, 3519 <LC3Plus_processSnsInterpolateScf_fx+0x161>
    3498:	876d           	ae_sext16	a6, a7
    349a:	2d16a6        	blti	a6, 1, 34cb <LC3Plus_processSnsInterpolateScf_fx+0x113>
    349d:	1178           	l32i.n	a7, a1, 4
    349f:	560b           	addi.n	a5, a6, -1
    34a1:	0738           	l32i.n	a3, a7, 0
    34a3:	1748           	l32i.n	a4, a7, 4
    34a5:	278b           	addi.n	a2, a7, 8
    34a7:	443a           	add.n	a4, a4, a3
    34a9:	214140        	srai	a4, a4, 1
    34ac:	073d           	mov.n	a3, a7
    34ae:	006742        	s32i	a4, a7, 0
    34b1:	0e9576        	loopnez	a5, 34c3 <LC3Plus_processSnsInterpolateScf_fx+0x10b>
    34b4:	0258           	l32i.n	a5, a2, 0
    34b6:	1248           	l32i.n	a4, a2, 4
    34b8:	334b           	addi.n	a3, a3, 4
    34ba:	228b           	addi.n	a2, a2, 8
    34bc:	445a           	add.n	a4, a4, a5
    34be:	214140        	srai	a4, a4, 1
    34c1:	0349           	s32i.n	a4, a3, 0
    34c3:	062d           	mov.n	a2, a6
    34c5:	0726b7        	blt	a6, a11, 34d0 <LC3Plus_processSnsInterpolateScf_fx+0x118>
    34c8:	001346        	j	3519 <LC3Plus_processSnsInterpolateScf_fx+0x161>

000034cb <LC3Plus_processSnsInterpolateScf_fx+0x113>:
    34cb:	020c           	movi.n	a2, 0
    34cd:	48a2b7        	bge	a2, a11, 3519 <LC3Plus_processSnsInterpolateScf_fx+0x161>
    34d0:	1158           	l32i.n	a5, a1, 4
    34d2:	c04b20        	sub	a4, a11, a2
    34d5:	24f040        	extui	a15, a4, 0, 3
    34d8:	e26a           	add.n	a14, a2, a6
    34da:	a03250        	addx4	a3, a2, a5
    34dd:	a02e50        	addx4	a2, a14, a5
    34e0:	414340        	srli	a4, a4, 3
    34e3:	079f76        	loopnez	a15, 34ee <LC3Plus_processSnsInterpolateScf_fx+0x136>
    34e6:	0258           	l32i.n	a5, a2, 0
    34e8:	0359           	s32i.n	a5, a3, 0
    34ea:	224b           	addi.n	a2, a2, 4
    34ec:	334b           	addi.n	a3, a3, 4

000034ee <LC3Plus_processSnsInterpolateScf_fx+0x136>:
    34ee:	74ac           	beqz.n	a4, 3519 <LC3Plus_processSnsInterpolateScf_fx+0x161>
    34f0:	259476        	loopnez	a4, 3519 <LC3Plus_processSnsInterpolateScf_fx+0x161>
    34f3:	0248           	l32i.n	a4, a2, 0
    34f5:	0349           	s32i.n	a4, a3, 0
    34f7:	1248           	l32i.n	a4, a2, 4
    34f9:	1349           	s32i.n	a4, a3, 4
    34fb:	2248           	l32i.n	a4, a2, 8
    34fd:	2349           	s32i.n	a4, a3, 8
    34ff:	3248           	l32i.n	a4, a2, 12
    3501:	3349           	s32i.n	a4, a3, 12
    3503:	4248           	l32i.n	a4, a2, 16
    3505:	4349           	s32i.n	a4, a3, 16
    3507:	5248           	l32i.n	a4, a2, 20
    3509:	5349           	s32i.n	a4, a3, 20
    350b:	6248           	l32i.n	a4, a2, 24
    350d:	6349           	s32i.n	a4, a3, 24
    350f:	7248           	l32i.n	a4, a2, 28
    3511:	7349           	s32i.n	a4, a3, 28
    3513:	20c332        	addi	a3, a3, 32
    3516:	20c222        	addi	a2, a2, 32

00003519 <LC3Plus_processSnsInterpolateScf_fx+0x161>:
    3519:	4128           	l32i.n	a2, a1, 16
    351b:	1148           	l32i.n	a4, a1, 4
    351d:	f37c           	movi.n	a3, -1
    351f:	021226        	beqi	a2, 1, 3525 <LC3Plus_processSnsInterpolateScf_fx+0x16d>
    3522:	002586        	j	35bc <LC3Plus_processSnsInterpolateScf_fx+0x204>
    3525:	021be6        	bgei	a11, 1, 352b <LC3Plus_processSnsInterpolateScf_fx+0x173>
    3528:	005286        	j	3676 <LC3Plus_processSnsInterpolateScf_fx+0x2be>
    352b:	f27c           	movi.n	a2, -1
    352d:	2460b0        	extui	a6, a11, 0, 3
    3530:	012210        	slli	a2, a2, 31
    3533:	413130        	srli	a3, a3, 1
    3536:	4153b0        	srli	a5, a11, 3
    3539:	0e9676        	loopnez	a6, 354b <LC3Plus_processSnsInterpolateScf_fx+0x193>
    353c:	0468           	l32i.n	a6, a4, 0
    353e:	607060        	neg	a7, a6
    3541:	c06620        	sub	a6, a6, a2
    3544:	837360        	moveqz	a7, a3, a6
    3547:	0479           	s32i.n	a7, a4, 0
    3549:	444b           	addi.n	a4, a4, 4

0000354b <LC3Plus_processSnsInterpolateScf_fx+0x193>:
    354b:	06d516        	beqz	a5, 35bc <LC3Plus_processSnsInterpolateScf_fx+0x204>
    354e:	6a9576        	loopnez	a5, 35bc <LC3Plus_processSnsInterpolateScf_fx+0x204>
    3551:	04a8           	l32i.n	a10, a4, 0
    3553:	1488           	l32i.n	a8, a4, 4
    3555:	2478           	l32i.n	a7, a4, 8
    3557:	3468           	l32i.n	a6, a4, 12
    3559:	605080        	neg	a5, a8
    355c:	c08820        	sub	a8, a8, a2
    355f:	835380        	moveqz	a5, a3, a8
    3562:	608070        	neg	a8, a7
    3565:	c07720        	sub	a7, a7, a2
    3568:	838370        	moveqz	a8, a3, a7
    356b:	2489           	s32i.n	a8, a4, 8
    356d:	608060        	neg	a8, a6
    3570:	c07620        	sub	a7, a6, a2
    3573:	4468           	l32i.n	a6, a4, 16
    3575:	838370        	moveqz	a8, a3, a7
    3578:	3489           	s32i.n	a8, a4, 12
    357a:	1459           	s32i.n	a5, a4, 4
    357c:	5478           	l32i.n	a7, a4, 20
    357e:	c08620        	sub	a8, a6, a2
    3581:	606060        	neg	a6, a6
    3584:	605070        	neg	a5, a7
    3587:	c07720        	sub	a7, a7, a2
    358a:	6498           	l32i.n	a9, a4, 24
    358c:	835370        	moveqz	a5, a3, a7
    358f:	836380        	moveqz	a6, a3, a8
    3592:	4469           	s32i.n	a6, a4, 16
    3594:	606090        	neg	a6, a9
    3597:	c08920        	sub	a8, a9, a2
    359a:	7478           	l32i.n	a7, a4, 28
    359c:	836380        	moveqz	a6, a3, a8
    359f:	6469           	s32i.n	a6, a4, 24
    35a1:	5459           	s32i.n	a5, a4, 20
    35a3:	605070        	neg	a5, a7
    35a6:	c06720        	sub	a6, a7, a2
    35a9:	835360        	moveqz	a5, a3, a6
    35ac:	6060a0        	neg	a6, a10
    35af:	c07a20        	sub	a7, a10, a2
    35b2:	836370        	moveqz	a6, a3, a7
    35b5:	0469           	s32i.n	a6, a4, 0
    35b7:	7459           	s32i.n	a5, a4, 28
    35b9:	20c442        	addi	a4, a4, 32

000035bc <LC3Plus_processSnsInterpolateScf_fx+0x204>:
    35bc:	021be6        	bgei	a11, 1, 35c2 <LC3Plus_processSnsInterpolateScf_fx+0x20a>
    35bf:	002cc6        	j	3676 <LC3Plus_processSnsInterpolateScf_fx+0x2be>
    35c2:	2128           	l32i.n	a2, a1, 8
    35c4:	3138           	l32i.n	a3, a1, 12
    35c6:	f31861        	l32r	a6, 228 (7bffffff <_end+0x7bfd1027>)
    35c9:	11e8           	l32i.n	a14, a1, 4
    35cb:	146c           	movi.n	a4, -31
    35cd:	180c           	movi.n	a8, 1
    35cf:	fec222        	addi	a2, a2, -2
    35d2:	fcc332        	addi	a3, a3, -4
    35d5:	014460        	slli	a4, a4, 26
    35d8:	018820        	slli	a8, a8, 30
    35db:	dd7c           	movi.n	a13, -3
    35dd:	958b76        	loop	a11, 3676 <LC3Plus_processSnsInterpolateScf_fx+0x2be>
    35e0:	0ef8           	l32i.n	a15, a14, 0
    35e2:	070c           	movi.n	a7, 0
    35e4:	050c           	movi.n	a5, 0
    35e6:	7e2f47        	blt	a15, a4, 3668 <LC3Plus_processSnsInterpolateScf_fx+0x2b0>
    35e9:	f71c           	movi.n	a7, 31
    35eb:	085d           	mov.n	a5, a8
    35ed:	7726f7        	blt	a6, a15, 3668 <LC3Plus_processSnsInterpolateScf_fx+0x2b0>
    35f0:	2151f0        	srai	a5, a15, 1
    35f3:	06a516        	beqz	a5, 3661 <LC3Plus_processSnsInterpolateScf_fx+0x2a9>
    35f6:	f2cdc1        	l32r	a12, 12c (18280 <LC3Plus_exp2x_tab_long>)
    35f9:	447bf0        	extui	a7, a15, 11, 5
    35fc:	945050        	extui	a5, a5, 0, 10
    35ff:	a077c0        	addx4	a7, a7, a12
    3602:	f2cbc1        	l32r	a12, 130 (16302f <_end+0x134057>)
    3605:	4595f0        	extui	a9, a15, 21, 5
    3608:	45a0f0        	extui	a10, a15, 16, 5
    360b:	8255c0        	mull	a5, a5, a12
    360e:	f2c9c1        	l32r	a12, 134 (18180 <LC3Plus_exp2_tab_long>)
    3611:	0778           	l32i.n	a7, a7, 0
    3613:	f55050        	extui	a5, a5, 16, 16
    3616:	a099c0        	addx4	a9, a9, a12
    3619:	f2c7c1        	l32r	a12, 138 (18200 <LC3Plus_exp2w_tab_long>)
    361c:	0998           	l32i.n	a9, a9, 0
    361e:	575a           	add.n	a5, a7, a5
    3620:	a0aac0        	addx4	a10, a10, a12
    3623:	0aa8           	l32i.n	a10, a10, 0
    3625:	31baf0        	srai	a11, a15, 26
    3628:	7b3b           	addi.n	a7, a11, 3
    362a:	b2c9a0        	mulsh	a12, a9, a10
    362d:	8299a0        	mull	a9, a9, a10
    3630:	059f90        	extui	a9, a9, 31, 1
    3633:	909c90        	addx2	a9, a12, a9
    3636:	82c950        	mull	a12, a9, a5
    3639:	b25950        	mulsh	a5, a9, a5
    363c:	05cfc0        	extui	a12, a12, 31, 1
    363f:	9055c0        	addx2	a5, a5, a12
    3642:	222fe6        	bgei	a15, 2, 3668 <LC3Plus_processSnsInterpolateScf_fx+0x2b0>
    3645:	401700        	ssl	a7
    3648:	c09db0        	sub	a9, a13, a11
    364b:	a1f500        	sll	a15, a5
    364e:	400900        	ssr	a9
    3651:	72adb0        	salt	a10, a13, a11
    3654:	b15050        	sra	a5, a5
    3657:	070c           	movi.n	a7, 0
    3659:	935fa0        	movnez	a5, a15, a10
    365c:	000206        	j	3668 <LC3Plus_processSnsInterpolateScf_fx+0x2b0>

0000365f <LC3Plus_processSnsInterpolateScf_fx+0x2a7>:
	...

00003661 <LC3Plus_processSnsInterpolateScf_fx+0x2a9>:
    3661:	150c           	movi.n	a5, 1
    3663:	f77c           	movi.n	a7, -1
    3665:	015540        	slli	a5, a5, 28
    3668:	360534        	ae_cvtq48a32s	aeq0, a5
    366b:	300774        	ae_cvtp24a16x2.ll	aep0, a7, a7
    366e:	ee4b           	addi.n	a14, a14, 4
    3670:	624314        	ae_sq32f.iu	aeq0, a3, 4
    3673:	428214        	ae_sp16f.l.iu	aep0, a2, 2

00003676 <LC3Plus_processSnsInterpolateScf_fx+0x2be>:
    3676:	6138           	l32i.n	a3, a1, 24
    3678:	f2ed21        	l32r	a2, 22c (16228 <LC3Plus_lc3_scratch_pop>)
    367b:	71b8           	l32i.n	a11, a1, 28
    367d:	03ad           	mov.n	a10, a3
    367f:	0002e0        	callx8	a2
    3682:	11b8           	l32i.n	a11, a1, 4
    3684:	03ad           	mov.n	a10, a3
    3686:	0002e0        	callx8	a2
    3689:	f01d           	retw.n

0000368b <LC3Plus_processSnsInterpolateScf_fx+0x2d3>:
    368b:	00000000                                 .....

00003690 <LC3Plus_processAriEncoder_fx>:
    3690:	00c136        	entry	a1, 96
    3693:	8169           	s32i.n	a6, a1, 32
    3695:	056d           	mov.n	a6, a5
    3697:	1a2152        	l32i	a5, a1, 104
    369a:	212132        	l32i	a3, a1, 132
    369d:	2179           	s32i.n	a7, a1, 8
    369f:	254d           	ae_l16si.n	a4, a5, 0
    36a1:	03ad           	mov.n	a10, a3
    36a3:	097d           	mov.n	a7, a9
    36a5:	11b4e0        	slli	a11, a4, 2
    36a8:	f2df41        	l32r	a4, 224 (161e8 <LC3Plus_lc3_scratch_push>)
    36ab:	0004e0        	callx8	a4
    36ae:	6348           	l32i.n	a4, a3, 24
    36b0:	0abd           	mov.n	a11, a10
    36b2:	03ad           	mov.n	a10, a3
    36b4:	a48c           	beqz.n	a4, 36c2 <LC3Plus_processAriEncoder_fx+0x32>
    36b6:	f2dd21        	l32r	a2, 22c (16228 <LC3Plus_lc3_scratch_pop>)
    36b9:	0002e0        	callx8	a2
    36bc:	020c           	movi.n	a2, 0
    36be:	822d           	ae_sext16	a2, a2
    36c0:	f01d           	retw.n

000036c2 <LC3Plus_processAriEncoder_fx+0x32>:
    36c2:	064d           	mov.n	a4, a6
    36c4:	182162        	l32i	a6, a1, 96
    36c7:	2198           	l32i.n	a9, a1, 8
    36c9:	1f21f2        	l32i	a15, a1, 124
    36cc:	028d           	mov.n	a8, a2
    36ce:	c159           	s32i.n	a5, a1, 48
    36d0:	e1f9           	s32i.n	a15, a1, 56
    36d2:	d179           	s32i.n	a7, a1, 52
    36d4:	f139           	s32i.n	a3, a1, 60
    36d6:	b149           	s32i.n	a4, a1, 44
    36d8:	61b9           	s32i.n	a11, a1, 24
    36da:	0216e6        	bgei	a6, 1, 36e0 <LC3Plus_processAriEncoder_fx+0x50>
    36dd:	006686        	j	387b <LC3Plus_processAriEncoder_fx+0x1eb>
    36e0:	202122        	l32i	a2, a1, 128
    36e3:	f2d3b1        	l32r	a11, 230 (28ae0 <LC3Plus_ac_tns_order_cumfreq>)
    36e6:	f2d341        	l32r	a4, 234 (28ac0 <LC3Plus_ac_tns_order_freq>)
    36e9:	192132        	l32i	a3, a1, 100
    36ec:	1122c0        	slli	a2, a2, 4
    36ef:	f57c           	movi.n	a5, -1
    36f1:	ff7c           	movi.n	a15, -1
    36f3:	1139           	s32i.n	a3, a1, 4
    36f5:	3b2a           	add.n	a3, a11, a2
    36f7:	242a           	add.n	a2, a4, a2
    36f9:	f45050        	extui	a5, a5, 0, 16
    36fc:	41f8f0        	srli	a15, a15, 8
    36ff:	0a0c           	movi.n	a10, 0
    3701:	0c0c           	movi.n	a12, 0
    3703:	0e0c           	movi.n	a14, 0
    3705:	0d0c           	movi.n	a13, 0
    3707:	09bd           	mov.n	a11, a9
    3709:	4139           	s32i.n	a3, a1, 16
    370b:	7129           	s32i.n	a2, a1, 28
    370d:	0003c6        	j	3720 <LC3Plus_processAriEncoder_fx+0x90>

00003710 <LC3Plus_processAriEncoder_fx+0x80>:
    3710:	1128           	l32i.n	a2, a1, 4
    3712:	9168           	l32i.n	a6, a1, 36
    3714:	bb2b           	addi.n	a11, a11, 2
    3716:	10c222        	addi	a2, a2, 16
    3719:	660b           	addi.n	a6, a6, -1
    371b:	1129           	s32i.n	a2, a1, 4
    371d:	16c616        	beqz	a6, 388d <LC3Plus_processAriEncoder_fx+0x1fd>
    3720:	4b3d           	ae_l16ui.n	a3, a11, 0
    3722:	9169           	s32i.n	a6, a1, 36
    3724:	4178           	l32i.n	a7, a1, 16
    3726:	832d           	ae_sext16	a2, a3
    3728:	e412a6        	blti	a2, 1, 3710 <LC3Plus_processAriEncoder_fx+0x80>
    372b:	330b           	addi.n	a3, a3, -1
    372d:	1133f0        	slli	a3, a3, 1
    3730:	056d           	mov.n	a6, a5
    3732:	573a           	add.n	a5, a7, a3
    3734:	7178           	l32i.n	a7, a1, 28
    3736:	255d           	ae_l16si.n	a5, a5, 0
    3738:	414af0        	srli	a4, a15, 10
    373b:	373a           	add.n	a3, a7, a3
    373d:	233d           	ae_l16si.n	a3, a3, 0
    373f:	825450        	mull	a5, a4, a5
    3742:	f77c           	movi.n	a7, -1
    3744:	82f430        	mull	a15, a4, a3
    3747:	95ca           	add.n	a9, a5, a12
    3749:	414870        	srli	a4, a7, 8
    374c:	10c940        	and	a12, a9, a4
    374f:	753890        	extui	a3, a9, 24, 8
    3752:	190c           	movi.n	a9, 1
    3754:	065d           	mov.n	a5, a6
    3756:	93e930        	movnez	a14, a9, a3
    3759:	0f1fb6        	bltui	a15, 0x10000, 376c <LC3Plus_processAriEncoder_fx+0xdc>
    375c:	822d           	ae_sext16	a2, a2
    375e:	6612e6        	bgei	a2, 1, 37c8 <LC3Plus_processAriEncoder_fx+0x138>
    3761:	ffeac6        	j	3710 <LC3Plus_processAriEncoder_fx+0x80>

00003764 <LC3Plus_processAriEncoder_fx+0xd4>:
    3764:	dd1b           	addi.n	a13, a13, 1
    3766:	11c380        	slli	a12, a3, 8
    3769:	51f6f6        	bgeui	a6, 0x100, 37be <LC3Plus_processAriEncoder_fx+0x12e>
    376c:	0f6d           	mov.n	a6, a15
    376e:	0a1e26        	beqi	a14, 1, 377c <LC3Plus_processAriEncoder_fx+0xec>
    3771:	f2b121        	l32r	a2, 238 (feffff <_end+0xfc1027>)
    3774:	9c3d           	ae_zext16	a3, a12
    3776:	11f680        	slli	a15, a6, 8
    3779:	e732c7        	bltu	a2, a12, 3764 <LC3Plus_processAriEncoder_fx+0xd4>
    377c:	852d           	ae_sext16	a2, a5
    377e:	00c296        	bltz	a2, 378e <LC3Plus_processAriEncoder_fx+0xfe>
    3781:	8a4d           	ae_sext16	a4, a10
    3783:	3a1b           	addi.n	a3, a10, 1
    3785:	25ea           	add.n	a2, a5, a14
    3787:	484a           	add.n	a4, a8, a4
    3789:	03ad           	mov.n	a10, a3
    378b:	004422        	s8i	a2, a4, 0
    378e:	8d2d           	ae_sext16	a2, a13
    3790:	1912a6        	blti	a2, 1, 37ad <LC3Plus_processAriEncoder_fx+0x11d>
    3793:	9d5d           	ae_zext16	a5, a13
    3795:	3e0b           	addi.n	a3, a14, -1
    3797:	082d           	mov.n	a2, a8
    3799:	0a4d           	mov.n	a4, a10
    379b:	088576        	loop	a5, 37a7 <LC3Plus_processAriEncoder_fx+0x117>
    379e:	845d           	ae_sext16	a5, a4
    37a0:	525a           	add.n	a5, a2, a5
    37a2:	441b           	addi.n	a4, a4, 1
    37a4:	004532        	s8i	a3, a5, 0

000037a7 <LC3Plus_processAriEncoder_fx+0x117>:
    37a7:	04ad           	mov.n	a10, a4
    37a9:	028d           	mov.n	a8, a2
    37ab:	0d0c           	movi.n	a13, 0

000037ad <LC3Plus_processAriEncoder_fx+0x11d>:
    37ad:	f550c0        	extui	a5, a12, 16, 16
    37b0:	00a0e2        	movi	a14, 0
    37b3:	9c2d           	ae_zext16	a2, a12
    37b5:	11f680        	slli	a15, a6, 8
    37b8:	11c280        	slli	a12, a2, 8
    37bb:	adf6b6        	bltui	a6, 0x100, 376c <LC3Plus_processAriEncoder_fx+0xdc>
    37be:	4b2d           	ae_l16ui.n	a2, a11, 0
    37c0:	822d           	ae_sext16	a2, a2
    37c2:	0212e6        	bgei	a2, 1, 37c8 <LC3Plus_processAriEncoder_fx+0x138>
    37c5:	ffd1c6        	j	3710 <LC3Plus_processAriEncoder_fx+0x80>
    37c8:	1168           	l32i.n	a6, a1, 4
    37ca:	f29c91        	l32r	a9, 23c (28b00 <LC3Plus_ac_tns_coef_freq>)
    37cd:	f29c71        	l32r	a7, 240 (28c10 <LC3Plus_ac_tns_coef_cumfreq>)
    37d0:	020c           	movi.n	a2, 0
    37d2:	3129           	s32i.n	a2, a1, 12
    37d4:	21b9           	s32i.n	a11, a1, 8
    37d6:	0005c6        	j	37f1 <LC3Plus_processAriEncoder_fx+0x161>

000037d9 <LC3Plus_processAriEncoder_fx+0x149>:
    37d9:	21b8           	l32i.n	a11, a1, 8
    37db:	3138           	l32i.n	a3, a1, 12
    37dd:	22c772        	addi	a7, a7, 34
    37e0:	2b2d           	ae_l16si.n	a2, a11, 0
    37e2:	331b           	addi.n	a3, a3, 1
    37e4:	22c992        	addi	a9, a9, 34
    37e7:	662b           	addi.n	a6, a6, 2
    37e9:	3139           	s32i.n	a3, a1, 12
    37eb:	022327        	blt	a3, a2, 37f1 <LC3Plus_processAriEncoder_fx+0x161>
    37ee:	ffc786        	j	3710 <LC3Plus_processAriEncoder_fx+0x80>
    37f1:	262d           	ae_l16si.n	a2, a6, 0
    37f3:	413af0        	srli	a3, a15, 10
    37f6:	904270        	addx2	a4, a2, a7
    37f9:	244d           	ae_l16si.n	a4, a4, 0
    37fb:	902290        	addx2	a2, a2, a9
    37fe:	222d           	ae_l16si.n	a2, a2, 0
    3800:	824340        	mull	a4, a3, a4
    3803:	b4ca           	add.n	a11, a4, a12
    3805:	f47c           	movi.n	a4, -1
    3807:	82f320        	mull	a15, a3, a2
    380a:	413840        	srli	a3, a4, 8
    380d:	10cb30        	and	a12, a11, a3
    3810:	7528b0        	extui	a2, a11, 24, 8
    3813:	1b0c           	movi.n	a11, 1
    3815:	93eb20        	movnez	a14, a11, a2
    3818:	0a1fb6        	bltui	a15, 0x10000, 3826 <LC3Plus_processAriEncoder_fx+0x196>
    381b:	ffee86        	j	37d9 <LC3Plus_processAriEncoder_fx+0x149>

0000381e <LC3Plus_processAriEncoder_fx+0x18e>:
    381e:	dd1b           	addi.n	a13, a13, 1
    3820:	11c380        	slli	a12, a3, 8
    3823:	b2fbf6        	bgeui	a11, 0x100, 37d9 <LC3Plus_processAriEncoder_fx+0x149>
    3826:	0fbd           	mov.n	a11, a15
    3828:	0a1e26        	beqi	a14, 1, 3836 <LC3Plus_processAriEncoder_fx+0x1a6>
    382b:	f28321        	l32r	a2, 238 (feffff <_end+0xfc1027>)
    382e:	9c3d           	ae_zext16	a3, a12
    3830:	11fb80        	slli	a15, a11, 8
    3833:	e732c7        	bltu	a2, a12, 381e <LC3Plus_processAriEncoder_fx+0x18e>
    3836:	852d           	ae_sext16	a2, a5
    3838:	00c296        	bltz	a2, 3848 <LC3Plus_processAriEncoder_fx+0x1b8>
    383b:	8a4d           	ae_sext16	a4, a10
    383d:	3a1b           	addi.n	a3, a10, 1
    383f:	25ea           	add.n	a2, a5, a14
    3841:	484a           	add.n	a4, a8, a4
    3843:	03ad           	mov.n	a10, a3
    3845:	004422        	s8i	a2, a4, 0
    3848:	8d2d           	ae_sext16	a2, a13
    384a:	1a12a6        	blti	a2, 1, 3868 <LC3Plus_processAriEncoder_fx+0x1d8>
    384d:	9d5d           	ae_zext16	a5, a13
    384f:	3e0b           	addi.n	a3, a14, -1
    3851:	082d           	mov.n	a2, a8
    3853:	0a4d           	mov.n	a4, a10
    3855:	088576        	loop	a5, 3861 <LC3Plus_processAriEncoder_fx+0x1d1>
    3858:	845d           	ae_sext16	a5, a4
    385a:	525a           	add.n	a5, a2, a5
    385c:	441b           	addi.n	a4, a4, 1
    385e:	004532        	s8i	a3, a5, 0

00003861 <LC3Plus_processAriEncoder_fx+0x1d1>:
    3861:	04ad           	mov.n	a10, a4
    3863:	028d           	mov.n	a8, a2
    3865:	00a0d2        	movi	a13, 0

00003868 <LC3Plus_processAriEncoder_fx+0x1d8>:
    3868:	f550c0        	extui	a5, a12, 16, 16
    386b:	0e0c           	movi.n	a14, 0
    386d:	9c2d           	ae_zext16	a2, a12
    386f:	11fb80        	slli	a15, a11, 8
    3872:	11c280        	slli	a12, a2, 8
    3875:	adfbb6        	bltui	a11, 0x100, 3826 <LC3Plus_processAriEncoder_fx+0x196>
    3878:	ffd746        	j	37d9 <LC3Plus_processAriEncoder_fx+0x149>

0000387b <LC3Plus_processAriEncoder_fx+0x1eb>:
    387b:	ff7c           	movi.n	a15, -1
    387d:	f57c           	movi.n	a5, -1
    387f:	0d0c           	movi.n	a13, 0
    3881:	41f8f0        	srli	a15, a15, 8
    3884:	f45050        	extui	a5, a5, 0, 16
    3887:	0e0c           	movi.n	a14, 0
    3889:	0c0c           	movi.n	a12, 0
    388b:	0a0c           	movi.n	a10, 0
    388d:	d128           	l32i.n	a2, a1, 52
    388f:	c128           	l32i.n	a2, a1, 48
    3891:	e1b8           	l32i.n	a11, a1, 56
    3893:	1c2192        	l32i	a9, a1, 112
    3896:	222d           	ae_l16si.n	a2, a2, 0
    3898:	f26b31        	l32r	a3, 244 (2efd4 <g_p_enc_stream>)
    389b:	a139           	s32i.n	a3, a1, 40
    389d:	25fb16        	beqz	a11, 3b00 <LC3Plus_processAriEncoder_fx+0x470>
    38a0:	6138           	l32i.n	a3, a1, 24
    38a2:	5139           	s32i.n	a3, a1, 20
    38a4:	8138           	l32i.n	a3, a1, 32
    38a6:	08bd           	mov.n	a11, a8
    38a8:	0222e6        	bgei	a2, 2, 38ae <LC3Plus_processAriEncoder_fx+0x21e>
    38ab:	0090c6        	j	3af2 <LC3Plus_processAriEncoder_fx+0x462>
    38ae:	f26261        	l32r	a6, 238 (feffff <_end+0xfc1027>)
    38b1:	6128           	l32i.n	a2, a1, 24
    38b3:	040c           	movi.n	a4, 0
    38b5:	5129           	s32i.n	a2, a1, 20
    38b7:	000586        	j	38d1 <LC3Plus_processAriEncoder_fx+0x241>

000038ba <LC3Plus_processAriEncoder_fx+0x22a>:
    38ba:	c128           	l32i.n	a2, a1, 48
    38bc:	9148           	l32i.n	a4, a1, 36
    38be:	8138           	l32i.n	a3, a1, 32
    38c0:	222d           	ae_l16si.n	a2, a2, 0
    38c2:	441b           	addi.n	a4, a4, 1
    38c4:	996b           	addi.n	a9, a9, 6
    38c6:	212120        	srai	a2, a2, 1
    38c9:	338b           	addi.n	a3, a3, 8
    38cb:	022427        	blt	a4, a2, 38d1 <LC3Plus_processAriEncoder_fx+0x241>
    38ce:	008806        	j	3af2 <LC3Plus_processAriEncoder_fx+0x462>
    38d1:	0388           	l32i.n	a8, a3, 0
    38d3:	1378           	l32i.n	a7, a3, 4
    38d5:	8139           	s32i.n	a3, a1, 32
    38d7:	293d           	ae_l16si.n	a3, a9, 0
    38d9:	3199           	s32i.n	a9, a1, 12
    38db:	392d           	ae_l16si.n	a2, a9, 2
    38dd:	f25a91        	l32r	a9, 248 (28d30 <LC3Plus_ari_spec_lookup>)
    38e0:	9149           	s32i.n	a4, a1, 36
    38e2:	604180        	abs	a4, a8
    38e5:	7189           	s32i.n	a8, a1, 28
    38e7:	608170        	abs	a8, a7
    38ea:	993a           	add.n	a9, a9, a3
