
Build/codec_lib/pisplit_lc3_codec_position_independent.splitload.lib:     file format elf32-xtensa-le


Disassembly of section .text:

00000000 <_init-0x550>:
       0:	0000059c 0000ddb8 0000fe7c 00000000     ........|.......
      10:	0000fe44 00000000 0000fe64 0001b414     D.......d.......
      20:	0000feb8 00000630 0000fed2 0000063c     ....0.......<...
      30:	0000fee5 00000714 000006f4 0000fef8     ................
      40:	00000750 0000ff12 00000768 0000ff2a     P.......h...*...
      50:	00000778 0000ff3d 0000085c 0000ff50     x...=...\...P...
      60:	00000628 0000fe90 22122601 00000cc0     (........&."....
      70:	0000093c 00000900 00000a6c 00000a34     <.......l...4...
      80:	00000a54 0000098c 000009b4 00000964     T...........d...
      90:	0000cf48 00000b14 00000a9c 00000b74     H...........t...
      a0:	00000b30 00000bec 00000c28 00000c18     0.......(.......
      b0:	00000ba4 00000ca4 00000c40 00010602     ........@.......
      c0:	0000ac44 0000089c 0000cda0 0000cd18     D...............
      d0:	88888889 0000ce4c 00000ab8 0000be9c     ....L...........
      e0:	00008698 00008590 51eb851f 000087b4     ...........Q....
      f0:	00000c5c 00007640 0000ff70 3dffffff     \...@v..p......=
     100:	00010090 0016302f 0000ff90 00010010     ..../0..........
     110:	00010110 00010190 000101d0 00010250     ............P...
     120:	0000de38 00010290 00010350 00000fc0     8.......P.......
     130:	80000001 00013a20 00013c30 00013c70     .... :..0<..p<..
     140:	00013c90 00013d90 00010390 00010cd0     .<...=..........
     150:	00010fe0 00010a40 00011290 000119c0     ....@...........
     160:	00010d50 00010df0 00011120 00011470     P....... ...p...
     170:	000116f0 00010760 0000167c 00003588     ....`...|....5..
     180:	00018980 00018960 000024cc 00018ab0     ....`....$......
     190:	00018bc0 0001b42c 00015f50 00016f50     ....,...P_..Po..
     1a0:	000177d0 0001b428 0001adb0 0001b424     .w..(.......$...
     1b0:	0001b420 0001ad90 0001ac50 0001ad40      .......P...@...
     1c0:	0001ad50 0fff0000 0001a650 00003148     P.......P...H1..
     1d0:	0001a850 0001a620 0000def4 0000c7ac     P... ...........
     1e0:	00000cdc 000034ec 0001a5f0 0001a600     .....4..........
     1f0:	0000e36c 000034c0 000032b0 00003470     l....4...2..p4..
     200:	0001ab00 0001ab50 0000dee4 000031a8     ....P........1..
     210:	0000ddec 000031fc 0001ab80 00000ec8     .....1..........
     220:	000067e0 00012b40 000036cc 00011f00     .g..@+...6......
     230:	00006aec 00013370 00012610 000055c4     .j..p3...&...U..
     240:	00005cd4 00004778 00005054 00004240     .\..xG..TP..@B..
     250:	00004440 00003927 006ed9eb 478dde64     @D..'9....n.d..G
     260:	b0000001 79bc3854 9d839db0 00009d83     ....T8.y........
     270:	d18053ce 000056b0 00004dbc 5a82799a     .S...V...M...y.Z
     280:	a57d8666 0000a57d 00011e20 003cbe80     f.}.}... .....<.
     290:	00000da0 000010d8 00001720 00001084     ........ .......
     2a0:	00007608 0001a608 0001a630 00010001     .v......0.......
     2b0:	00008870 0000ddd8 00007378 00002574     p.......xs..t%..
     2c0:	00002c08 00003054 0000e84c 00008438     .,..T0..L...8...
     2d0:	000070a0 00008940 00001ba8 0000e7c8     .p..@...........
     2e0:	0000e788 00008c14 00007100 00008d38     .........q..8...
     2f0:	00007da8 0001a5a0 0001a590 00000fac     .}..............
     300:	0000131c 0001a5b0 0000828c 0001a580     ................
     310:	0001a560 0001aec0 0001b0a0 0001a570     `...........p...
     320:	0001aeb0 0001a380 00015d00 cccccccd     .........]......
     330:	000008e8 68db8bad 00015bf0 00013e10     .......h.[...>..
     340:	00015d70 00015d50 00015d60 00019860     p]..P]..`]..`...
     350:	00019820 00015d30 00015d10 00015d20      ...0]...].. ]..
     360:	000197e0 0000103c 000188f0 0000e8d8     ....<...........
     370:	0000d7d8 0000d920 00010ccd 00008b88     .... ...........
     380:	00008af8 00008da4 0000d818 0000e944     ............D...
     390:	0001ac10 00015c70 00015ce0 00015c80     ....p\...\...\..
     3a0:	00015cf0 00015c20 00015c90 00015c10     .\.. \...\...\..
     3b0:	00001434 00010310 00015c00 000014a0     4........\......
     3c0:	00015c18 0009cccd 00000cf8 436e439a     .\...........CnC
     3d0:	f0523471 0003c7ae fffe0a3c 0009cccc     q4R.....<.......
     3e0:	3fff0000 1fff8000 0001a300 00001570     ...?........p...
     3f0:	00015bd8 00015be0 0000112c 000011c8     .[...[..,.......
     400:	fff80020 0001a230 00019800 00019840      ...0.......@...
     410:	00019810 00019850 00019210 00000f40     ....P.......@...
     420:	0001b280 00018050 0000adc9 0000af4f     ....P.......O...
     430:	0000b127 0001a1f0 0001a1d0 0001a218     '...............
     440:	0001a220 3ffffff0 7ffffffe 000191d0      ......?........
     450:	000191f0 000015d8 e56d0000 00015e50     ..........m.P^..
     460:	00015e30 00015f30 00015f10 00001254     0^..0_..._..T...
     470:	7fff0000 000188d0 00009600 00018920     ............ ...
     480:	13333333 6ccccccd 0000987c 00018940     333....l|...@...
     490:	000189a0 0000b3b8 00009f08 0000b148     ............H...
     4a0:	0000a360 00009998 00008ee8 0000a828     `...........(...
     4b0:	0000a0d8 000091b0 0000b5e8 00002cc8     .............,..
     4c0:	0000b960 000092e0 0000ab08 00008de0     `...............
     4d0:	0000e968 0000a1d0 0000c4d0 00001cc8     h...............
     4e0:	0001b2a0 0001a610 0000cc5c 0000c6f8     ........\.......
     4f0:	00030008 0011000f 00012666 0003002c     ........f&..,...
     500:	00030040 000682ab 7599999a 78780000     @..........u..xx
     510:	0000d188 e0000001 0000d300 0000d4cc     ................
     520:	0001b400 0000d228 0000d99a 0001b2f0     ....(...........
     530:	0000d574 0000d6e4 0001b2d0 0001b2c0     t...............
     540:	0001b2b0 0000d87c 0000fe4c 00000568     ....|...L...h...

00000550 <_init>:
     550:	008136        	entry	a1, 64
     553:	feab81        	l32r	a8, 0 (59c <frame_dummy>)
     556:	f03d           	nop.n
     558:	0008e0        	callx8	a8
     55b:	feaa81        	l32r	a8, 4 (ddb8 <__do_global_ctors_aux>)
     55e:	f03d           	nop.n
     560:	0008e0        	callx8	a8
     563:	f01d           	retw.n

00000565 <_init+0x15>:
     565:	000000                                        ...

00000568 <__do_global_dtors_aux>:
     568:	004136        	entry	a1, 32
     56b:	fea721        	l32r	a2, 8 (fe7c <__do_global_dtors_aux.completed>)
     56e:	000232        	l8ui	a3, a2, 0
     571:	23ec           	bnez.n	a3, 597 <__do_global_dtors_aux+0x2f>

00000573 <__do_global_dtors_aux+0xb>:
     573:	1248           	l32i.n	a4, a2, 4
     575:	0438           	l32i.n	a3, a4, 0
     577:	444b           	addi.n	a4, a4, 4
     579:	738c           	beqz.n	a3, 584 <__do_global_dtors_aux+0x1c>
     57b:	1249           	s32i.n	a4, a2, 4
     57d:	0003e0        	callx8	a3
     580:	fffbc6        	j	573 <__do_global_dtors_aux+0xb>

00000583 <__do_global_dtors_aux+0x1b>:
	...

00000584 <__do_global_dtors_aux+0x1c>:
     584:	fea231        	l32r	a3, c (0 <_text_start>)
     587:	fea2a1        	l32r	a10, 10 (fe44 <__FRAME_END__>)
     58a:	438c           	beqz.n	a3, 592 <__do_global_dtors_aux+0x2a>
     58c:	fea081        	l32r	a8, c (0 <_text_start>)
     58f:	0008e0        	callx8	a8
     592:	130c           	movi.n	a3, 1
     594:	004232        	s8i	a3, a2, 0
     597:	f01d           	retw.n

00000599 <__do_global_dtors_aux+0x31>:
     599:	000000                                        ...

0000059c <frame_dummy>:
     59c:	004136        	entry	a1, 32
     59f:	fe9d21        	l32r	a2, 14 (0 <_text_start>)
     5a2:	fe9ba1        	l32r	a10, 10 (fe44 <__FRAME_END__>)
     5a5:	fe9cb1        	l32r	a11, 18 (fe64 <frame_dummy.object>)
     5a8:	428c           	beqz.n	a2, 5b0 <frame_dummy+0x14>
     5aa:	fe9a81        	l32r	a8, 14 (0 <_text_start>)
     5ad:	0008e0        	callx8	a8

000005b0 <frame_dummy+0x14>:
     5b0:	f01d           	retw.n

000005b2 <frame_dummy+0x16>:
	...

000005b4 <_start>:
     5b4:	004136        	entry	a1, 32
     5b7:	fe9931        	l32r	a3, 1c (1b414 <printf_ptr>)
     5ba:	0228           	l32i.n	a2, a2, 0
     5bc:	fe99a1        	l32r	a10, 20 (feb8 <export_parameter_array+0x28>)
     5bf:	fe99b1        	l32r	a11, 24 (630 <LC3_Enc_Get_MemSize>)
     5c2:	0329           	s32i.n	a2, a3, 0
     5c4:	0002e0        	callx8	a2
     5c7:	0328           	l32i.n	a2, a3, 0
     5c9:	fe97a1        	l32r	a10, 28 (fed2 <export_parameter_array+0x42>)
     5cc:	fe98b1        	l32r	a11, 2c (63c <LC3_Enc_Init>)
     5cf:	0002e0        	callx8	a2
     5d2:	fe9721        	l32r	a2, 30 (fee5 <export_parameter_array+0x55>)
     5d5:	0348           	l32i.n	a4, a3, 0
     5d7:	fe97b1        	l32r	a11, 34 (714 <LC3_Enc_Prcs>)
     5da:	02ad           	mov.n	a10, a2
     5dc:	0004e0        	callx8	a4
     5df:	0348           	l32i.n	a4, a3, 0
     5e1:	fe95b1        	l32r	a11, 38 (6f4 <LC3_Enc_Set_BitRate>)
     5e4:	02ad           	mov.n	a10, a2
     5e6:	0004e0        	callx8	a4
     5e9:	0328           	l32i.n	a2, a3, 0
     5eb:	fe94a1        	l32r	a10, 3c (fef8 <export_parameter_array+0x68>)
     5ee:	fe94b1        	l32r	a11, 40 (750 <LC3_Dec_Get_MemSize>)
     5f1:	0002e0        	callx8	a2
     5f4:	0328           	l32i.n	a2, a3, 0
     5f6:	fe93a1        	l32r	a10, 44 (ff12 <export_parameter_array+0x82>)
     5f9:	fe93b1        	l32r	a11, 48 (768 <LC3_Dec_Get_Param>)
     5fc:	0002e0        	callx8	a2
     5ff:	0328           	l32i.n	a2, a3, 0
     601:	fe92a1        	l32r	a10, 4c (ff2a <export_parameter_array+0x9a>)
     604:	fe93b1        	l32r	a11, 50 (778 <LC3_Dec_Init>)
     607:	0002e0        	callx8	a2
     60a:	0328           	l32i.n	a2, a3, 0
     60c:	fe92a1        	l32r	a10, 54 (ff3d <export_parameter_array+0xad>)
     60f:	fe92b1        	l32r	a11, 58 (85c <LC3_Dec_Prcs>)
     612:	0002e0        	callx8	a2
     615:	0328           	l32i.n	a2, a3, 0
     617:	fe91a1        	l32r	a10, 5c (ff50 <export_parameter_array+0xc0>)
     61a:	fe91b1        	l32r	a11, 60 (628 <LC3_Get_Version>)
     61d:	0002e0        	callx8	a2
     620:	fe9121        	l32r	a2, 64 (fe90 <export_parameter_array>)
     623:	f01d           	retw.n

00000625 <_start+0x71>:
     625:	000000                                        ...

00000628 <LC3_Get_Version>:
     628:	004136        	entry	a1, 32
     62b:	fe8f21        	l32r	a2, 68 (22122601 <_end+0x221071cd>)
     62e:	f01d           	retw.n

00000630 <LC3_Enc_Get_MemSize>:
     630:	004136        	entry	a1, 32
     633:	21a722        	movi	a2, 0x721
     636:	1122d0        	slli	a2, a2, 3
     639:	f01d           	retw.n

0000063b <LC3_Enc_Get_MemSize+0xb>:
	...

0000063c <LC3_Enc_Init>:
     63c:	006136        	entry	a1, 48
     63f:	21a7c2        	movi	a12, 0x721
     642:	fe8a81        	l32r	a8, 6c (cc0 <basop_memset>)
     645:	11ccd0        	slli	a12, a12, 3
     648:	0b0c           	movi.n	a11, 0
     64a:	02ad           	mov.n	a10, a2
     64c:	2199           	s32i.n	a9, a1, 8
     64e:	0008e0        	callx8	a8
     651:	2239           	s32i.n	a3, a2, 8
     653:	fe8731        	l32r	a3, 70 (93c <lc3_enc_get_size>)
     656:	04ad           	mov.n	a10, a4
     658:	05bd           	mov.n	a11, a5
     65a:	0249           	s32i.n	a4, a2, 0
     65c:	1269           	s32i.n	a6, a2, 4
     65e:	095252        	s16i	a5, a2, 18
     661:	0003e0        	callx8	a3
     664:	fe8431        	l32r	a3, 74 (900 <lc3_enc_init>)
     667:	31a9           	s32i.n	a10, a1, 12
     669:	20c2a2        	addi	a10, a2, 32
     66c:	04bd           	mov.n	a11, a4
     66e:	05cd           	mov.n	a12, a5
     670:	62a9           	s32i.n	a10, a2, 24
     672:	0003e0        	callx8	a3
     675:	076a56        	bnez	a10, 6ef <LC3_Enc_Init+0xb3>
     678:	62a8           	l32i.n	a10, a2, 24
     67a:	fe7f31        	l32r	a3, 78 (a6c <lc3_enc_set_frame_dms>)
     67d:	07bd           	mov.n	a11, a7
     67f:	0003e0        	callx8	a3
     682:	069a56        	bnez	a10, 6ef <LC3_Enc_Init+0xb3>
     685:	62a8           	l32i.n	a10, a2, 24
     687:	fe7d31        	l32r	a3, 7c (a34 <lc3_enc_set_bitrate>)
     68a:	06bd           	mov.n	a11, a6
     68c:	0003e0        	callx8	a3
     68f:	05ca56        	bnez	a10, 6ef <LC3_Enc_Init+0xb3>
     692:	2138           	l32i.n	a3, a1, 8
     694:	c138           	l32i.n	a3, a1, 48
     696:	fe7a41        	l32r	a4, 80 (a54 <lc3_enc_get_delay>)
     699:	938c           	beqz.n	a3, 6a6 <LC3_Enc_Init+0x6a>
     69b:	62a8           	l32i.n	a10, a2, 24
     69d:	0004e0        	callx8	a4
     6a0:	d23a30        	quos	a3, a10, a3
     6a3:	000046        	j	6a8 <LC3_Enc_Init+0x6c>

000006a6 <LC3_Enc_Init+0x6a>:
     6a6:	030c           	movi.n	a3, 0
     6a8:	0a5232        	s16i	a3, a2, 20
     6ab:	62a8           	l32i.n	a10, a2, 24
     6ad:	fe7531        	l32r	a3, 84 (98c <lc3_enc_get_input_samples>)
     6b0:	0003e0        	callx8	a3
     6b3:	6238           	l32i.n	a3, a2, 24
     6b5:	fe7441        	l32r	a4, 88 (9b4 <lc3_enc_get_real_bitrate>)
     6b8:	0852a2        	s16i	a10, a2, 16
     6bb:	03ad           	mov.n	a10, a3
     6bd:	0004e0        	callx8	a4
     6c0:	6238           	l32i.n	a3, a2, 24
     6c2:	fe7241        	l32r	a4, 8c (964 <lc3_enc_get_scratch_size>)
     6c5:	32a9           	s32i.n	a10, a2, 12
     6c7:	03ad           	mov.n	a10, a3
     6c9:	0004e0        	callx8	a4
     6cc:	3158           	l32i.n	a5, a1, 12
     6ce:	cda332        	movi	a3, 0x3cd
     6d1:	1133d0        	slli	a3, a3, 3
     6d4:	0a4d           	mov.n	a4, a10
     6d6:	da1c           	movi.n	a10, 29
     6d8:	132357        	blt	a3, a5, 6ef <LC3_Enc_Init+0xb3>
     6db:	533c           	movi.n	a3, 53
     6dd:	113390        	slli	a3, a3, 7
     6e0:	0b2347        	blt	a3, a4, 6ef <LC3_Enc_Init+0xb3>
     6e3:	d1a332        	movi	a3, 0x3d1
     6e6:	1133d0        	slli	a3, a3, 3
     6e9:	323a           	add.n	a3, a2, a3
     6eb:	0a0c           	movi.n	a10, 0
     6ed:	7239           	s32i.n	a3, a2, 28
     6ef:	0a2d           	mov.n	a2, a10
     6f1:	f01d           	retw.n

000006f3 <LC3_Enc_Init+0xb7>:
	...

000006f4 <LC3_Enc_Set_BitRate>:
     6f4:	004136        	entry	a1, 32
     6f7:	62a8           	l32i.n	a10, a2, 24
     6f9:	fe6521        	l32r	a2, 90 (cf48 <update_enc_bitrate>)
     6fc:	03bd           	mov.n	a11, a3
     6fe:	8a8c           	beqz.n	a10, 70a <LC3_Enc_Set_BitRate+0x16>
     700:	0a13a6        	blti	a3, 1, 70e <LC3_Enc_Set_BitRate+0x1a>
     703:	0002e0        	callx8	a2
     706:	0a2d           	mov.n	a2, a10
     708:	f01d           	retw.n

0000070a <LC3_Enc_Set_BitRate+0x16>:
     70a:	d20c           	movi.n	a2, 13
     70c:	f01d           	retw.n

0000070e <LC3_Enc_Set_BitRate+0x1a>:
     70e:	220c           	movi.n	a2, 2
     710:	f01d           	retw.n

00000712 <LC3_Enc_Set_BitRate+0x1e>:
	...

00000714 <LC3_Enc_Prcs>:
     714:	008136        	entry	a1, 64
     717:	089272        	l16si	a7, a2, 16
     71a:	22f8           	l32i.n	a15, a2, 8
     71c:	62a8           	l32i.n	a10, a2, 24
     71e:	908740        	addx2	a8, a7, a4
     721:	a0e740        	addx4	a14, a7, a4
     724:	161c           	movi.n	a6, 17
     726:	6149           	s32i.n	a4, a1, 24
     728:	4149           	s32i.n	a4, a1, 16
     72a:	7189           	s32i.n	a8, a1, 28
     72c:	51e9           	s32i.n	a14, a1, 20
     72e:	0a2f67        	blt	a15, a6, 73c <LC3_Enc_Prcs+0x28>
     731:	72e8           	l32i.n	a14, a2, 28
     733:	fe5821        	l32r	a2, 94 (b14 <lc3_enc24>)
     736:	10c1b2        	addi	a11, a1, 16
     739:	0001c6        	j	744 <LC3_Enc_Prcs+0x30>

0000073c <LC3_Enc_Prcs+0x28>:
     73c:	72e8           	l32i.n	a14, a2, 28
     73e:	fe5621        	l32r	a2, 98 (a9c <lc3_enc16>)
     741:	18c1b2        	addi	a11, a1, 24
     744:	03cd           	mov.n	a12, a3
     746:	05dd           	mov.n	a13, a5
     748:	0002e0        	callx8	a2
     74b:	0a2d           	mov.n	a2, a10
     74d:	f01d           	retw.n

0000074f <LC3_Enc_Prcs+0x3b>:
	...

00000750 <LC3_Dec_Get_MemSize>:
     750:	004136        	entry	a1, 32
     753:	cfa142        	movi	a4, 0x1cf
     756:	f7a7f2        	movi	a15, 0x7f7
     759:	023d           	mov.n	a3, a2
     75b:	1144a0        	slli	a4, a4, 6
     75e:	112fd0        	slli	a2, a15, 3
     761:	932430        	movnez	a2, a4, a3
     764:	f01d           	retw.n

00000766 <LC3_Dec_Get_MemSize+0x16>:
	...

00000768 <LC3_Dec_Get_Param>:
     768:	004136        	entry	a1, 32
     76b:	069252        	l16si	a5, a2, 12
     76e:	0892f2        	l16si	a15, a2, 16
     771:	0359           	s32i.n	a5, a3, 0
     773:	04f9           	s32i.n	a15, a4, 0
     775:	f01d           	retw.n

00000777 <LC3_Dec_Get_Param+0xf>:
	...

00000778 <LC3_Dec_Init>:
     778:	006136        	entry	a1, 48
     77b:	02ad           	mov.n	a10, a2
     77d:	620c           	movi.n	a2, 6
     77f:	2199           	s32i.n	a9, a1, 8
     781:	4826f6        	bgeui	a6, 2, 7cd <LC3_Dec_Init+0x55>
     784:	f7a722        	movi	a2, 0x7f7
     787:	cfa1c2        	movi	a12, 0x1cf
     78a:	860b           	addi.n	a8, a6, -1
     78c:	1122d0        	slli	a2, a2, 3
     78f:	11cca0        	slli	a12, a12, 6
     792:	93c280        	movnez	a12, a2, a8
     795:	fe3521        	l32r	a2, 6c (cc0 <basop_memset>)
     798:	0b0c           	movi.n	a11, 0
     79a:	3169           	s32i.n	a6, a1, 12
     79c:	1189           	s32i.n	a8, a1, 4
     79e:	0a6d           	mov.n	a6, a10
     7a0:	0002e0        	callx8	a2
     7a3:	fe3e21        	l32r	a2, 9c (b74 <lc3_dec_get_size>)
     7a6:	04ad           	mov.n	a10, a4
     7a8:	05bd           	mov.n	a11, a5
     7aa:	07cd           	mov.n	a12, a7
     7ac:	0649           	s32i.n	a4, a6, 0
     7ae:	075652        	s16i	a5, a6, 14
     7b1:	2639           	s32i.n	a3, a6, 8
     7b3:	0002e0        	callx8	a2
     7b6:	fe3a21        	l32r	a2, a0 (b30 <lc3_dec_init>)
     7b9:	0a3d           	mov.n	a3, a10
     7bb:	20c6a2        	addi	a10, a6, 32
     7be:	04bd           	mov.n	a11, a4
     7c0:	05cd           	mov.n	a12, a5
     7c2:	07dd           	mov.n	a13, a7
     7c4:	56a9           	s32i.n	a10, a6, 20
     7c6:	0002e0        	callx8	a2
     7c9:	0a2d           	mov.n	a2, a10
     7cb:	0a8c           	beqz.n	a10, 7cf <LC3_Dec_Init+0x57>

000007cd <LC3_Dec_Init+0x55>:
     7cd:	f01d           	retw.n

000007cf <LC3_Dec_Init+0x57>:
     7cf:	2128           	l32i.n	a2, a1, 8
     7d1:	c1b8           	l32i.n	a11, a1, 48
     7d3:	56a8           	l32i.n	a10, a6, 20
     7d5:	fe3321        	l32r	a2, a4 (bec <lc3_dec_set_frame_dms>)
     7d8:	0002e0        	callx8	a2
     7db:	0a2d           	mov.n	a2, a10
     7dd:	feca56        	bnez	a10, 7cd <LC3_Dec_Init+0x55>
     7e0:	2128           	l32i.n	a2, a1, 8
     7e2:	d128           	l32i.n	a2, a1, 52
     7e4:	1178           	l32i.n	a7, a1, 4
     7e6:	c84c           	movi.n	a8, 76
     7e8:	445c           	movi.n	a4, 84
     7ea:	21d882        	addmi	a8, a8, 0x2100
     7ed:	4bd442        	addmi	a4, a4, 0x4b00
     7f0:	069d           	mov.n	a9, a6
     7f2:	934870        	movnez	a4, a8, a7
     7f5:	e28c           	beqz.n	a2, 807 <LC3_Dec_Init+0x8f>
     7f7:	59a8           	l32i.n	a10, a9, 20
     7f9:	fe2b71        	l32r	a7, a8 (c28 <lc3_dec_get_delay>)
     7fc:	0007e0        	callx8	a7
     7ff:	069d           	mov.n	a9, a6
     801:	d22a20        	quos	a2, a10, a2
     804:	000046        	j	809 <LC3_Dec_Init+0x91>

00000807 <LC3_Dec_Init+0x8f>:
     807:	020c           	movi.n	a2, 0
     809:	085922        	s16i	a2, a9, 16
     80c:	59a8           	l32i.n	a10, a9, 20
     80e:	fe2721        	l32r	a2, ac (c18 <lc3_dec_get_output_samples>)
     811:	037d           	mov.n	a7, a3
     813:	0002e0        	callx8	a2
     816:	5628           	l32i.n	a2, a6, 20
     818:	fe2651        	l32r	a5, b0 (ba4 <lc3_dec_get_scratch_size>)
     81b:	0656a2        	s16i	a10, a6, 12
     81e:	02ad           	mov.n	a10, a2
     820:	0005e0        	callx8	a5
     823:	063d           	mov.n	a3, a6
     825:	3168           	l32i.n	a6, a1, 12
     827:	d21c           	movi.n	a2, 29
     829:	a02477        	blt	a4, a7, 7cd <LC3_Dec_Init+0x55>
     82c:	1178           	l32i.n	a7, a1, 4
     82e:	c9a342        	movi	a4, 0x3c9
     831:	09a552        	movi	a5, 0x509
     834:	1144d0        	slli	a4, a4, 3
     837:	1155d0        	slli	a5, a5, 3
     83a:	935470        	movnez	a5, a4, a7
     83d:	8c25a7        	blt	a5, a10, 7cd <LC3_Dec_Init+0x55>
     840:	081666        	bnei	a6, 1, 84c <LC3_Dec_Init+0xd4>
     843:	78a022        	movi	a2, 120
     846:	4bd222        	addmi	a2, a2, 0x4b00
     849:	000146        	j	852 <LC3_Dec_Init+0xda>

0000084c <LC3_Dec_Init+0xd4>:
     84c:	6ca022        	movi	a2, 108
     84f:	21d222        	addmi	a2, a2, 0x2100
     852:	232a           	add.n	a2, a3, a2
     854:	6329           	s32i.n	a2, a3, 24
     856:	020c           	movi.n	a2, 0
     858:	f01d           	retw.n

0000085a <LC3_Dec_Init+0xe2>:
	...

0000085c <LC3_Dec_Prcs>:
     85c:	004136        	entry	a1, 32
     85f:	2298           	l32i.n	a9, a2, 8
     861:	52a8           	l32i.n	a10, a2, 20
     863:	116600        	slli	a6, a6, 16
     866:	181c           	movi.n	a8, 17
     868:	20c650        	or	a12, a6, a5
     86b:	072987        	blt	a9, a8, 876 <LC3_Dec_Prcs+0x1a>
     86e:	62e8           	l32i.n	a14, a2, 24
     870:	fe1121        	l32r	a2, b4 (ca4 <lc3_dec24>)
     873:	000106        	j	87b <LC3_Dec_Prcs+0x1f>

00000876 <LC3_Dec_Prcs+0x1a>:
     876:	62e8           	l32i.n	a14, a2, 24
     878:	fe1021        	l32r	a2, b8 (c40 <lc3_dec16>)
     87b:	03bd           	mov.n	a11, a3
     87d:	04dd           	mov.n	a13, a4
     87f:	07fd           	mov.n	a15, a7
     881:	0002e0        	callx8	a2
     884:	0a2d           	mov.n	a2, a10
     886:	f01d           	retw.n

00000888 <lc3_version>:
     888:	004136        	entry	a1, 32
     88b:	fe0c21        	l32r	a2, bc (10602 <SineTable480+0x272>)
     88e:	f01d           	retw.n

00000890 <lc3_channels_supported>:
     890:	004136        	entry	a1, 32
     893:	230c           	movi.n	a3, 2
     895:	220b           	addi.n	a2, a2, -1
     897:	622230        	saltu	a2, a2, a3
     89a:	f01d           	retw.n

0000089c <lc3_samplerate_supported>:
     89c:	004136        	entry	a1, 32
     89f:	ffa042        	movi	a4, 255
     8a2:	023d           	mov.n	a3, a2
     8a4:	7cd442        	addmi	a4, a4, 0x7c00
     8a7:	120c           	movi.n	a2, 1
     8a9:	1c2437        	blt	a4, a3, 8c9 <lc3_samplerate_supported+0x2d>
     8ac:	7da042        	movi	a4, 125
     8af:	1144a0        	slli	a4, a4, 6
     8b2:	111347        	beq	a3, a4, 8c7 <lc3_samplerate_supported+0x2b>
     8b5:	7da042        	movi	a4, 125
     8b8:	114490        	slli	a4, a4, 7
     8bb:	081347        	beq	a3, a4, 8c7 <lc3_samplerate_supported+0x2b>
     8be:	77a142        	movi	a4, 0x177
     8c1:	1144a0        	slli	a4, a4, 6
     8c4:	199347        	bne	a3, a4, 8e1 <lc3_samplerate_supported+0x45>

000008c7 <lc3_samplerate_supported+0x2b>:
     8c7:	f01d           	retw.n

000008c9 <lc3_samplerate_supported+0x2d>:
     8c9:	7da042        	movi	a4, 125
     8cc:	114480        	slli	a4, a4, 8
     8cf:	f41347        	beq	a3, a4, 8c7 <lc3_samplerate_supported+0x2b>
     8d2:	fdfb41        	l32r	a4, c0 (ac44 <processQuantizeSpec_fx+0x13c>)
     8d5:	77a152        	movi	a5, 0x177
     8d8:	116590        	slli	a6, a5, 7
     8db:	e81347        	beq	a3, a4, 8c7 <lc3_samplerate_supported+0x2b>
     8de:	e51367        	beq	a3, a6, 8c7 <lc3_samplerate_supported+0x2b>
     8e1:	020c           	movi.n	a2, 0
     8e3:	f01d           	retw.n

000008e5 <lc3_samplerate_supported+0x49>:
     8e5:	000000                                        ...

000008e8 <balloc>:
     8e8:	004136        	entry	a1, 32
     8eb:	0368           	l32i.n	a6, a3, 0
     8ed:	c57c           	movi.n	a5, -4
     8ef:	663b           	addi.n	a6, a6, 3
     8f1:	464a           	add.n	a4, a6, a4
     8f3:	262a           	add.n	a2, a6, a2
     8f5:	104450        	and	a4, a4, a5
     8f8:	102250        	and	a2, a2, a5
     8fb:	0349           	s32i.n	a4, a3, 0
     8fd:	f01d           	retw.n

000008ff <balloc+0x17>:
	...

00000900 <lc3_enc_init>:
     900:	004136        	entry	a1, 32
     903:	928c           	beqz.n	a2, 910 <lc3_enc_init+0x10>
     905:	025d           	mov.n	a5, a2
     907:	360c           	movi.n	a6, 3
     909:	120c           	movi.n	a2, 1
     90b:	050657        	bnone	a6, a5, 914 <lc3_enc_init+0x14>

0000090e <lc3_enc_init+0xe>:
     90e:	f01d           	retw.n

00000910 <lc3_enc_init+0x10>:
     910:	d20c           	movi.n	a2, 13
     912:	f01d           	retw.n

00000914 <lc3_enc_init+0x14>:
     914:	fdec21        	l32r	a2, c4 (89c <lc3_samplerate_supported>)
     917:	03ad           	mov.n	a10, a3
     919:	0002e0        	callx8	a2
     91c:	5a9c           	beqz.n	a10, 935 <lc3_enc_init+0x35>
     91e:	640b           	addi.n	a6, a4, -1
     920:	520c           	movi.n	a2, 5
     922:	e826f6        	bgeui	a6, 2, 90e <lc3_enc_init+0xe>
     925:	fde821        	l32r	a2, c8 (cda0 <FillEncSetup>)
     928:	05ad           	mov.n	a10, a5
     92a:	03bd           	mov.n	a11, a3
     92c:	04cd           	mov.n	a12, a4
     92e:	0002e0        	callx8	a2
     931:	0a2d           	mov.n	a2, a10
     933:	f01d           	retw.n

00000935 <lc3_enc_init+0x35>:
     935:	321c           	movi.n	a2, 19
     937:	f01d           	retw.n

00000939 <lc3_enc_init+0x39>:
     939:	000000                                        ...

0000093c <lc3_enc_get_size>:
     93c:	004136        	entry	a1, 32
     93f:	024d           	mov.n	a4, a2
     941:	fde021        	l32r	a2, c4 (89c <lc3_samplerate_supported>)
     944:	04ad           	mov.n	a10, a4
     946:	0002e0        	callx8	a2
     949:	530b           	addi.n	a5, a3, -1
     94b:	020c           	movi.n	a2, 0
     94d:	0f25f6        	bgeui	a5, 2, 960 <lc3_enc_get_size+0x24>
     950:	ca8c           	beqz.n	a10, 960 <lc3_enc_get_size+0x24>
     952:	fdde21        	l32r	a2, cc (cd18 <alloc_encoder>)
     955:	0a0c           	movi.n	a10, 0
     957:	04bd           	mov.n	a11, a4
     959:	03cd           	mov.n	a12, a3
     95b:	0002e0        	callx8	a2
     95e:	0a2d           	mov.n	a2, a10

00000960 <lc3_enc_get_size+0x24>:
     960:	f01d           	retw.n

00000962 <lc3_enc_get_size+0x26>:
	...

00000964 <lc3_enc_get_scratch_size>:
     964:	004136        	entry	a1, 32
     967:	a29c           	beqz.n	a2, 985 <lc3_enc_get_scratch_size+0x21>
     969:	0f9232        	l16si	a3, a2, 30
     96c:	a0a042        	movi	a4, 160
     96f:	9f0c           	movi.n	a15, 9
     971:	724430        	salt	a4, a4, a3
     974:	f03330        	subx8	a3, a3, a3
     977:	1133f0        	slli	a3, a3, 1
     97a:	112f80        	slli	a2, a15, 8
     97d:	40c332        	addi	a3, a3, 64
     980:	932340        	movnez	a2, a3, a4
     983:	f01d           	retw.n

00000985 <lc3_enc_get_scratch_size+0x21>:
     985:	d20c           	movi.n	a2, 13
     987:	f01d           	retw.n

00000989 <lc3_enc_get_scratch_size+0x25>:
     989:	000000                                        ...

0000098c <lc3_enc_get_input_samples>:
     98c:	004136        	entry	a1, 32
     98f:	328c           	beqz.n	a2, 996 <lc3_enc_get_input_samples+0xa>
     991:	0f9222        	l16si	a2, a2, 30
     994:	f01d           	retw.n

00000996 <lc3_enc_get_input_samples+0xa>:
     996:	d20c           	movi.n	a2, 13
     998:	f01d           	retw.n

0000099a <lc3_enc_get_input_samples+0xe>:
	...

0000099c <lc3_enc_get_num_bytes>:
     99c:	004136        	entry	a1, 32
     99f:	b28c           	beqz.n	a2, 9ae <lc3_enc_get_num_bytes+0x12>
     9a1:	0238           	l32i.n	a3, a2, 0
     9a3:	1092f2        	l16si	a15, a2, 32
     9a6:	069332        	l16si	a3, a3, 12
     9a9:	d12f30        	mul16s	a2, a15, a3
     9ac:	f01d           	retw.n

000009ae <lc3_enc_get_num_bytes+0x12>:
     9ae:	d20c           	movi.n	a2, 13
     9b0:	f01d           	retw.n

000009b2 <lc3_enc_get_num_bytes+0x16>:
	...

000009b4 <lc3_enc_get_real_bitrate>:
     9b4:	004136        	entry	a1, 32
     9b7:	c2ac           	beqz.n	a2, 9e7 <lc3_enc_get_real_bitrate+0x33>
     9b9:	260232        	l8ui	a3, a2, 38
     9bc:	109242        	l16si	a4, a2, 32
     9bf:	83ac           	beqz.n	a3, 9eb <lc3_enc_get_real_bitrate+0x37>
     9c1:	043d           	mov.n	a3, a4
     9c3:	2814a6        	blti	a4, 1, 9ef <lc3_enc_get_real_bitrate+0x3b>
     9c6:	935d           	ae_zext16	a5, a3
     9c8:	030c           	movi.n	a3, 0
     9ca:	204220        	or	a4, a2, a2
     9cd:	088576        	loop	a5, 9d9 <lc3_enc_get_real_bitrate+0x25>
     9d0:	0458           	l32i.n	a5, a4, 0
     9d2:	444b           	addi.n	a4, a4, 4
     9d4:	069552        	l16si	a5, a5, 12
     9d7:	335a           	add.n	a3, a3, a5

000009d9 <lc3_enc_get_real_bitrate+0x25>:
     9d9:	71a242        	movi	a4, 0x271
     9dc:	114490        	slli	a4, a4, 7
     9df:	823340        	mull	a3, a3, a4
     9e2:	330b           	addi.n	a3, a3, -1
     9e4:	000246        	j	9f1 <lc3_enc_get_real_bitrate+0x3d>

000009e7 <lc3_enc_get_real_bitrate+0x33>:
     9e7:	d20c           	movi.n	a2, 13
     9e9:	f01d           	retw.n

000009eb <lc3_enc_get_real_bitrate+0x37>:
     9eb:	420c           	movi.n	a2, 4
     9ed:	f01d           	retw.n

000009ef <lc3_enc_get_real_bitrate+0x3b>:
     9ef:	f37c           	movi.n	a3, -1
     9f1:	129242        	l16si	a4, a2, 36
     9f4:	5258           	l32i.n	a5, a2, 20
     9f6:	fdb261        	l32r	a6, c0 (ac44 <processQuantizeSpec_fx+0x13c>)
     9f9:	f34a           	add.n	a15, a3, a4
     9fb:	d22f40        	quos	a2, a15, a4
     9fe:	2f9567        	bne	a5, a6, a31 <lc3_enc_get_real_bitrate+0x7d>
     a01:	fdb331        	l32r	a3, d0 (88888889 <_end+0x8886d455>)
     a04:	20aed2        	movi	a13, 0xfffffe20
     a07:	b9a1f2        	movi	a15, 0x1b9
     a0a:	b24230        	mulsh	a4, a2, a3
     a0d:	442a           	add.n	a4, a4, a2
     a0f:	055f40        	extui	a5, a4, 31, 1
     a12:	214840        	srai	a4, a4, 8
     a15:	445a           	add.n	a4, a4, a5
     a17:	8254d0        	mull	a5, a4, a13
     a1a:	8244f0        	mull	a4, a4, a15
     a1d:	e25a           	add.n	a14, a2, a5
     a1f:	822ef0        	mull	a2, a14, a15
     a22:	b23230        	mulsh	a3, a2, a3
     a25:	232a           	add.n	a2, a3, a2
     a27:	053f20        	extui	a3, a2, 31, 1
     a2a:	212820        	srai	a2, a2, 8
     a2d:	223a           	add.n	a2, a2, a3
     a2f:	224a           	add.n	a2, a2, a4
     a31:	f01d           	retw.n

00000a33 <lc3_enc_get_real_bitrate+0x7f>:
	...

00000a34 <lc3_enc_set_bitrate>:
     a34:	004136        	entry	a1, 32
     a37:	f28c           	beqz.n	a2, a4a <lc3_enc_set_bitrate+0x16>
     a39:	1113a6        	blti	a3, 1, a4e <lc3_enc_set_bitrate+0x1a>
     a3c:	fd9541        	l32r	a4, 90 (cf48 <update_enc_bitrate>)
     a3f:	02ad           	mov.n	a10, a2
     a41:	03bd           	mov.n	a11, a3
     a43:	0004e0        	callx8	a4
     a46:	0a2d           	mov.n	a2, a10
     a48:	f01d           	retw.n

00000a4a <lc3_enc_set_bitrate+0x16>:
     a4a:	d20c           	movi.n	a2, 13
     a4c:	f01d           	retw.n

00000a4e <lc3_enc_set_bitrate+0x1a>:
     a4e:	220c           	movi.n	a2, 2
     a50:	f01d           	retw.n

00000a52 <lc3_enc_set_bitrate+0x1e>:
	...

00000a54 <lc3_enc_get_delay>:
     a54:	004136        	entry	a1, 32
     a57:	c28c           	beqz.n	a2, a67 <lc3_enc_get_delay+0x13>
     a59:	169232        	l16si	a3, a2, 44
     a5c:	0f92f2        	l16si	a15, a2, 30
     a5f:	1133f0        	slli	a3, a3, 1
     a62:	c02f30        	sub	a2, a15, a3
     a65:	f01d           	retw.n

00000a67 <lc3_enc_get_delay+0x13>:
     a67:	d20c           	movi.n	a2, 13
     a69:	f01d           	retw.n

00000a6b <lc3_enc_get_delay+0x17>:
	...

00000a6c <lc3_enc_set_frame_dms>:
     a6c:	004136        	entry	a1, 32
     a6f:	629c           	beqz.n	a2, a89 <lc3_enc_set_frame_dms+0x1d>
     a71:	64a0f2        	movi	a15, 100
     a74:	02ad           	mov.n	a10, a2
     a76:	0613f7        	beq	a3, a15, a80 <lc3_enc_set_frame_dms+0x14>
     a79:	b44c           	movi.n	a4, 75
     a7b:	a20c           	movi.n	a2, 10
     a7d:	069347        	bne	a3, a4, a87 <lc3_enc_set_frame_dms+0x1b>

00000a80 <lc3_enc_set_frame_dms+0x14>:
     a80:	260a42        	l8ui	a4, a10, 38
     a83:	320c           	movi.n	a2, 3
     a85:	448c           	beqz.n	a4, a8d <lc3_enc_set_frame_dms+0x21>
     a87:	f01d           	retw.n

00000a89 <lc3_enc_set_frame_dms+0x1d>:
     a89:	d20c           	movi.n	a2, 13
     a8b:	f01d           	retw.n

00000a8d <lc3_enc_set_frame_dms+0x21>:
     a8d:	fd9121        	l32r	a2, d4 (ce4c <set_enc_frame_params>)
     a90:	125a32        	s16i	a3, a10, 36
     a93:	0002e0        	callx8	a2
     a96:	020c           	movi.n	a2, 0
     a98:	f01d           	retw.n

00000a9a <lc3_enc_set_frame_dms+0x2e>:
	...

00000a9c <lc3_enc16>:
     a9c:	004136        	entry	a1, 32
     a9f:	fd8e71        	l32r	a7, d8 (ab8 <lc3_enc>)
     aa2:	0c1c           	movi.n	a12, 16
     aa4:	02ad           	mov.n	a10, a2
     aa6:	03bd           	mov.n	a11, a3
     aa8:	04dd           	mov.n	a13, a4
     aaa:	05ed           	mov.n	a14, a5
     aac:	06fd           	mov.n	a15, a6
     aae:	0007e0        	callx8	a7
     ab1:	0a2d           	mov.n	a2, a10
     ab3:	f01d           	retw.n

00000ab5 <lc3_enc16+0x19>:
     ab5:	000000                                        ...

00000ab8 <lc3_enc>:
     ab8:	004136        	entry	a1, 32
     abb:	02ad           	mov.n	a10, a2
     abd:	d20c           	movi.n	a2, 13
     abf:	ea9c           	beqz.n	a10, ae1 <lc3_enc+0x29>
     ac1:	c39c           	beqz.n	a3, ae1 <lc3_enc+0x29>
     ac3:	a59c           	beqz.n	a5, ae1 <lc3_enc+0x29>
     ac5:	869c           	beqz.n	a6, ae1 <lc3_enc+0x29>
     ac7:	679c           	beqz.n	a7, ae1 <lc3_enc+0x29>
     ac9:	109a92        	l16si	a9, a10, 32
     acc:	891b           	addi.n	a8, a9, 1
     ace:	a09930        	addx4	a9, a9, a3
     ad1:	fcc992        	addi	a9, a9, -4

00000ad4 <lc3_enc+0x1c>:
     ad4:	880b           	addi.n	a8, a8, -1
     ad6:	0918a6        	blti	a8, 1, ae3 <lc3_enc+0x2b>
     ad9:	09b8           	l32i.n	a11, a9, 0
     adb:	fcc992        	addi	a9, a9, -4
     ade:	ff2b56        	bnez	a11, ad4 <lc3_enc+0x1c>
     ae1:	f01d           	retw.n

00000ae3 <lc3_enc+0x2b>:
     ae3:	820c           	movi.n	a2, 8
     ae5:	209420        	or	a9, a4, a2
     ae8:	881c           	movi.n	a8, 24
     aea:	920c           	movi.n	a2, 9
     aec:	f19987        	bne	a9, a8, ae1 <lc3_enc+0x29>
     aef:	260a22        	l8ui	a2, a10, 38
     af2:	03bd           	mov.n	a11, a3
     af4:	04cd           	mov.n	a12, a4
     af6:	529c           	beqz.n	a2, b0f <lc3_enc+0x57>
     af8:	0628           	l32i.n	a2, a6, 0
     afa:	05dd           	mov.n	a13, a5
     afc:	07ed           	mov.n	a14, a7
     afe:	821b           	addi.n	a8, a2, 1
     b00:	62f820        	saltu	a15, a8, a2
     b03:	fd7621        	l32r	a2, dc (be9c <Enc_LC3>)
     b06:	0002e0        	callx8	a2
     b09:	020c           	movi.n	a2, 0
     b0b:	06a9           	s32i.n	a10, a6, 0
     b0d:	f01d           	retw.n

00000b0f <lc3_enc+0x57>:
     b0f:	420c           	movi.n	a2, 4
     b11:	f01d           	retw.n

00000b13 <lc3_enc+0x5b>:
	...

00000b14 <lc3_enc24>:
     b14:	004136        	entry	a1, 32
     b17:	fd7071        	l32r	a7, d8 (ab8 <lc3_enc>)
     b1a:	8c1c           	movi.n	a12, 24
     b1c:	02ad           	mov.n	a10, a2
     b1e:	03bd           	mov.n	a11, a3
     b20:	04dd           	mov.n	a13, a4
     b22:	05ed           	mov.n	a14, a5
     b24:	06fd           	mov.n	a15, a6
     b26:	0007e0        	callx8	a7
     b29:	0a2d           	mov.n	a2, a10
     b2b:	f01d           	retw.n

00000b2d <lc3_enc24+0x19>:
     b2d:	000000                                        ...

00000b30 <lc3_dec_init>:
     b30:	004136        	entry	a1, 32
     b33:	429c           	beqz.n	a2, b4b <lc3_dec_init+0x1b>
     b35:	026d           	mov.n	a6, a2
     b37:	fd6321        	l32r	a2, c4 (89c <lc3_samplerate_supported>)
     b3a:	03ad           	mov.n	a10, a3
     b3c:	0002e0        	callx8	a2
     b3f:	ca8c           	beqz.n	a10, b4f <lc3_dec_init+0x1f>
     b41:	240b           	addi.n	a2, a4, -1
     b43:	0d22b6        	bltui	a2, 2, b54 <lc3_dec_init+0x24>
     b46:	520c           	movi.n	a2, 5
     b48:	000906        	j	b70 <lc3_dec_init+0x40>

00000b4b <lc3_dec_init+0x1b>:
     b4b:	d20c           	movi.n	a2, 13
     b4d:	f01d           	retw.n

00000b4f <lc3_dec_init+0x1f>:
     b4f:	321c           	movi.n	a2, 19
     b51:	0006c6        	j	b70 <lc3_dec_init+0x40>

00000b54 <lc3_dec_init+0x24>:
     b54:	220c           	movi.n	a2, 2
     b56:	202520        	or	a2, a5, a2
     b59:	112266        	bnei	a2, 2, b6e <lc3_dec_init+0x3e>
     b5c:	fd6121        	l32r	a2, e0 (8698 <FillDecSetup>)
     b5f:	06ad           	mov.n	a10, a6
     b61:	03bd           	mov.n	a11, a3
     b63:	04cd           	mov.n	a12, a4
     b65:	05dd           	mov.n	a13, a5
     b67:	0002e0        	callx8	a2
     b6a:	0a2d           	mov.n	a2, a10
     b6c:	f01d           	retw.n

00000b6e <lc3_dec_init+0x3e>:
     b6e:	021c           	movi.n	a2, 16
     b70:	e629           	s32i.n	a2, a6, 56
     b72:	f01d           	retw.n

00000b74 <lc3_dec_get_size>:
     b74:	004136        	entry	a1, 32
     b77:	025d           	mov.n	a5, a2
     b79:	fd5221        	l32r	a2, c4 (89c <lc3_samplerate_supported>)
     b7c:	05ad           	mov.n	a10, a5
     b7e:	0002e0        	callx8	a2
     b81:	630b           	addi.n	a6, a3, -1
     b83:	020c           	movi.n	a2, 0
     b85:	1926f6        	bgeui	a6, 2, ba2 <lc3_dec_get_size+0x2e>
     b88:	6a9c           	beqz.n	a10, ba2 <lc3_dec_get_size+0x2e>
     b8a:	260c           	movi.n	a6, 2
     b8c:	206460        	or	a6, a4, a6
     b8f:	0f2666        	bnei	a6, 2, ba2 <lc3_dec_get_size+0x2e>
     b92:	fd5421        	l32r	a2, e4 (8590 <alloc_decoder>)
     b95:	0a0c           	movi.n	a10, 0
     b97:	05bd           	mov.n	a11, a5
     b99:	03cd           	mov.n	a12, a3
     b9b:	04dd           	mov.n	a13, a4
     b9d:	0002e0        	callx8	a2
     ba0:	0a2d           	mov.n	a2, a10

00000ba2 <lc3_dec_get_size+0x2e>:
     ba2:	f01d           	retw.n

00000ba4 <lc3_dec_get_scratch_size>:
     ba4:	004136        	entry	a1, 32
     ba7:	729c           	beqz.n	a2, bc2 <lc3_dec_get_scratch_size+0x1e>
     ba9:	023d           	mov.n	a3, a2
     bab:	4228           	l32i.n	a2, a2, 16
     bad:	fd4441        	l32r	a4, c0 (ac44 <processQuantizeSpec_fx+0x13c>)
     bb0:	fd4e51        	l32r	a5, e8 (51eb851f <_end+0x51e9d0eb>)
     bb3:	f0a2f2        	movi	a15, 0x2f0
     bb6:	0c9247        	bne	a2, a4, bc6 <lc3_dec_get_scratch_size+0x22>
     bb9:	97a122        	movi	a2, 0x197
     bbc:	1122c0        	slli	a2, a2, 4
     bbf:	000506        	j	bd7 <lc3_dec_get_scratch_size+0x33>

00000bc2 <lc3_dec_get_scratch_size+0x1e>:
     bc2:	020c           	movi.n	a2, 0
     bc4:	f01d           	retw.n

00000bc6 <lc3_dec_get_scratch_size+0x22>:
     bc6:	b22250        	mulsh	a2, a2, a5
     bc9:	054f20        	extui	a4, a2, 31, 1
     bcc:	212520        	srai	a2, a2, 5
     bcf:	224a           	add.n	a2, a2, a4
     bd1:	902220        	addx2	a2, a2, a2
     bd4:	a022f0        	addx4	a2, a2, a15
     bd7:	0f1342        	l16ui	a4, a3, 30
     bda:	0d9332        	l16si	a3, a3, 26
     bdd:	56a7f2        	movi	a15, 0x756
     be0:	348c           	beqz.n	a4, be7 <lc3_dec_get_scratch_size+0x43>
     be2:	a02320        	addx4	a2, a3, a2
     be5:	22fa           	add.n	a2, a2, a15
     be7:	f01d           	retw.n

00000be9 <lc3_dec_get_scratch_size+0x45>:
     be9:	000000                                        ...

00000bec <lc3_dec_set_frame_dms>:
     bec:	004136        	entry	a1, 32
     bef:	829c           	beqz.n	a2, c0b <lc3_dec_set_frame_dms+0x1f>
     bf1:	bf4c           	movi.n	a15, 75
     bf3:	02ad           	mov.n	a10, a2
     bf5:	0513f7        	beq	a3, a15, bfe <lc3_dec_set_frame_dms+0x12>
     bf8:	64a022        	movi	a2, 100
     bfb:	109327        	bne	a3, a2, c0f <lc3_dec_set_frame_dms+0x23>

00000bfe <lc3_dec_set_frame_dms+0x12>:
     bfe:	fd3b21        	l32r	a2, ec (87b4 <set_dec_frame_params>)
     c01:	105a32        	s16i	a3, a10, 32
     c04:	0002e0        	callx8	a2
     c07:	020c           	movi.n	a2, 0
     c09:	f01d           	retw.n

00000c0b <lc3_dec_set_frame_dms+0x1f>:
     c0b:	d20c           	movi.n	a2, 13
     c0d:	f01d           	retw.n

00000c0f <lc3_dec_set_frame_dms+0x23>:
     c0f:	a20c           	movi.n	a2, 10
     c11:	ea29           	s32i.n	a2, a10, 56
     c13:	f01d           	retw.n

00000c15 <lc3_dec_set_frame_dms+0x29>:
     c15:	000000                                        ...

00000c18 <lc3_dec_get_output_samples>:
     c18:	004136        	entry	a1, 32
     c1b:	328c           	beqz.n	a2, c22 <lc3_dec_get_output_samples+0xa>
     c1d:	0d9222        	l16si	a2, a2, 26
     c20:	f01d           	retw.n

00000c22 <lc3_dec_get_output_samples+0xa>:
     c22:	020c           	movi.n	a2, 0
     c24:	f01d           	retw.n

00000c26 <lc3_dec_get_output_samples+0xe>:
	...

00000c28 <lc3_dec_get_delay>:
     c28:	004136        	entry	a1, 32
     c2b:	c28c           	beqz.n	a2, c3b <lc3_dec_get_delay+0x13>
     c2d:	169232        	l16si	a3, a2, 44
     c30:	0d92f2        	l16si	a15, a2, 26
     c33:	1133f0        	slli	a3, a3, 1
     c36:	c02f30        	sub	a2, a15, a3
     c39:	f01d           	retw.n

00000c3b <lc3_dec_get_delay+0x13>:
     c3b:	020c           	movi.n	a2, 0
     c3d:	f01d           	retw.n

00000c3f <lc3_dec_get_delay+0x17>:
	...

00000c40 <lc3_dec16>:
     c40:	006136        	entry	a1, 48
     c43:	fd2b81        	l32r	a8, f0 (c5c <lc3_dec>)
     c46:	0e1c           	movi.n	a14, 16
     c48:	02ad           	mov.n	a10, a2
     c4a:	03bd           	mov.n	a11, a3
     c4c:	04cd           	mov.n	a12, a4
     c4e:	05dd           	mov.n	a13, a5
     c50:	06fd           	mov.n	a15, a6
     c52:	0179           	s32i.n	a7, a1, 0
     c54:	0008e0        	callx8	a8
     c57:	0a2d           	mov.n	a2, a10
     c59:	f01d           	retw.n

00000c5b <lc3_dec16+0x1b>:
	...

00000c5c <lc3_dec>:
     c5c:	006136        	entry	a1, 48
     c5f:	180c           	movi.n	a8, 1
     c61:	0f0c           	movi.n	a15, 0
     c63:	628380        	saltu	a8, a3, a8
     c66:	62bf40        	saltu	a11, a15, a4
     c69:	02ad           	mov.n	a10, a2
     c6b:	1088b0        	and	a8, a8, a11
     c6e:	e2f9           	s32i.n	a15, a2, 56
     c70:	48ec           	bnez.n	a8, c98 <lc3_dec+0x3c>
     c72:	25ac           	beqz.n	a5, c98 <lc3_dec+0x3c>
     c74:	07ac           	beqz.n	a7, c98 <lc3_dec+0x3c>
     c76:	820c           	movi.n	a2, 8
     c78:	881c           	movi.n	a8, 24
     c7a:	202620        	or	a2, a6, a2
     c7d:	1c9287        	bne	a2, a8, c9d <lc3_dec+0x41>
     c80:	fd1d81        	l32r	a8, f4 (7640 <Dec_LC3>)
     c83:	c128           	l32i.n	a2, a1, 48
     c85:	03bd           	mov.n	a11, a3
     c87:	04cd           	mov.n	a12, a4
     c89:	05dd           	mov.n	a13, a5
     c8b:	06ed           	mov.n	a14, a6
     c8d:	07fd           	mov.n	a15, a7
     c8f:	0129           	s32i.n	a2, a1, 0
     c91:	0008e0        	callx8	a8
     c94:	0a2d           	mov.n	a2, a10
     c96:	f01d           	retw.n

00000c98 <lc3_dec+0x3c>:
     c98:	d20c           	movi.n	a2, 13
     c9a:	000046        	j	c9f <lc3_dec+0x43>

00000c9d <lc3_dec+0x41>:
     c9d:	920c           	movi.n	a2, 9
     c9f:	ea29           	s32i.n	a2, a10, 56
     ca1:	f01d           	retw.n

00000ca3 <lc3_dec+0x47>:
	...

00000ca4 <lc3_dec24>:
     ca4:	006136        	entry	a1, 48
     ca7:	fd1281        	l32r	a8, f0 (c5c <lc3_dec>)
     caa:	8e1c           	movi.n	a14, 24
     cac:	02ad           	mov.n	a10, a2
     cae:	03bd           	mov.n	a11, a3
     cb0:	04cd           	mov.n	a12, a4
     cb2:	05dd           	mov.n	a13, a5
     cb4:	06fd           	mov.n	a15, a6
     cb6:	0179           	s32i.n	a7, a1, 0
     cb8:	0008e0        	callx8	a8
     cbb:	0a2d           	mov.n	a2, a10
     cbd:	f01d           	retw.n

00000cbf <lc3_dec24+0x1b>:
	...

00000cc0 <basop_memset>:
     cc0:	004136        	entry	a1, 32
     cc3:	415140        	srli	a5, a4, 1
     cc6:	fec222        	addi	a2, a2, -2
     cc9:	758c           	beqz.n	a5, cd4 <basop_memset+0x14>
     ccb:	300334        	ae_cvtp24a16x2.ll	aep0, a3, a3
     cce:	028576        	loop	a5, cd4 <basop_memset+0x14>
     cd1:	428214        	ae_sp16f.l.iu	aep0, a2, 2

00000cd4 <basop_memset+0x14>:
     cd4:	026407        	bbci	a4, 0, cda <basop_memset+0x1a>
     cd7:	024232        	s8i	a3, a2, 2

00000cda <basop_memset+0x1a>:
     cda:	f01d           	retw.n

00000cdc <basop_memmove>:
     cdc:	004136        	entry	a1, 32
     cdf:	414140        	srli	a4, a4, 1
     ce2:	d48c           	beqz.n	a4, cf3 <basop_memmove+0x17>
     ce4:	408304        	ae_lp16f.iu	aep0, a3, 0
     ce7:	fec222        	addi	a2, a2, -2
     cea:	058476        	loop	a4, cf3 <basop_memmove+0x17>
     ced:	428214        	ae_sp16f.l.iu	aep0, a2, 2
     cf0:	408314        	ae_lp16f.iu	aep0, a3, 2

00000cf3 <basop_memmove+0x17>:
     cf3:	f01d           	retw.n

00000cf5 <basop_memmove+0x19>:
     cf5:	000000                                        ...

00000cf8 <BASOP_Util_Log2>:
     cf8:	004136        	entry	a1, 32
     cfb:	09a216        	beqz	a2, d99 <BASOP_Util_Log2+0xa1>
     cfe:	40e230        	nsa	a3, a2
     d01:	834d           	ae_sext16	a4, a3
     d03:	605040        	neg	a5, a4
     d06:	400500        	ssr	a5
     d09:	b15020        	sra	a5, a2
     d0c:	401400        	ssl	a4
     d0f:	a16200        	sll	a6, a2
     d12:	fd7c           	movi.n	a13, -1
     d14:	a36540        	movltz	a6, a5, a4
     d17:	4141d0        	srli	a4, a13, 1
     d1a:	c04460        	sub	a4, a4, a6
     d1d:	f54040        	extui	a4, a4, 16, 16
     d20:	300444        	ae_cvtp24a16x2.ll	aep0, a4, a4
     d23:	ea0340aaff 	{ movi	a15, 170; ae_mulfs32p16s.ll	aeq1, aep0, aep0 }
     d28:	fcf4e1        	l32r	a14, f8 (ff70 <ldCoeff>)
     d2b:	099d24        	ae_truncp24q48x2	aep2, aeq1, aeq1
     d2e:	0922a4        	ae_truncp16	aep2, aep2
     d31:	eb0b6d9e0f 	{ ae_lp16x2f.iu	aep1, a14, 0; ae_mulfs32p16s.ll	aeq3, aep2, aep0 }
     d36:	e820adee1f 	{ ae_lp16x2f.iu	aep6, a14, 4; ae_mulfp24s.hh	aeq0, aep0, aep1 }
     d3b:	fade6dce1f 	{ ae_lp16x2f.iu	aep4, a14, 4; ae_truncp24q48x2	aep5, aeq3, aeq3 }
     d40:	012134        	ae_mulafp24s.ll	aeq0, aep2, aep1
     d43:	095294        	ae_truncp16	aep1, aep5
     d46:	009074        	ae_mulfs32p16s.ll	aeq2, aep1, aep0
     d49:	011604        	ae_mulafp24s.hh	aeq0, aep1, aep6
     d4c:	09ae74        	ae_truncp24q48x2	aep7, aeq2, aeq2
     d4f:	097294        	ae_truncp16	aep1, aep7
     d52:	009874        	ae_mulfs32p16s.ll	aeq3, aep1, aep0
     d55:	e2c7adee1f 	{ ae_lp16x2f.iu	aep6, a14, 4; ae_mulafp24s.ll	aeq0, aep1, aep6 }
     d5a:	09bf34        	ae_truncp24q48x2	aep3, aeq3, aeq3
     d5d:	093294        	ae_truncp16	aep1, aep3
     d60:	009074        	ae_mulfs32p16s.ll	aeq2, aep1, aep0
     d63:	011404        	ae_mulafp24s.hh	aeq0, aep1, aep4
     d66:	09ae54        	ae_truncp24q48x2	aep5, aeq2, aeq2
     d69:	095294        	ae_truncp16	aep1, aep5
     d6c:	009874        	ae_mulfs32p16s.ll	aeq3, aep1, aep0
     d6f:	011434        	ae_mulafp24s.ll	aeq0, aep1, aep4
     d72:	09bf04        	ae_truncp24q48x2	aep0, aeq3, aeq3
     d75:	090284        	ae_truncp16	aep0, aep0
     d78:	010604        	ae_mulafp24s.hh	aeq0, aep0, aep6
     d7b:	38df52        	addmi	a5, a15, 0x3800
     d7e:	f84258f55f 	{ ae_cvtp24a16x2.ll	aep7, a5, a5; ae_truncp24q48x2	aep1, aeq0, aeq0 }
     d83:	f8c7fb001f 	{ ae_sraiq56	aeq0, aeq0, 1; ae_truncp16	aep1, aep1 }
     d88:	021704        	ae_mulap24s.hh	aeq0, aep1, aep7
     d8b:	013370        	slli	a3, a3, 25
     d8e:	368204        	ae_trunca32q48	a2, aeq0
     d91:	212520        	srai	a2, a2, 5
     d94:	c02230        	sub	a2, a2, a3
     d97:	f01d           	retw.n

00000d99 <BASOP_Util_Log2+0xa1>:
     d99:	f27c           	movi.n	a2, -1
     d9b:	012210        	slli	a2, a2, 31
     d9e:	f01d           	retw.n

00000da0 <BASOP_Util_InvLog2>:
     da0:	004136        	entry	a1, 32
     da3:	146c           	movi.n	a4, -31
     da5:	023d           	mov.n	a3, a2
     da7:	014470        	slli	a4, a4, 25
     daa:	020c           	movi.n	a2, 0
     dac:	02a347        	bge	a3, a4, db2 <BASOP_Util_InvLog2+0x12>
     daf:	002106        	j	e37 <BASOP_Util_InvLog2+0x97>
     db2:	fcd241        	l32r	a4, fc (3dffffff <_end+0x3dfe4bcb>)
     db5:	f27c           	movi.n	a2, -1
     db7:	412120        	srli	a2, a2, 1
     dba:	792437        	blt	a4, a3, e37 <BASOP_Util_InvLog2+0x97>
     dbd:	076316        	beqz	a3, e37 <BASOP_Util_InvLog2+0x97>
     dc0:	fcd2d1        	l32r	a13, 108 (ff90 <exp2_tab_long>)
     dc3:	fcd2f1        	l32r	a15, 10c (10010 <exp2w_tab_long>)
     dc6:	314930        	srai	a4, a3, 25
     dc9:	f51c           	movi.n	a5, 31
     dcb:	060c           	movi.n	a6, 0
     dcd:	60a040        	neg	a10, a4
     dd0:	45c430        	extui	a12, a3, 20, 5
     dd3:	44ef30        	extui	a14, a3, 15, 5
     dd6:	942030        	extui	a2, a3, 0, 10
     dd9:	447a30        	extui	a7, a3, 10, 5
     ddc:	fcc981        	l32r	a8, 100 (10090 <exp2x_tab_long>)
     ddf:	c05540        	sub	a5, a5, a4
     de2:	b3a430        	movgez	a10, a4, a3
     de5:	726630        	salt	a6, a6, a3
     de8:	a04cd0        	addx4	a4, a12, a13
     deb:	a03ef0        	addx4	a3, a14, a15
     dee:	fcc591        	l32r	a9, 104 (16302f <_end+0x147bfb>)
     df1:	0448           	l32i.n	a4, a4, 0
     df3:	0338           	l32i.n	a3, a3, 0
     df5:	a07780        	addx4	a7, a7, a8
     df8:	822290        	mull	a2, a2, a9
     dfb:	b2d430        	mulsh	a13, a4, a3
     dfe:	823430        	mull	a3, a4, a3
     e01:	07c8           	l32i.n	a12, a7, 0
     e03:	93a560        	movnez	a10, a5, a6
     e06:	3b0c           	movi.n	a11, 3
     e08:	f52020        	extui	a2, a2, 16, 16
     e0b:	053f30        	extui	a3, a3, 31, 1
     e0e:	c05ba0        	sub	a5, a11, a10
     e11:	2c2a           	add.n	a2, a12, a2
     e13:	903d30        	addx2	a3, a13, a3
     e16:	401500        	ssl	a5
     e19:	825320        	mull	a5, a3, a2
     e1c:	b22320        	mulsh	a2, a3, a2
     e1f:	05ff50        	extui	a15, a5, 31, 1
     e22:	9022f0        	addx2	a2, a2, a15
     e25:	fdca62        	addi	a6, a10, -3
     e28:	a13200        	sll	a3, a2
     e2b:	400600        	ssr	a6
     e2e:	72eab0        	salt	a14, a10, a11
     e31:	b12020        	sra	a2, a2
     e34:	9323e0        	movnez	a2, a3, a14

00000e37 <BASOP_Util_InvLog2+0x97>:
     e37:	f01d           	retw.n

00000e39 <BASOP_Util_InvLog2+0x99>:
     e39:	000000                                        ...

00000e3c <Sqrt16>:
     e3c:	004136        	entry	a1, 32
     e3f:	40e240        	nsa	a4, a2
     e42:	f0c462        	addi	a6, a4, -16
     e45:	836220        	moveqz	a6, a2, a2
     e48:	235d           	ae_l16si.n	a5, a3, 0
     e4a:	864d           	ae_sext16	a4, a6
     e4c:	00a496        	bltz	a4, e5a <Sqrt16+0x1e>
     e4f:	401400        	ssl	a4
     e52:	a12200        	sll	a2, a2
     e55:	824d           	ae_sext16	a4, a2
     e57:	000206        	j	e63 <Sqrt16+0x27>

00000e5a <Sqrt16+0x1e>:
     e5a:	604040        	neg	a4, a4
     e5d:	400400        	ssr	a4
     e60:	b14020        	sra	a4, a2
     e63:	c02560        	sub	a2, a5, a6
     e66:	055416        	beqz	a4, ebf <Sqrt16+0x83>
     e69:	c0d452        	addmi	a5, a4, 0xffffc000
     e6c:	fca961        	l32r	a6, 110 (10110 <SqrtTable>)
     e6f:	fca971        	l32r	a7, 114 (10190 <SqrtDiffTable>)
     e72:	115590        	slli	a5, a5, 7
     e75:	315050        	srai	a5, a5, 16
     e78:	a06560        	addx4	a6, a5, a6
     e7b:	905570        	addx2	a5, a5, a7
     e7e:	255d           	ae_l16si.n	a5, a5, 0
     e80:	84d040        	extui	a13, a4, 0, 9
     e83:	0668           	l32i.n	a6, a6, 0
     e85:	114df0        	slli	a4, a13, 1
     e88:	1e0c           	movi.n	a14, 1
     e8a:	117e10        	slli	a7, a14, 15
     e8d:	d14450        	mul16s	a4, a4, a5
     e90:	f67a           	add.n	a15, a6, a7
     e92:	44fa           	add.n	a4, a4, a15
     e94:	f54040        	extui	a4, a4, 16, 16
     e97:	126207        	bbci	a2, 0, ead <Sqrt16+0x71>
     e9a:	82a052        	movi	a5, 130
     e9d:	5ad552        	addmi	a5, a5, 0x5a00
     ea0:	844d           	ae_sext16	a4, a4
     ea2:	d14450        	mul16s	a4, a4, a5
     ea5:	40d442        	addmi	a4, a4, 0x4000
     ea8:	214f40        	srai	a4, a4, 15
     eab:	a44d           	ae_clamps16	a4, a4
     ead:	825d           	ae_sext16	a5, a2
     eaf:	f51b           	addi.n	a15, a5, 1
     eb1:	842d           	ae_sext16	a2, a4
     eb3:	114f20        	slli	a4, a15, 14
     eb6:	214f40        	srai	a4, a4, 15
     eb9:	a44d           	ae_clamps16	a4, a4
     ebb:	634d           	ae_s16i.n	a4, a3, 0
     ebd:	f01d           	retw.n

00000ebf <Sqrt16+0x83>:
     ebf:	040c           	movi.n	a4, 0
     ec1:	d5e207        	bbsi	a2, 0, e9a <Sqrt16+0x5e>
     ec4:	fff946        	j	ead <Sqrt16+0x71>

00000ec7 <Sqrt16+0x8b>:
	...

00000ec8 <ISqrt16>:
     ec8:	004136        	entry	a1, 32
     ecb:	40e240        	nsa	a4, a2
     ece:	f0c442        	addi	a4, a4, -16
     ed1:	236d           	ae_l16si.n	a6, a3, 0
     ed3:	834220        	moveqz	a4, a2, a2
     ed6:	845d           	ae_sext16	a5, a4
     ed8:	c04640        	sub	a4, a6, a4
     edb:	00a596        	bltz	a5, ee9 <ISqrt16+0x21>
     ede:	401500        	ssl	a5
     ee1:	a12200        	sll	a2, a2
     ee4:	822d           	ae_sext16	a2, a2
     ee6:	000206        	j	ef2 <ISqrt16+0x2a>

00000ee9 <ISqrt16+0x21>:
     ee9:	605050        	neg	a5, a5
     eec:	400500        	ssr	a5
     eef:	b12020        	sra	a2, a2
     ef2:	c0d252        	addmi	a5, a2, 0xffffc000
     ef5:	fc8861        	l32r	a6, 118 (101d0 <ISqrtTable>)
     ef8:	fc8971        	l32r	a7, 11c (10250 <ISqrtDiffTable>)
     efb:	115590        	slli	a5, a5, 7
     efe:	315050        	srai	a5, a5, 16
     f01:	a06560        	addx4	a6, a5, a6
     f04:	905570        	addx2	a5, a5, a7
     f07:	25bd           	ae_l16si.n	a11, a5, 0
     f09:	06a8           	l32i.n	a10, a6, 0
     f0b:	fc8551        	l32r	a5, 120 (de38 <msu_r>)
     f0e:	84c020        	extui	a12, a2, 0, 9
     f11:	0005e0        	callx8	a5
     f14:	0a2d           	mov.n	a2, a10
     f16:	10e407        	bbsi	a4, 0, f2a <ISqrt16+0x62>
     f19:	82a062        	movi	a6, 130
     f1c:	5ad662        	addmi	a6, a6, 0x5a00
     f1f:	d12260        	mul16s	a2, a2, a6
     f22:	40d222        	addmi	a2, a2, 0x4000
     f25:	212f20        	srai	a2, a2, 15
     f28:	a22d           	ae_clamps16	a2, a2
     f2a:	1a0c           	movi.n	a10, 1
     f2c:	1c0c           	movi.n	a12, 1
     f2e:	84bd           	ae_sext16	a11, a4
     f30:	11aa10        	slli	a10, a10, 15
     f33:	11cc20        	slli	a12, a12, 14
     f36:	0005e0        	callx8	a5
     f39:	822d           	ae_sext16	a2, a2
     f3b:	63ad           	ae_s16i.n	a10, a3, 0
     f3d:	f01d           	retw.n

00000f3f <ISqrt16+0x77>:
	...

00000f40 <Inv16>:
     f40:	004136        	entry	a1, 32
     f43:	140c           	movi.n	a4, 1
     f45:	80d442        	addmi	a4, a4, 0xffff8000
     f48:	534240        	max	a4, a2, a4
     f4b:	604140        	abs	a4, a4
     f4e:	846d           	ae_sext16	a6, a4
     f50:	40e650        	nsa	a5, a6
     f53:	f0c552        	addi	a5, a5, -16
     f56:	835440        	moveqz	a5, a4, a4
     f59:	434d           	ae_l16ui.n	a4, a3, 0
     f5b:	855d           	ae_sext16	a5, a5
     f5d:	00a596        	bltz	a5, f6b <Inv16+0x2b>
     f60:	401500        	ssl	a5
     f63:	a16600        	sll	a6, a6
     f66:	866d           	ae_sext16	a6, a6
     f68:	000206        	j	f74 <Inv16+0x34>

00000f6b <Inv16+0x2b>:
     f6b:	607050        	neg	a7, a5
     f6e:	400700        	ssr	a7
     f71:	b16060        	sra	a6, a6
     f74:	c0d672        	addmi	a7, a6, 0xffffc000
     f77:	fc6b81        	l32r	a8, 124 (10290 <InvTable>)
     f7a:	fc6b91        	l32r	a9, 128 (10350 <InvDiffTable>)
     f7d:	117790        	slli	a7, a7, 7
     f80:	317070        	srai	a7, a7, 16
     f83:	a08780        	addx4	a8, a7, a8
     f86:	907790        	addx2	a7, a7, a9
     f89:	84f060        	extui	a15, a6, 0, 9
     f8c:	08a8           	l32i.n	a10, a8, 0
     f8e:	27bd           	ae_l16si.n	a11, a7, 0
     f90:	fc6461        	l32r	a6, 120 (de38 <msu_r>)
     f93:	11cff0        	slli	a12, a15, 1
     f96:	0006e0        	callx8	a6
     f99:	c04540        	sub	a4, a5, a4
     f9c:	60f0a0        	neg	a15, a10
     f9f:	b3fa20        	movgez	a15, a10, a2
     fa2:	441b           	addi.n	a4, a4, 1
     fa4:	8f2d           	ae_sext16	a2, a15
     fa6:	634d           	ae_s16i.n	a4, a3, 0
     fa8:	f01d           	retw.n

00000faa <Inv16+0x6a>:
	...

00000fac <getScaleFactor16>:
     fac:	004136        	entry	a1, 32
     faf:	fc5f41        	l32r	a4, 12c (fc0 <getScaleFactor16_0>)
     fb2:	02ad           	mov.n	a10, a2
     fb4:	03bd           	mov.n	a11, a3
     fb6:	0004e0        	callx8	a4
     fb9:	3420a0        	extui	a2, a10, 0, 4
     fbc:	f01d           	retw.n

00000fbe <getScaleFactor16+0x12>:
	...

00000fc0 <getScaleFactor16_0>:
     fc0:	004136        	entry	a1, 32
     fc3:	fc2080034f 	{ movi	a4, 3; ae_zerop48	aep0 }
     fc8:	fc20ff00bf 	{ ae_movp48	aep2, aep0; ae_zerop48	aep1 }
     fcd:	0e0427        	bnone	a4, a2, fdf <getScaleFactor16_0+0x1f>
     fd0:	422b           	addi.n	a4, a2, 2
     fd2:	409204        	ae_lp16f.iu	aep1, a2, 0
     fd5:	d9220ff33e 	{ addi	a3, a3, -1; ae_maxp24s	aep2, aep0, aep1 }
     fda:	d822d3244f 	{ or	a2, a4, a4; ae_minp24s	aep1, aep0, aep1 }

00000fdf <getScaleFactor16_0+0x1f>:
     fdf:	833d           	ae_sext16	a3, a3
     fe1:	44b204        	ae_lp16x2f.iu	aep3, a2, 0
     fe4:	0d23a6        	blti	a3, 2, ff5 <getScaleFactor16_0+0x35>
     fe7:	214130        	srai	a4, a3, 1
     fea:	078476        	loop	a4, ff5 <getScaleFactor16_0+0x35>
     fed:	072b24        	ae_maxp24s	aep2, aep2, aep3
     ff0:	d866edb21f 	{ ae_lp16x2f.iu	aep3, a2, 4; ae_minp24s	aep1, aep1, aep3 }

00000ff5 <getScaleFactor16_0+0x35>:
     ff5:	086307        	bbci	a3, 0, 1001 <getScaleFactor16_0+0x41>
     ff8:	1ab804        	ae_selp24.hl	aep0, aep3, aep0
     ffb:	072824        	ae_maxp24s	aep2, aep2, aep0
     ffe:	071894        	ae_minp24s	aep1, aep1, aep0

00001001 <getScaleFactor16_0+0x41>:
    1001:	dd25fe222f 	{ ae_selp24.lh	aep0, aep2, aep2; ae_selp24.lh	aep3, aep1, aep1 }
    1006:	d80a00104f 	{ movi	a4, 16; ae_maxp24s	aep0, aep2, aep0 }
    100b:	d866ff026f 	{ ae_trunca16p24s.l	a2, aep0; ae_minp24s	aep1, aep1, aep3 }
    1010:	361324        	ae_trunca16p24s.l	a3, aep1
    1013:	40e250        	nsa	a5, a2
    1016:	40e360        	nsa	a6, a3
    1019:	f0c552        	addi	a5, a5, -16
    101c:	f0c662        	addi	a6, a6, -16
    101f:	115500        	slli	a5, a5, 16
    1022:	116600        	slli	a6, a6, 16
    1025:	922d           	ae_zext16	a2, a2
    1027:	315050        	srai	a5, a5, 16
    102a:	933d           	ae_zext16	a3, a3
    102c:	316060        	srai	a6, a6, 16
    102f:	835420        	moveqz	a5, a4, a2
    1032:	836430        	moveqz	a6, a4, a3
    1035:	432560        	min	a2, a5, a6
    1038:	f01d           	retw.n

0000103a <getScaleFactor16_0+0x7a>:
	...

0000103c <getScaleFactor32_Q>:
    103c:	004136        	entry	a1, 32
    103f:	0a1084        	ae_zeroq56	aeq0
    1042:	fd24bf01bf 	{ ae_movq56	aeq2, aeq0; ae_zeroq56	aeq1 }
    1047:	0d13a6        	blti	a3, 1, 1058 <getScaleFactor32_Q+0x1c>
    104a:	60d204        	ae_lq32f.iu	aeq3, a2, 0
    104d:	078376        	loop	a3, 1058 <getScaleFactor32_Q+0x1c>
    1050:	01b2c4        	ae_maxq56s	aeq2, aeq2, aeq3
    1053:	f91ebd721f 	{ ae_lq32f.iu	aeq3, a2, 4; ae_minq56s	aeq1, aeq1, aeq3 }

00001058 <getScaleFactor32_Q+0x1c>:
    1058:	d4c03f22af 	{ ae_nsaq56s	a2, aeq2; ae_eqq56	b0, aeq2, aeq0 }
    105d:	365404        	ae_nsaq56s	a4, aeq1
    1060:	032c           	movi.n	a3, 32
    1062:	f8c222        	addi	a2, a2, -8
    1065:	112200        	slli	a2, a2, 16
    1068:	312020        	srai	a2, a2, 16
    106b:	f8c442        	addi	a4, a4, -8
    106e:	d44416230f 	{ movt	a2, a3, b0; ae_eqq56	b0, aeq1, aeq0 }
    1073:	114400        	slli	a4, a4, 16
    1076:	314040        	srai	a4, a4, 16
    1079:	d34300        	movt	a4, a3, b0
    107c:	432240        	min	a2, a2, a4
    107f:	442020        	extui	a2, a2, 0, 5
    1082:	f01d           	retw.n

00001084 <getScaleFactor32>:
    1084:	004136        	entry	a1, 32
    1087:	fc20efb20f 	{ ae_lp24x2f.iu	aep3, a2, 0; ae_zerop48	aep1 }
    108c:	fc20bf10bf 	{ ae_movp48	aep2, aep1; ae_zerop48	aep0 }
    1091:	0d23a6        	blti	a3, 2, 10a2 <getScaleFactor32+0x1e>
    1094:	214130        	srai	a4, a3, 1
    1097:	078476        	loop	a4, 10a2 <getScaleFactor32+0x1e>
    109a:	072b24        	ae_maxp24s	aep2, aep2, aep3
    109d:	d862afb21f 	{ ae_lp24x2f.iu	aep3, a2, 8; ae_minp24s	aep0, aep0, aep3 }

000010a2 <getScaleFactor32+0x1e>:
    10a2:	086307        	bbci	a3, 0, 10ae <getScaleFactor32+0x2a>
    10a5:	1ab914        	ae_selp24.hl	aep1, aep3, aep1
    10a8:	072924        	ae_maxp24s	aep2, aep2, aep1
    10ab:	070984        	ae_minp24s	aep0, aep0, aep1

000010ae <getScaleFactor32+0x2a>:
    10ae:	df01fe226f 	{ ae_selp24.lh	aep1, aep2, aep2; ae_selp24.lh	aep7, aep0, aep0 }
    10b3:	d82a40203f 	{ movi	a3, 32; ae_maxp24s	aep1, aep2, aep1 }
    10b8:	d8e2bf125f 	{ ae_cvta32p24.l	a2, aep1; ae_minp24s	aep0, aep0, aep7 }
    10bd:	0004d4        	ae_cvta32p24.l	a4, aep0
    10c0:	40e250        	nsa	a5, a2
    10c3:	855d           	ae_sext16	a5, a5
    10c5:	40e4f0        	nsa	a15, a4
    10c8:	835320        	moveqz	a5, a3, a2
    10cb:	8f2d           	ae_sext16	a2, a15
    10cd:	832340        	moveqz	a2, a3, a4
    10d0:	432520        	min	a2, a5, a2
    10d3:	442020        	extui	a2, a2, 0, 5
    10d6:	f01d           	retw.n

000010d8 <getScaleFactor32_0>:
    10d8:	004136        	entry	a1, 32
    10db:	fc20efb20f 	{ ae_lp24x2f.iu	aep3, a2, 0; ae_zerop48	aep1 }
    10e0:	fc20bf10bf 	{ ae_movp48	aep2, aep1; ae_zerop48	aep0 }
    10e5:	0f23a6        	blti	a3, 2, 10f8 <getScaleFactor32_0+0x20>
    10e8:	214130        	srai	a4, a3, 1
    10eb:	f03d           	nop.n
    10ed:	078476        	loop	a4, 10f8 <getScaleFactor32_0+0x20>
    10f0:	072b24        	ae_maxp24s	aep2, aep2, aep3
    10f3:	d862afb21f 	{ ae_lp24x2f.iu	aep3, a2, 8; ae_minp24s	aep0, aep0, aep3 }

000010f8 <getScaleFactor32_0+0x20>:
    10f8:	086307        	bbci	a3, 0, 1104 <getScaleFactor32_0+0x2c>
    10fb:	1ab914        	ae_selp24.hl	aep1, aep3, aep1
    10fe:	072924        	ae_maxp24s	aep2, aep2, aep1
    1101:	070984        	ae_minp24s	aep0, aep0, aep1

00001104 <getScaleFactor32_0+0x2c>:
    1104:	df01fe226f 	{ ae_selp24.lh	aep1, aep2, aep2; ae_selp24.lh	aep7, aep0, aep0 }
    1109:	d82a40203f 	{ movi	a3, 32; ae_maxp24s	aep1, aep2, aep1 }
    110e:	d8e2bf125f 	{ ae_cvta32p24.l	a2, aep1; ae_minp24s	aep0, aep0, aep7 }
    1113:	0004d4        	ae_cvta32p24.l	a4, aep0
    1116:	40e250        	nsa	a5, a2
    1119:	855d           	ae_sext16	a5, a5
    111b:	40e4f0        	nsa	a15, a4
    111e:	835320        	moveqz	a5, a3, a2
    1121:	8f2d           	ae_sext16	a2, a15
    1123:	832340        	moveqz	a2, a3, a4
    1126:	432520        	min	a2, a5, a2
    1129:	f01d           	retw.n

0000112b <getScaleFactor32_0+0x53>:
	...

0000112c <BASOP_Util_Divide3216_Scale>:
    112c:	006136        	entry	a1, 48
    112f:	050216        	beqz	a2, 1183 <BASOP_Util_Divide3216_Scale+0x57>
    1132:	fbff61        	l32r	a6, 130 (80000001 <_end+0x7ffe4bcd>)
    1135:	170c           	movi.n	a7, 1
    1137:	f55020        	extui	a5, a2, 16, 16
    113a:	53c260        	max	a12, a2, a6
    113d:	60e1c0        	abs	a14, a12
    1140:	40ee20        	nsa	a2, a14
    1143:	80d772        	addmi	a7, a7, 0xffff8000
    1146:	832ee0        	moveqz	a2, a14, a14
    1149:	53d370        	max	a13, a3, a7
    114c:	220b           	addi.n	a2, a2, -1
    114e:	305530        	xor	a5, a5, a3
    1151:	6031d0        	abs	a3, a13
    1154:	836d           	ae_sext16	a6, a3
    1156:	822d           	ae_sext16	a2, a2
    1158:	40e680        	nsa	a8, a6
    115b:	609020        	neg	a9, a2
    115e:	f0c882        	addi	a8, a8, -16
    1161:	400900        	ssr	a9
    1164:	838330        	moveqz	a8, a3, a3
    1167:	b1f0e0        	sra	a15, a14
    116a:	401200        	ssl	a2
    116d:	a17e00        	sll	a7, a14
    1170:	883d           	ae_sext16	a3, a8
    1172:	a37f20        	movltz	a7, a15, a2
    1175:	012396        	bltz	a3, 118b <BASOP_Util_Divide3216_Scale+0x5f>
    1178:	401300        	ssl	a3
    117b:	a16600        	sll	a6, a6
    117e:	866d           	ae_sext16	a6, a6
    1180:	000406        	j	1194 <BASOP_Util_Divide3216_Scale+0x68>

00001183 <BASOP_Util_Divide3216_Scale+0x57>:
    1183:	030c           	movi.n	a3, 0
    1185:	020c           	movi.n	a2, 0
    1187:	643d           	ae_s16i.n	a3, a4, 0
    1189:	f01d           	retw.n

0000118b <BASOP_Util_Divide3216_Scale+0x5f>:
    118b:	608030        	neg	a8, a3
    118e:	400800        	ssr	a8
    1191:	b16060        	sra	a6, a6
    1194:	360734        	ae_cvtq48a32s	aeq0, a7
    1197:	f86395232f 	{ sub	a2, a3, a2; ae_roundsp16q48asym	aep0, aeq0 }
    119c:	420164        	ae_sp16f.l.i	aep0, a1, 12
    119f:	061172        	l16ui	a7, a1, 12
    11a2:	968d           	ae_zext16	a8, a6
    11a4:	855d           	ae_sext16	a5, a5
    11a6:	642d           	ae_s16i.n	a2, a4, 0
    11a8:	089787        	bne	a7, a8, 11b4 <BASOP_Util_Divide3216_Scale+0x88>
    11ab:	ffa022        	movi	a2, 255
    11ae:	7fd222        	addmi	a2, a2, 0x7f00
    11b1:	0001c6        	j	11bc <BASOP_Util_Divide3216_Scale+0x90>

000011b4 <BASOP_Util_Divide3216_Scale+0x88>:
    11b4:	872d           	ae_sext16	a2, a7
    11b6:	112210        	slli	a2, a2, 15
    11b9:	d22260        	quos	a2, a2, a6
    11bc:	603020        	neg	a3, a2
    11bf:	b33250        	movgez	a3, a2, a5
    11c2:	832d           	ae_sext16	a2, a3
    11c4:	f01d           	retw.n

000011c6 <BASOP_Util_Divide3216_Scale+0x9a>:
	...

000011c8 <BASOP_Util_Divide1616_Scale>:
    11c8:	004136        	entry	a1, 32
    11cb:	f67c           	movi.n	a6, -1
    11cd:	605120        	abs	a5, a2
    11d0:	f46060        	extui	a6, a6, 0, 16
    11d3:	1a0657        	bnone	a6, a5, 11f1 <BASOP_Util_Divide1616_Scale+0x29>
    11d6:	855d           	ae_sext16	a5, a5
    11d8:	40e570        	nsa	a7, a5
    11db:	f0c762        	addi	a6, a7, -16
    11de:	868d           	ae_sext16	a8, a6
    11e0:	606130        	abs	a6, a3
    11e3:	012896        	bltz	a8, 11f9 <BASOP_Util_Divide1616_Scale+0x31>
    11e6:	401800        	ssl	a8
    11e9:	a15500        	sll	a5, a5
    11ec:	855d           	ae_sext16	a5, a5
    11ee:	000406        	j	1202 <BASOP_Util_Divide1616_Scale+0x3a>

000011f1 <BASOP_Util_Divide1616_Scale+0x29>:
    11f1:	030c           	movi.n	a3, 0
    11f3:	020c           	movi.n	a2, 0
    11f5:	643d           	ae_s16i.n	a3, a4, 0
    11f7:	f01d           	retw.n

000011f9 <BASOP_Util_Divide1616_Scale+0x31>:
    11f9:	608080        	neg	a8, a8
    11fc:	400800        	ssr	a8
    11ff:	b15050        	sra	a5, a5
    1202:	868d           	ae_sext16	a8, a6
    1204:	191c           	movi.n	a9, 17
    1206:	40e8f0        	nsa	a15, a8
    1209:	c07970        	sub	a7, a9, a7
    120c:	f0cf92        	addi	a9, a15, -16
    120f:	839660        	moveqz	a9, a6, a6
    1212:	896d           	ae_sext16	a6, a9
    1214:	215150        	srai	a5, a5, 1
    1217:	647d           	ae_s16i.n	a7, a4, 0
    1219:	00a696        	bltz	a6, 1227 <BASOP_Util_Divide1616_Scale+0x5f>
    121c:	401600        	ssl	a6
    121f:	a18800        	sll	a8, a8
    1222:	888d           	ae_sext16	a8, a8
    1224:	000206        	j	1230 <BASOP_Util_Divide1616_Scale+0x68>

00001227 <BASOP_Util_Divide1616_Scale+0x5f>:
    1227:	609060        	neg	a9, a6
    122a:	400900        	ssr	a9
    122d:	b18080        	sra	a8, a8
    1230:	f67a           	add.n	a15, a6, a7
    1232:	302320        	xor	a2, a3, a2
    1235:	64fd           	ae_s16i.n	a15, a4, 0
    1237:	089587        	bne	a5, a8, 1243 <BASOP_Util_Divide1616_Scale+0x7b>
    123a:	ffa032        	movi	a3, 255
    123d:	7fd332        	addmi	a3, a3, 0x7f00
    1240:	000146        	j	1249 <BASOP_Util_Divide1616_Scale+0x81>

00001243 <BASOP_Util_Divide1616_Scale+0x7b>:
    1243:	113510        	slli	a3, a5, 15
    1246:	d23380        	quos	a3, a3, a8
    1249:	604030        	neg	a4, a3
    124c:	b34320        	movgez	a4, a3, a2
    124f:	842d           	ae_sext16	a2, a4
    1251:	f01d           	retw.n

00001253 <BASOP_Util_Divide1616_Scale+0x8b>:
	...

00001254 <Norm32Norm>:
    1254:	006136        	entry	a1, 48
    1257:	fc24bd520f 	{ ae_lq32f.iu	aeq2, a2, 0; ae_zeroq56	aeq0 }
    125c:	0a5084        	ae_zeroq56	aeq1
    125f:	1d24a6        	blti	a4, 2, 1280 <Norm32Norm+0x2c>
    1262:	216140        	srai	a6, a4, 1
    1265:	178676        	loop	a6, 1280 <Norm32Norm+0x2c>
    1268:	60d214        	ae_lq32f.iu	aeq3, a2, 4
    126b:	fc24fea38f 	{ ae_slaasq56s	aeq2, aeq2, a3; nop }
    1270:	f877beb3cf 	{ ae_slaasq56s	aeq3, aeq3, a3; ae_roundsp24q48asym	aep0, aeq2 }
    1275:	e4027d521f 	{ ae_lq32f.iu	aeq2, a2, 4; ae_mulap24s.hh	aeq1, aep0, aep0 }
    127a:	1bbd74        	ae_roundsp24q48asym	aep7, aeq3
    127d:	027f04        	ae_mulap24s.hh	aeq1, aep7, aep7

00001280 <Norm32Norm+0x2c>:
    1280:	0a6407        	bbci	a4, 0, 128e <Norm32Norm+0x3a>
    1283:	fc24fea38f 	{ ae_slaasq56s	aeq2, aeq2, a3; nop }
    1288:	1bad04        	ae_roundsp24q48asym	aep0, aeq2
    128b:	020804        	ae_mulap24s.hh	aeq1, aep0, aep0

0000128e <Norm32Norm+0x3a>:
    128e:	d4443f12af 	{ ae_nsaq56s	a2, aeq1; ae_eqq56	b0, aeq1, aeq0 }
    1293:	a70c           	movi.n	a7, 10
    1295:	160c           	movi.n	a6, 1
    1297:	c02720        	sub	a2, a7, a2
    129a:	217120        	srai	a7, a2, 1
    129d:	d37600        	movt	a7, a6, b0
    12a0:	11f7f0        	slli	a15, a7, 1
    12a3:	34dfb4        	ae_sraaq56	aeq3, aeq1, a15
    12a6:	36b204        	ae_trunca32q48	a2, aeq3
    12a9:	c03370        	sub	a3, a3, a7
    12ac:	40e470        	nsa	a7, a4
    12af:	429c           	beqz.n	a2, 12c7 <Norm32Norm+0x73>
    12b1:	f0c772        	addi	a7, a7, -16
    12b4:	837440        	moveqz	a7, a4, a4
    12b7:	877d           	ae_sext16	a7, a7
    12b9:	00f796        	bltz	a7, 12cc <Norm32Norm+0x78>
    12bc:	401700        	ssl	a7
    12bf:	a14400        	sll	a4, a4
    12c2:	844d           	ae_sext16	a4, a4
    12c4:	000346        	j	12d5 <Norm32Norm+0x81>

000012c7 <Norm32Norm+0x73>:
    12c7:	020c           	movi.n	a2, 0
    12c9:	001146        	j	1312 <Norm32Norm+0xbe>

000012cc <Norm32Norm+0x78>:
    12cc:	608070        	neg	a8, a7
    12cf:	400800        	ssr	a8
    12d2:	b14040        	sra	a4, a4
    12d5:	d87c           	movi.n	a8, -3
    12d7:	f48080        	extui	a8, a8, 0, 16
    12da:	f90c           	movi.n	a9, 15
    12dc:	c07970        	sub	a7, a9, a7
    12df:	82c480        	mull	a12, a4, a8
    12e2:	877d           	ae_sext16	a7, a7
    12e4:	b2d480        	mulsh	a13, a4, a8
    12e7:	419fc0        	srli	a9, a12, 15
    12ea:	60e070        	neg	a14, a7
    12ed:	400e00        	ssr	a14
    12f0:	1bed90        	depbits	a9, a13, 17, 15
    12f3:	b14090        	sra	a4, a9
    12f6:	401700        	ssl	a7
    12f9:	a19900        	sll	a9, a9
    12fc:	a39470        	movltz	a9, a4, a7
    12ff:	3129           	s32i.n	a2, a1, 12
    1301:	2199           	s32i.n	a9, a1, 8
    1303:	600134        	ae_lq32f.i	aeq0, a1, 12
    1306:	604124        	ae_lq32f.i	aeq1, a1, 8
    1309:	060904        	ae_addsq56s	aeq0, aeq0, aeq1
    130c:	060844        	ae_satq48s	aeq0, aeq0
    130f:	368204        	ae_trunca32q48	a2, aeq0
    1312:	1133f0        	slli	a3, a3, 1
    1315:	c03630        	sub	a3, a6, a3
    1318:	653d           	ae_s16i.n	a3, a5, 0
    131a:	f01d           	retw.n

0000131c <Scale_sig>:
    131c:	004136        	entry	a1, 32
    131f:	360c           	movi.n	a6, 3
    1321:	945d           	ae_zext16	a5, a4
    1323:	1b0627        	bnone	a6, a2, 1342 <Scale_sig+0x26>
    1326:	1114a6        	blti	a4, 1, 133b <Scale_sig+0x1f>
    1329:	f60c           	movi.n	a6, 15
    132b:	227d           	ae_l16si.n	a7, a2, 0
    132d:	436560        	min	a6, a5, a6
    1330:	401600        	ssl	a6
    1333:	a1a700        	sll	a10, a7

00001336 <Scale_sig+0x1a>:
    1336:	62ad           	ae_s16i.n	a10, a2, 0
    1338:	000086        	j	133e <Scale_sig+0x22>

0000133b <Scale_sig+0x1f>:
    133b:	06d496        	bltz	a4, 13ac <Scale_sig+0x90>
    133e:	222b           	addi.n	a2, a2, 2
    1340:	330b           	addi.n	a3, a3, -1
    1342:	2914a6        	blti	a4, 1, 136f <Scale_sig+0x53>
    1345:	f60c           	movi.n	a6, 15
    1347:	436560        	min	a6, a5, a6
    134a:	835d           	ae_sext16	a5, a3
    134c:	448204        	ae_lp16x2f.iu	aep0, a2, 0
    134f:	031664        	wur.ae_sar	a6
    1352:	0d25a6        	blti	a5, 2, 1363 <Scale_sig+0x47>
    1355:	216150        	srai	a6, a5, 1
    1358:	078676        	loop	a6, 1363 <Scale_sig+0x47>
    135b:	f823ed821f 	{ ae_lp16x2f.iu	aep0, a2, 4; ae_sllssp24s	aep1, aep0 }
    1360:	4612f4        	ae_sp16x2f.i	aep1, a2, -4

00001363 <Scale_sig+0x47>:
    1363:	086507        	bbci	a5, 0, 136f <Scale_sig+0x53>
    1366:	0b0084        	ae_sllssp24s	aep0, aep0
    1369:	1a8084        	ae_selp24.lh	aep0, aep0, aep0
    136c:	420204        	ae_sp16f.l.i	aep0, a2, 0

0000136f <Scale_sig+0x53>:
    136f:	004496        	bltz	a4, 1377 <Scale_sig+0x5b>
    1372:	f01d           	retw.n

00001374 <Scale_sig+0x58>:
    1374:	000000                                        ...

00001377 <Scale_sig+0x5b>:
    1377:	157c           	movi.n	a5, -15
    1379:	534450        	max	a4, a4, a5
    137c:	604040        	neg	a4, a4
    137f:	833d           	ae_sext16	a3, a3
    1381:	448204        	ae_lp16x2f.iu	aep0, a2, 0
    1384:	031644        	wur.ae_sar	a4
    1387:	1023a6        	blti	a3, 2, 139b <Scale_sig+0x7f>
    138a:	214130        	srai	a4, a3, 1
    138d:	0a8476        	loop	a4, 139b <Scale_sig+0x7f>
    1390:	f8a3ed821f 	{ ae_lp16x2f.iu	aep0, a2, 4; ae_srasp24	aep1, aep0 }
    1395:	091194        	ae_roundsp16asym	aep1, aep1
    1398:	4612f4        	ae_sp16x2f.i	aep1, a2, -4

0000139b <Scale_sig+0x7f>:
    139b:	d36307        	bbci	a3, 0, 1372 <Scale_sig+0x56>
    139e:	0b0384        	ae_srasp24	aep0, aep0
    13a1:	090184        	ae_roundsp16asym	aep0, aep0
    13a4:	1a8084        	ae_selp24.lh	aep0, aep0, aep0
    13a7:	420204        	ae_sp16f.l.i	aep0, a2, 0
    13aa:	f01d           	retw.n

000013ac <Scale_sig+0x90>:
    13ac:	167c           	movi.n	a6, -15
    13ae:	536460        	max	a6, a4, a6
    13b1:	f77c           	movi.n	a7, -1
    13b3:	606060        	neg	a6, a6
    13b6:	400600        	ssr	a6
    13b9:	117710        	slli	a7, a7, 15
    13bc:	22bd           	ae_l16si.n	a11, a2, 0
    13be:	fb5861        	l32r	a6, 120 (de38 <msu_r>)
    13c1:	b1c070        	sra	a12, a7
    13c4:	0a0c           	movi.n	a10, 0
    13c6:	0006e0        	callx8	a6
    13c9:	ffda46        	j	1336 <Scale_sig+0x1a>

000013cc <Copy_Scale_sig>:
    13cc:	004136        	entry	a1, 32
    13cf:	fec332        	addi	a3, a3, -2
    13d2:	959c           	beqz.n	a5, 13ef <Copy_Scale_sig+0x23>
    13d4:	031596        	bltz	a5, 1409 <Copy_Scale_sig+0x3d>
    13d7:	031654        	wur.ae_sar	a5
    13da:	0e14a6        	blti	a4, 1, 13ec <Copy_Scale_sig+0x20>
    13dd:	408204        	ae_lp16f.iu	aep0, a2, 0
    13e0:	088476        	loop	a4, 13ec <Copy_Scale_sig+0x20>
    13e3:	0b0084        	ae_sllssp24s	aep0, aep0
    13e6:	428314        	ae_sp16f.l.iu	aep0, a3, 2
    13e9:	408214        	ae_lp16f.iu	aep0, a2, 2

000013ec <Copy_Scale_sig+0x20>:
    13ec:	f01d           	retw.n

000013ee <Copy_Scale_sig+0x22>:
	...

000013ef <Copy_Scale_sig+0x23>:
    13ef:	f57c           	movi.n	a5, -1
    13f1:	415150        	srli	a5, a5, 1
    13f4:	f40547        	bnone	a5, a4, 13ec <Copy_Scale_sig+0x20>
    13f7:	104450        	and	a4, a4, a5
    13fa:	408204        	ae_lp16f.iu	aep0, a2, 0
    13fd:	058476        	loop	a4, 1406 <Copy_Scale_sig+0x3a>
    1400:	428314        	ae_sp16f.l.iu	aep0, a3, 2
    1403:	408214        	ae_lp16f.iu	aep0, a2, 2

00001406 <Copy_Scale_sig+0x3a>:
    1406:	fff886        	j	13ec <Copy_Scale_sig+0x20>

00001409 <Copy_Scale_sig+0x3d>:
    1409:	605050        	neg	a5, a5
    140c:	400500        	ssr	a5
    140f:	d914a6        	blti	a4, 1, 13ec <Copy_Scale_sig+0x20>
    1412:	f57c           	movi.n	a5, -1
    1414:	115510        	slli	a5, a5, 15
    1417:	b15050        	sra	a5, a5
    141a:	300554        	ae_cvtp24a16x2.ll	aep0, a5, a5
    141d:	fc182c920f 	{ ae_lp16f.iu	aep1, a2, 0; ae_negsp24s	aep0, aep0 }
    1422:	0b8476        	loop	a4, 1431 <Copy_Scale_sig+0x65>
    1425:	011074        	ae_mulfp24s.ll	aeq0, aep1, aep0
    1428:	1b8f14        	ae_roundsp16q48asym	aep1, aeq0
    142b:	429314        	ae_sp16f.l.iu	aep1, a3, 2
    142e:	409214        	ae_lp16f.iu	aep1, a2, 2

00001431 <Copy_Scale_sig+0x65>:
    1431:	ffedc6        	j	13ec <Copy_Scale_sig+0x20>

00001434 <BASOP_Util_Add_Mant32Exp>:
    1434:	004136        	entry	a1, 32
    1437:	833520        	moveqz	a3, a5, a2
    143a:	835340        	moveqz	a5, a3, a4
    143d:	c08350        	sub	a8, a3, a5
    1440:	176c           	movi.n	a7, -31
    1442:	888d           	ae_sext16	a8, a8
    1444:	537780        	max	a7, a7, a8
    1447:	fe1c           	movi.n	a14, 31
    1449:	438e70        	min	a8, a14, a7
    144c:	ff7c           	movi.n	a15, -1
    144e:	f470f0        	extui	a7, a15, 0, 16
    1451:	00b896        	bltz	a8, 1460 <BASOP_Util_Add_Mant32Exp+0x2c>
    1454:	110787        	bnone	a7, a8, 1469 <BASOP_Util_Add_Mant32Exp+0x35>
    1457:	400800        	ssr	a8
    145a:	b14040        	sra	a4, a4
    145d:	000206        	j	1469 <BASOP_Util_Add_Mant32Exp+0x35>

00001460 <BASOP_Util_Add_Mant32Exp+0x2c>:
    1460:	608080        	neg	a8, a8
    1463:	400800        	ssr	a8
    1466:	b12020        	sra	a2, a2
    1469:	212120        	srai	a2, a2, 1
    146c:	21f140        	srai	a15, a4, 1
    146f:	2f2a           	add.n	a2, a15, a2
    1471:	535350        	max	a5, a3, a5
    1474:	40e230        	nsa	a3, a2
    1477:	833220        	moveqz	a3, a2, a2
    147a:	451b           	addi.n	a4, a5, 1
    147c:	130737        	bnone	a7, a3, 1493 <BASOP_Util_Add_Mant32Exp+0x5f>
    147f:	835d           	ae_sext16	a5, a3
    1481:	607050        	neg	a7, a5
    1484:	400700        	ssr	a7
    1487:	b17020        	sra	a7, a2
    148a:	401500        	ssl	a5
    148d:	a12200        	sll	a2, a2
    1490:	a32750        	movltz	a2, a7, a5
    1493:	c03430        	sub	a3, a4, a3
    1496:	833220        	moveqz	a3, a2, a2
    1499:	663d           	ae_s16i.n	a3, a6, 0
    149b:	f01d           	retw.n

0000149d <BASOP_Util_Add_Mant32Exp+0x69>:
    149d:	000000                                        ...

000014a0 <BASOP_Util_Cmp_Mant32Exp>:
    14a0:	004136        	entry	a1, 32
    14a3:	f77c           	movi.n	a7, -1
    14a5:	026d           	mov.n	a6, a2
    14a7:	40e220        	nsa	a2, a2
    14aa:	f47070        	extui	a7, a7, 0, 16
    14ad:	832660        	moveqz	a2, a6, a6
    14b0:	160727        	bnone	a7, a2, 14ca <BASOP_Util_Cmp_Mant32Exp+0x2a>
    14b3:	828d           	ae_sext16	a8, a2
    14b5:	60f080        	neg	a15, a8
    14b8:	400f00        	ssr	a15
    14bb:	c03320        	sub	a3, a3, a2
    14be:	b12060        	sra	a2, a6
    14c1:	401800        	ssl	a8
    14c4:	a16600        	sll	a6, a6
    14c7:	a36280        	movltz	a6, a2, a8

000014ca <BASOP_Util_Cmp_Mant32Exp+0x2a>:
    14ca:	40e420        	nsa	a2, a4
    14cd:	832440        	moveqz	a2, a4, a4
    14d0:	160727        	bnone	a7, a2, 14ea <BASOP_Util_Cmp_Mant32Exp+0x4a>
    14d3:	828d           	ae_sext16	a8, a2
    14d5:	60f080        	neg	a15, a8
    14d8:	400f00        	ssr	a15
    14db:	c05520        	sub	a5, a5, a2
    14de:	b12040        	sra	a2, a4
    14e1:	401800        	ssl	a8
    14e4:	a14400        	sll	a4, a4
    14e7:	a34280        	movltz	a4, a2, a8
    14ea:	833560        	moveqz	a3, a5, a6
    14ed:	020c           	movi.n	a2, 0
    14ef:	090c           	movi.n	a9, 0
    14f1:	03ad           	mov.n	a10, a3
    14f3:	24ac           	beqz.n	a4, 1519 <BASOP_Util_Cmp_Mant32Exp+0x79>
    14f5:	059f40        	extui	a9, a4, 31, 1
    14f8:	0416a6        	blti	a6, 1, 1500 <BASOP_Util_Cmp_Mant32Exp+0x60>
    14fb:	180c           	movi.n	a8, 1
    14fd:	00b496        	bltz	a4, 150c <BASOP_Util_Cmp_Mant32Exp+0x6c>
    1500:	05ad           	mov.n	a10, a5
    1502:	0136d6        	bgez	a6, 1519 <BASOP_Util_Cmp_Mant32Exp+0x79>
    1505:	f87c           	movi.n	a8, -1
    1507:	05ad           	mov.n	a10, a5
    1509:	0c14a6        	blti	a4, 1, 1519 <BASOP_Util_Cmp_Mant32Exp+0x79>
    150c:	c03350        	sub	a3, a3, a5
    150f:	120c           	movi.n	a2, 1
    1511:	935d           	ae_zext16	a5, a3
    1513:	625520        	saltu	a5, a5, a2
    1516:	000586        	j	1530 <BASOP_Util_Cmp_Mant32Exp+0x90>

00001519 <BASOP_Util_Cmp_Mant32Exp+0x79>:
    1519:	c033a0        	sub	a3, a3, a10
    151c:	c08640        	sub	a8, a6, a4
    151f:	150c           	movi.n	a5, 1
    1521:	93ad           	ae_zext16	a10, a3
    1523:	625a50        	saltu	a5, a10, a5
    1526:	68cc           	bnez.n	a8, 1530 <BASOP_Util_Cmp_Mant32Exp+0x90>
    1528:	fa7c           	movi.n	a10, -1
    152a:	f4a0a0        	extui	a10, a10, 0, 16
    152d:	380a37        	bnone	a10, a3, 1569 <BASOP_Util_Cmp_Mant32Exp+0xc9>
    1530:	01e696        	bltz	a6, 1552 <BASOP_Util_Cmp_Mant32Exp+0xb2>
    1533:	120c           	movi.n	a2, 1
    1535:	09cc           	bnez.n	a9, 1539 <BASOP_Util_Cmp_Mant32Exp+0x99>
    1537:	f27c           	movi.n	a2, -1
    1539:	02c496        	bltz	a4, 1569 <BASOP_Util_Cmp_Mant32Exp+0xc9>
    153c:	833d           	ae_sext16	a3, a3
    153e:	040c           	movi.n	a4, 0
    1540:	160c           	movi.n	a6, 1
    1542:	458c           	beqz.n	a5, 154a <BASOP_Util_Cmp_Mant32Exp+0xaa>
    1544:	725480        	salt	a5, a4, a8
    1547:	932650        	movnez	a2, a6, a5
    154a:	723430        	salt	a3, a4, a3
    154d:	932630        	movnez	a2, a6, a3
    1550:	f01d           	retw.n

00001552 <BASOP_Util_Cmp_Mant32Exp+0xb2>:
    1552:	072d           	mov.n	a2, a7
    1554:	199c           	beqz.n	a9, 1569 <BASOP_Util_Cmp_Mant32Exp+0xc9>
    1556:	833d           	ae_sext16	a3, a3
    1558:	f47c           	movi.n	a4, -1
    155a:	658c           	beqz.n	a5, 1564 <BASOP_Util_Cmp_Mant32Exp+0xc4>
    155c:	020c           	movi.n	a2, 0
    155e:	722280        	salt	a2, a2, a8
    1561:	904240        	addx2	a4, a2, a4
    1564:	120c           	movi.n	a2, 1
    1566:	b32430        	movgez	a2, a4, a3
    1569:	822d           	ae_sext16	a2, a2
    156b:	f01d           	retw.n

0000156d <BASOP_Util_Cmp_Mant32Exp+0xcd>:
    156d:	000000                                        ...

00001570 <Isqrt>:
    1570:	004136        	entry	a1, 32
    1573:	5312a6        	blti	a2, 1, 15ca <Isqrt+0x5a>
    1576:	faef41        	l32r	a4, 134 (13a20 <isqrt_table>)
    1579:	656720        	extui	a6, a2, 23, 7
    157c:	e4e820        	extui	a14, a2, 8, 15
    157f:	a04640        	addx4	a4, a6, a4
    1582:	1468           	l32i.n	a6, a4, 4
    1584:	0478           	l32i.n	a7, a4, 0
    1586:	435d           	ae_l16ui.n	a5, a3, 0
    1588:	c06670        	sub	a6, a6, a7
    158b:	8286e0        	mull	a8, a6, a14
    158e:	b226e0        	mulsh	a2, a6, a14
    1591:	41ff80        	srli	a15, a8, 15
    1594:	1be2f0        	depbits	a15, a2, 17, 15
    1597:	854d           	ae_sext16	a4, a5
    1599:	27fa           	add.n	a2, a7, a15
    159b:	1a6507        	bbci	a5, 0, 15b9 <Isqrt+0x49>
    159e:	82a062        	movi	a6, 130
    15a1:	5ad662        	addmi	a6, a6, 0x5a00
    15a4:	82e260        	mull	a14, a2, a6
    15a7:	045050        	extui	a5, a5, 0, 1
    15aa:	b2f260        	mulsh	a15, a2, a6
    15ad:	401500        	ssl	a5
    15b0:	415fe0        	srli	a5, a14, 15
    15b3:	1bef50        	depbits	a5, a15, 17, 15
    15b6:	a12500        	sll	a2, a5

000015b9 <Isqrt+0x49>:
    15b9:	150c           	movi.n	a5, 1
    15bb:	115500        	slli	a5, a5, 16
    15be:	114410        	slli	a4, a4, 15
    15c1:	c04540        	sub	a4, a5, a4
    15c4:	f54040        	extui	a4, a4, 16, 16
    15c7:	000186        	j	15d1 <Isqrt+0x61>

000015ca <Isqrt+0x5a>:
    15ca:	f27c           	movi.n	a2, -1
    15cc:	412120        	srli	a2, a2, 1
    15cf:	040c           	movi.n	a4, 0
    15d1:	634d           	ae_s16i.n	a4, a3, 0
    15d3:	f01d           	retw.n

000015d5 <Isqrt+0x65>:
    15d5:	000000                                        ...

000015d8 <BASOP_Util_Log2_16>:
    15d8:	006136        	entry	a1, 48
    15db:	05e216        	beqz	a2, 163d <BASOP_Util_Log2_16+0x65>
    15de:	360234        	ae_cvtq48a32s	aeq0, a2
    15e1:	364604        	ae_nsaq56s	a6, aeq0
    15e4:	dfaf42        	movi	a4, -33
    15e7:	114410        	slli	a4, a4, 15
    15ea:	eec662        	addi	a6, a6, -18
    15ed:	116600        	slli	a6, a6, 16
    15f0:	316060        	srai	a6, a6, 16
    15f3:	fc24fe860f 	{ ae_slaasq56s	aeq0, aeq0, a6; nop }
    15f8:	364434        	ae_cvtq48a32s	aeq1, a4
    15fb:	f9663f0eef 	{ ae_trunca32q48	a14, aeq0; ae_addq56	aeq1, aeq0, aeq1 }
    1600:	f86b8fffbf 	{ movi	a11, -1; ae_roundsp16q48asym	aep0, aeq1 }
    1605:	420164        	ae_sp16f.l.i	aep0, a1, 12
    1608:	faccc1        	l32r	a12, 138 (13c30 <Log2_16_table1>)
    160b:	069152        	l16si	a5, a1, 12
    160e:	facbd1        	l32r	a13, 13c (13c70 <Log2_16_table2>)
    1611:	3026b0        	xor	a2, a6, a11
    1614:	a045c0        	addx4	a4, a5, a12
    1617:	9055d0        	addx2	a5, a5, a13
    161a:	255d           	ae_l16si.n	a5, a5, 0
    161c:	223a           	add.n	a2, a2, a3
    161e:	9436e0        	extui	a3, a14, 6, 10
    1621:	0448           	l32i.n	a4, a4, 0
    1623:	1133f0        	slli	a3, a3, 1
    1626:	1f0c           	movi.n	a15, 1
    1628:	116f10        	slli	a6, a15, 15
    162b:	d13350        	mul16s	a3, a3, a5
    162e:	446a           	add.n	a4, a4, a6
    1630:	334a           	add.n	a3, a3, a4
    1632:	112270        	slli	a2, a2, 9
    1635:	f53030        	extui	a3, a3, 16, 16
    1638:	223a           	add.n	a2, a2, a3
    163a:	000106        	j	1642 <BASOP_Util_Log2_16+0x6a>

0000163d <BASOP_Util_Log2_16+0x65>:
    163d:	120c           	movi.n	a2, 1
    163f:	112210        	slli	a2, a2, 15
    1642:	822d           	ae_sext16	a2, a2
    1644:	f01d           	retw.n

00001646 <BASOP_Util_Log2_16+0x6e>:
	...

00001648 <BASOP_Util_InvLog2_16>:
    1648:	004136        	entry	a1, 32
    164b:	fabe51        	l32r	a5, 144 (13d90 <InvLog2_16_table2>)
    164e:	fabc41        	l32r	a4, 140 (13c90 <InvLog2_16_table1>)
    1651:	547520        	extui	a7, a2, 5, 6
    1654:	905750        	addx2	a5, a7, a5
    1657:	a04740        	addx4	a4, a7, a4
    165a:	25dd           	ae_l16si.n	a13, a5, 0
    165c:	44c020        	extui	a12, a2, 0, 5
    165f:	0448           	l32i.n	a4, a4, 0
    1661:	160c           	movi.n	a6, 1
    1663:	11ecb0        	slli	a14, a12, 5
    1666:	418b20        	srli	a8, a2, 11
    1669:	116610        	slli	a6, a6, 15
    166c:	d12ed0        	mul16s	a2, a14, a13
    166f:	446a           	add.n	a4, a4, a6
    1671:	224a           	add.n	a2, a2, a4
    1673:	f81b           	addi.n	a15, a8, 1
    1675:	312020        	srai	a2, a2, 16
    1678:	63fd           	ae_s16i.n	a15, a3, 0
    167a:	f01d           	retw.n

0000167c <BASOP_getTables>:
    167c:	004136        	entry	a1, 32
    167f:	fab261        	l32r	a6, 148 (10390 <SineTable480>)
    1682:	b3a072        	movi	a7, 179
    1685:	1da757        	bge	a7, a5, 16a6 <BASOP_getTables+0x2a>
    1688:	3fa172        	movi	a7, 0x13f
    168b:	30a757        	bge	a7, a5, 16bf <BASOP_getTables+0x43>
    168e:	40a172        	movi	a7, 0x140
    1691:	531577        	beq	a5, a7, 16e8 <BASOP_getTables+0x6c>
    1694:	68a172        	movi	a7, 0x168
    1697:	581577        	beq	a5, a7, 16f3 <BASOP_getTables+0x77>
    169a:	e0a172        	movi	a7, 0x1e0
    169d:	789577        	bne	a5, a7, 1719 <BASOP_getTables+0x9d>
    16a0:	faaf51        	l32r	a5, 15c (119c0 <SineWindow480>)
    16a3:	0011c6        	j	16ee <BASOP_getTables+0x72>

000016a6 <BASOP_getTables+0x2a>:
    16a6:	77a072        	movi	a7, 119
    16a9:	242757        	blt	a7, a5, 16d1 <BASOP_getTables+0x55>
    16ac:	c73c           	movi.n	a7, 60
    16ae:	491577        	beq	a5, a7, 16fb <BASOP_getTables+0x7f>
    16b1:	065c           	movi.n	a6, 80
    16b3:	629567        	bne	a5, a6, 1719 <BASOP_getTables+0x9d>
    16b6:	faaa51        	l32r	a5, 160 (10d50 <SineWindow80>)
    16b9:	faa661        	l32r	a6, 154 (10a40 <SineTable320>)
    16bc:	001446        	j	1711 <BASOP_getTables+0x95>

000016bf <BASOP_getTables+0x43>:
    16bf:	b4a072        	movi	a7, 180
    16c2:	3d1577        	beq	a5, a7, 1703 <BASOP_getTables+0x87>
    16c5:	f0a072        	movi	a7, 240
    16c8:	4d9577        	bne	a5, a7, 1719 <BASOP_getTables+0x9d>
    16cb:	faa351        	l32r	a5, 158 (11290 <SineWindow240>)
    16ce:	000446        	j	16e3 <BASOP_getTables+0x67>

000016d1 <BASOP_getTables+0x55>:
    16d1:	78a072        	movi	a7, 120
    16d4:	361577        	beq	a5, a7, 170e <BASOP_getTables+0x92>
    16d7:	a0a062        	movi	a6, 160
    16da:	3b9567        	bne	a5, a6, 1719 <BASOP_getTables+0x9d>
    16dd:	fa9c51        	l32r	a5, 150 (10fe0 <SineWindow160>)
    16e0:	fa9d61        	l32r	a6, 154 (10a40 <SineTable320>)
    16e3:	470c           	movi.n	a7, 4
    16e5:	000a86        	j	1713 <BASOP_getTables+0x97>

000016e8 <BASOP_getTables+0x6c>:
    16e8:	faa151        	l32r	a5, 16c (11470 <SineWindow320>)
    16eb:	fa9a61        	l32r	a6, 154 (10a40 <SineTable320>)
    16ee:	270c           	movi.n	a7, 2
    16f0:	0007c6        	j	1713 <BASOP_getTables+0x97>

000016f3 <BASOP_getTables+0x77>:
    16f3:	fa9f51        	l32r	a5, 170 (116f0 <SineWindow360>)
    16f6:	270c           	movi.n	a7, 2
    16f8:	000306        	j	1708 <BASOP_getTables+0x8c>

000016fb <BASOP_getTables+0x7f>:
    16fb:	fa9451        	l32r	a5, 14c (10cd0 <SineWindow60>)
    16fe:	071c           	movi.n	a7, 16
    1700:	0003c6        	j	1713 <BASOP_getTables+0x97>

00001703 <BASOP_getTables+0x87>:
    1703:	fa9951        	l32r	a5, 168 (11120 <SineWindow180>)
    1706:	470c           	movi.n	a7, 4
    1708:	fa9b61        	l32r	a6, 174 (10760 <SineTable360>)
    170b:	000106        	j	1713 <BASOP_getTables+0x97>

0000170e <BASOP_getTables+0x92>:
    170e:	fa9551        	l32r	a5, 164 (10df0 <SineWindow120>)
    1711:	870c           	movi.n	a7, 8
    1713:	0369           	s32i.n	a6, a3, 0
    1715:	647d           	ae_s16i.n	a7, a4, 0
    1717:	0259           	s32i.n	a5, a2, 0
    1719:	f01d           	retw.n

0000171b <BASOP_getTables+0x9f>:
    171b:	00000000                                 .....

00001720 <dct_IV_XT>:
    1720:	008136        	entry	a1, 64
    1723:	6139           	s32i.n	a3, a1, 24
    1725:	fa9431        	l32r	a3, 178 (167c <BASOP_getTables>)
    1728:	10c1a2        	addi	a10, a1, 16
    172b:	b1cb           	addi.n	a11, a1, 12
    172d:	c18b           	addi.n	a12, a1, 8
    172f:	05dd           	mov.n	a13, a5
    1731:	5169           	s32i.n	a6, a1, 20
    1733:	216150        	srai	a6, a5, 1
    1736:	0003e0        	callx8	a3
    1739:	06cd           	mov.n	a12, a6
    173b:	a06520        	addx4	a6, a5, a2
    173e:	f8c632        	addi	a3, a6, -8
    1741:	fcc672        	addi	a7, a6, -4
    1744:	5a25a6        	blti	a5, 2, 17a2 <dct_IV_XT+0x82>
    1747:	4188           	l32i.n	a8, a1, 16
    1749:	079d           	mov.n	a9, a7
    174b:	bc1b           	addi.n	a11, a12, 1
    174d:	02ad           	mov.n	a10, a2
    174f:	601904        	ae_lq32f.iu	aeq0, a9, 0
    1752:	605a04        	ae_lq32f.iu	aeq1, a10, 0
    1755:	41b1b0        	srli	a11, a11, 1
    1758:	fc24fe944f 	{ ae_slaasq56s	aeq1, aeq1, a4; nop }
    175d:	fc24fe840f 	{ ae_slaasq56s	aeq0, aeq0, a4; nop }
    1762:	448804        	ae_lp16x2f.iu	aep0, a8, 0
    1765:	398b76        	loop	a11, 17a2 <dct_IV_XT+0x82>
    1768:	2500bd6a1f 	{ ae_lq32f.i	aeq3, a10, 4; ae_mulzaaq32sp16s.lh	aeq2, aeq0, aep0, aeq1, aep0 }
    176d:	84012d981f 	{ ae_lp16x2f.iu	aep1, a8, 4; ae_mulzsaq32sp16s.lh	aeq0, aeq1, aep0, aeq0, aep0 }
    1772:	622a04        	ae_sq32f.i	aeq2, a10, 0
    1775:	6089f4        	ae_lq32f.i	aeq2, a9, -4
    1778:	fc24feb4cf 	{ ae_slaasq56s	aeq3, aeq3, a4; nop }
    177d:	fc24fea44f 	{ ae_slaasq56s	aeq1, aeq2, a4; nop }
    1782:	5725b98a1f 	{ ae_sq32f.i	aeq0, a10, 4; ae_mulzasq32sp16s.lh	aeq2, aeq3, aep1, aeq1, aep1 }
    1787:	2427ed881f 	{ ae_lp16x2f.iu	aep0, a8, 4; ae_mulzaaq32sp16s.lh	aeq1, aeq1, aep1, aeq3, aep1 }
    178c:	622904        	ae_sq32f.i	aeq2, a9, 0
    178f:	6219f4        	ae_sq32f.i	aeq1, a9, -4
    1792:	6019e4        	ae_lq32f.iu	aeq0, a9, -8
    1795:	60da24        	ae_lq32f.iu	aeq3, a10, 8
    1798:	fc24fe840f 	{ ae_slaasq56s	aeq0, aeq0, a4; nop }
    179d:	fc24feb44f 	{ ae_slaasq56s	aeq1, aeq3, a4; nop }

000017a2 <dct_IV_XT+0x82>:
    17a2:	fa7641        	l32r	a4, 17c (3588 <BASOP_cfft>)
    17a5:	61e8           	l32i.n	a14, a1, 24
    17a7:	51f8           	l32i.n	a15, a1, 20
    17a9:	b24b           	addi.n	a11, a2, 4
    17ab:	2d0c           	movi.n	a13, 2
    17ad:	02ad           	mov.n	a10, a2
    17af:	71c9           	s32i.n	a12, a1, 28
    17b1:	0004e0        	callx8	a4
    17b4:	049142        	l16si	a4, a1, 8
    17b7:	3188           	l32i.n	a8, a1, 12
    17b9:	12a8           	l32i.n	a10, a2, 4
    17bb:	0398           	l32i.n	a9, a3, 0
    17bd:	a08480        	addx4	a8, a4, a8
    17c0:	28cd           	ae_l16si.n	a12, a8, 0
    17c2:	13b8           	l32i.n	a11, a3, 4
    17c4:	38dd           	ae_l16si.n	a13, a8, 2
    17c6:	21a1a0        	srai	a10, a10, 1
    17c9:	60a0a0        	neg	a10, a10
    17cc:	13a9           	s32i.n	a10, a3, 4
    17ce:	8239c0        	mull	a3, a9, a12
    17d1:	82ebd0        	mull	a14, a11, a13
    17d4:	5149           	s32i.n	a4, a1, 20
    17d6:	8249d0        	mull	a4, a9, a13
    17d9:	b2a9c0        	mulsh	a10, a9, a12
    17dc:	b2fbd0        	mulsh	a15, a11, a13
    17df:	b299d0        	mulsh	a9, a9, a13
    17e2:	82dbc0        	mull	a13, a11, a12
    17e5:	b2bbc0        	mulsh	a11, a11, a12
    17e8:	413f30        	srli	a3, a3, 15
    17eb:	41efe0        	srli	a14, a14, 15
    17ee:	414f40        	srli	a4, a4, 15
    17f1:	41dfd0        	srli	a13, a13, 15
    17f4:	1bea30        	depbits	a3, a10, 17, 15
    17f7:	1befe0        	depbits	a14, a15, 17, 15
    17fa:	1be940        	depbits	a4, a9, 17, 15
    17fd:	0251c2        	s16i	a12, a1, 4
    1800:	02c8           	l32i.n	a12, a2, 0
    1802:	1bebd0        	depbits	a13, a11, 17, 15
    1805:	213130        	srai	a3, a3, 1
    1808:	21e1e0        	srai	a14, a14, 1
    180b:	214140        	srai	a4, a4, 1
    180e:	21f1d0        	srai	a15, a13, 1
    1811:	c033e0        	sub	a3, a3, a14
    1814:	4f4a           	add.n	a4, a15, a4
    1816:	21a1c0        	srai	a10, a12, 1
    1819:	360334        	ae_cvtq48a32s	aeq0, a3
    181c:	364434        	ae_cvtq48a32s	aeq1, a4
    181f:	02a9           	s32i.n	a10, a2, 0
    1821:	620214        	ae_sq32f.i	aeq0, a2, 4
    1824:	6216e4        	ae_sq32f.i	aeq1, a6, -8
    1827:	601224        	ae_lq32f.iu	aeq0, a2, 8
    182a:	448804        	ae_lp16x2f.iu	aep0, a8, 0
    182d:	604214        	ae_lq32f.i	aeq1, a2, 4
    1830:	3995a6        	blti	a5, 10, 186d <dct_IV_XT+0x14d>
    1833:	7138           	l32i.n	a3, a1, 28
    1835:	51f8           	l32i.n	a15, a1, 20
    1837:	331b           	addi.n	a3, a3, 1
    1839:	213130        	srai	a3, a3, 1
    183c:	ffc332        	addi	a3, a3, -1
    183f:	ffc342        	addi	a4, a3, -1
    1842:	113fe0        	slli	a3, a15, 2
    1845:	248476        	loop	a4, 186d <dct_IV_XT+0x14d>
    1848:	c08044        	ae_mulzaaq32sp16s.lh	aeq2, aeq1, aep0, aeq0, aep0
    184b:	54009b883f 	{ ae_lp16x2f.xu	aep0, a8, a3; ae_mulzasq32sp16s.lh	aeq0, aeq0, aep0, aeq1, aep0 }
    1850:	622204        	ae_sq32f.i	aeq2, a2, 0
    1853:	6057e4        	ae_lq32f.iu	aeq1, a7, -8
    1856:	6087f4        	ae_lq32f.i	aeq2, a7, -4
    1859:	850379870f 	{ ae_sq32f.i	aeq0, a7, 0; ae_mulzsaq32sp16s.lh	aeq3, aeq1, aep0, aeq2, aep0 }
    185e:	c08094        	ae_mulzaaq32sp16s.lh	aeq2, aeq2, aep0, aeq1, aep0
    1861:	623214        	ae_sq32f.i	aeq3, a2, 4
    1864:	6227f4        	ae_sq32f.i	aeq2, a7, -4
    1867:	601224        	ae_lq32f.iu	aeq0, a2, 8
    186a:	604214        	ae_lq32f.i	aeq1, a2, 4
    186d:	250100823f 	{ movi	a3, 130; ae_mulzaaq32sp16s.lh	aeq2, aeq1, aep0, aeq0, aep0 }
    1872:	8400f0615e 	{ l32i	a5, a1, 24; ae_mulzsaq32sp16s.lh	aeq1, aeq0, aep0, aeq1, aep0 }
    1877:	5ad332        	addmi	a3, a3, 0x5a00
    187a:	fc14b9a20f 	{ ae_sq32f.i	aeq2, a2, 0; ae_negq56	aeq0, aeq1 }
    187f:	60d7e4        	ae_lq32f.iu	aeq3, a7, -8
    1882:	025132        	s16i	a3, a1, 4
    1885:	25fd           	ae_l16si.n	a15, a5, 0
    1887:	407124        	ae_lp16f.i	aep7, a1, 4
    188a:	fabd7d47ff 	{ ae_lq32f.i	aeq2, a7, -4; ae_mulq32sp16s.l	aeq1, aeq3, aep7 }
    188f:	fbbc002f3e 	{ addi	a3, a15, 2; ae_mulq32sp16s.l	aeq2, aeq2, aep7 }
    1894:	653d           	ae_s16i.n	a3, a5, 0
    1896:	fb7639870f 	{ ae_sq32f.i	aeq0, a7, 0; ae_addq56	aeq3, aeq2, aeq1 }
    189b:	f936f9b7ff 	{ ae_sq32f.i	aeq3, a7, -4; ae_subq56	aeq1, aeq2, aeq1 }
    18a0:	621214        	ae_sq32f.i	aeq1, a2, 4
    18a3:	f01d           	retw.n

000018a5 <dct_IV_XT+0x185>:
    18a5:	000000                                        ...

000018a8 <dct_IV>:
    18a8:	00e136        	entry	a1, 112
    18ab:	fa3371        	l32r	a7, 178 (167c <BASOP_getTables>)
    18ae:	21f140        	srai	a15, a4, 1
    18b1:	14c1a2        	addi	a10, a1, 20
    18b4:	10c1b2        	addi	a11, a1, 16
    18b7:	c1cb           	addi.n	a12, a1, 12
    18b9:	04dd           	mov.n	a13, a4
    18bb:	c159           	s32i.n	a5, a1, 48
    18bd:	b139           	s32i.n	a3, a1, 44
    18bf:	61f9           	s32i.n	a15, a1, 24
    18c1:	0007e0        	callx8	a7
    18c4:	a07420        	addx4	a7, a4, a2
    18c7:	8129           	s32i.n	a2, a1, 32
    18c9:	f8c722        	addi	a2, a7, -8
    18cc:	7129           	s32i.n	a2, a1, 28
    18ce:	d149           	s32i.n	a4, a1, 52
    18d0:	0224e6        	bgei	a4, 2, 18d6 <dct_IV+0x2e>
    18d3:	003686        	j	19b1 <dct_IV+0x109>
    18d6:	6128           	l32i.n	a2, a1, 24
    18d8:	5188           	l32i.n	a8, a1, 20
    18da:	81a8           	l32i.n	a10, a1, 32
    18dc:	921b           	addi.n	a9, a2, 1
    18de:	41b190        	srli	a11, a9, 1
    18e1:	7198           	l32i.n	a9, a1, 28
    18e3:	ca8b76        	loop	a11, 19b1 <dct_IV+0x109>
    18e6:	0ad8           	l32i.n	a13, a10, 0
    18e8:	38ed           	ae_l16si.n	a14, a8, 2
    18ea:	19b8           	l32i.n	a11, a9, 4
    18ec:	28cd           	ae_l16si.n	a12, a8, 0
    18ee:	824ed0        	mull	a4, a14, a13
    18f1:	09f8           	l32i.n	a15, a9, 0
    18f3:	029862        	l16si	a6, a8, 4
    18f6:	039872        	l16si	a7, a8, 6
    18f9:	136142        	s32i	a4, a1, 76
    18fc:	b24ed0        	mulsh	a4, a14, a13
    18ff:	1a38           	l32i.n	a3, a10, 4
    1901:	b22cb0        	mulsh	a2, a12, a11
    1904:	126142        	s32i	a4, a1, 72
    1907:	824eb0        	mull	a4, a14, a11
    190a:	9129           	s32i.n	a2, a1, 36
    190c:	116142        	s32i	a4, a1, 68
    190f:	b2eeb0        	mulsh	a14, a14, a11
    1912:	b246f0        	mulsh	a4, a6, a15
    1915:	825cb0        	mull	a5, a12, a11
    1918:	1061e2        	s32i	a14, a1, 64
    191b:	82edc0        	mull	a14, a13, a12
    191e:	b2cdc0        	mulsh	a12, a13, a12
    1921:	e149           	s32i.n	a4, a1, 56
    1923:	824730        	mull	a4, a7, a3
    1926:	822360        	mull	a2, a3, a6
    1929:	82d6f0        	mull	a13, a6, a15
    192c:	82b7f0        	mull	a11, a7, a15
    192f:	b2f7f0        	mulsh	a15, a7, a15
    1932:	b26360        	mulsh	a6, a3, a6
    1935:	b27730        	mulsh	a7, a7, a3
    1938:	9138           	l32i.n	a3, a1, 36
    193a:	415f50        	srli	a5, a5, 15
    193d:	f169           	s32i.n	a6, a1, 60
    193f:	132162        	l32i	a6, a1, 76
    1942:	1be350        	depbits	a5, a3, 17, 15
    1945:	122132        	l32i	a3, a1, 72
    1948:	41efe0        	srli	a14, a14, 15
    194b:	1bece0        	depbits	a14, a12, 17, 15
    194e:	416f60        	srli	a6, a6, 15
    1951:	41cfd0        	srli	a12, a13, 15
    1954:	e1d8           	l32i.n	a13, a1, 56
    1956:	1be360        	depbits	a6, a3, 17, 15
    1959:	112132        	l32i	a3, a1, 68
    195c:	414f40        	srli	a4, a4, 15
    195f:	a129           	s32i.n	a2, a1, 40
    1961:	1bedc0        	depbits	a12, a13, 17, 15
    1964:	1be740        	depbits	a4, a7, 17, 15
    1967:	417fb0        	srli	a7, a11, 15
    196a:	a1d8           	l32i.n	a13, a1, 40
    196c:	1bef70        	depbits	a7, a15, 17, 15
    196f:	412f30        	srli	a2, a3, 15
    1972:	102132        	l32i	a3, a1, 64
    1975:	f1f8           	l32i.n	a15, a1, 60
    1977:	41bfd0        	srli	a11, a13, 15
    197a:	1be320        	depbits	a2, a3, 17, 15
    197d:	1befb0        	depbits	a11, a15, 17, 15
    1980:	215150        	srai	a5, a5, 1
    1983:	21d160        	srai	a13, a6, 1
    1986:	212120        	srai	a2, a2, 1
    1989:	21e1e0        	srai	a14, a14, 1
    198c:	21c1c0        	srai	a12, a12, 1
    198f:	214140        	srai	a4, a4, 1
    1992:	217170        	srai	a7, a7, 1
    1995:	21b1b0        	srai	a11, a11, 1
    1998:	c035d0        	sub	a3, a5, a13
    199b:	22ea           	add.n	a2, a2, a14
    199d:	f7ba           	add.n	a15, a7, a11
    199f:	c044c0        	sub	a4, a4, a12
    19a2:	888b           	addi.n	a8, a8, 8
    19a4:	0a29           	s32i.n	a2, a10, 0
    19a6:	1a39           	s32i.n	a3, a10, 4
    19a8:	09f9           	s32i.n	a15, a9, 0
    19aa:	1949           	s32i.n	a4, a9, 4
    19ac:	f8c992        	addi	a9, a9, -8
    19af:	aa8b           	addi.n	a10, a10, 8

000019b1 <dct_IV+0x109>:
    19b1:	8158           	l32i.n	a5, a1, 32
    19b3:	f9f221        	l32r	a2, 17c (3588 <BASOP_cfft>)
    19b6:	61c8           	l32i.n	a12, a1, 24
    19b8:	b1e8           	l32i.n	a14, a1, 44
    19ba:	c1f8           	l32i.n	a15, a1, 48
    19bc:	b54b           	addi.n	a11, a5, 4
    19be:	2d0c           	movi.n	a13, 2
    19c0:	05ad           	mov.n	a10, a5
    19c2:	0002e0        	callx8	a2
    19c5:	0691c2        	l16si	a12, a1, 12
    19c8:	41f8           	l32i.n	a15, a1, 16
    19ca:	71e8           	l32i.n	a14, a1, 28
    19cc:	1528           	l32i.n	a2, a5, 4
    19ce:	a04cf0        	addx4	a4, a12, a15
    19d1:	246d           	ae_l16si.n	a6, a4, 0
    19d3:	0e88           	l32i.n	a8, a14, 0
    19d5:	1e38           	l32i.n	a3, a14, 4
    19d7:	344d           	ae_l16si.n	a4, a4, 2
    19d9:	827680        	mull	a7, a6, a8
    19dc:	212120        	srai	a2, a2, 1
    19df:	b29680        	mulsh	a9, a6, a8
    19e2:	82a430        	mull	a10, a4, a3
    19e5:	417f70        	srli	a7, a7, 15
    19e8:	602020        	neg	a2, a2
    19eb:	1be970        	depbits	a7, a9, 17, 15
    19ee:	829480        	mull	a9, a4, a8
    19f1:	1e29           	s32i.n	a2, a14, 4
    19f3:	b2b430        	mulsh	a11, a4, a3
    19f6:	82d360        	mull	a13, a3, a6
    19f9:	0528           	l32i.n	a2, a5, 0
    19fb:	41afa0        	srli	a10, a10, 15
    19fe:	b28480        	mulsh	a8, a4, a8
    1a01:	b23360        	mulsh	a3, a3, a6
    1a04:	419f90        	srli	a9, a9, 15
    1a07:	1beba0        	depbits	a10, a11, 17, 15
    1a0a:	41bfd0        	srli	a11, a13, 15
    1a0d:	1be890        	depbits	a9, a8, 17, 15
    1a10:	1be3b0        	depbits	a11, a3, 17, 15
    1a13:	212120        	srai	a2, a2, 1
    1a16:	2181a0        	srai	a8, a10, 1
    1a19:	217170        	srai	a7, a7, 1
    1a1c:	21a190        	srai	a10, a9, 1
    1a1f:	21d1b0        	srai	a13, a11, 1
    1a22:	0529           	s32i.n	a2, a5, 0
    1a24:	c02780        	sub	a2, a7, a8
    1a27:	7ada           	add.n	a7, a10, a13
    1a29:	1529           	s32i.n	a2, a5, 4
    1a2b:	0e79           	s32i.n	a7, a14, 0
    1a2d:	3588           	l32i.n	a8, a5, 12
    1a2f:	2538           	l32i.n	a3, a5, 8
    1a31:	827680        	mull	a7, a6, a8
    1a34:	82a430        	mull	a10, a4, a3
    1a37:	82d480        	mull	a13, a4, a8
    1a3a:	b29680        	mulsh	a9, a6, a8
    1a3d:	b22480        	mulsh	a2, a4, a8
    1a40:	b2b430        	mulsh	a11, a4, a3
    1a43:	824360        	mull	a4, a3, a6
    1a46:	417f70        	srli	a7, a7, 15
    1a49:	41afa0        	srli	a10, a10, 15
    1a4c:	41dfd0        	srli	a13, a13, 15
    1a4f:	1be970        	depbits	a7, a9, 17, 15
    1a52:	b23360        	mulsh	a3, a3, a6
    1a55:	1beba0        	depbits	a10, a11, 17, 15
    1a58:	1be2d0        	depbits	a13, a2, 17, 15
    1a5b:	414f40        	srli	a4, a4, 15
    1a5e:	216170        	srai	a6, a7, 1
    1a61:	2171a0        	srai	a7, a10, 1
    1a64:	21a1d0        	srai	a10, a13, 1
    1a67:	d1d8           	l32i.n	a13, a1, 52
    1a69:	1be340        	depbits	a4, a3, 17, 15
    1a6c:	214140        	srai	a4, a4, 1
    1a6f:	858b           	addi.n	a8, a5, 8
    1a71:	f8ce92        	addi	a9, a14, -8
    1a74:	c0b670        	sub	a11, a6, a7
    1a77:	aa4a           	add.n	a10, a10, a4
    1a79:	029de6        	bgei	a13, 10, 1a7f <dct_IV+0x1d7>
    1a7c:	0036c6        	j	1b5b <dct_IV+0x2b3>
    1a7f:	6128           	l32i.n	a2, a1, 24
    1a81:	9c3d           	ae_zext16	a3, a12
    1a83:	060c           	movi.n	a6, 0
    1a85:	221b           	addi.n	a2, a2, 1
    1a87:	212120        	srai	a2, a2, 1
    1a8a:	220b           	addi.n	a2, a2, -1
    1a8c:	220b           	addi.n	a2, a2, -1
    1a8e:	9199           	s32i.n	a9, a1, 36
    1a90:	09cd           	mov.n	a12, a9
    1a92:	d33a           	add.n	a13, a3, a3
    1a94:	a139           	s32i.n	a3, a1, 40
    1a96:	ad8276        	loop	a2, 1b47 <dct_IV+0x29f>
    1a99:	8d2d           	ae_sext16	a2, a13
    1a9b:	6070b0        	neg	a7, a11
    1a9e:	a022f0        	addx4	a2, a2, a15
    1aa1:	1c38           	l32i.n	a3, a12, 4
    1aa3:	1c79           	s32i.n	a7, a12, 4
    1aa5:	327d           	ae_l16si.n	a7, a2, 2
    1aa7:	222d           	ae_l16si.n	a2, a2, 0
    1aa9:	0ce8           	l32i.n	a14, a12, 0
    1aab:	0f4d           	mov.n	a4, a15
    1aad:	825320        	mull	a5, a3, a2
    1ab0:	82f730        	mull	a15, a7, a3
    1ab3:	b29730        	mulsh	a9, a7, a3
    1ab6:	b23320        	mulsh	a3, a3, a2
    1ab9:	415f50        	srli	a5, a5, 15
    1abc:	1be350        	depbits	a5, a3, 17, 15
    1abf:	8232e0        	mull	a3, a2, a14
    1ac2:	08a9           	s32i.n	a10, a8, 0
    1ac4:	82a7e0        	mull	a10, a7, a14
    1ac7:	b2b7e0        	mulsh	a11, a7, a14
    1aca:	b2e2e0        	mulsh	a14, a2, a14
    1acd:	413f30        	srli	a3, a3, 15
    1ad0:	41afa0        	srli	a10, a10, 15
    1ad3:	41fff0        	srli	a15, a15, 15
    1ad6:	1be9f0        	depbits	a15, a9, 17, 15
    1ad9:	1beba0        	depbits	a10, a11, 17, 15
    1adc:	1bee30        	depbits	a3, a14, 17, 15
    1adf:	213130        	srai	a3, a3, 1
    1ae2:	2191f0        	srai	a9, a15, 1
    1ae5:	21a1a0        	srai	a10, a10, 1
    1ae8:	215150        	srai	a5, a5, 1
    1aeb:	c03390        	sub	a3, a3, a9
    1aee:	5a5a           	add.n	a5, a10, a5
    1af0:	1839           	s32i.n	a3, a8, 4
    1af2:	0c59           	s32i.n	a5, a12, 0
    1af4:	38f8           	l32i.n	a15, a8, 12
    1af6:	2858           	l32i.n	a5, a8, 8
    1af8:	f8c662        	addi	a6, a6, -8
    1afb:	8292f0        	mull	a9, a2, a15
    1afe:	b2a2f0        	mulsh	a10, a2, a15
    1b01:	82b7f0        	mull	a11, a7, a15
    1b04:	b237f0        	mulsh	a3, a7, a15
    1b07:	82f520        	mull	a15, a5, a2
    1b0a:	82e750        	mull	a14, a7, a5
    1b0d:	b22520        	mulsh	a2, a5, a2
    1b10:	b27750        	mulsh	a7, a7, a5
    1b13:	415ff0        	srli	a5, a15, 15
    1b16:	1be250        	depbits	a5, a2, 17, 15
    1b19:	412fe0        	srli	a2, a14, 15
    1b1c:	41efb0        	srli	a14, a11, 15
    1b1f:	1be3e0        	depbits	a14, a3, 17, 15
    1b22:	04fd           	mov.n	a15, a4
    1b24:	414f90        	srli	a4, a9, 15
    1b27:	2191e0        	srai	a9, a14, 1
    1b2a:	a1e8           	l32i.n	a14, a1, 40
    1b2c:	1be720        	depbits	a2, a7, 17, 15
    1b2f:	1bea40        	depbits	a4, a10, 17, 15
    1b32:	21a150        	srai	a10, a5, 1
    1b35:	213140        	srai	a3, a4, 1
    1b38:	212120        	srai	a2, a2, 1
    1b3b:	c0b320        	sub	a11, a3, a2
    1b3e:	a9aa           	add.n	a10, a9, a10
    1b40:	ddea           	add.n	a13, a13, a14
    1b42:	f8ccc2        	addi	a12, a12, -8
    1b45:	888b           	addi.n	a8, a8, 8

00001b47 <dct_IV+0x29f>:
    1b47:	8128           	l32i.n	a2, a1, 32
    1b49:	71e8           	l32i.n	a14, a1, 28
    1b4b:	9198           	l32i.n	a9, a1, 36
    1b4d:	c03260        	sub	a3, a2, a6
    1b50:	ee6a           	add.n	a14, a14, a6
    1b52:	996a           	add.n	a9, a9, a6
    1b54:	23cb           	addi.n	a2, a3, 12
    1b56:	838b           	addi.n	a8, a3, 8
    1b58:	000046        	j	1b5d <dct_IV+0x2b5>

00001b5b <dct_IV+0x2b3>:
    1b5b:	25cb           	addi.n	a2, a5, 12
    1b5d:	b1c8           	l32i.n	a12, a1, 44
    1b5f:	fcce52        	addi	a5, a14, -4
    1b62:	0938           	l32i.n	a3, a9, 0
    1b64:	2c6d           	ae_l16si.n	a6, a12, 0
    1b66:	05f8           	l32i.n	a15, a5, 0
    1b68:	82a042        	movi	a4, 130
    1b6b:	662b           	addi.n	a6, a6, 2
    1b6d:	5ad442        	addmi	a4, a4, 0x5a00
    1b70:	6070b0        	neg	a7, a11
    1b73:	6c6d           	ae_s16i.n	a6, a12, 0
    1b75:	82b340        	mull	a11, a3, a4
    1b78:	82cf40        	mull	a12, a15, a4
    1b7b:	b23340        	mulsh	a3, a3, a4
    1b7e:	b24f40        	mulsh	a4, a15, a4
    1b81:	416fb0        	srli	a6, a11, 15
    1b84:	41efc0        	srli	a14, a12, 15
    1b87:	1be360        	depbits	a6, a3, 17, 15
    1b8a:	1be4e0        	depbits	a14, a4, 17, 15
    1b8d:	216160        	srai	a6, a6, 1
    1b90:	2131e0        	srai	a3, a14, 1
    1b93:	f36a           	add.n	a15, a3, a6
    1b95:	c03630        	sub	a3, a6, a3
    1b98:	09f9           	s32i.n	a15, a9, 0
    1b9a:	0239           	s32i.n	a3, a2, 0
    1b9c:	0579           	s32i.n	a7, a5, 0
    1b9e:	08a9           	s32i.n	a10, a8, 0
    1ba0:	f01d           	retw.n

00001ba2 <dct_IV+0x2fa>:
    1ba2:	00000000                                 ......

00001ba8 <processSnsInterpolateScf_fx>:
    1ba8:	004136        	entry	a1, 32
    1bab:	190c           	movi.n	a9, 1
    1bad:	180c           	movi.n	a8, 1
    1baf:	119940        	slli	a9, a9, 12
    1bb2:	60a070        	neg	a10, a7
    1bb5:	118830        	slli	a8, a8, 13
    1bb8:	301994        	ae_cvtp24a16x2.ll	aep1, a9, a9
    1bbb:	2490a0        	extui	a9, a10, 0, 3
    1bbe:	300884        	ae_cvtp24a16x2.ll	aep0, a8, a8
    1bc1:	22bd           	ae_l16si.n	a11, a2, 0
    1bc3:	879a           	add.n	a8, a7, a9
    1bc5:	68bd           	ae_s16i.n	a11, a8, 0
    1bc7:	22fd           	ae_l16si.n	a15, a2, 0
    1bc9:	fc0c           	movi.n	a12, 15
    1bcb:	78fd           	ae_s16i.n	a15, a8, 2
    1bcd:	02ad           	mov.n	a10, a2
    1bcf:	06c8b2        	addi	a11, a8, 6
    1bd2:	40aa04        	ae_lp16f.iu	aep2, a10, 0
    1bd5:	328c76        	loop	a12, 1c0b <processSnsInterpolateScf_fx+0x63>
    1bd8:	403a14        	ae_lp16f.i	aep3, a10, 2
    1bdb:	dd4ea002ce 	{ l16si	a12, a2, 0; ae_subsp24s	aep2, aep3, aep2 }
    1be0:	ea298febee 	{ addi	a14, a11, -2; ae_mulfp24s.ll	aeq0, aep2, aep1 }
    1be5:	eb09c0222e 	{ addi	a2, a2, 2; ae_mulfp24s.ll	aeq3, aep2, aep0 }
    1bea:	1b8f74        	ae_roundsp16q48asym	aep7, aeq0
    1bed:	f97bbf7d6f 	{ ae_trunca16p24s.l	a13, aep7; ae_roundsp16q48asym	aep2, aeq3 }
    1bf2:	dcda           	add.n	a13, a12, a13
    1bf4:	362c24        	ae_trunca16p24s.l	a12, aep2
    1bf7:	40aa14        	ae_lp16f.iu	aep2, a10, 2
    1bfa:	6edd           	ae_s16i.n	a13, a14, 0
    1bfc:	ddca           	add.n	a13, a13, a12
    1bfe:	6bdd           	ae_s16i.n	a13, a11, 0
    1c00:	ddca           	add.n	a13, a13, a12
    1c02:	7bdd           	ae_s16i.n	a13, a11, 2
    1c04:	ddca           	add.n	a13, a13, a12
    1c06:	025bd2        	s16i	a13, a11, 4
    1c09:	bb8b           	addi.n	a11, a11, 8

00001c0b <processSnsInterpolateScf_fx+0x63>:
    1c0b:	3d9822        	l16si	a2, a8, 122
    1c0e:	c0c6a2        	addi	a10, a6, -64
    1c11:	8aad           	ae_sext16	a10, a10
    1c13:	22ca           	add.n	a2, a2, a12
    1c15:	3e5822        	s16i	a2, a8, 124
    1c18:	22ca           	add.n	a2, a2, a12
    1c1a:	3f5822        	s16i	a2, a8, 126
    1c1d:	04bad6        	bgez	a10, 1c6c <processSnsInterpolateScf_fx+0xc4>
    1c20:	024c           	movi.n	a2, 64
    1c22:	c02260        	sub	a2, a2, a6
    1c25:	822d           	ae_sext16	a2, a2
    1c27:	2212a6        	blti	a2, 1, 1c4d <processSnsInterpolateScf_fx+0xa5>
    1c2a:	92cd           	ae_zext16	a12, a2
    1c2c:	08ad           	mov.n	a10, a8
    1c2e:	20b880        	or	a11, a8, a8
    1c31:	158c76        	loop	a12, 1c4a <processSnsInterpolateScf_fx+0xa2>
    1c34:	2acd           	ae_l16si.n	a12, a10, 0
    1c36:	3add           	ae_l16si.n	a13, a10, 2
    1c38:	aa4b           	addi.n	a10, a10, 4
    1c3a:	cdca           	add.n	a12, a13, a12
    1c3c:	cc1b           	addi.n	a12, a12, 1
    1c3e:	11cc10        	slli	a12, a12, 15
    1c41:	31c0c0        	srai	a12, a12, 16
    1c44:	6bcd           	ae_s16i.n	a12, a11, 0
    1c46:	02cd           	mov.n	a12, a2
    1c48:	bb2b           	addi.n	a11, a11, 2
    1c4a:	000046        	j	1c4f <processSnsInterpolateScf_fx+0xa7>

00001c4d <processSnsInterpolateScf_fx+0xa5>:
    1c4d:	0c0c           	movi.n	a12, 0
    1c4f:	19ac67        	bge	a12, a6, 1c6c <processSnsInterpolateScf_fx+0xc4>
    1c52:	b2ca           	add.n	a11, a2, a12
    1c54:	90ac90        	addx2	a10, a12, a9
    1c57:	c0e6c0        	sub	a14, a6, a12
    1c5a:	90fb90        	addx2	a15, a11, a9
    1c5d:	27aa           	add.n	a2, a7, a10
    1c5f:	77fa           	add.n	a7, a7, a15
    1c61:	078e76        	loop	a14, 1c6c <processSnsInterpolateScf_fx+0xc4>
    1c64:	279d           	ae_l16si.n	a9, a7, 0
    1c66:	629d           	ae_s16i.n	a9, a2, 0
    1c68:	772b           	addi.n	a7, a7, 2
    1c6a:	222b           	addi.n	a2, a2, 2

00001c6c <processSnsInterpolateScf_fx+0xc4>:
    1c6c:	121566        	bnei	a5, 1, 1c82 <processSnsInterpolateScf_fx+0xda>
    1c6f:	0f16a6        	blti	a6, 1, 1c82 <processSnsInterpolateScf_fx+0xda>
    1c72:	965d           	ae_zext16	a5, a6
    1c74:	082d           	mov.n	a2, a8
    1c76:	088576        	loop	a5, 1c82 <processSnsInterpolateScf_fx+0xda>
    1c79:	225d           	ae_l16si.n	a5, a2, 0
    1c7b:	605050        	neg	a5, a5
    1c7e:	625d           	ae_s16i.n	a5, a2, 0
    1c80:	222b           	addi.n	a2, a2, 2
    1c82:	4016a6        	blti	a6, 1, 1cc6 <processSnsInterpolateScf_fx+0x11e>
    1c85:	f92e21        	l32r	a2, 140 (13c90 <InvLog2_16_table1>)
    1c88:	f92f51        	l32r	a5, 144 (13d90 <InvLog2_16_table2>)
    1c8b:	967d           	ae_zext16	a7, a6
    1c8d:	1f0c           	movi.n	a15, 1
    1c8f:	116f10        	slli	a6, a15, 15
    1c92:	308776        	loop	a7, 1cc6 <processSnsInterpolateScf_fx+0x11e>
    1c95:	287d           	ae_l16si.n	a7, a8, 0
    1c97:	549570        	extui	a9, a7, 5, 6
    1c9a:	90a950        	addx2	a10, a9, a5
    1c9d:	2aad           	ae_l16si.n	a10, a10, 0
    1c9f:	447070        	extui	a7, a7, 0, 5
    1ca2:	a09920        	addx4	a9, a9, a2
    1ca5:	1177c0        	slli	a7, a7, 4
    1ca8:	0998           	l32i.n	a9, a9, 0
    1caa:	d17a70        	mul16s	a7, a10, a7
    1cad:	907790        	addx2	a7, a7, a9
    1cb0:	776a           	add.n	a7, a7, a6
    1cb2:	317070        	srai	a7, a7, 16
    1cb5:	637d           	ae_s16i.n	a7, a3, 0
    1cb7:	287d           	ae_l16si.n	a7, a8, 0
    1cb9:	332b           	addi.n	a3, a3, 2
    1cbb:	882b           	addi.n	a8, a8, 2
    1cbd:	417b70        	srli	a7, a7, 11
    1cc0:	771b           	addi.n	a7, a7, 1
    1cc2:	647d           	ae_s16i.n	a7, a4, 0
    1cc4:	442b           	addi.n	a4, a4, 2
    1cc6:	f01d           	retw.n

00001cc8 <processAriEncoder_fx>:
    1cc8:	010136        	entry	a1, 128
    1ccb:	202182        	l32i	a8, a1, 128
    1cce:	f47c           	movi.n	a4, -1
    1cd0:	fd7c           	movi.n	a13, -1
    1cd2:	030c           	movi.n	a3, 0
    1cd4:	f169           	s32i.n	a6, a1, 60
    1cd6:	414840        	srli	a4, a4, 8
    1cd9:	f460d0        	extui	a6, a13, 0, 16
    1cdc:	2621e2        	l32i	a14, a1, 152
    1cdf:	2221f2        	l32i	a15, a1, 136
    1ce2:	146152        	s32i	a5, a1, 80
    1ce5:	085132        	s16i	a3, a1, 16
    1ce8:	5139           	s32i.n	a3, a1, 20
    1cea:	1661e2        	s32i	a14, a1, 88
    1ced:	116192        	s32i	a9, a1, 68
    1cf0:	c1f9           	s32i.n	a15, a1, 48
    1cf2:	105132        	s16i	a3, a1, 32
    1cf5:	6149           	s32i.n	a4, a1, 24
    1cf7:	7169           	s32i.n	a6, a1, 28
    1cf9:	0218e6        	bgei	a8, 1, 1cff <processAriEncoder_fx+0x37>
    1cfc:	002446        	j	1d91 <processAriEncoder_fx+0xc9>
    1cff:	272132        	l32i	a3, a1, 156
    1d02:	f91ff1        	l32r	a15, 180 (18980 <ac_tns_order_cumfreq>)
    1d05:	f91f51        	l32r	a5, 184 (18960 <ac_tns_order_freq>)
    1d08:	112142        	l32i	a4, a1, 68
    1d0b:	212142        	l32i	a4, a1, 132
    1d0e:	1133c0        	slli	a3, a3, 4
    1d11:	a149           	s32i.n	a4, a1, 40
    1d13:	4f3a           	add.n	a4, a15, a3
    1d15:	353a           	add.n	a3, a5, a3
    1d17:	d149           	s32i.n	a4, a1, 52
    1d19:	e139           	s32i.n	a3, a1, 56

00001d1b <processAriEncoder_fx+0x53>:
    1d1b:	273d           	ae_l16si.n	a3, a7, 0
    1d1d:	b189           	s32i.n	a8, a1, 44
    1d1f:	d148           	l32i.n	a4, a1, 52
    1d21:	5c13a6        	blti	a3, 1, 1d81 <processAriEncoder_fx+0xb9>
    1d24:	933d           	ae_zext16	a3, a3
    1d26:	e158           	l32i.n	a5, a1, 56
    1d28:	330b           	addi.n	a3, a3, -1
    1d2a:	1133f0        	slli	a3, a3, 1
    1d2d:	443a           	add.n	a4, a4, a3
    1d2f:	353a           	add.n	a3, a5, a3
    1d31:	23ed           	ae_l16si.n	a14, a3, 0
    1d33:	24dd           	ae_l16si.n	a13, a4, 0
    1d35:	f91431        	l32r	a3, 188 (24cc <ac_encode_fx>)
    1d38:	10c1b2        	addi	a11, a1, 16
    1d3b:	14c1c2        	addi	a12, a1, 20
    1d3e:	02ad           	mov.n	a10, a2
    1d40:	9179           	s32i.n	a7, a1, 36
    1d42:	0003e0        	callx8	a3
    1d45:	9178           	l32i.n	a7, a1, 36
    1d47:	a158           	l32i.n	a5, a1, 40
    1d49:	f91041        	l32r	a4, 18c (18ab0 <ac_tns_coef_freq>)
    1d4c:	273d           	ae_l16si.n	a3, a7, 0
    1d4e:	f91061        	l32r	a6, 190 (18bc0 <ac_tns_coef_cumfreq>)
    1d51:	2c13a6        	blti	a3, 1, 1d81 <processAriEncoder_fx+0xb9>
    1d54:	030c           	movi.n	a3, 0
    1d56:	258d           	ae_l16si.n	a8, a5, 0
    1d58:	f90c71        	l32r	a7, 188 (24cc <ac_encode_fx>)
    1d5b:	10c1b2        	addi	a11, a1, 16
    1d5e:	909860        	addx2	a9, a8, a6
    1d61:	908840        	addx2	a8, a8, a4
    1d64:	29dd           	ae_l16si.n	a13, a9, 0
    1d66:	28ed           	ae_l16si.n	a14, a8, 0
    1d68:	14c1c2        	addi	a12, a1, 20
    1d6b:	02ad           	mov.n	a10, a2
    1d6d:	0007e0        	callx8	a7
    1d70:	9178           	l32i.n	a7, a1, 36
    1d72:	331b           	addi.n	a3, a3, 1
    1d74:	552b           	addi.n	a5, a5, 2
    1d76:	278d           	ae_l16si.n	a8, a7, 0
    1d78:	22c442        	addi	a4, a4, 34
    1d7b:	22c662        	addi	a6, a6, 34
    1d7e:	d42387        	blt	a3, a8, 1d56 <processAriEncoder_fx+0x8e>
    1d81:	a138           	l32i.n	a3, a1, 40
    1d83:	b188           	l32i.n	a8, a1, 44
    1d85:	772b           	addi.n	a7, a7, 2
    1d87:	10c332        	addi	a3, a3, 16
    1d8a:	880b           	addi.n	a8, a8, -1
    1d8c:	a139           	s32i.n	a3, a1, 40
    1d8e:	f89856        	bnez	a8, 1d1b <processAriEncoder_fx+0x53>
    1d91:	c148           	l32i.n	a4, a1, 48
    1d93:	1621e2        	l32i	a14, a1, 88
    1d96:	112152        	l32i	a5, a1, 68
    1d99:	2821f2        	l32i	a15, a1, 160
    1d9c:	2321d2        	l32i	a13, a1, 140
    1d9f:	f8fd91        	l32r	a9, 194 (1b42c <g_p_enc_stream>)
    1da2:	213140        	srai	a3, a4, 1
    1da5:	176132        	s32i	a3, a1, 92
    1da8:	258e16        	beqz	a14, 2004 <processAriEncoder_fx+0x33c>
    1dab:	f188           	l32i.n	a8, a1, 60
    1dad:	0f3d           	mov.n	a3, a15
    1daf:	0224e6        	bgei	a4, 2, 1db5 <processAriEncoder_fx+0xed>
    1db2:	011586        	j	220c <processAriEncoder_fx+0x544>
    1db5:	0f3d           	mov.n	a3, a15
    1db7:	61f8           	l32i.n	a15, a1, 24
    1db9:	51a8           	l32i.n	a10, a1, 20
    1dbb:	0f11b2        	l16ui	a11, a1, 30
    1dbe:	101172        	l16ui	a7, a1, 32
    1dc1:	0e1162        	l16ui	a6, a1, 28
    1dc4:	0811c2        	l16ui	a12, a1, 16
    1dc7:	ffa092        	movi	a9, 255
    1dca:	040c           	movi.n	a4, 0
    1dcc:	119900        	slli	a9, a9, 16
    1dcf:	136132        	s32i	a3, a1, 76
    1dd2:	126132        	s32i	a3, a1, 72
    1dd5:	001206        	j	1e21 <processAriEncoder_fx+0x159>

00001dd8 <processAriEncoder_fx+0x110>:
    1dd8:	a138           	l32i.n	a3, a1, 40
    1dda:	dd2b           	addi.n	a13, a13, 2
    1ddc:	1261d2        	s32i	a13, a1, 72
    1ddf:	213130        	srai	a3, a3, 1
    1de2:	b139           	s32i.n	a3, a1, 44
    1de4:	0edd           	mov.n	a13, a14
    1de6:	d148           	l32i.n	a4, a1, 52
    1de8:	f37c           	movi.n	a3, -1
    1dea:	f43030        	extui	a3, a3, 0, 16
    1ded:	0b0347        	bnone	a3, a4, 1dfc <processAriEncoder_fx+0x134>
    1df0:	f8e941        	l32r	a4, 194 (1b42c <g_p_enc_stream>)
    1df3:	c1e8           	l32i.n	a14, a1, 48
    1df5:	0438           	l32i.n	a3, a4, 0
    1df7:	1113e4        	ae_sbi	a3, a14, 1
    1dfa:	0439           	s32i.n	a3, a4, 0
    1dfc:	b148           	l32i.n	a4, a1, 44
    1dfe:	f37c           	movi.n	a3, -1
    1e00:	f43030        	extui	a3, a3, 0, 16
    1e03:	090347        	bnone	a3, a4, 1e10 <processAriEncoder_fx+0x148>
    1e06:	f8e341        	l32r	a4, 194 (1b42c <g_p_enc_stream>)
    1e09:	0438           	l32i.n	a3, a4, 0
    1e0b:	111354        	ae_sbi	a3, a5, 1
    1e0e:	0439           	s32i.n	a3, a4, 0
    1e10:	e148           	l32i.n	a4, a1, 56
    1e12:	172132        	l32i	a3, a1, 92
    1e15:	dd6b           	addi.n	a13, a13, 6
    1e17:	441b           	addi.n	a4, a4, 1
    1e19:	884b           	addi.n	a8, a8, 4
    1e1b:	022437        	blt	a4, a3, 1e21 <processAriEncoder_fx+0x159>
    1e1e:	00f386        	j	21f0 <processAriEncoder_fx+0x528>
    1e21:	485d           	ae_l16ui.n	a5, a8, 0
    1e23:	f189           	s32i.n	a8, a1, 60
    1e25:	588d           	ae_l16ui.n	a8, a8, 2
    1e27:	e149           	s32i.n	a4, a1, 56
    1e29:	2d3d           	ae_l16si.n	a3, a13, 0
    1e2b:	0ded           	mov.n	a14, a13
    1e2d:	3d4d           	ae_l16si.n	a4, a13, 2
    1e2f:	f8dad1        	l32r	a13, 198 (15f50 <ari_spec_lookup>)
    1e32:	c159           	s32i.n	a5, a1, 48
    1e34:	855d           	ae_sext16	a5, a5
    1e36:	106182        	s32i	a8, a1, 64
    1e39:	888d           	ae_sext16	a8, a8
    1e3b:	605150        	abs	a5, a5
    1e3e:	608180        	abs	a8, a8
    1e41:	dd3a           	add.n	a13, a13, a3
    1e43:	d159           	s32i.n	a5, a1, 52
    1e45:	855d           	ae_sext16	a5, a5
    1e47:	883d           	ae_sext16	a3, a8
    1e49:	9159           	s32i.n	a5, a1, 36
    1e4b:	b189           	s32i.n	a8, a1, 44
    1e4d:	a139           	s32i.n	a3, a1, 40
    1e4f:	0214e6        	bgei	a4, 1, 1e55 <processAriEncoder_fx+0x18d>
    1e52:	002cc6        	j	1f09 <processAriEncoder_fx+0x241>
    1e55:	050c           	movi.n	a5, 0
    1e57:	330c           	movi.n	a3, 3
    1e59:	634530        	minu	a4, a5, a3
    1e5c:	114460        	slli	a4, a4, 10
    1e5f:	4d4a           	add.n	a4, a13, a4
    1e61:	000442        	l8ui	a4, a4, 0
    1e64:	418af0        	srli	a8, a15, 10
    1e67:	f8cdf1        	l32r	a15, 19c (16f50 <ari_spec_cumfreq>)
    1e6a:	234400        	sext	a4, a4, 7
    1e6d:	1134b0        	slli	a3, a4, 5
    1e70:	904430        	addx2	a4, a4, a3
    1e73:	ff4a           	add.n	a15, a15, a4
    1e75:	f8ca31        	l32r	a3, 1a0 (177d0 <ari_spec_freq>)
    1e78:	101ff2        	l16ui	a15, a15, 32
    1e7b:	434a           	add.n	a4, a3, a4
    1e7d:	8238f0        	mull	a3, a8, a15
    1e80:	101442        	l16ui	a4, a4, 32
    1e83:	33aa           	add.n	a3, a3, a10
    1e85:	fa7c           	movi.n	a10, -1
    1e87:	82f840        	mull	a15, a8, a4
    1e8a:	4188a0        	srli	a8, a10, 8
    1e8d:	10a380        	and	a10, a3, a8
    1e90:	754830        	extui	a4, a3, 24, 8
    1e93:	180c           	movi.n	a8, 1
    1e95:	93b840        	movnez	a11, a8, a4
    1e98:	601fb6        	bltui	a15, 0x10000, 1efc <processAriEncoder_fx+0x234>
    1e9b:	a59c           	beqz.n	a5, 1eb9 <processAriEncoder_fx+0x1f1>
    1e9d:	f8bd81        	l32r	a8, 194 (1b42c <g_p_enc_stream>)
    1ea0:	9148           	l32i.n	a4, a1, 36
    1ea2:	400500        	ssr	a5
    1ea5:	0838           	l32i.n	a3, a8, 0
    1ea7:	b14040        	sra	a4, a4
    1eaa:	111344        	ae_sbi	a3, a4, 1
    1ead:	a148           	l32i.n	a4, a1, 40
    1eaf:	0839           	s32i.n	a3, a8, 0
    1eb1:	b14040        	sra	a4, a4
    1eb4:	111344        	ae_sbi	a3, a4, 1
    1eb7:	0839           	s32i.n	a3, a8, 0
    1eb9:	3e4d           	ae_l16si.n	a4, a14, 2
    1ebb:	551b           	addi.n	a5, a5, 1
    1ebd:	962547        	blt	a5, a4, 1e57 <processAriEncoder_fx+0x18f>
    1ec0:	001146        	j	1f09 <processAriEncoder_fx+0x241>

00001ec3 <processAriEncoder_fx+0x1fb>:
    1ec3:	863d           	ae_sext16	a3, a6
    1ec5:	00c396        	bltz	a3, 1ed5 <processAriEncoder_fx+0x20d>
    1ec8:	8c8d           	ae_sext16	a8, a12
    1eca:	fc1b           	addi.n	a15, a12, 1
    1ecc:	3b6a           	add.n	a3, a11, a6
    1ece:	828a           	add.n	a8, a2, a8
    1ed0:	0fcd           	mov.n	a12, a15
    1ed2:	004832        	s8i	a3, a8, 0
    1ed5:	873d           	ae_sext16	a3, a7
    1ed7:	1113a6        	blti	a3, 1, 1eec <processAriEncoder_fx+0x224>
    1eda:	973d           	ae_zext16	a3, a7
    1edc:	6b0b           	addi.n	a6, a11, -1
    1ede:	088376        	loop	a3, 1eea <processAriEncoder_fx+0x222>
    1ee1:	8c3d           	ae_sext16	a3, a12
    1ee3:	323a           	add.n	a3, a2, a3
    1ee5:	cc1b           	addi.n	a12, a12, 1
    1ee7:	004362        	s8i	a6, a3, 0

00001eea <processAriEncoder_fx+0x222>:
    1eea:	070c           	movi.n	a7, 0

00001eec <processAriEncoder_fx+0x224>:
    1eec:	f560a0        	extui	a6, a10, 16, 16
    1eef:	0b0c           	movi.n	a11, 0
    1ef1:	9a3d           	ae_zext16	a3, a10
    1ef3:	11f480        	slli	a15, a4, 8
    1ef6:	11a380        	slli	a10, a3, 8
    1ef9:	9ef4f6        	bgeui	a4, 0x100, 1e9b <processAriEncoder_fx+0x1d3>
    1efc:	0f4d           	mov.n	a4, a15
    1efe:	c13a97        	bltu	a10, a9, 1ec3 <processAriEncoder_fx+0x1fb>
    1f01:	be1b26        	beqi	a11, 1, 1ec3 <processAriEncoder_fx+0x1fb>
    1f04:	771b           	addi.n	a7, a7, 1
    1f06:	fff9c6        	j	1ef1 <processAriEncoder_fx+0x229>

00001f09 <processAriEncoder_fx+0x241>:
    1f09:	843d           	ae_sext16	a3, a4
    1f0b:	350c           	movi.n	a5, 3
    1f0d:	433350        	min	a3, a3, a5
    1f10:	113360        	slli	a3, a3, 10
    1f13:	3d3a           	add.n	a3, a13, a3
    1f15:	000332        	l8ui	a3, a3, 0
    1f18:	415af0        	srli	a5, a15, 10
    1f1b:	029e82        	l16si	a8, a14, 4
    1f1e:	233300        	sext	a3, a3, 7
    1f21:	11f3b0        	slli	a15, a3, 5
    1f24:	9033f0        	addx2	a3, a3, a15
    1f27:	f89df1        	l32r	a15, 19c (16f50 <ari_spec_cumfreq>)
    1f2a:	df3a           	add.n	a13, a15, a3
    1f2c:	f89df1        	l32r	a15, 1a0 (177d0 <ari_spec_freq>)
    1f2f:	1561d2        	s32i	a13, a1, 84
    1f32:	3f3a           	add.n	a3, a15, a3
    1f34:	1521f2        	l32i	a15, a1, 84
    1f37:	903830        	addx2	a3, a8, a3
    1f3a:	433d           	ae_l16ui.n	a3, a3, 0
    1f3c:	90d8f0        	addx2	a13, a8, a15
    1f3f:	4dfd           	ae_l16ui.n	a15, a13, 0
    1f41:	0edd           	mov.n	a13, a14
    1f43:	8285f0        	mull	a8, a5, a15
    1f46:	82f530        	mull	a15, a5, a3
    1f49:	38aa           	add.n	a3, a8, a10
    1f4b:	fa7c           	movi.n	a10, -1
    1f4d:	4188a0        	srli	a8, a10, 8
    1f50:	10a380        	and	a10, a3, a8
    1f53:	755830        	extui	a5, a3, 24, 8
    1f56:	180c           	movi.n	a8, 1
    1f58:	93b850        	movnez	a11, a8, a5
    1f5b:	f188           	l32i.n	a8, a1, 60
    1f5d:	3b1fb6        	bltui	a15, 0x10000, 1f9c <processAriEncoder_fx+0x2d4>
    1f60:	0011c6        	j	1fab <processAriEncoder_fx+0x2e3>

00001f63 <processAriEncoder_fx+0x29b>:
    1f63:	863d           	ae_sext16	a3, a6
    1f65:	00c396        	bltz	a3, 1f75 <processAriEncoder_fx+0x2ad>
    1f68:	8cfd           	ae_sext16	a15, a12
    1f6a:	5c1b           	addi.n	a5, a12, 1
    1f6c:	3b6a           	add.n	a3, a11, a6
    1f6e:	62fa           	add.n	a6, a2, a15
    1f70:	05cd           	mov.n	a12, a5
    1f72:	004632        	s8i	a3, a6, 0
    1f75:	873d           	ae_sext16	a3, a7
    1f77:	1113a6        	blti	a3, 1, 1f8c <processAriEncoder_fx+0x2c4>
    1f7a:	973d           	ae_zext16	a3, a7
    1f7c:	5b0b           	addi.n	a5, a11, -1
    1f7e:	088376        	loop	a3, 1f8a <processAriEncoder_fx+0x2c2>
    1f81:	8c3d           	ae_sext16	a3, a12
    1f83:	323a           	add.n	a3, a2, a3
    1f85:	cc1b           	addi.n	a12, a12, 1
    1f87:	004352        	s8i	a5, a3, 0

00001f8a <processAriEncoder_fx+0x2c2>:
    1f8a:	070c           	movi.n	a7, 0

00001f8c <processAriEncoder_fx+0x2c4>:
    1f8c:	f560a0        	extui	a6, a10, 16, 16
    1f8f:	0b0c           	movi.n	a11, 0
    1f91:	9a3d           	ae_zext16	a3, a10
    1f93:	11f480        	slli	a15, a4, 8
    1f96:	11a380        	slli	a10, a3, 8
    1f99:	0cf4f6        	bgeui	a4, 0x100, 1fa9 <processAriEncoder_fx+0x2e1>
    1f9c:	0f4d           	mov.n	a4, a15
    1f9e:	c13a97        	bltu	a10, a9, 1f63 <processAriEncoder_fx+0x29b>
    1fa1:	be1b26        	beqi	a11, 1, 1f63 <processAriEncoder_fx+0x29b>
    1fa4:	771b           	addi.n	a7, a7, 1
    1fa6:	fff9c6        	j	1f91 <processAriEncoder_fx+0x2c9>

00001fa9 <processAriEncoder_fx+0x2e1>:
    1fa9:	5d4d           	ae_l16ui.n	a4, a13, 2
    1fab:	c138           	l32i.n	a3, a1, 48
    1fad:	102152        	l32i	a5, a1, 64
    1fb0:	413f30        	srli	a3, a3, 15
    1fb3:	c139           	s32i.n	a3, a1, 48
    1fb5:	843d           	ae_sext16	a3, a4
    1fb7:	415f50        	srli	a5, a5, 15
    1fba:	0213e6        	bgei	a3, 1, 1fc0 <processAriEncoder_fx+0x2f8>
    1fbd:	ff8946        	j	1de6 <processAriEncoder_fx+0x11e>
    1fc0:	106152        	s32i	a5, a1, 64
    1fc3:	d158           	l32i.n	a5, a1, 52
    1fc5:	b148           	l32i.n	a4, a1, 44
    1fc7:	1221d2        	l32i	a13, a1, 72
    1fca:	043050        	extui	a3, a5, 0, 1
    1fcd:	044040        	extui	a4, a4, 0, 1
    1fd0:	6d3d           	ae_s16i.n	a3, a13, 0
    1fd2:	0d3d           	mov.n	a3, a13
    1fd4:	081566        	bnei	a5, 1, 1fe0 <processAriEncoder_fx+0x318>
    1fd7:	c158           	l32i.n	a5, a1, 48
    1fd9:	d34b           	addi.n	a13, a3, 4
    1fdb:	735d           	ae_s16i.n	a5, a3, 2
    1fdd:	000046        	j	1fe2 <processAriEncoder_fx+0x31a>

00001fe0 <processAriEncoder_fx+0x318>:
    1fe0:	d32b           	addi.n	a13, a3, 2
    1fe2:	9138           	l32i.n	a3, a1, 36
    1fe4:	6d4d           	ae_s16i.n	a4, a13, 0
    1fe6:	b148           	l32i.n	a4, a1, 44
    1fe8:	102152        	l32i	a5, a1, 64
    1feb:	213130        	srai	a3, a3, 1
    1fee:	d139           	s32i.n	a3, a1, 52
    1ff0:	021426        	beqi	a4, 1, 1ff6 <processAriEncoder_fx+0x32e>
    1ff3:	ff7846        	j	1dd8 <processAriEncoder_fx+0x110>
    1ff6:	3d4b           	addi.n	a3, a13, 4
    1ff8:	7d5d           	ae_s16i.n	a5, a13, 2
    1ffa:	0d0c           	movi.n	a13, 0
    1ffc:	126132        	s32i	a3, a1, 72
    1fff:	b1d9           	s32i.n	a13, a1, 44
    2001:	ff77c6        	j	1de4 <processAriEncoder_fx+0x11c>

00002004 <processAriEncoder_fx+0x33c>:
    2004:	f168           	l32i.n	a6, a1, 60
    2006:	030c           	movi.n	a3, 0
    2008:	9139           	s32i.n	a3, a1, 36
    200a:	0224e6        	bgei	a4, 2, 2010 <processAriEncoder_fx+0x348>
    200d:	0088c6        	j	2234 <processAriEncoder_fx+0x56c>
    2010:	1361f2        	s32i	a15, a1, 76
    2013:	6148           	l32i.n	a4, a1, 24
    2015:	5158           	l32i.n	a5, a1, 20
    2017:	0f1192        	l16ui	a9, a1, 30
    201a:	1011f2        	l16ui	a15, a1, 32
    201d:	0e1132        	l16ui	a3, a1, 28
    2020:	081172        	l16ui	a7, a1, 16
    2023:	ffa0e2        	movi	a14, 255
    2026:	0b0c           	movi.n	a11, 0
    2028:	11ee00        	slli	a14, a14, 16
    202b:	568d           	ae_l16ui.n	a8, a6, 2
    202d:	46cd           	ae_l16ui.n	a12, a6, 0
    202f:	f169           	s32i.n	a6, a1, 60
    2031:	3d6d           	ae_l16si.n	a6, a13, 2
    2033:	2dad           	ae_l16si.n	a10, a13, 0
    2035:	91d9           	s32i.n	a13, a1, 36
    2037:	f858d1        	l32r	a13, 198 (15f50 <ari_spec_lookup>)
    203a:	106182        	s32i	a8, a1, 64
    203d:	888d           	ae_sext16	a8, a8
    203f:	c1b9           	s32i.n	a11, a1, 48
    2041:	8cbd           	ae_sext16	a11, a12
    2043:	d189           	s32i.n	a8, a1, 52
    2045:	8daa           	add.n	a8, a13, a10
    2047:	1561c2        	s32i	a12, a1, 84
    204a:	e1b9           	s32i.n	a11, a1, 56
    204c:	a189           	s32i.n	a8, a1, 40
    204e:	0216e6        	bgei	a6, 1, 2054 <processAriEncoder_fx+0x38c>
    2051:	003146        	j	211a <processAriEncoder_fx+0x452>
    2054:	e188           	l32i.n	a8, a1, 56
    2056:	d168           	l32i.n	a6, a1, 52
    2058:	0b0c           	movi.n	a11, 0
    205a:	60c180        	abs	a12, a8
    205d:	606160        	abs	a6, a6
    2060:	8c8d           	ae_sext16	a8, a12
    2062:	86dd           	ae_sext16	a13, a6
    2064:	b189           	s32i.n	a8, a1, 44
    2066:	360c           	movi.n	a6, 3
    2068:	a188           	l32i.n	a8, a1, 40
    206a:	636b60        	minu	a6, a11, a6
    206d:	116660        	slli	a6, a6, 10
    2070:	686a           	add.n	a6, a8, a6
    2072:	000662        	l8ui	a6, a6, 0
    2075:	f849c1        	l32r	a12, 19c (16f50 <ari_spec_cumfreq>)
    2078:	414a40        	srli	a4, a4, 10
    207b:	236600        	sext	a6, a6, 7
    207e:	11a6b0        	slli	a10, a6, 5
    2081:	9066a0        	addx2	a6, a6, a10
    2084:	f847a1        	l32r	a10, 1a0 (177d0 <ari_spec_freq>)
    2087:	8c6a           	add.n	a8, a12, a6
    2089:	101882        	l16ui	a8, a8, 32
    208c:	6a6a           	add.n	a6, a10, a6
    208e:	101662        	l16ui	a6, a6, 32
    2091:	828480        	mull	a8, a4, a8
    2094:	fa7c           	movi.n	a10, -1
    2096:	585a           	add.n	a5, a8, a5
    2098:	824460        	mull	a4, a4, a6
    209b:	756850        	extui	a6, a5, 24, 8
    209e:	4188a0        	srli	a8, a10, 8
    20a1:	1c0c           	movi.n	a12, 1
    20a3:	105580        	and	a5, a5, a8
    20a6:	939c60        	movnez	a9, a12, a6
    20a9:	6014b6        	bltui	a4, 0x10000, 210d <processAriEncoder_fx+0x445>
    20ac:	f83ac1        	l32r	a12, 194 (1b42c <g_p_enc_stream>)
    20af:	b168           	l32i.n	a6, a1, 44
    20b1:	400b00        	ssr	a11
    20b4:	0c88           	l32i.n	a8, a12, 0
    20b6:	b16060        	sra	a6, a6
    20b9:	b1a0d0        	sra	a10, a13
    20bc:	111864        	ae_sbi	a8, a6, 1
    20bf:	0c89           	s32i.n	a8, a12, 0
    20c1:	bb1b           	addi.n	a11, a11, 1
    20c3:	1118a4        	ae_sbi	a8, a10, 1
    20c6:	91a8           	l32i.n	a10, a1, 36
    20c8:	0c89           	s32i.n	a8, a12, 0
    20ca:	5a6d           	ae_l16ui.n	a6, a10, 2
    20cc:	86ad           	ae_sext16	a10, a6
    20ce:	942ba7        	blt	a11, a10, 2066 <processAriEncoder_fx+0x39e>
    20d1:	001146        	j	211a <processAriEncoder_fx+0x452>

000020d4 <processAriEncoder_fx+0x40c>:
    20d4:	834d           	ae_sext16	a4, a3
    20d6:	00c496        	bltz	a4, 20e6 <processAriEncoder_fx+0x41e>
    20d9:	87cd           	ae_sext16	a12, a7
    20db:	471b           	addi.n	a4, a7, 1
    20dd:	393a           	add.n	a3, a9, a3
    20df:	82ca           	add.n	a8, a2, a12
    20e1:	047d           	mov.n	a7, a4
    20e3:	004832        	s8i	a3, a8, 0
    20e6:	8f3d           	ae_sext16	a3, a15
    20e8:	1113a6        	blti	a3, 1, 20fd <processAriEncoder_fx+0x435>
    20eb:	9f4d           	ae_zext16	a4, a15
    20ed:	390b           	addi.n	a3, a9, -1
    20ef:	088476        	loop	a4, 20fb <processAriEncoder_fx+0x433>
    20f2:	874d           	ae_sext16	a4, a7
    20f4:	424a           	add.n	a4, a2, a4
    20f6:	771b           	addi.n	a7, a7, 1
    20f8:	004432        	s8i	a3, a4, 0

000020fb <processAriEncoder_fx+0x433>:
    20fb:	0f0c           	movi.n	a15, 0

000020fd <processAriEncoder_fx+0x435>:
    20fd:	f53050        	extui	a3, a5, 16, 16
    2100:	090c           	movi.n	a9, 0
    2102:	955d           	ae_zext16	a5, a5
    2104:	114680        	slli	a4, a6, 8
    2107:	115580        	slli	a5, a5, 8
    210a:	9ef6f6        	bgeui	a6, 0x100, 20ac <processAriEncoder_fx+0x3e4>
    210d:	046d           	mov.n	a6, a4
    210f:	c135e7        	bltu	a5, a14, 20d4 <processAriEncoder_fx+0x40c>
    2112:	be1926        	beqi	a9, 1, 20d4 <processAriEncoder_fx+0x40c>
    2115:	ff1b           	addi.n	a15, a15, 1
    2117:	fff9c6        	j	2102 <processAriEncoder_fx+0x43a>

0000211a <processAriEncoder_fx+0x452>:
    211a:	866d           	ae_sext16	a6, a6
    211c:	380c           	movi.n	a8, 3
    211e:	a1b8           	l32i.n	a11, a1, 40
    2120:	436680        	min	a6, a6, a8
    2123:	116660        	slli	a6, a6, 10
    2126:	6b6a           	add.n	a6, a11, a6
    2128:	000662        	l8ui	a6, a6, 0
    212b:	91d8           	l32i.n	a13, a1, 36
    212d:	f81bb1        	l32r	a11, 19c (16f50 <ari_spec_cumfreq>)
    2130:	236600        	sext	a6, a6, 7
    2133:	11a6b0        	slli	a10, a6, 5
    2136:	9066a0        	addx2	a6, a6, a10
    2139:	ab6a           	add.n	a10, a11, a6
    213b:	029dc2        	l16si	a12, a13, 4
    213e:	f818b1        	l32r	a11, 1a0 (177d0 <ari_spec_freq>)
    2141:	414a40        	srli	a4, a4, 10
    2144:	90aca0        	addx2	a10, a12, a10
    2147:	6b6a           	add.n	a6, a11, a6
    2149:	906c60        	addx2	a6, a12, a6
    214c:	4acd           	ae_l16ui.n	a12, a10, 0
    214e:	466d           	ae_l16ui.n	a6, a6, 0
    2150:	fb7c           	movi.n	a11, -1
    2152:	8284c0        	mull	a8, a4, a12
    2155:	824460        	mull	a4, a4, a6
    2158:	585a           	add.n	a5, a8, a5
    215a:	75a850        	extui	a10, a5, 24, 8
    215d:	4188b0        	srli	a8, a11, 8
    2160:	1c0c           	movi.n	a12, 1
    2162:	105580        	and	a5, a5, a8
    2165:	939ca0        	movnez	a9, a12, a10
    2168:	7714b6        	bltui	a4, 0x10000, 21e3 <processAriEncoder_fx+0x51b>
    216b:	e168           	l32i.n	a6, a1, 56
    216d:	c1b8           	l32i.n	a11, a1, 48
    216f:	f809a1        	l32r	a10, 194 (1b42c <g_p_enc_stream>)
    2172:	b68c           	beqz.n	a6, 2181 <processAriEncoder_fx+0x4b9>
    2174:	152182        	l32i	a8, a1, 84
    2177:	0a68           	l32i.n	a6, a10, 0
    2179:	418f80        	srli	a8, a8, 15
    217c:	111684        	ae_sbi	a6, a8, 1
    217f:	0a69           	s32i.n	a6, a10, 0
    2181:	d168           	l32i.n	a6, a1, 52
    2183:	f804a1        	l32r	a10, 194 (1b42c <g_p_enc_stream>)
    2186:	102182        	l32i	a8, a1, 64
    2189:	868c           	beqz.n	a6, 2195 <processAriEncoder_fx+0x4cd>
    218b:	0a68           	l32i.n	a6, a10, 0
    218d:	418f80        	srli	a8, a8, 15
    2190:	111684        	ae_sbi	a6, a8, 1
    2193:	0a69           	s32i.n	a6, a10, 0
    2195:	f168           	l32i.n	a6, a1, 60
    2197:	172182        	l32i	a8, a1, 92
    219a:	bb1b           	addi.n	a11, a11, 1
    219c:	dd6b           	addi.n	a13, a13, 6
    219e:	664b           	addi.n	a6, a6, 4
    21a0:	02ab87        	bge	a11, a8, 21a6 <processAriEncoder_fx+0x4de>
    21a3:	ffa106        	j	202b <processAriEncoder_fx+0x363>
    21a6:	001b46        	j	2217 <processAriEncoder_fx+0x54f>

000021a9 <processAriEncoder_fx+0x4e1>:
	...

000021aa <processAriEncoder_fx+0x4e2>:
    21aa:	834d           	ae_sext16	a4, a3
    21ac:	00c496        	bltz	a4, 21bc <processAriEncoder_fx+0x4f4>
    21af:	87cd           	ae_sext16	a12, a7
    21b1:	471b           	addi.n	a4, a7, 1
    21b3:	393a           	add.n	a3, a9, a3
    21b5:	82ca           	add.n	a8, a2, a12
    21b7:	047d           	mov.n	a7, a4
    21b9:	004832        	s8i	a3, a8, 0
    21bc:	8f3d           	ae_sext16	a3, a15
    21be:	1113a6        	blti	a3, 1, 21d3 <processAriEncoder_fx+0x50b>
    21c1:	9f4d           	ae_zext16	a4, a15
    21c3:	390b           	addi.n	a3, a9, -1
    21c5:	088476        	loop	a4, 21d1 <processAriEncoder_fx+0x509>
    21c8:	874d           	ae_sext16	a4, a7
    21ca:	424a           	add.n	a4, a2, a4
    21cc:	771b           	addi.n	a7, a7, 1
    21ce:	004432        	s8i	a3, a4, 0

000021d1 <processAriEncoder_fx+0x509>:
    21d1:	0f0c           	movi.n	a15, 0

000021d3 <processAriEncoder_fx+0x50b>:
    21d3:	f53050        	extui	a3, a5, 16, 16
    21d6:	090c           	movi.n	a9, 0
    21d8:	955d           	ae_zext16	a5, a5
    21da:	114680        	slli	a4, a6, 8
    21dd:	115580        	slli	a5, a5, 8
    21e0:	87f6f6        	bgeui	a6, 0x100, 216b <processAriEncoder_fx+0x4a3>
    21e3:	046d           	mov.n	a6, a4
    21e5:	c135e7        	bltu	a5, a14, 21aa <processAriEncoder_fx+0x4e2>
    21e8:	be1926        	beqi	a9, 1, 21aa <processAriEncoder_fx+0x4e2>
    21eb:	ff1b           	addi.n	a15, a15, 1
    21ed:	fff9c6        	j	21d8 <processAriEncoder_fx+0x510>

000021f0 <processAriEncoder_fx+0x528>:
    21f0:	61f9           	s32i.n	a15, a1, 24
    21f2:	f7e891        	l32r	a9, 194 (1b42c <g_p_enc_stream>)
    21f5:	112152        	l32i	a5, a1, 68
    21f8:	1321f2        	l32i	a15, a1, 76
    21fb:	122132        	l32i	a3, a1, 72
    21fe:	51a9           	s32i.n	a10, a1, 20
    2200:	0f51b2        	s16i	a11, a1, 30
    2203:	105172        	s16i	a7, a1, 32
    2206:	0e5162        	s16i	a6, a1, 28
    2209:	0851c2        	s16i	a12, a1, 16
    220c:	c033f0        	sub	a3, a3, a15
    220f:	413130        	srli	a3, a3, 1
    2212:	9139           	s32i.n	a3, a1, 36
    2214:	000706        	j	2234 <processAriEncoder_fx+0x56c>

00002217 <processAriEncoder_fx+0x54f>:
    2217:	1051f2        	s16i	a15, a1, 32
    221a:	0f0c           	movi.n	a15, 0
    221c:	5159           	s32i.n	a5, a1, 20
    221e:	0f5192        	s16i	a9, a1, 30
    2221:	91f9           	s32i.n	a15, a1, 36
    2223:	f7dc91        	l32r	a9, 194 (1b42c <g_p_enc_stream>)
    2226:	112152        	l32i	a5, a1, 68
    2229:	1321f2        	l32i	a15, a1, 76
    222c:	6149           	s32i.n	a4, a1, 24
    222e:	0e5132        	s16i	a3, a1, 28
    2231:	085172        	s16i	a7, a1, 16
    2234:	f7dc61        	l32r	a6, 1a4 (1b428 <g_p_enc_based>)
    2237:	0e9172        	l16si	a7, a1, 28
    223a:	1091a2        	l16si	a10, a1, 32
    223d:	61b8           	l32i.n	a11, a1, 24
    223f:	640c           	movi.n	a4, 6
    2241:	e87c           	movi.n	a8, -2
    2243:	a38470        	movltz	a8, a4, a7
    2246:	0938           	l32i.n	a3, a9, 0
    2248:	06c8           	l32i.n	a12, a6, 0
    224a:	114ad0        	slli	a4, a10, 3
    224d:	0e0c           	movi.n	a14, 0
    224f:	606040        	neg	a6, a4
    2252:	0d0c           	movi.n	a13, 0
    2254:	142142        	l32i	a4, a1, 80
    2257:	a1e9           	s32i.n	a14, a1, 40
    2259:	72eda0        	salt	a14, a13, a10
    225c:	40fbd0        	nsau	a13, a11
    225f:	c0c3c0        	sub	a12, a3, a12
    2262:	83dbb0        	moveqz	a13, a11, a11
    2265:	c034d0        	sub	a3, a4, a13
    2268:	93e6e0        	movnez	a14, a6, a14
    226b:	0042c4        	rur.ae_bitptr	a4
    226e:	6c2b           	addi.n	a6, a12, 2
    2270:	338a           	add.n	a3, a3, a8
    2272:	118610        	slli	a8, a6, 15
    2275:	418c80        	srli	a8, a8, 12
    2278:	e3ea           	add.n	a14, a3, a14
    227a:	081132        	l16ui	a3, a1, 16
    227d:	884a           	add.n	a8, a8, a4
    227f:	b189           	s32i.n	a8, a1, 44
    2281:	c08e80        	sub	a8, a14, a8
    2284:	1621e2        	l32i	a14, a1, 88
    2287:	11c3d0        	slli	a12, a3, 3
    228a:	c048c0        	sub	a4, a8, a12
    228d:	844d           	ae_sext16	a4, a4
    228f:	158e16        	beqz	a14, 23eb <processAriEncoder_fx+0x723>
    2292:	9158           	l32i.n	a5, a1, 36
    2294:	0968           	l32i.n	a6, a9, 0
    2296:	080c           	movi.n	a8, 0
    2298:	855d           	ae_sext16	a5, a5
    229a:	434540        	min	a4, a5, a4
    229d:	9149           	s32i.n	a4, a1, 36
    229f:	114400        	slli	a4, a4, 16
    22a2:	1114a6        	blti	a4, 1, 22b7 <processAriEncoder_fx+0x5ef>
    22a5:	91e8           	l32i.n	a14, a1, 36
    22a7:	a189           	s32i.n	a8, a1, 40
    22a9:	064d           	mov.n	a4, a6
    22ab:	088e76        	loop	a14, 22b7 <processAriEncoder_fx+0x5ef>
    22ae:	4fcd           	ae_l16ui.n	a12, a15, 0
    22b0:	ff2b           	addi.n	a15, a15, 2
    22b2:	1114c4        	ae_sbi	a4, a12, 1
    22b5:	0949           	s32i.n	a4, a9, 0

000022b7 <processAriEncoder_fx+0x5ef>:
    22b7:	f67c           	movi.n	a6, -1
    22b9:	f9cdc2        	addi	a12, a13, -7
    22bc:	5148           	l32i.n	a4, a1, 20
    22be:	400c00        	ssr	a12
    22c1:	416860        	srli	a6, a6, 8
    22c4:	190c           	movi.n	a9, 1
    22c6:	91e060        	srl	a14, a6
    22c9:	84ea           	add.n	a8, a4, a14
    22cb:	f4ba           	add.n	a15, a4, a11
    22cd:	019980        	slli	a9, a9, 24
    22d0:	30be60        	xor	a11, a14, a6
    22d3:	625680        	saltu	a5, a6, a8
    22d6:	629f90        	saltu	a9, a15, a9
    22d9:	10bb80        	and	a11, a11, a8
    22dc:	1d1957        	beq	a9, a5, 22fd <processAriEncoder_fx+0x635>
    22df:	105f60        	and	a5, a15, a6
    22e2:	8bea           	add.n	a8, a11, a14
    22e4:	0d3857        	bltu	a8, a5, 22f5 <processAriEncoder_fx+0x62d>
    22e7:	4151e0        	srli	a5, a14, 1
    22ea:	845a           	add.n	a8, a4, a5
    22ec:	305560        	xor	a5, a5, a6
    22ef:	facdc2        	addi	a12, a13, -6
    22f2:	10b850        	and	a11, a8, a5

000022f5 <processAriEncoder_fx+0x62d>:
    22f5:	04bb47        	bgeu	a11, a4, 22fd <processAriEncoder_fx+0x635>
    22f8:	140c           	movi.n	a4, 1
    22fa:	0f5142        	s16i	a4, a1, 30
    22fd:	f7a591        	l32r	a9, 194 (1b42c <g_p_enc_stream>)
    2300:	8c4d           	ae_sext16	a4, a12
    2302:	51b9           	s32i.n	a11, a1, 20
    2304:	6d14a6        	blti	a4, 1, 2375 <processAriEncoder_fx+0x6ad>
    2307:	0f1142        	l16ui	a4, a1, 30
    230a:	ffa0f2        	movi	a15, 255
    230d:	9ced           	ae_zext16	a14, a12
    230f:	dc0b           	addi.n	a13, a12, -1
    2311:	11ff00        	slli	a15, a15, 16
    2314:	000e06        	j	2350 <processAriEncoder_fx+0x688>

00002317 <processAriEncoder_fx+0x64f>:
    2317:	875d           	ae_sext16	a5, a7
    2319:	00c596        	bltz	a5, 2329 <processAriEncoder_fx+0x661>
    231c:	838d           	ae_sext16	a8, a3
    231e:	631b           	addi.n	a6, a3, 1
    2320:	547a           	add.n	a5, a4, a7
    2322:	828a           	add.n	a8, a2, a8
    2324:	063d           	mov.n	a3, a6
    2326:	004852        	s8i	a5, a8, 0
    2329:	8a5d           	ae_sext16	a5, a10
    232b:	1115a6        	blti	a5, 1, 2340 <processAriEncoder_fx+0x678>
    232e:	9a5d           	ae_zext16	a5, a10
    2330:	440b           	addi.n	a4, a4, -1
    2332:	088576        	loop	a5, 233e <processAriEncoder_fx+0x676>
    2335:	835d           	ae_sext16	a5, a3
    2337:	525a           	add.n	a5, a2, a5
    2339:	331b           	addi.n	a3, a3, 1
    233b:	004542        	s8i	a4, a5, 0

0000233e <processAriEncoder_fx+0x676>:
    233e:	0a0c           	movi.n	a10, 0

00002340 <processAriEncoder_fx+0x678>:
    2340:	f570b0        	extui	a7, a11, 16, 16
    2343:	040c           	movi.n	a4, 0
    2345:	9b5d           	ae_zext16	a5, a11
    2347:	f8cee2        	addi	a14, a14, -8
    234a:	11b580        	slli	a11, a5, 8
    234d:	0b1ea6        	blti	a14, 1, 235c <processAriEncoder_fx+0x694>
    2350:	c33bf7        	bltu	a11, a15, 2317 <processAriEncoder_fx+0x64f>
    2353:	c01426        	beqi	a4, 1, 2317 <processAriEncoder_fx+0x64f>
    2356:	aa1b           	addi.n	a10, a10, 1
    2358:	fffa46        	j	2345 <processAriEncoder_fx+0x67d>

0000235b <processAriEncoder_fx+0x693>:
	...

0000235c <processAriEncoder_fx+0x694>:
    235c:	857c           	movi.n	a5, -8
    235e:	10fd50        	and	a15, a13, a5
    2361:	0f5142        	s16i	a4, a1, 30
    2364:	c04cf0        	sub	a4, a12, a15
    2367:	f8c4c2        	addi	a12, a4, -8
    236a:	1051a2        	s16i	a10, a1, 32
    236d:	0e5172        	s16i	a7, a1, 28
    2370:	085132        	s16i	a3, a1, 16
    2373:	51b9           	s32i.n	a11, a1, 20
    2375:	8a4d           	ae_sext16	a4, a10
    2377:	bc8b           	addi.n	a11, a12, 8
    2379:	0214e6        	bgei	a4, 1, 237f <processAriEncoder_fx+0x6b7>
    237c:	002706        	j	241c <processAriEncoder_fx+0x754>
    237f:	834d           	ae_sext16	a4, a3
    2381:	d31b           	addi.n	a13, a3, 1
    2383:	424a           	add.n	a4, a2, a4
    2385:	9a3d           	ae_zext16	a3, a10
    2387:	004472        	s8i	a7, a4, 0
    238a:	8d4d           	ae_sext16	a4, a13
    238c:	0851d2        	s16i	a13, a1, 16
    238f:	1e1326        	beqi	a3, 1, 23b1 <processAriEncoder_fx+0x6e9>
    2392:	530b           	addi.n	a5, a3, -1
    2394:	ffa072        	movi	a7, 255
    2397:	ad1b           	addi.n	a10, a13, 1
    2399:	0c8576        	loop	a5, 23a9 <processAriEncoder_fx+0x6e1>
    239c:	424a           	add.n	a4, a2, a4
    239e:	004472        	s8i	a7, a4, 0
    23a1:	330b           	addi.n	a3, a3, -1
    23a3:	0add           	mov.n	a13, a10
    23a5:	8a4d           	ae_sext16	a4, a10
    23a7:	aa1b           	addi.n	a10, a10, 1

000023a9 <processAriEncoder_fx+0x6e1>:
    23a9:	5a0b           	addi.n	a5, a10, -1
    23ab:	105132        	s16i	a3, a1, 32
    23ae:	085152        	s16i	a5, a1, 16

000023b1 <processAriEncoder_fx+0x6e9>:
    23b1:	324a           	add.n	a3, a2, a4
    23b3:	000342        	l8ui	a4, a3, 0
    23b6:	6070c0        	neg	a7, a12
    23b9:	8c5d           	ae_sext16	a5, a12
    23bb:	987c           	movi.n	a8, -7
    23bd:	400700        	ssr	a7
    23c0:	212587        	blt	a5, a8, 23e5 <processAriEncoder_fx+0x71d>
    23c3:	ffa052        	movi	a5, 255
    23c6:	8b8d           	ae_sext16	a8, a11
    23c8:	80a0a2        	movi	a10, 128
    23cb:	00a072        	movi	a7, 0
    23ce:	91c050        	srl	a12, a5
    23d1:	108876        	loop	a8, 23e5 <processAriEncoder_fx+0x71d>
    23d4:	105ac0        	and	a5, a10, a12
    23d7:	204a40        	or	a4, a10, a4
    23da:	4181a0        	srli	a8, a10, 1
    23dd:	93a750        	movnez	a10, a7, a5
    23e0:	c044a0        	sub	a4, a4, a10
    23e3:	08ad           	mov.n	a10, a8

000023e5 <processAriEncoder_fx+0x71d>:
    23e5:	004342        	s8i	a4, a3, 0
    23e8:	001846        	j	244d <processAriEncoder_fx+0x785>

000023eb <processAriEncoder_fx+0x723>:
    23eb:	252162        	l32i	a6, a1, 148
    23ee:	09c8           	l32i.n	a12, a9, 0
    23f0:	0e0c           	movi.n	a14, 0
    23f2:	434640        	min	a4, a6, a4
    23f5:	a149           	s32i.n	a4, a1, 40
    23f7:	114400        	slli	a4, a4, 16
    23fa:	0214e6        	bgei	a4, 1, 2400 <processAriEncoder_fx+0x738>
    23fd:	ffad86        	j	22b7 <processAriEncoder_fx+0x5ef>
    2400:	a158           	l32i.n	a5, a1, 40
    2402:	242142        	l32i	a4, a1, 144
    2405:	85fd           	ae_sext16	a15, a5
    2407:	0e8f76        	loop	a15, 2419 <processAriEncoder_fx+0x751>
    240a:	f4ea           	add.n	a15, a4, a14
    240c:	000ff2        	l8ui	a15, a15, 0
    240f:	ee1b           	addi.n	a14, a14, 1
    2411:	23ff00        	sext	a15, a15, 7
    2414:	111cf4        	ae_sbi	a12, a15, 1
    2417:	09c9           	s32i.n	a12, a9, 0

00002419 <processAriEncoder_fx+0x751>:
    2419:	ffa686        	j	22b7 <processAriEncoder_fx+0x5ef>

0000241c <processAriEncoder_fx+0x754>:
    241c:	834d           	ae_sext16	a4, a3
    241e:	424a           	add.n	a4, a2, a4
    2420:	0004a2        	l8ui	a10, a4, 0
    2423:	8c5d           	ae_sext16	a5, a12
    2425:	987c           	movi.n	a8, -7
    2427:	1d2587        	blt	a5, a8, 2448 <processAriEncoder_fx+0x780>
    242a:	8b5d           	ae_sext16	a5, a11
    242c:	80a0d2        	movi	a13, 128
    242f:	0c0c           	movi.n	a12, 0
    2431:	108576        	loop	a5, 2445 <processAriEncoder_fx+0x77d>
    2434:	105d70        	and	a5, a13, a7
    2437:	208da0        	or	a8, a13, a10
    243a:	4191d0        	srli	a9, a13, 1
    243d:	93dc50        	movnez	a13, a12, a5
    2440:	c0a8d0        	sub	a10, a8, a13
    2443:	09dd           	mov.n	a13, a9

00002445 <processAriEncoder_fx+0x77d>:
    2445:	f75391        	l32r	a9, 194 (1b42c <g_p_enc_stream>)

00002448 <processAriEncoder_fx+0x780>:
    2448:	03dd           	mov.n	a13, a3
    244a:	0044a2        	s8i	a10, a4, 0
    244d:	f75541        	l32r	a4, 1a4 (1b428 <g_p_enc_based>)
    2450:	142132        	l32i	a3, a1, 80
    2453:	0958           	l32i.n	a5, a9, 0
    2455:	0448           	l32i.n	a4, a4, 0
    2457:	330b           	addi.n	a3, a3, -1
    2459:	833d           	ae_sext16	a3, a3
    245b:	213330        	srai	a3, a3, 3
    245e:	c0f540        	sub	a15, a5, a4
    2461:	223a           	add.n	a2, a2, a3
    2463:	3f2b           	addi.n	a3, a15, 2
    2465:	117310        	slli	a7, a3, 15
    2468:	f75031        	l32r	a3, 1a8 (1adb0 <BitReverseTable256>)
    246b:	1417a6        	blti	a7, 1, 2483 <processAriEncoder_fx+0x7bb>
    246e:	215f70        	srai	a5, a7, 15
    2471:	0e8576        	loop	a5, 2483 <processAriEncoder_fx+0x7bb>
    2474:	000452        	l8ui	a5, a4, 0
    2477:	441b           	addi.n	a4, a4, 1
    2479:	535a           	add.n	a5, a3, a5
    247b:	000552        	l8ui	a5, a5, 0
    247e:	004252        	s8i	a5, a2, 0
    2481:	220b           	addi.n	a2, a2, -1

00002483 <processAriEncoder_fx+0x7bb>:
    2483:	0072c4        	rur.ae_bitptr	a7
    2486:	e34f10        	rur.ae_bithead	a4
    2489:	758840        	extui	a8, a4, 24, 8
    248c:	07ac           	beqz.n	a7, 24b0 <processAriEncoder_fx+0x7e8>
    248e:	838a           	add.n	a8, a3, a8
    2490:	000892        	l8ui	a9, a8, 0
    2493:	950c           	movi.n	a5, 9
    2495:	0e3757        	bltu	a7, a5, 24a7 <processAriEncoder_fx+0x7df>
    2498:	75f040        	extui	a15, a4, 16, 8
    249b:	520b           	addi.n	a5, a2, -1
    249d:	004292        	s8i	a9, a2, 0
    24a0:	23fa           	add.n	a2, a3, a15
    24a2:	000292        	l8ui	a9, a2, 0
    24a5:	052d           	mov.n	a2, a5

000024a7 <processAriEncoder_fx+0x7df>:
    24a7:	000232        	l8ui	a3, a2, 0
    24aa:	203390        	or	a3, a3, a9
    24ad:	004232        	s8i	a3, a2, 0
    24b0:	b128           	l32i.n	a2, a1, 44
    24b2:	142132        	l32i	a3, a1, 80
    24b5:	a148           	l32i.n	a4, a1, 40
    24b7:	91f8           	l32i.n	a15, a1, 36
    24b9:	22ba           	add.n	a2, a2, a11
    24bb:	c03340        	sub	a3, a3, a4
    24be:	b02d20        	addx8	a2, a13, a2
    24c1:	c033f0        	sub	a3, a3, a15
    24c4:	c02320        	sub	a2, a3, a2
    24c7:	822d           	ae_sext16	a2, a2
    24c9:	f01d           	retw.n

000024cb <processAriEncoder_fx+0x803>:
	...

000024cc <ac_encode_fx>:
    24cc:	004136        	entry	a1, 32
    24cf:	1478           	l32i.n	a7, a4, 4
    24d1:	0498           	l32i.n	a9, a4, 0
    24d3:	1f0c           	movi.n	a15, 1
    24d5:	418a70        	srli	a8, a7, 10
    24d8:	825850        	mull	a5, a8, a5
    24db:	fa7c           	movi.n	a10, -1
    24dd:	759a           	add.n	a7, a5, a9
    24df:	015f80        	slli	a5, a15, 24
    24e2:	0479           	s32i.n	a7, a4, 0
    24e4:	0c3757        	bltu	a7, a5, 24f4 <ac_encode_fx+0x28>
    24e7:	4198a0        	srli	a9, a10, 8
    24ea:	107790        	and	a7, a7, a9
    24ed:	150c           	movi.n	a5, 1
    24ef:	055452        	s16i	a5, a4, 10
    24f2:	0479           	s32i.n	a7, a4, 0

000024f4 <ac_encode_fx+0x28>:
    24f4:	828860        	mull	a8, a8, a6
    24f7:	1489           	s32i.n	a8, a4, 4
    24f9:	7318f6        	bgeui	a8, 0x10000, 2570 <ac_encode_fx+0xa4>
    24fc:	ffa052        	movi	a5, 255
    24ff:	115500        	slli	a5, a5, 16
    2502:	060c           	movi.n	a6, 0
    2504:	000386        	j	2516 <ac_encode_fx+0x4a>

00002507 <ac_encode_fx+0x3b>:
    2507:	9a1b           	addi.n	a9, a10, 1
    2509:	065492        	s16i	a9, a4, 12
    250c:	977d           	ae_zext16	a7, a7
    250e:	117780        	slli	a7, a7, 8
    2511:	0479           	s32i.n	a7, a4, 0
    2513:	5918f6        	bgeui	a8, 0x10000, 2570 <ac_encode_fx+0xa4>
    2516:	118880        	slli	a8, a8, 8
    2519:	1489           	s32i.n	a8, a4, 4
    251b:	083757        	bltu	a7, a5, 2527 <ac_encode_fx+0x5b>
    251e:	051492        	l16ui	a9, a4, 10
    2521:	0694a2        	l16si	a10, a4, 12
    2524:	df1966        	bnei	a9, 1, 2507 <ac_encode_fx+0x3b>
    2527:	049472        	l16si	a7, a4, 8
    252a:	0a0482        	l8ui	a8, a4, 10
    252d:	00c796        	bltz	a7, 253d <ac_encode_fx+0x71>
    2530:	239d           	ae_l16si.n	a9, a3, 0
    2532:	787a           	add.n	a7, a8, a7
    2534:	f91b           	addi.n	a15, a9, 1
    2536:	929a           	add.n	a9, a2, a9
    2538:	63fd           	ae_s16i.n	a15, a3, 0
    253a:	004972        	s8i	a7, a9, 0
    253d:	069472        	l16si	a7, a4, 12
    2540:	1c17a6        	blti	a7, 1, 2560 <ac_encode_fx+0x94>
    2543:	0a0472        	l8ui	a7, a4, 10
    2546:	238d           	ae_l16si.n	a8, a3, 0
    2548:	770b           	addi.n	a7, a7, -1
    254a:	981b           	addi.n	a9, a8, 1
    254c:	828a           	add.n	a8, a2, a8
    254e:	639d           	ae_s16i.n	a9, a3, 0
    2550:	004872        	s8i	a7, a8, 0
    2553:	069472        	l16si	a7, a4, 12
    2556:	770b           	addi.n	a7, a7, -1
    2558:	87fd           	ae_sext16	a15, a7
    255a:	065472        	s16i	a7, a4, 12
    255d:	e21fe6        	bgei	a15, 1, 2543 <ac_encode_fx+0x77>
    2560:	0478           	l32i.n	a7, a4, 0
    2562:	055462        	s16i	a6, a4, 10
    2565:	318070        	srai	a8, a7, 16
    2568:	045482        	s16i	a8, a4, 8
    256b:	1488           	l32i.n	a8, a4, 4
    256d:	ffe6c6        	j	250c <ac_encode_fx+0x40>

00002570 <ac_encode_fx+0xa4>:
    2570:	f01d           	retw.n

00002572 <ac_encode_fx+0xa6>:
	...

00002574 <processAriDecoder_fx>:
    2574:	010136        	entry	a1, 128
    2577:	f70e81        	l32r	a8, 1b0 (1b420 <g_p_dec_based>)
    257a:	f70ce1        	l32r	a14, 1ac (1b424 <g_p_dec_stream>)
    257d:	a04770        	addx4	a4, a7, a7
    2580:	1144b0        	slli	a4, a4, 5
    2583:	a44d           	ae_clamps16	a4, a4
    2585:	0e78           	l32i.n	a7, a14, 0
    2587:	0888           	l32i.n	a8, a8, 0
    2589:	00b2c4        	rur.ae_bitptr	a11
    258c:	c0c540        	sub	a12, a5, a4
    258f:	60afd2        	movi	a13, -160
    2592:	4cda           	add.n	a4, a12, a13
    2594:	ec7c           	movi.n	a12, -2
    2596:	7f0c           	movi.n	a15, 7
    2598:	21e350        	srai	a14, a5, 3
    259b:	2169           	s32i.n	a6, a1, 8
    259d:	6e1b           	addi.n	a6, a14, 1
    259f:	62bfb0        	saltu	a11, a15, a11
    25a2:	c08780        	sub	a8, a7, a8
    25a5:	f4c0c0        	extui	a12, a12, 0, 16
    25a8:	10d8c0        	and	a13, a8, a12
    25ab:	166162        	s32i	a6, a1, 88
    25ae:	c066b0        	sub	a6, a6, a11
    25b1:	c066d0        	sub	a6, a6, a13
    25b4:	2f21a2        	l32i	a10, a1, 188
    25b7:	2d2192        	l32i	a9, a1, 180
    25ba:	2721f2        	l32i	a15, a1, 156
    25bd:	31a9           	s32i.n	a10, a1, 12
    25bf:	7199           	s32i.n	a9, a1, 28
    25c1:	636d           	ae_s16i.n	a6, a3, 0
    25c3:	116132        	s32i	a3, a1, 68
    25c6:	1261f2        	s32i	a15, a1, 72
    25c9:	252162        	l32i	a6, a1, 148
    25cc:	232192        	l32i	a9, a1, 140
    25cf:	2e21a2        	l32i	a10, a1, 184
    25d2:	2c21e2        	l32i	a14, a1, 176
    25d5:	2b21c2        	l32i	a12, a1, 172
    25d8:	2a2172        	l32i	a7, a1, 168
    25db:	2921d2        	l32i	a13, a1, 164
    25de:	262182        	l32i	a8, a1, 152
    25e1:	2421f2        	l32i	a15, a1, 144
    25e4:	202132        	l32i	a3, a1, 128
    25e7:	4169           	s32i.n	a6, a1, 16
    25e9:	d199           	s32i.n	a9, a1, 52
    25eb:	2221b2        	l32i	a11, a1, 136
    25ee:	212162        	l32i	a6, a1, 132
    25f1:	844d           	ae_sext16	a4, a4
    25f3:	390c           	movi.n	a9, 3
    25f5:	a1b9           	s32i.n	a11, a1, 40
    25f7:	9149           	s32i.n	a4, a1, 36
    25f9:	6169           	s32i.n	a6, a1, 24
    25fb:	00a0b2        	movi	a11, 0
    25fe:	204220        	or	a4, a2, a2
    2601:	098976        	loop	a9, 260e <processAriDecoder_fx+0x9a>
    2604:	000492        	l8ui	a9, a4, 0
    2607:	116b80        	slli	a6, a11, 8
    260a:	441b           	addi.n	a4, a4, 1
    260c:	b69a           	add.n	a11, a6, a9

0000260e <processAriDecoder_fx+0x9a>:
    260e:	6148           	l32i.n	a4, a1, 24
    2610:	1061a2        	s32i	a10, a1, 64
    2613:	8179           	s32i.n	a7, a1, 32
    2615:	136182        	s32i	a8, a1, 76
    2618:	f1c9           	s32i.n	a12, a1, 60
    261a:	e1d9           	s32i.n	a13, a1, 56
    261c:	156152        	s32i	a5, a1, 84
    261f:	1461e2        	s32i	a14, a1, 80
    2622:	1761f2        	s32i	a15, a1, 92
    2625:	0214e6        	bgei	a4, 1, 262b <processAriDecoder_fx+0xb7>
    2628:	0064c6        	j	27bf <processAriDecoder_fx+0x24b>
    262b:	f6d541        	l32r	a4, 180 (18980 <ac_tns_order_cumfreq>)
    262e:	f6d5e1        	l32r	a14, 184 (18960 <ac_tns_order_freq>)
    2631:	1133c0        	slli	a3, a3, 4
    2634:	443a           	add.n	a4, a4, a3
    2636:	4188           	l32i.n	a8, a1, 16
    2638:	f67c           	movi.n	a6, -1
    263a:	050c           	movi.n	a5, 0
    263c:	3e3a           	add.n	a3, a14, a3
    263e:	f48b           	addi.n	a15, a4, 8
    2640:	1159           	s32i.n	a5, a1, 4
    2642:	416860        	srli	a6, a6, 8
    2645:	370c           	movi.n	a7, 3
    2647:	5139           	s32i.n	a3, a1, 20
    2649:	c149           	s32i.n	a4, a1, 48
    264b:	b1f9           	s32i.n	a15, a1, 44

0000264d <processAriDecoder_fx+0xd9>:
    264d:	283d           	ae_l16si.n	a3, a8, 0
    264f:	b198           	l32i.n	a9, a1, 44
    2651:	415a60        	srli	a5, a6, 10
    2654:	0213e6        	bgei	a3, 1, 265a <processAriDecoder_fx+0xe6>
    2657:	0051c6        	j	27a2 <processAriDecoder_fx+0x22e>
    265a:	140c           	movi.n	a4, 1
    265c:	293d           	ae_l16si.n	a3, a9, 0
    265e:	c1d8           	l32i.n	a13, a1, 48
    2660:	2e0c           	movi.n	a14, 2
    2662:	823530        	mull	a3, a5, a3
    2665:	00aca2        	movi	a10, 0xfffffc00
    2668:	623b30        	saltu	a3, a11, a3
    266b:	303340        	xor	a3, a3, a4
    266e:	a043e0        	addx4	a4, a3, a14
    2671:	9094d0        	addx2	a9, a4, a13
    2674:	299d           	ae_l16si.n	a9, a9, 0
    2676:	1133e0        	slli	a3, a3, 2
    2679:	51e8           	l32i.n	a14, a1, 20
    267b:	829590        	mull	a9, a5, a9
    267e:	10a6a0        	and	a10, a6, a10
    2681:	629b90        	saltu	a9, a11, a9
    2684:	833490        	moveqz	a3, a4, a9
    2687:	931b           	addi.n	a9, a3, 1
    2689:	90f9d0        	addx2	a15, a9, a13
    268c:	2f4d           	ae_l16si.n	a4, a15, 0
    268e:	82c540        	mull	a12, a5, a4
    2691:	624ba0        	saltu	a4, a11, a10
    2694:	62cbc0        	saltu	a12, a11, a12
    2697:	8339c0        	moveqz	a3, a9, a12
    269a:	9063d0        	addx2	a6, a3, a13
    269d:	9093e0        	addx2	a9, a3, a14
    26a0:	266d           	ae_l16si.n	a6, a6, 0
    26a2:	299d           	ae_l16si.n	a9, a9, 0
    26a4:	331b           	addi.n	a3, a3, 1
    26a6:	82f650        	mull	a15, a6, a5
    26a9:	826590        	mull	a6, a5, a9
    26ac:	c0bbf0        	sub	a11, a11, a15
    26af:	683d           	ae_s16i.n	a3, a8, 0
    26b1:	1716f6        	bgeui	a6, 0x10000, 26cc <processAriDecoder_fx+0x158>
    26b4:	0b3d           	mov.n	a3, a11
    26b6:	875d           	ae_sext16	a5, a7
    26b8:	525a           	add.n	a5, a2, a5
    26ba:	0005b2        	l8ui	a11, a5, 0
    26bd:	06fd           	mov.n	a15, a6
    26bf:	771b           	addi.n	a7, a7, 1
    26c1:	8af3b0        	depbits	a11, a3, 8, 16
    26c4:	116680        	slli	a6, a6, 8
    26c7:	0b3d           	mov.n	a3, a11
    26c9:	e9ffb6        	bltui	a15, 0x100, 26b6 <processAriDecoder_fx+0x142>
    26cc:	1138           	l32i.n	a3, a1, 4
    26ce:	150c           	movi.n	a5, 1
    26d0:	f6af91        	l32r	a9, 18c (18ab0 <ac_tns_coef_freq>)
    26d3:	833540        	moveqz	a3, a5, a4
    26d6:	7158           	l32i.n	a5, a1, 28
    26d8:	f6ae41        	l32r	a4, 190 (18bc0 <ac_tns_coef_cumfreq>)
    26db:	0f0c           	movi.n	a15, 0
    26dd:	1139           	s32i.n	a3, a1, 4
    26df:	112132        	l32i	a3, a1, 68
    26e2:	41ca60        	srli	a12, a6, 10
    26e5:	1d0c           	movi.n	a13, 1
    26e7:	233d           	ae_l16si.n	a3, a3, 0
    26e9:	4e0c           	movi.n	a14, 4
    26eb:	c03370        	sub	a3, a3, a7
    26ee:	833d           	ae_sext16	a3, a3
    26f0:	2e8396        	bltz	a3, 29dc <processAriDecoder_fx+0x468>
    26f3:	089432        	l16si	a3, a4, 16
    26f6:	08ad           	mov.n	a10, a8
    26f8:	823c30        	mull	a3, a12, a3
    26fb:	623b30        	saltu	a3, a11, a3
    26fe:	3033d0        	xor	a3, a3, a13
    2701:	b0d3e0        	addx8	a13, a3, a14
    2704:	90ed40        	addx2	a14, a13, a4
    2707:	2eed           	ae_l16si.n	a14, a14, 0
    2709:	1133d0        	slli	a3, a3, 3
    270c:	82ece0        	mull	a14, a12, a14
    270f:	62ebe0        	saltu	a14, a11, a14
    2712:	833de0        	moveqz	a3, a13, a14
    2715:	d32b           	addi.n	a13, a3, 2
    2717:	908d40        	addx2	a8, a13, a4
    271a:	28ed           	ae_l16si.n	a14, a8, 0
    271c:	82ece0        	mull	a14, a12, a14
    271f:	62ebe0        	saltu	a14, a11, a14
    2722:	833de0        	moveqz	a3, a13, a14
    2725:	d31b           	addi.n	a13, a3, 1
    2727:	908d40        	addx2	a8, a13, a4
    272a:	28ed           	ae_l16si.n	a14, a8, 0
    272c:	828ce0        	mull	a8, a12, a14
    272f:	03ed           	mov.n	a14, a3
    2731:	283b87        	bltu	a11, a8, 275d <processAriDecoder_fx+0x1e9>
    2734:	e80c           	movi.n	a8, 14
    2736:	0ded           	mov.n	a14, a13
    2738:	219387        	bne	a3, a8, 275d <processAriDecoder_fx+0x1e9>
    273b:	109432        	l16si	a3, a4, 32
    273e:	0e1c           	movi.n	a14, 16
    2740:	00ac82        	movi	a8, 0xfffffc00
    2743:	823c30        	mull	a3, a12, a3
    2746:	106680        	and	a6, a6, a8
    2749:	623b30        	saltu	a3, a11, a3
    274c:	83de30        	moveqz	a13, a14, a3
    274f:	1138           	l32i.n	a3, a1, 4
    2751:	626b60        	saltu	a6, a11, a6
    2754:	1e0c           	movi.n	a14, 1
    2756:	833e60        	moveqz	a3, a14, a6
    2759:	0ded           	mov.n	a14, a13
    275b:	1139           	s32i.n	a3, a1, 4
    275d:	113ef0        	slli	a3, a14, 1
    2760:	643a           	add.n	a6, a4, a3
    2762:	393a           	add.n	a3, a9, a3
    2764:	266d           	ae_l16si.n	a6, a6, 0
    2766:	233d           	ae_l16si.n	a3, a3, 0
    2768:	65ed           	ae_s16i.n	a14, a5, 0
    276a:	8286c0        	mull	a8, a6, a12
    276d:	826c30        	mull	a6, a12, a3
    2770:	c0bb80        	sub	a11, a11, a8
    2773:	1716f6        	bgeui	a6, 0x10000, 278e <processAriDecoder_fx+0x21a>
    2776:	0b3d           	mov.n	a3, a11
    2778:	878d           	ae_sext16	a8, a7
    277a:	828a           	add.n	a8, a2, a8
    277c:	0008b2        	l8ui	a11, a8, 0
    277f:	06ed           	mov.n	a14, a6
    2781:	771b           	addi.n	a7, a7, 1
    2783:	8af3b0        	depbits	a11, a3, 8, 16
    2786:	116680        	slli	a6, a6, 8
    2789:	0b3d           	mov.n	a3, a11
    278b:	e9feb6        	bltui	a14, 0x100, 2778 <processAriDecoder_fx+0x204>
    278e:	2a3d           	ae_l16si.n	a3, a10, 0
    2790:	ff1b           	addi.n	a15, a15, 1
    2792:	0a8d           	mov.n	a8, a10
    2794:	22c442        	addi	a4, a4, 34
    2797:	22c992        	addi	a9, a9, 34
    279a:	552b           	addi.n	a5, a5, 2
    279c:	02af37        	bge	a15, a3, 27a2 <processAriDecoder_fx+0x22e>
    279f:	ffcf06        	j	26df <processAriDecoder_fx+0x16b>
    27a2:	7138           	l32i.n	a3, a1, 28
    27a4:	61f8           	l32i.n	a15, a1, 24
    27a6:	882b           	addi.n	a8, a8, 2
    27a8:	10c332        	addi	a3, a3, 16
    27ab:	7139           	s32i.n	a3, a1, 28
    27ad:	3f0b           	addi.n	a3, a15, -1
    27af:	6139           	s32i.n	a3, a1, 24
    27b1:	e98356        	bnez	a3, 264d <processAriDecoder_fx+0xd9>
    27b4:	1138           	l32i.n	a3, a1, 4
    27b6:	0213a6        	blti	a3, 1, 27bc <processAriDecoder_fx+0x248>
    27b9:	0087c6        	j	29dc <processAriDecoder_fx+0x468>
    27bc:	000286        	j	27ca <processAriDecoder_fx+0x256>

000027bf <processAriDecoder_fx+0x24b>:
    27bf:	f67c           	movi.n	a6, -1
    27c1:	030c           	movi.n	a3, 0
    27c3:	416860        	srli	a6, a6, 8
    27c6:	370c           	movi.n	a7, 3
    27c8:	1139           	s32i.n	a3, a1, 4
    27ca:	fc20b0213e 	{ l32i	a3, a1, 8; ae_zerop48	aep0 }
    27cf:	d1d8           	l32i.n	a13, a1, 52
    27d1:	0f0c           	movi.n	a15, 0
    27d3:	21c130        	srai	a12, a3, 1
    27d6:	0e0c           	movi.n	a14, 0
    27d8:	41c9           	s32i.n	a12, a1, 16
    27da:	021de6        	bgei	a13, 1, 27e0 <processAriDecoder_fx+0x26c>
    27dd:	008106        	j	29e5 <processAriDecoder_fx+0x471>
    27e0:	9138           	l32i.n	a3, a1, 36
    27e2:	81d8           	l32i.n	a13, a1, 32
    27e4:	040c           	movi.n	a4, 0
    27e6:	723e30        	salt	a3, a14, a3
    27e9:	f672e1        	l32r	a14, 1b4 (1ad90 <Tab_T+0x140>)
    27ec:	c139           	s32i.n	a3, a1, 48
    27ee:	fccd82        	addi	a8, a13, -4
    27f1:	3e2b           	addi.n	a3, a14, 2
    27f3:	e0a0d2        	movi	a13, 224
    27f6:	0f0c           	movi.n	a15, 0
    27f8:	b139           	s32i.n	a3, a1, 44
    27fa:	090c           	movi.n	a9, 0
    27fc:	0e0c           	movi.n	a14, 0
    27fe:	001e86        	j	287c <processAriDecoder_fx+0x308>

00002801 <processAriDecoder_fx+0x28d>:
    2801:	e30c           	movi.n	a3, 14
    2803:	029937        	bne	a9, a3, 2809 <processAriDecoder_fx+0x295>
    2806:	007486        	j	29dc <processAriDecoder_fx+0x468>
    2809:	a138           	l32i.n	a3, a1, 40
    280b:	41c8           	l32i.n	a12, a1, 16
    280d:	91e8           	l32i.n	a14, a1, 36
    280f:	51f8           	l32i.n	a15, a1, 20
    2811:	0c1366        	bnei	a3, 1, 2821 <processAriDecoder_fx+0x2ad>
    2814:	3158           	l32i.n	a5, a1, 12
    2816:	8f4d           	ae_sext16	a4, a15
    2818:	3f1b           	addi.n	a3, a15, 1
    281a:	904450        	addx2	a4, a4, a5
    281d:	03fd           	mov.n	a15, a3
    281f:	64ed           	ae_s16i.n	a14, a4, 0
    2821:	f66741        	l32r	a4, 1c0 (1ad50 <Tab_T+0x100>)
    2824:	113de0        	slli	a3, a13, 2
    2827:	031694        	wur.ae_sar	a9
    282a:	452434        	ae_lp16x2f.x	aep2, a4, a3
    282d:	f92bb0718e 	{ l32i	a8, a1, 28; ae_sllssp24s	aep2, aep2 }
    2832:	079214        	ae_addsp24s	aep1, aep1, aep2
    2835:	f65d51        	l32r	a5, 1ac (1b424 <g_p_dec_stream>)
    2838:	469814        	ae_sp16x2f.iu	aep1, a8, 4
    283b:	28ad           	ae_l16si.n	a10, a8, 0
    283d:	034f14        	ae_lbi	a4, 1
    2840:	0538           	l32i.n	a3, a5, 0
    2842:	0e1aa6        	blti	a10, 1, 2854 <processAriDecoder_fx+0x2e0>
    2845:	0013f4        	ae_dbi	a3, 1
    2848:	0539           	s32i.n	a3, a5, 0
    284a:	061466        	bnei	a4, 1, 2854 <processAriDecoder_fx+0x2e0>
    284d:	283d           	ae_l16si.n	a3, a8, 0
    284f:	603030        	neg	a3, a3
    2852:	683d           	ae_s16i.n	a3, a8, 0
    2854:	383d           	ae_l16si.n	a3, a8, 2
    2856:	f65551        	l32r	a5, 1ac (1b424 <g_p_dec_stream>)
    2859:	034f14        	ae_lbi	a4, 1
    285c:	1013a6        	blti	a3, 1, 2870 <processAriDecoder_fx+0x2fc>
    285f:	0538           	l32i.n	a3, a5, 0
    2861:	0013f4        	ae_dbi	a3, 1
    2864:	0539           	s32i.n	a3, a5, 0
    2866:	061466        	bnei	a4, 1, 2870 <processAriDecoder_fx+0x2fc>
    2869:	383d           	ae_l16si.n	a3, a8, 2
    286b:	603030        	neg	a3, a3
    286e:	783d           	ae_s16i.n	a3, a8, 2
    2870:	d138           	l32i.n	a3, a1, 52
    2872:	6148           	l32i.n	a4, a1, 24
    2874:	ee2b           	addi.n	a14, a14, 2
    2876:	022e37        	blt	a14, a3, 287c <processAriDecoder_fx+0x308>
    2879:	005a06        	j	29e5 <processAriDecoder_fx+0x471>
    287c:	f64f51        	l32r	a5, 1b8 (1ac50 <Tab_T>)
    287f:	1139c0        	slli	a3, a9, 4
    2882:	3d3a           	add.n	a3, a13, a3
    2884:	353a           	add.n	a3, a5, a3
    2886:	000332        	l8ui	a3, a3, 0
    2889:	344040        	extui	a4, a4, 0, 4
    288c:	7189           	s32i.n	a8, a1, 28
    288e:	c188           	l32i.n	a8, a1, 48
    2890:	1144c0        	slli	a4, a4, 4
    2893:	443a           	add.n	a4, a4, a3
    2895:	6149           	s32i.n	a4, a1, 24
    2897:	9a0840        	depbits	a4, a8, 9, 1
    289a:	f63f91        	l32r	a9, 198 (15f50 <ari_spec_lookup>)
    289d:	72dce0        	salt	a13, a12, a14
    28a0:	01d452        	addmi	a5, a4, 0x100
    28a3:	8354d0        	moveqz	a5, a4, a13
    28a6:	395a           	add.n	a3, a9, a5
    28a8:	000332        	l8ui	a3, a3, 0
    28ab:	f63d91        	l32r	a9, 1a0 (177d0 <ari_spec_freq>)
    28ae:	414a60        	srli	a4, a6, 10
    28b1:	233300        	sext	a3, a3, 7
    28b4:	11a3b0        	slli	a10, a3, 5
    28b7:	9033a0        	addx2	a3, a3, a10
    28ba:	f638a1        	l32r	a10, 19c (16f50 <ari_spec_cumfreq>)
    28bd:	893a           	add.n	a8, a9, a3
    28bf:	1d1c           	movi.n	a13, 17
    28c1:	9a3a           	add.n	a9, a10, a3
    28c3:	22c832        	addi	a3, a8, 34
    28c6:	20c992        	addi	a9, a9, 32
    28c9:	298d           	ae_l16si.n	a8, a9, 0
    28cb:	fec992        	addi	a9, a9, -2
    28ce:	fec332        	addi	a3, a3, -2
    28d1:	828480        	mull	a8, a4, a8
    28d4:	dd0b           	addi.n	a13, a13, -1
    28d6:	ef3b87        	bltu	a11, a8, 28c9 <processAriDecoder_fx+0x355>
    28d9:	239d           	ae_l16si.n	a9, a3, 0
    28db:	623b60        	saltu	a3, a11, a6
    28de:	c0bb80        	sub	a11, a11, a8
    28e1:	826490        	mull	a6, a4, a9
    28e4:	0b4d           	mov.n	a4, a11
    28e6:	1516f6        	bgeui	a6, 0x10000, 28ff <processAriDecoder_fx+0x38b>
    28e9:	878d           	ae_sext16	a8, a7
    28eb:	828a           	add.n	a8, a2, a8
    28ed:	0008b2        	l8ui	a11, a8, 0
    28f0:	06ad           	mov.n	a10, a6
    28f2:	771b           	addi.n	a7, a7, 1
    28f4:	8af4b0        	depbits	a11, a4, 8, 16
    28f7:	116680        	slli	a6, a6, 8
    28fa:	0b4d           	mov.n	a4, a11
    28fc:	e9fab6        	bltui	a10, 0x100, 28e9 <processAriDecoder_fx+0x375>
    28ff:	fc20f0118e 	{ l32i	a8, a1, 4; ae_zerop48	aep1 }
    2904:	140c           	movi.n	a4, 1
    2906:	090c           	movi.n	a9, 0
    2908:	838430        	moveqz	a8, a4, a3
    290b:	1189           	s32i.n	a8, a1, 4
    290d:	02bde6        	bgei	a13, 16, 2913 <processAriDecoder_fx+0x39f>
    2910:	ffc346        	j	2821 <processAriDecoder_fx+0x2ad>
    2913:	a138           	l32i.n	a3, a1, 40
    2915:	51f9           	s32i.n	a15, a1, 20
    2917:	91e9           	s32i.n	a14, a1, 36
    2919:	73dc           	bnez.n	a3, 2934 <processAriDecoder_fx+0x3c0>
    291b:	f62481        	l32r	a8, 1ac (1b424 <g_p_dec_stream>)
    291e:	034f24        	ae_lbi	a4, 2
    2921:	f62691        	l32r	a9, 1bc (1ad40 <Tab_T+0xf0>)
    2924:	0838           	l32i.n	a3, a8, 0
    2926:	1144e0        	slli	a4, a4, 2
    2929:	451944        	ae_lp16x2f.x	aep1, a9, a4
    292c:	0023f4        	ae_dbi	a3, 2
    292f:	d82154083f 	{ s32i.n	a3, a8, 0; ae_addsp24s	aep1, aep0, aep1 }
    2934:	b148           	l32i.n	a4, a1, 44
    2936:	190c           	movi.n	a9, 1
    2938:	243d           	ae_l16si.n	a3, a4, 0
    293a:	f61781        	l32r	a8, 198 (15f50 <ari_spec_lookup>)
    293d:	cd1b           	addi.n	a12, a13, 1
    293f:	353a           	add.n	a3, a5, a3
    2941:	383a           	add.n	a3, a8, a3
    2943:	000332        	l8ui	a3, a3, 0
    2946:	41fa60        	srli	a15, a6, 10
    2949:	233300        	sext	a3, a3, 7
    294c:	b0a330        	addx8	a10, a3, a3
    294f:	d08a30        	subx2	a8, a10, a3
    2952:	f612a1        	l32r	a10, 19c (16f50 <ari_spec_cumfreq>)
    2955:	11e3b0        	slli	a14, a3, 5
    2958:	9033e0        	addx2	a3, a3, a14
    295b:	3a3a           	add.n	a3, a10, a3
    295d:	f610a1        	l32r	a10, 1a0 (177d0 <ari_spec_freq>)
    2960:	8d8a           	add.n	a8, a13, a8
    2962:	90e8a0        	addx2	a14, a8, a10
    2965:	908d30        	addx2	a8, a13, a3
    2968:	0cdd           	mov.n	a13, a12
    296a:	3e2b           	addi.n	a3, a14, 2
    296c:	48cd           	ae_l16ui.n	a12, a8, 0
    296e:	fec882        	addi	a8, a8, -2
    2971:	fec332        	addi	a3, a3, -2
    2974:	82cfc0        	mull	a12, a15, a12
    2977:	dd0b           	addi.n	a13, a13, -1
    2979:	ef3bc7        	bltu	a11, a12, 296c <processAriDecoder_fx+0x3f8>
    297c:	438d           	ae_l16ui.n	a8, a3, 0
    297e:	623b60        	saltu	a3, a11, a6
    2981:	c0bbc0        	sub	a11, a11, a12
    2984:	826f80        	mull	a6, a15, a8
    2987:	0bfd           	mov.n	a15, a11
    2989:	1516f6        	bgeui	a6, 0x10000, 29a2 <processAriDecoder_fx+0x42e>
    298c:	878d           	ae_sext16	a8, a7
    298e:	828a           	add.n	a8, a2, a8
    2990:	0008b2        	l8ui	a11, a8, 0
    2993:	06ed           	mov.n	a14, a6
    2995:	771b           	addi.n	a7, a7, 1
    2997:	8affb0        	depbits	a11, a15, 8, 16
    299a:	116680        	slli	a6, a6, 8
    299d:	0bfd           	mov.n	a15, a11
    299f:	e9feb6        	bltui	a14, 0x100, 298c <processAriDecoder_fx+0x418>
    29a2:	11a8           	l32i.n	a10, a1, 4
    29a4:	180c           	movi.n	a8, 1
    29a6:	03ff24        	ae_lbi	a15, 2
    29a9:	83a830        	moveqz	a10, a8, a3
    29ac:	11a9           	s32i.n	a10, a1, 4
    29ae:	02bde6        	bgei	a13, 16, 29b4 <processAriDecoder_fx+0x440>
    29b1:	ff9306        	j	2801 <processAriDecoder_fx+0x28d>
    29b4:	f5fec1        	l32r	a12, 1ac (1b424 <g_p_dec_stream>)
    29b7:	f60181        	l32r	a8, 1bc (1ad40 <Tab_T+0xf0>)
    29ba:	031694        	wur.ae_sar	a9
    29bd:	0ce8           	l32i.n	a14, a12, 0
    29bf:	113fe0        	slli	a3, a15, 2
    29c2:	452834        	ae_lp16x2f.x	aep2, a8, a3
    29c5:	002ef4        	ae_dbi	a14, 2
    29c8:	f92b80199e 	{ addi	a9, a9, 1; ae_sllssp24s	aep2, aep2 }
    29cd:	d845400eff 	{ movi	a15, 14; ae_addsp24s	aep1, aep1, aep2 }
    29d2:	442b           	addi.n	a4, a4, 2
    29d4:	0ce9           	s32i.n	a14, a12, 0
    29d6:	0219f7        	beq	a9, a15, 29dc <processAriDecoder_fx+0x468>
    29d9:	ffd6c6        	j	2938 <processAriDecoder_fx+0x3c4>
    29dc:	172132        	l32i	a3, a1, 92
    29df:	120c           	movi.n	a2, 1
    29e1:	632d           	ae_s16i.n	a2, a3, 0
    29e3:	f01d           	retw.n

000029e5 <processAriDecoder_fx+0x471>:
    29e5:	f5f121        	l32r	a2, 1ac (1b424 <g_p_dec_stream>)
    29e8:	f5f231        	l32r	a3, 1b0 (1b420 <g_p_dec_based>)
    29eb:	0042c4        	rur.ae_bitptr	a4
    29ee:	0228           	l32i.n	a2, a2, 0
    29f0:	0338           	l32i.n	a3, a3, 0
    29f2:	1621c2        	l32i	a12, a1, 88
    29f5:	7b0c           	movi.n	a11, 7
    29f7:	c02230        	sub	a2, a2, a3
    29fa:	112210        	slli	a2, a2, 15
    29fd:	623b40        	saltu	a3, a11, a4
    2a00:	312020        	srai	a2, a2, 16
    2a03:	51f9           	s32i.n	a15, a1, 20
    2a05:	1121d2        	l32i	a13, a1, 68
    2a08:	11f8           	l32i.n	a15, a1, 4
    2a0a:	c03c30        	sub	a3, a12, a3
    2a0d:	1122f0        	slli	a2, a2, 1
    2a10:	c02320        	sub	a2, a3, a2
    2a13:	6d2d           	ae_s16i.n	a2, a13, 0
    2a15:	c31fe6        	bgei	a15, 1, 29dc <processAriDecoder_fx+0x468>
    2a18:	873d           	ae_sext16	a3, a7
    2a1a:	822d           	ae_sext16	a2, a2
    2a1c:	c02320        	sub	a2, a3, a2
    2a1f:	b942e6        	bgei	a2, 4, 29dc <processAriDecoder_fx+0x468>
    2a22:	2128           	l32i.n	a2, a1, 8
    2a24:	8138           	l32i.n	a3, a1, 32
    2a26:	21f8           	l32i.n	a15, a1, 8
    2a28:	10ae27        	bge	a14, a2, 2a3c <processAriDecoder_fx+0x4c8>
    2a2b:	0b0c           	movi.n	a11, 0
    2a2d:	90ae30        	addx2	a10, a14, a3
    2a30:	c02fe0        	sub	a2, a15, a14
    2a33:	11c2f0        	slli	a12, a2, 1
    2a36:	f58d21        	l32r	a2, 6c (cc0 <basop_memset>)
    2a39:	0002e0        	callx8	a2
    2a3c:	f5dc31        	l32r	a3, 1ac (1b424 <g_p_dec_stream>)
    2a3f:	f5dc41        	l32r	a4, 1b0 (1b420 <g_p_dec_based>)
    2a42:	f5e0e1        	l32r	a14, 1c4 (fff0000 <_end+0xffd4bcc>)
    2a45:	0338           	l32i.n	a3, a3, 0
    2a47:	0448           	l32i.n	a4, a4, 0
    2a49:	1521d2        	l32i	a13, a1, 84
    2a4c:	00f2c4        	rur.ae_bitptr	a15
    2a4f:	c03340        	sub	a3, a3, a4
    2a52:	113310        	slli	a3, a3, 15
    2a55:	40f620        	nsau	a2, a6
    2a58:	1157d0        	slli	a5, a7, 3
    2a5b:	33ea           	add.n	a3, a3, a14
    2a5d:	413c30        	srli	a3, a3, 12
    2a60:	832660        	moveqz	a2, a6, a6
    2a63:	c05d50        	sub	a5, a13, a5
    2a66:	c02520        	sub	a2, a5, a2
    2a69:	33fa           	add.n	a3, a3, a15
    2a6b:	c02230        	sub	a2, a2, a3
    2a6e:	1ec222        	addi	a2, a2, 30
    2a71:	822d           	ae_sext16	a2, a2
    2a73:	f65296        	bltz	a2, 29dc <processAriDecoder_fx+0x468>
    2a76:	a138           	l32i.n	a3, a1, 40
    2a78:	e1f8           	l32i.n	a15, a1, 56
    2a7a:	5148           	l32i.n	a4, a1, 20
    2a7c:	120316        	beqz	a3, 2ba0 <processAriDecoder_fx+0x62c>
    2a7f:	030c           	movi.n	a3, 0
    2a81:	6f3d           	ae_s16i.n	a3, a15, 0
    2a83:	1021b2        	l32i	a11, a1, 64
    2a86:	81c8           	l32i.n	a12, a1, 32
    2a88:	f1d8           	l32i.n	a13, a1, 60
    2a8a:	41f8           	l32i.n	a15, a1, 16
    2a8c:	846d           	ae_sext16	a6, a4
    2a8e:	0216e6        	bgei	a6, 1, 2a94 <processAriDecoder_fx+0x520>
    2a91:	003206        	j	2b5d <processAriDecoder_fx+0x5e9>
    2a94:	ffaf42        	movi	a4, -1
    2a97:	f44040        	extui	a4, a4, 0, 16
    2a9a:	ffaf52        	movi	a5, -1
    2a9d:	bc8676        	loop	a6, 2b5d <processAriDecoder_fx+0x5e9>
    2aa0:	0b9216        	beqz	a2, 2b5d <processAriDecoder_fx+0x5e9>
    2aa3:	3168           	l32i.n	a6, a1, 12
    2aa5:	f5c1e1        	l32r	a14, 1ac (1b424 <g_p_dec_stream>)
    2aa8:	037f14        	ae_lbi	a7, 1
    2aab:	266d           	ae_l16si.n	a6, a6, 0
    2aad:	0e98           	l32i.n	a9, a14, 0
    2aaf:	11a700        	slli	a10, a7, 16
    2ab2:	9066c0        	addx2	a6, a6, a12
    2ab5:	267d           	ae_l16si.n	a7, a6, 0
    2ab7:	0019f4        	ae_dbi	a9, 1
    2aba:	820b           	addi.n	a8, a2, -1
    2abc:	886d           	ae_sext16	a6, a8
    2abe:	0e99           	s32i.n	a9, a14, 0
    2ac0:	311aa6        	blti	a10, 1, 2af5 <processAriDecoder_fx+0x581>
    2ac3:	729370        	salt	a9, a3, a7
    2ac6:	779a           	add.n	a7, a7, a9
    2ac8:	877d           	ae_sext16	a7, a7
    2aca:	025796        	bltz	a7, 2af3 <processAriDecoder_fx+0x57f>
    2acd:	47ec           	bnez.n	a7, 2af5 <processAriDecoder_fx+0x581>
    2acf:	028487        	bany	a4, a8, 2ad5 <processAriDecoder_fx+0x561>
    2ad2:	0021c6        	j	2b5d <processAriDecoder_fx+0x5e9>
    2ad5:	f5b591        	l32r	a9, 1ac (1b424 <g_p_dec_stream>)
    2ad8:	036f14        	ae_lbi	a6, 1
    2adb:	fec222        	addi	a2, a2, -2
    2ade:	0988           	l32i.n	a8, a9, 0
    2ae0:	170c           	movi.n	a7, 1
    2ae2:	112200        	slli	a2, a2, 16
    2ae5:	0018f4        	ae_dbi	a8, 1
    2ae8:	937560        	movnez	a7, a5, a6
    2aeb:	316020        	srai	a6, a2, 16
    2aee:	0989           	s32i.n	a8, a9, 0
    2af0:	000046        	j	2af5 <processAriDecoder_fx+0x581>

00002af3 <processAriDecoder_fx+0x57f>:
    2af3:	770b           	addi.n	a7, a7, -1
    2af5:	3128           	l32i.n	a2, a1, 12
    2af7:	3188           	l32i.n	a8, a1, 12
    2af9:	f5ace1        	l32r	a14, 1ac (1b424 <g_p_dec_stream>)
    2afc:	222d           	ae_l16si.n	a2, a2, 0
    2afe:	03af14        	ae_lbi	a10, 1
    2b01:	0e98           	l32i.n	a9, a14, 0
    2b03:	9022c0        	addx2	a2, a2, a12
    2b06:	627d           	ae_s16i.n	a7, a2, 0
    2b08:	051616        	beqz	a6, 2b5d <processAriDecoder_fx+0x5e9>
    2b0b:	282d           	ae_l16si.n	a2, a8, 0
    2b0d:	11aa00        	slli	a10, a10, 16
    2b10:	0019f4        	ae_dbi	a9, 1
    2b13:	9022c0        	addx2	a2, a2, a12
    2b16:	327d           	ae_l16si.n	a7, a2, 2
    2b18:	860b           	addi.n	a8, a6, -1
    2b1a:	882d           	ae_sext16	a2, a8
    2b1c:	0e99           	s32i.n	a9, a14, 0
    2b1e:	2e1aa6        	blti	a10, 1, 2b50 <processAriDecoder_fx+0x5dc>
    2b21:	729370        	salt	a9, a3, a7
    2b24:	779a           	add.n	a7, a7, a9
    2b26:	877d           	ae_sext16	a7, a7
    2b28:	022796        	bltz	a7, 2b4e <processAriDecoder_fx+0x5da>
    2b2b:	17ec           	bnez.n	a7, 2b50 <processAriDecoder_fx+0x5dc>
    2b2d:	2c0487        	bnone	a4, a8, 2b5d <processAriDecoder_fx+0x5e9>
    2b30:	f59f91        	l32r	a9, 1ac (1b424 <g_p_dec_stream>)
    2b33:	032f14        	ae_lbi	a2, 1
    2b36:	170c           	movi.n	a7, 1
    2b38:	0988           	l32i.n	a8, a9, 0
    2b3a:	fec6e2        	addi	a14, a6, -2
    2b3d:	937520        	movnez	a7, a5, a2
    2b40:	112e00        	slli	a2, a14, 16
    2b43:	0018f4        	ae_dbi	a8, 1
    2b46:	312020        	srai	a2, a2, 16
    2b49:	0989           	s32i.n	a8, a9, 0
    2b4b:	000046        	j	2b50 <processAriDecoder_fx+0x5dc>

00002b4e <processAriDecoder_fx+0x5da>:
    2b4e:	770b           	addi.n	a7, a7, -1
    2b50:	3188           	l32i.n	a8, a1, 12
    2b52:	286d           	ae_l16si.n	a6, a8, 0
    2b54:	882b           	addi.n	a8, a8, 2
    2b56:	3189           	s32i.n	a8, a1, 12
    2b58:	9066c0        	addx2	a6, a6, a12
    2b5b:	767d           	ae_s16i.n	a7, a6, 2

00002b5d <processAriDecoder_fx+0x5e9>:
    2b5d:	2128           	l32i.n	a2, a1, 8
    2b5f:	230c           	movi.n	a3, 2
    2b61:	fc2498833f 	{ ae_cvtp24a16x2.ll	aep0, a3, a3; ae_zeroq56	aeq0 }
    2b66:	1b22a6        	blti	a2, 2, 2b85 <processAriDecoder_fx+0x611>
    2b69:	0c2d           	mov.n	a2, a12
    2b6b:	44a204        	ae_lp16x2f.iu	aep2, a2, 0
    2b6e:	130c           	movi.n	a3, 1
    2b70:	040c           	movi.n	a4, 0
    2b72:	fd4018943f 	{ ae_cvtp24a16x2.ll	aep1, a4, a3; ae_absp24	aep2, aep2 }
    2b77:	0a8f76        	loop	a15, 2b85 <processAriDecoder_fx+0x611>
    2b7a:	e228adf21f 	{ ae_lp16x2f.iu	aep7, a2, 4; ae_mulaap24s.hh.ll	aeq0, aep2, aep1 }
    2b7f:	079014        	ae_addsp24s	aep1, aep1, aep0
    2b82:	07bf24        	ae_absp24	aep2, aep7
    2b85:	d1f8           	l32i.n	a15, a1, 52
    2b87:	368204        	ae_trunca32q48	a2, aeq0
    2b8a:	6d2d           	ae_s16i.n	a2, a13, 0
    2b8c:	0a2f66        	bnei	a15, 2, 2b9a <processAriDecoder_fx+0x626>
    2b8f:	4c2d           	ae_l16ui.n	a2, a12, 0
    2b91:	132132        	l32i	a3, a1, 76
    2b94:	122142        	l32i	a4, a1, 72
    2b97:	052216        	beqz	a2, 2bed <processAriDecoder_fx+0x679>

00002b9a <processAriDecoder_fx+0x626>:
    2b9a:	020c           	movi.n	a2, 0
    2b9c:	6b2d           	ae_s16i.n	a2, a11, 0
    2b9e:	f01d           	retw.n

00002ba0 <processAriDecoder_fx+0x62c>:
    2ba0:	e178           	l32i.n	a7, a1, 56
    2ba2:	2148           	l32i.n	a4, a1, 8
    2ba4:	1021b2        	l32i	a11, a1, 64
    2ba7:	81c8           	l32i.n	a12, a1, 32
    2ba9:	f1d8           	l32i.n	a13, a1, 60
    2bab:	41f8           	l32i.n	a15, a1, 16
    2bad:	023d           	mov.n	a3, a2
    2baf:	672d           	ae_s16i.n	a2, a7, 0
    2bb1:	3014a6        	blti	a4, 1, 2be5 <processAriDecoder_fx+0x671>
    2bb4:	2148           	l32i.n	a4, a1, 8
    2bb6:	142182        	l32i	a8, a1, 80
    2bb9:	f57c61        	l32r	a6, 1ac (1b424 <g_p_dec_stream>)
    2bbc:	0c3d           	mov.n	a3, a12
    2bbe:	1f8476        	loop	a4, 2be1 <processAriDecoder_fx+0x66d>
    2bc1:	434d           	ae_l16ui.n	a4, a3, 0
    2bc3:	06e8           	l32i.n	a14, a6, 0
    2bc5:	920b           	addi.n	a9, a2, -1
    2bc7:	449c           	beqz.n	a4, 2bdf <processAriDecoder_fx+0x66b>
    2bc9:	52bc           	beqz.n	a2, 2c02 <processAriDecoder_fx+0x68e>
    2bcb:	034f14        	ae_lbi	a4, 1
    2bce:	684d           	ae_s16i.n	a4, a8, 0
    2bd0:	582b           	addi.n	a5, a8, 2
    2bd2:	112900        	slli	a2, a9, 16
    2bd5:	001ef4        	ae_dbi	a14, 1
    2bd8:	312020        	srai	a2, a2, 16
    2bdb:	058d           	mov.n	a8, a5
    2bdd:	06e9           	s32i.n	a14, a6, 0
    2bdf:	332b           	addi.n	a3, a3, 2

00002be1 <processAriDecoder_fx+0x66d>:
    2be1:	023d           	mov.n	a3, a2
    2be3:	472d           	ae_l16ui.n	a2, a7, 0

00002be5 <processAriDecoder_fx+0x671>:
    2be5:	c02230        	sub	a2, a2, a3
    2be8:	672d           	ae_s16i.n	a2, a7, 0
    2bea:	ffdbc6        	j	2b5d <processAriDecoder_fx+0x5e9>

00002bed <processAriDecoder_fx+0x679>:
    2bed:	a97366        	bnei	a3, 7, 2b9a <processAriDecoder_fx+0x626>
    2bf0:	3c2d           	ae_l16si.n	a2, a12, 2
    2bf2:	f37c           	movi.n	a3, -1
    2bf4:	f43030        	extui	a3, a3, 0, 16
    2bf7:	202240        	or	a2, a2, a4
    2bfa:	9c8327        	bany	a3, a2, 2b9a <processAriDecoder_fx+0x626>
    2bfd:	120c           	movi.n	a2, 1
    2bff:	ffe646        	j	2b9c <processAriDecoder_fx+0x628>

00002c02 <processAriDecoder_fx+0x68e>:
    2c02:	020c           	movi.n	a2, 0
    2c04:	fff646        	j	2be1 <processAriDecoder_fx+0x66d>

00002c07 <processAriDecoder_fx+0x693>:
	...

00002c08 <processAriDecoderScaling_fx>:
    2c08:	004136        	entry	a1, 32
    2c0b:	fc20ed820f 	{ ae_lp16x2f.iu	aep0, a2, 0; ae_zerop48	aep1 }
    2c10:	216130        	srai	a6, a3, 1
    2c13:	1123a6        	blti	a3, 2, 2c28 <processAriDecoderScaling_fx+0x20>
    2c16:	f96293722f 	{ or	a7, a2, a2; ae_movp48	aep2, aep0 }
    2c1b:	f03d           	nop.n
    2c1d:	078676        	loop	a6, 2c28 <processAriDecoderScaling_fx+0x20>
    2c20:	fd486da71f 	{ ae_lp16x2f.iu	aep2, a7, 4; ae_abssp24s	aep3, aep2 }
    2c25:	0f9b14        	ae_orp48	aep1, aep1, aep3

00002c28 <processAriDecoderScaling_fx+0x20>:
    2c28:	dd25800f7f 	{ movi	a7, 15; ae_selp24.lh	aep2, aep1, aep1 }
    2c2d:	071a14        	ae_maxp24s	aep1, aep1, aep2
    2c30:	361824        	ae_trunca16p24s.l	a8, aep1
    2c33:	40e890        	nsa	a9, a8
    2c36:	98ad           	ae_zext16	a10, a8
    2c38:	f0c982        	addi	a8, a9, -16
    2c3b:	8387a0        	moveqz	a8, a7, a10
    2c3e:	031684        	wur.ae_sar	a8
    2c41:	0d23a6        	blti	a3, 2, 2c52 <processAriDecoderScaling_fx+0x4a>
    2c44:	f8c432        	addi	a3, a4, -8
    2c47:	078676        	loop	a6, 2c52 <processAriDecoderScaling_fx+0x4a>
    2c4a:	f823ed821f 	{ ae_lp16x2f.iu	aep0, a2, 4; ae_sllssp24s	aep1, aep0 }
    2c4f:	5e9314        	ae_sp24x2f.iu	aep1, a3, 8
    2c52:	c02780        	sub	a2, a7, a8
    2c55:	652d           	ae_s16i.n	a2, a5, 0
    2c57:	f01d           	retw.n

00002c59 <processAriDecoderScaling_fx+0x51>:
    2c59:	000000                                        ...

00002c5c <find_last_nz_pair>:
    2c5c:	006136        	entry	a1, 48
    2c5f:	216130        	srai	a6, a3, 1
    2c62:	217230        	srai	a7, a3, 2
    2c65:	055162        	s16i	a6, a1, 10
    2c68:	676a           	add.n	a6, a7, a6
    2c6a:	41e330        	srli	a14, a3, 3
    2c6d:	440c           	movi.n	a4, 4
    2c6f:	76ea           	add.n	a7, a6, a14
    2c71:	ff7c           	movi.n	a15, -1
    2c73:	065162        	s16i	a6, a1, 12
    2c76:	075172        	s16i	a7, a1, 14
    2c79:	51eb           	addi.n	a5, a1, 14
    2c7b:	060c           	movi.n	a6, 0
    2c7d:	017ff0        	slli	a7, a15, 17
    2c80:	fcc222        	addi	a2, a2, -4
    2c83:	045142        	s16i	a4, a1, 8

00002c86 <find_last_nz_pair+0x2a>:
    2c86:	440b           	addi.n	a4, a4, -1
    2c88:	034496        	bltz	a4, 2cc0 <find_last_nz_pair+0x64>
    2c8b:	259d           	ae_l16si.n	a9, a5, 0
    2c8d:	908320        	addx2	a8, a3, a2
    2c90:	262397        	blt	a3, a9, 2cba <find_last_nz_pair+0x5e>
    2c93:	c09390        	sub	a9, a3, a9
    2c96:	992b           	addi.n	a9, a9, 2
    2c98:	41a190        	srli	a10, a9, 1
    2c9b:	119300        	slli	a9, a3, 16
    2c9e:	188a76        	loop	a10, 2cba <find_last_nz_pair+0x5e>
    2ca1:	48bd           	ae_l16ui.n	a11, a8, 0
    2ca3:	31a090        	srai	a10, a9, 16
    2ca6:	1b8c           	beqz.n	a11, 2cab <find_last_nz_pair+0x4f>
    2ca8:	5366a0        	max	a6, a6, a10
    2cab:	58bd           	ae_l16ui.n	a11, a8, 2
    2cad:	1b8c           	beqz.n	a11, 2cb2 <find_last_nz_pair+0x56>
    2caf:	5366a0        	max	a6, a6, a10
    2cb2:	fec332        	addi	a3, a3, -2
    2cb5:	fcc882        	addi	a8, a8, -4
    2cb8:	997a           	add.n	a9, a9, a7

00002cba <find_last_nz_pair+0x5e>:
    2cba:	fec552        	addi	a5, a5, -2
    2cbd:	c516a6        	blti	a6, 1, 2c86 <find_last_nz_pair+0x2a>

00002cc0 <find_last_nz_pair+0x64>:
    2cc0:	220c           	movi.n	a2, 2
    2cc2:	532620        	max	a2, a6, a2
    2cc5:	f01d           	retw.n

00002cc7 <find_last_nz_pair+0x6b>:
	...

00002cc8 <processSnsQuantizeScfEncoder_fx>:
    2cc8:	018136        	entry	a1, 192
    2ccb:	186132        	s32i	a3, a1, 96
    2cce:	f53e31        	l32r	a3, 1c8 (1a650 <st1SCF0_7_base5_32x8_Q14>)
    2cd1:	f53e71        	l32r	a7, 1cc (3148 <stage1_base>)
    2cd4:	02ad           	mov.n	a10, a2
    2cd6:	03bd           	mov.n	a11, a3
    2cd8:	056d           	mov.n	a6, a5
    2cda:	045d           	mov.n	a5, a4
    2cdc:	0007e0        	callx8	a7
    2cdf:	f53cb1        	l32r	a11, 1d0 (1a850 <st1SCF8_15_base5_32x8_Q14>)
    2ce2:	0a4d           	mov.n	a4, a10
    2ce4:	10c2a2        	addi	a10, a2, 16
    2ce7:	105642        	s16i	a4, a6, 32
    2cea:	0007e0        	callx8	a7
    2ced:	f538f1        	l32r	a15, 1d0 (1a850 <st1SCF8_15_base5_32x8_Q14>)
    2cf0:	1144d0        	slli	a4, a4, 3
    2cf3:	118ad0        	slli	a8, a10, 3
    2cf6:	844d           	ae_sext16	a4, a4
    2cf8:	08a072        	movi	a7, 8
    2cfb:	888d           	ae_sext16	a8, a8
    2cfd:	903430        	addx2	a3, a4, a3
    2d00:	9048f0        	addx2	a4, a8, a15
    2d03:	1156a2        	s16i	a10, a6, 34
    2d06:	206152        	s32i	a5, a1, 128
    2d09:	0e8776        	loop	a7, 2d1b <processSnsQuantizeScfEncoder_fx+0x53>
    2d0c:	237d           	ae_l16si.n	a7, a3, 0
    2d0e:	24fd           	ae_l16si.n	a15, a4, 0
    2d10:	657d           	ae_s16i.n	a7, a5, 0
    2d12:	0855f2        	s16i	a15, a5, 16
    2d15:	442b           	addi.n	a4, a4, 2
    2d17:	332b           	addi.n	a3, a3, 2
    2d19:	552b           	addi.n	a5, a5, 2

00002d1b <processSnsQuantizeScfEncoder_fx+0x53>:
    2d1b:	182172        	l32i	a7, a1, 96
    2d1e:	109632        	l16si	a3, a6, 32
    2d21:	24c6f2        	addi	a15, a6, 36
    2d24:	0739           	s32i.n	a3, a7, 0
    2d26:	202132        	l32i	a3, a1, 128
    2d29:	119642        	l16si	a4, a6, 34
    2d2c:	051c           	movi.n	a5, 16
    2d2e:	1749           	s32i.n	a4, a7, 4
    2d30:	064d           	mov.n	a4, a6
    2d32:	2661f2        	s32i	a15, a1, 152
    2d35:	0e8576        	loop	a5, 2d47 <processSnsQuantizeScfEncoder_fx+0x7f>
    2d38:	225d           	ae_l16si.n	a5, a2, 0
    2d3a:	237d           	ae_l16si.n	a7, a3, 0
    2d3c:	222b           	addi.n	a2, a2, 2
    2d3e:	332b           	addi.n	a3, a3, 2
    2d40:	c05570        	sub	a5, a5, a7
    2d43:	645d           	ae_s16i.n	a5, a4, 0
    2d45:	442b           	addi.n	a4, a4, 2
    2d47:	64a152        	movi	a5, 0x164
    2d4a:	f522e1        	l32r	a14, 1d4 (1a620 <sns_Kval>)
    2d4d:	aca1a2        	movi	a10, 0x1ac
    2d50:	b4a132        	movi	a3, 0x1b4
    2d53:	44a122        	movi	a2, 0x144
    2d56:	765a           	add.n	a7, a6, a5
    2d58:	84a1f2        	movi	a15, 0x184
    2d5b:	98a182        	movi	a8, 0x198
    2d5e:	c4a1c2        	movi	a12, 0x1c4
    2d61:	a4a192        	movi	a9, 0x1a4
    2d64:	b62a           	add.n	a11, a6, a2
    2d66:	268a           	add.n	a2, a6, a8
    2d68:	d4a1d2        	movi	a13, 0x1d4
    2d6b:	1d6172        	s32i	a7, a1, 116
    2d6e:	76fa           	add.n	a7, a6, a15
    2d70:	f6ca           	add.n	a15, a6, a12
    2d72:	a6aa           	add.n	a10, a6, a10
    2d74:	363a           	add.n	a3, a6, a3
    2d76:	f51881        	l32r	a8, 1d8 (def4 <dct16_fx>)
    2d79:	040c           	movi.n	a4, 0
    2d7b:	049ec2        	l16si	a12, a14, 8
    2d7e:	969a           	add.n	a9, a6, a9
    2d80:	1961a2        	s32i	a10, a1, 100
    2d83:	1c6132        	s32i	a3, a1, 112
    2d86:	069e32        	l16si	a3, a14, 12
    2d89:	1b61f2        	s32i	a15, a1, 108
    2d8c:	021ef2        	l16ui	a15, a14, 4
    2d8f:	56da           	add.n	a5, a6, a13
    2d91:	3edd           	ae_l16si.n	a13, a14, 2
    2d93:	06ad           	mov.n	a10, a6
    2d95:	1f6172        	s32i	a7, a1, 124
    2d98:	1e6122        	s32i	a2, a1, 120
    2d9b:	1a6192        	s32i	a9, a1, 104
    2d9e:	d75642        	s16i	a4, a6, 0x1ae
    2da1:	d85642        	s16i	a4, a6, 0x1b0
    2da4:	d95642        	s16i	a4, a6, 0x1b2
    2da7:	2461c2        	s32i	a12, a1, 144
    2daa:	d556d2        	s16i	a13, a6, 0x1aa
    2dad:	d356c2        	s16i	a12, a6, 0x1a6
    2db0:	2761f2        	s32i	a15, a1, 156
    2db3:	d456f2        	s16i	a15, a6, 0x1a8
    2db6:	256132        	s32i	a3, a1, 148
    2db9:	d25632        	s16i	a3, a6, 0x1a4
    2dbc:	d65632        	s16i	a3, a6, 0x1ac
    2dbf:	0b3d           	mov.n	a3, a11
    2dc1:	2361b2        	s32i	a11, a1, 140
    2dc4:	0008e0        	callx8	a8
    2dc7:	a80c           	movi.n	a8, 10
    2dc9:	091c           	movi.n	a9, 16
    2dcb:	1921e2        	l32i	a14, a1, 100
    2dce:	1a21f2        	l32i	a15, a1, 104
    2dd1:	4189           	s32i.n	a8, a1, 16
    2dd3:	3199           	s32i.n	a9, a1, 12
    2dd5:	21e9           	s32i.n	a14, a1, 8
    2dd7:	11f9           	s32i.n	a15, a1, 4
    2dd9:	02ed           	mov.n	a14, a2
    2ddb:	1d21c2        	l32i	a12, a1, 116
    2dde:	1c21f2        	l32i	a15, a1, 112
    2de1:	f4fe21        	l32r	a2, 1dc (c7ac <pvq_enc_search_fx>)
    2de4:	1b2192        	l32i	a9, a1, 108
    2de7:	03ad           	mov.n	a10, a3
    2de9:	05bd           	mov.n	a11, a5
    2deb:	07dd           	mov.n	a13, a7
    2ded:	0199           	s32i.n	a9, a1, 0
    2def:	0002e0        	callx8	a2
    2df2:	a4a072        	movi	a7, 164
    2df5:	367a           	add.n	a3, a6, a7
    2df7:	04a192        	movi	a9, 0x104
    2dfa:	24a182        	movi	a8, 0x124
    2dfd:	f4f871        	l32r	a7, 1e0 (cdc <basop_memmove>)
    2e00:	44c622        	addi	a2, a6, 68
    2e03:	64c6d2        	addi	a13, a6, 100
    2e06:	a69a           	add.n	a10, a6, a9
    2e08:	f68a           	add.n	a15, a6, a8
    2e0a:	84a0e2        	movi	a14, 132
    2e0d:	0c2c           	movi.n	a12, 32
    2e0f:	05bd           	mov.n	a11, a5
    2e11:	1a6122        	s32i	a2, a1, 104
    2e14:	1961d2        	s32i	a13, a1, 100
    2e17:	26ea           	add.n	a2, a6, a14
    2e19:	1b6132        	s32i	a3, a1, 108
    2e1c:	2261a2        	s32i	a10, a1, 136
    2e1f:	1c61f2        	s32i	a15, a1, 112
    2e22:	216152        	s32i	a5, a1, 132
    2e25:	0007e0        	callx8	a7
    2e28:	262132        	l32i	a3, a1, 152
    2e2b:	1d21b2        	l32i	a11, a1, 116
    2e2e:	0c2c           	movi.n	a12, 32
    2e30:	03ad           	mov.n	a10, a3
    2e32:	0007e0        	callx8	a7
    2e35:	2321b2        	l32i	a11, a1, 140
    2e38:	0c2c           	movi.n	a12, 32
    2e3a:	02ad           	mov.n	a10, a2
    2e3c:	0007e0        	callx8	a7
    2e3f:	f4e951        	l32r	a5, 1e4 (34ec <pvq_dec_en1_normQ14_fx>)
    2e42:	1b21a2        	l32i	a10, a1, 108
    2e45:	2421c2        	l32i	a12, a1, 144
    2e48:	0d1c           	movi.n	a13, 16
    2e4a:	03bd           	mov.n	a11, a3
    2e4c:	0005e0        	callx8	a5
    2e4f:	1c21a2        	l32i	a10, a1, 112
    2e52:	2221b2        	l32i	a11, a1, 136
    2e55:	2521c2        	l32i	a12, a1, 148
    2e58:	0d1c           	movi.n	a13, 16
    2e5a:	0005e0        	callx8	a5
    2e5d:	1f2132        	l32i	a3, a1, 124
    2e60:	1a21a2        	l32i	a10, a1, 104
    2e63:	4c1c           	movi.n	a12, 20
    2e65:	03bd           	mov.n	a11, a3
    2e67:	0007e0        	callx8	a7
    2e6a:	1921a2        	l32i	a10, a1, 100
    2e6d:	4c1c           	movi.n	a12, 20
    2e6f:	03bd           	mov.n	a11, a3
    2e71:	0007e0        	callx8	a7
    2e74:	1e2172        	l32i	a7, a1, 120
    2e77:	150c           	movi.n	a5, 1
    2e79:	680c           	movi.n	a8, 6
    2e7b:	58c632        	addi	a3, a6, 88
    2e7e:	115500        	slli	a5, a5, 16
    2e81:	0c8876        	loop	a8, 2e91 <processSnsQuantizeScfEncoder_fx+0x1c9>
    2e84:	218f40        	srai	a8, a4, 15
    2e87:	878a           	add.n	a8, a7, a8
    2e89:	288d           	ae_l16si.n	a8, a8, 0
    2e8b:	638d           	ae_s16i.n	a8, a3, 0
    2e8d:	445a           	add.n	a4, a4, a5
    2e8f:	332b           	addi.n	a3, a3, 2
    2e91:	f47651        	l32r	a5, 6c (cc0 <basop_memset>)
    2e94:	c4a032        	movi	a3, 196
    2e97:	e4a042        	movi	a4, 228
    2e9a:	78c6a2        	addi	a10, a6, 120
    2e9d:	0b0c           	movi.n	a11, 0
    2e9f:	cc0c           	movi.n	a12, 12
    2ea1:	363a           	add.n	a3, a6, a3
    2ea3:	464a           	add.n	a4, a6, a4
    2ea5:	060c           	movi.n	a6, 0
    2ea7:	0005e0        	callx8	a5
    2eaa:	f4ca51        	l32r	a5, 1d4 (1a620 <sns_Kval>)
    2ead:	1a21b2        	l32i	a11, a1, 104
    2eb0:	f4cd71        	l32r	a7, 1e4 (34ec <pvq_dec_en1_normQ14_fx>)
    2eb3:	25cd           	ae_l16si.n	a12, a5, 0
    2eb5:	0d1c           	movi.n	a13, 16
    2eb7:	03ad           	mov.n	a10, a3
    2eb9:	0007e0        	callx8	a7
    2ebc:	272152        	l32i	a5, a1, 156
    2ebf:	1921b2        	l32i	a11, a1, 100
    2ec2:	0d1c           	movi.n	a13, 16
    2ec4:	85cd           	ae_sext16	a12, a5
    2ec6:	04ad           	mov.n	a10, a4
    2ec8:	0007e0        	callx8	a7
    2ecb:	f4c751        	l32r	a5, 1e8 (1a5f0 <sns_gaintabPtr>)
    2ece:	f4c7a1        	l32r	a10, 1ec (1a600 <sns_gainSz>)
    2ed1:	1c2192        	l32i	a9, a1, 112
    2ed4:	05b8           	l32i.n	a11, a5, 0
    2ed6:	b199           	s32i.n	a9, a1, 44
    2ed8:	f97c           	movi.n	a9, -1
    2eda:	1461b2        	s32i	a11, a1, 80
    2edd:	2abd           	ae_l16si.n	a11, a10, 0
    2edf:	1b2182        	l32i	a8, a1, 108
    2ee2:	419190        	srli	a9, a9, 1
    2ee5:	15c8           	l32i.n	a12, a5, 4
    2ee7:	25e8           	l32i.n	a14, a5, 8
    2ee9:	3add           	ae_l16si.n	a13, a10, 2
    2eeb:	1af8           	l32i.n	a15, a10, 4
    2eed:	3558           	l32i.n	a5, a5, 12
    2eef:	8139           	s32i.n	a3, a1, 32
    2ef1:	9149           	s32i.n	a4, a1, 36
    2ef3:	a189           	s32i.n	a8, a1, 40
    2ef5:	360934        	ae_cvtq48a32s	aeq0, a9
    2ef8:	1ac132        	addi	a3, a1, 26
    2efb:	f47c           	movi.n	a4, -1
    2efd:	20c172        	addi	a7, a1, 32
    2f00:	50c182        	addi	a8, a1, 80
    2f03:	890c           	movi.n	a9, 8
    2f05:	1561c2        	s32i	a12, a1, 84
    2f08:	0d51d2        	s16i	a13, a1, 26
    2f0b:	1661e2        	s32i	a14, a1, 88
    2f0e:	71f9           	s32i.n	a15, a1, 28
    2f10:	176152        	s32i	a5, a1, 92
    2f13:	0c51b2        	s16i	a11, a1, 24

00002f16 <processSnsQuantizeScfEncoder_fx+0x24e>:
    2f16:	8b5d           	ae_sext16	a5, a11
    2f18:	4515a6        	blti	a5, 1, 2f61 <processSnsQuantizeScfEncoder_fx+0x299>
    2f1b:	fd24b008ce 	{ l32i	a12, a8, 0; ae_zeroq56	aeq1 }
    2f20:	07d8           	l32i.n	a13, a7, 0
    2f22:	0e0c           	movi.n	a14, 0
    2f24:	0c5d           	mov.n	a5, a12
    2f26:	408504        	ae_lp16f.iu	aep0, a5, 0
    2f29:	20fdd0        	or	a15, a13, a13
    2f2c:	205220        	or	a5, a2, a2
    2f2f:	449f04        	ae_lp16x2f.iu	aep1, a15, 0
    2f32:	44a504        	ae_lp16x2f.iu	aep2, a5, 0
    2f35:	128976        	loop	a9, 2f4b <processSnsQuantizeScfEncoder_fx+0x283>
    2f38:	008164        	ae_mulfs32p16s.lh	aeq2, aep0, aep1
    2f3b:	008974        	ae_mulfs32p16s.ll	aeq3, aep0, aep1
    2f3e:	09af14        	ae_truncp24q48x2	aep1, aeq2, aeq3
    2f41:	dd2aad9f1f 	{ ae_lp16x2f.iu	aep1, a15, 4; ae_subsp24s	aep2, aep2, aep1 }
    2f46:	e248eda51f 	{ ae_lp16x2f.iu	aep2, a5, 4; ae_mulaap24s.hh.ll	aeq1, aep2, aep2 }

00002f4b <processSnsQuantizeScfEncoder_fx+0x283>:
    2f4b:	098104        	ae_ltq56s	b0, aeq1, aeq0
    2f4e:	060076        	bf	b0, 2f58 <processSnsQuantizeScfEncoder_fx+0x290>
    2f51:	fc0c53466f 	{ or	a4, a6, a6; ae_movq56	aeq0, aeq1 }
    2f56:	0ead           	mov.n	a10, a14

00002f58 <processSnsQuantizeScfEncoder_fx+0x290>:
    2f58:	ee1b           	addi.n	a14, a14, 1
    2f5a:	cc2b           	addi.n	a12, a12, 2
    2f5c:	fd249c4ebe 	{ blt	a14, a11, 2f24 <processSnsQuantizeScfEncoder_fx+0x25c>; ae_zeroq56	aeq1 }
    2f61:	0c3626        	beqi	a6, 3, 2f71 <processSnsQuantizeScfEncoder_fx+0x2a9>
    2f64:	23bd           	ae_l16si.n	a11, a3, 0
    2f66:	661b           	addi.n	a6, a6, 1
    2f68:	774b           	addi.n	a7, a7, 4
    2f6a:	884b           	addi.n	a8, a8, 4
    2f6c:	332b           	addi.n	a3, a3, 2
    2f6e:	ffe906        	j	2f16 <processSnsQuantizeScfEncoder_fx+0x24e>

00002f71 <processSnsQuantizeScfEncoder_fx+0x2a9>:
    2f71:	113a00        	slli	a3, a10, 16
    2f74:	213e30        	srai	a3, a3, 14
    2f77:	541b           	addi.n	a5, a4, 1
    2f79:	734a           	add.n	a7, a3, a4
    2f7b:	837450        	moveqz	a7, a4, a5
    2f7e:	20c162        	addi	a6, a1, 32
    2f81:	143070        	extui	a3, a7, 0, 2
    2f84:	a0f360        	addx4	a15, a3, a6
    2f87:	0fa8           	l32i.n	a10, a15, 0
    2f89:	f49941        	l32r	a4, 1f0 (e36c <idct16_fx>)
    2f8c:	02bd           	mov.n	a11, a2
    2f8e:	0004e0        	callx8	a4
    2f91:	50c142        	addi	a4, a1, 80
    2f94:	a04340        	addx4	a4, a3, a4
    2f97:	0468           	l32i.n	a6, a4, 0
    2f99:	115720        	slli	a5, a7, 14
    2f9c:	314050        	srai	a4, a5, 16
    2f9f:	905460        	addx2	a5, a4, a6
    2fa2:	25bd           	ae_l16si.n	a11, a5, 0
    2fa4:	f49451        	l32r	a5, 1f4 (34c0 <pvq_dec_scale_vec_fx>)
    2fa7:	2021c2        	l32i	a12, a1, 128
    2faa:	02ad           	mov.n	a10, a2
    2fac:	0005e0        	callx8	a5
    2faf:	182162        	l32i	a6, a1, 96
    2fb2:	045070        	extui	a5, a7, 0, 1
    2fb5:	f48721        	l32r	a2, 1d4 (1a620 <sns_Kval>)
    2fb8:	2639           	s32i.n	a3, a6, 8
    2fba:	48e717        	bbsi	a7, 1, 3006 <processSnsQuantizeScfEncoder_fx+0x33e>
    2fbd:	f48521        	l32r	a2, 1d4 (1a620 <sns_Kval>)
    2fc0:	1f21b2        	l32i	a11, a1, 124
    2fc3:	20c1a2        	addi	a10, a1, 32
    2fc6:	a02320        	addx4	a2, a3, a2
    2fc9:	22dd           	ae_l16si.n	a13, a2, 0
    2fcb:	f48b31        	l32r	a3, 1f8 (32b0 <mpvq_index_fx>)
    2fce:	ac0c           	movi.n	a12, 10
    2fd0:	0003e0        	callx8	a3
    2fd3:	1821f2        	l32i	a15, a1, 96
    2fd6:	9168           	l32i.n	a6, a1, 36
    2fd8:	182172        	l32i	a7, a1, 96
    2fdb:	1821e2        	l32i	a14, a1, 96
    2fde:	5f69           	s32i.n	a6, a15, 20
    2fe0:	182162        	l32i	a6, a1, 96
    2fe3:	109122        	l16si	a2, a1, 32
    2fe6:	3749           	s32i.n	a4, a7, 12
    2fe8:	4e29           	s32i.n	a2, a14, 16
    2fea:	95fc           	bnez.n	a5, 3027 <processSnsQuantizeScfEncoder_fx+0x35f>
    2fec:	1e21b2        	l32i	a11, a1, 120
    2fef:	20c1a2        	addi	a10, a1, 32
    2ff2:	6c0c           	movi.n	a12, 6
    2ff4:	1d0c           	movi.n	a13, 1
    2ff6:	620c           	movi.n	a2, 6
    2ff8:	0003e0        	callx8	a3
    2ffb:	109132        	l16si	a3, a1, 32
    2ffe:	9148           	l32i.n	a4, a1, 36
    3000:	903430        	addx2	a3, a4, a3
    3003:	001186        	j	304d <processSnsQuantizeScfEncoder_fx+0x385>

00003006 <processSnsQuantizeScfEncoder_fx+0x33e>:
    3006:	3649           	s32i.n	a4, a6, 12
    3008:	a02320        	addx4	a2, a3, a2
    300b:	f5dc           	bnez.n	a5, 302e <processSnsQuantizeScfEncoder_fx+0x366>
    300d:	22dd           	ae_l16si.n	a13, a2, 0
    300f:	f47a21        	l32r	a2, 1f8 (32b0 <mpvq_index_fx>)
    3012:	1d21b2        	l32i	a11, a1, 116
    3015:	20c1a2        	addi	a10, a1, 32
    3018:	0c1c           	movi.n	a12, 16
    301a:	0002e0        	callx8	a2
    301d:	101122        	l16ui	a2, a1, 32
    3020:	9138           	l32i.n	a3, a1, 36
    3022:	f47c           	movi.n	a4, -1
    3024:	000746        	j	3045 <processSnsQuantizeScfEncoder_fx+0x37d>

00003027 <processSnsQuantizeScfEncoder_fx+0x35f>:
    3027:	e37c           	movi.n	a3, -2
    3029:	620c           	movi.n	a2, 6
    302b:	000786        	j	304d <processSnsQuantizeScfEncoder_fx+0x385>

0000302e <processSnsQuantizeScfEncoder_fx+0x366>:
    302e:	22dd           	ae_l16si.n	a13, a2, 0
    3030:	f47221        	l32r	a2, 1f8 (32b0 <mpvq_index_fx>)
    3033:	2121b2        	l32i	a11, a1, 132
    3036:	20c1a2        	addi	a10, a1, 32
    3039:	0c1c           	movi.n	a12, 16
    303b:	0002e0        	callx8	a2
    303e:	101122        	l16ui	a2, a1, 32
    3041:	9138           	l32i.n	a3, a1, 36
    3043:	e47c           	movi.n	a4, -2
    3045:	5639           	s32i.n	a3, a6, 20
    3047:	823d           	ae_sext16	a3, a2
    3049:	420c           	movi.n	a2, 4
    304b:	6649           	s32i.n	a4, a6, 24
    304d:	a02260        	addx4	a2, a2, a6
    3050:	0239           	s32i.n	a3, a2, 0
    3052:	f01d           	retw.n

00003054 <processSnsQuantizeScfDecoder_fx>:
    3054:	006136        	entry	a1, 48
    3057:	026d           	mov.n	a6, a2
    3059:	225d           	ae_l16si.n	a5, a2, 0
    305b:	029272        	l16si	a7, a2, 4
    305e:	f45af1        	l32r	a15, 1c8 (1a650 <st1SCF0_7_base5_32x8_Q14>)
    3061:	f45b91        	l32r	a9, 1d0 (1a850 <st1SCF8_15_base5_32x8_Q14>)
    3064:	1155d0        	slli	a5, a5, 3
    3067:	1177d0        	slli	a7, a7, 3
    306a:	877d           	ae_sext16	a7, a7
    306c:	855d           	ae_sext16	a5, a5
    306e:	880c           	movi.n	a8, 8
    3070:	9025f0        	addx2	a2, a5, a15
    3073:	909790        	addx2	a9, a7, a9
    3076:	035d           	mov.n	a5, a3
    3078:	3139           	s32i.n	a3, a1, 12
    307a:	0e8876        	loop	a8, 308c <processSnsQuantizeScfDecoder_fx+0x38>
    307d:	227d           	ae_l16si.n	a7, a2, 0
    307f:	29fd           	ae_l16si.n	a15, a9, 0
    3081:	657d           	ae_s16i.n	a7, a5, 0
    3083:	0855f2        	s16i	a15, a5, 16
    3086:	992b           	addi.n	a9, a9, 2
    3088:	222b           	addi.n	a2, a2, 2
    308a:	552b           	addi.n	a5, a5, 2

0000308c <processSnsQuantizeScfDecoder_fx+0x38>:
    308c:	605040        	neg	a5, a4
    308f:	2638           	l32i.n	a3, a6, 8
    3091:	245050        	extui	a5, a5, 0, 3
    3094:	745a           	add.n	a7, a4, a5
    3096:	f45481        	l32r	a8, 1e8 (1a5f0 <sns_gaintabPtr>)
    3099:	40c752        	addi	a5, a7, 64
    309c:	11d300        	slli	a13, a3, 16
    309f:	2159           	s32i.n	a5, a1, 8
    30a1:	215ed0        	srai	a5, a13, 14
    30a4:	f44ca1        	l32r	a10, 1d4 (1a620 <sns_Kval>)
    30a7:	885a           	add.n	a8, a8, a5
    30a9:	4628           	l32i.n	a2, a6, 16
    30ab:	3698           	l32i.n	a9, a6, 12
    30ad:	0888           	l32i.n	a8, a8, 0
    30af:	5a5a           	add.n	a5, a10, a5
    30b1:	455d           	ae_l16ui.n	a5, a5, 0
    30b3:	908980        	addx2	a8, a9, a8
    30b6:	82dd           	ae_sext16	a13, a2
    30b8:	56e8           	l32i.n	a14, a6, 20
    30ba:	f45021        	l32r	a2, 1fc (3470 <pvq_dec_deidx_fx>)
    30bd:	488d           	ae_l16ui.n	a8, a8, 0
    30bf:	93fd           	ae_zext16	a15, a3
    30c1:	20c742        	addi	a4, a7, 32
    30c4:	855d           	ae_sext16	a5, a5
    30c6:	1189           	s32i.n	a8, a1, 4
    30c8:	222ff6        	bgeui	a15, 2, 30ee <processSnsQuantizeScfDecoder_fx+0x9a>
    30cb:	ac0c           	movi.n	a12, 10
    30cd:	07ad           	mov.n	a10, a7
    30cf:	05bd           	mov.n	a11, a5
    30d1:	0002e0        	callx8	a2
    30d4:	f87c           	movi.n	a8, -1
    30d6:	f48080        	extui	a8, a8, 0, 16
    30d9:	0a2d           	mov.n	a2, a10
    30db:	1d0837        	bnone	a8, a3, 30fc <processSnsQuantizeScfDecoder_fx+0xa8>
    30de:	f3e331        	l32r	a3, 6c (cc0 <basop_memset>)
    30e1:	14c7a2        	addi	a10, a7, 20
    30e4:	0b0c           	movi.n	a11, 0
    30e6:	cc0c           	movi.n	a12, 12
    30e8:	0003e0        	callx8	a3
    30eb:	000bc6        	j	311e <processSnsQuantizeScfDecoder_fx+0xca>

000030ee <processSnsQuantizeScfDecoder_fx+0x9a>:
    30ee:	0c1c           	movi.n	a12, 16
    30f0:	07ad           	mov.n	a10, a7
    30f2:	05bd           	mov.n	a11, a5
    30f4:	0002e0        	callx8	a2
    30f7:	0a2d           	mov.n	a2, a10
    30f9:	000846        	j	311e <processSnsQuantizeScfDecoder_fx+0xca>

000030fc <processSnsQuantizeScfDecoder_fx+0xa8>:
    30fc:	f43681        	l32r	a8, 1d4 (1a620 <sns_Kval>)
    30ff:	6668           	l32i.n	a6, a6, 24
    3101:	833d           	ae_sext16	a3, a3
    3103:	a03380        	addx4	a3, a3, a8
    3106:	33bd           	ae_l16si.n	a11, a3, 2
    3108:	86fd           	ae_sext16	a15, a6
    310a:	f43c31        	l32r	a3, 1fc (3470 <pvq_dec_deidx_fx>)
    310d:	14c7a2        	addi	a10, a7, 20
    3110:	21e1f0        	srai	a14, a15, 1
    3113:	04d060        	extui	a13, a6, 0, 1
    3116:	6c0c           	movi.n	a12, 6
    3118:	0003e0        	callx8	a3
    311b:	202a20        	or	a2, a10, a2
    311e:	f43131        	l32r	a3, 1e4 (34ec <pvq_dec_en1_normQ14_fx>)
    3121:	0d1c           	movi.n	a13, 16
    3123:	04ad           	mov.n	a10, a4
    3125:	07bd           	mov.n	a11, a7
    3127:	05cd           	mov.n	a12, a5
    3129:	0003e0        	callx8	a3
    312c:	04ad           	mov.n	a10, a4
    312e:	2148           	l32i.n	a4, a1, 8
    3130:	f43031        	l32r	a3, 1f0 (e36c <idct16_fx>)
    3133:	04bd           	mov.n	a11, a4
    3135:	0003e0        	callx8	a3
    3138:	1138           	l32i.n	a3, a1, 4
    313a:	31c8           	l32i.n	a12, a1, 12
    313c:	04ad           	mov.n	a10, a4
    313e:	83bd           	ae_sext16	a11, a3
    3140:	f42d31        	l32r	a3, 1f4 (34c0 <pvq_dec_scale_vec_fx>)
    3143:	0003e0        	callx8	a3
    3146:	f01d           	retw.n

00003148 <stage1_base>:
    3148:	004136        	entry	a1, 32
    314b:	fc2493433f 	{ or	a4, a3, a3; ae_zeroq56	aeq0 }
    3150:	fd046d820f 	{ ae_lp16x2f.iu	aep0, a2, 0; ae_movq56	aeq1, aeq0 }
    3155:	460c           	movi.n	a6, 4
    3157:	f962ad940f 	{ ae_lp16x2f.iu	aep1, a4, 0; ae_movp48	aep2, aep0 }
    315c:	025d           	mov.n	a5, a2
    315e:	098676        	loop	a6, 316b <stage1_base+0x23>
    3161:	dd46ad941f 	{ ae_lp16x2f.iu	aep1, a4, 4; ae_subsp24s	aep2, aep1, aep2 }
    3166:	e248eda51f 	{ ae_lp16x2f.iu	aep2, a5, 4; ae_mulaap24s.hh.ll	aeq1, aep2, aep2 }

0000316b <stage1_base+0x23>:
    316b:	f96281033e 	{ addi	a3, a3, 16; ae_movp48	aep2, aep0 }
    3170:	040c           	movi.n	a4, 0
    3172:	150c           	movi.n	a5, 1
    3174:	460c           	movi.n	a6, 4
    3176:	fe0c6d930f 	{ ae_lp16x2f.iu	aep1, a3, 0; ae_movq56	aeq2, aeq1 }

0000317b <stage1_base+0x33>:
    317b:	027d           	mov.n	a7, a2
    317d:	098676        	loop	a6, 318a <stage1_base+0x42>
    3180:	dd46ad931f 	{ ae_lp16x2f.iu	aep1, a3, 4; ae_subsp24s	aep2, aep1, aep2 }
    3185:	f14b2da71f 	{ ae_lp16x2f.iu	aep2, a7, 4; ae_mulssp24s.hh.ll	aeq2, aep2, aep2 }

0000318a <stage1_base+0x42>:
    318a:	d6503f00bf 	{ ae_movp48	aep2, aep0; ae_ltq56s	b0, aeq0, aeq2 }
    318f:	01c2c4        	ae_maxq56s	aeq3, aeq2, aeq0
    3192:	015fc4        	ae_subq56	aeq1, aeq1, aeq3
    3195:	fe0c56450f 	{ movt	a4, a5, b0; ae_movq56	aeq2, aeq1 }
    319a:	551b           	addi.n	a5, a5, 1
    319c:	dbc566        	bnei	a5, 32, 317b <stage1_base+0x33>
    319f:	842d           	ae_sext16	a2, a4
    31a1:	f01d           	retw.n

000031a3 <stage1_base+0x5b>:
    31a3:	00000000                                 .....

000031a8 <get_size_mpvq_calc_offset_fx>:
    31a8:	004136        	entry	a1, 32
    31ab:	060c           	movi.n	a6, 0
    31ad:	f41b           	addi.n	a15, a4, 1
    31af:	1269           	s32i.n	a6, a2, 4
    31b1:	626d           	ae_s16i.n	a6, a2, 0
    31b3:	8f6d           	ae_sext16	a6, a15
    31b5:	065232        	s16i	a3, a2, 12
    31b8:	075242        	s16i	a4, a2, 14
    31bb:	016696        	bltz	a6, 31d5 <get_size_mpvq_calc_offset_fx+0x2d>
    31be:	f41071        	l32r	a7, 200 (1ab00 <MPVQ_offs_ptr>)
    31c1:	961b           	addi.n	a9, a6, 1
    31c3:	058d           	mov.n	a8, a5
    31c5:	a07370        	addx4	a7, a3, a7
    31c8:	0778           	l32i.n	a7, a7, 0
    31ca:	078976        	loop	a9, 31d5 <get_size_mpvq_calc_offset_fx+0x2d>
    31cd:	0798           	l32i.n	a9, a7, 0
    31cf:	0899           	s32i.n	a9, a8, 0
    31d1:	774b           	addi.n	a7, a7, 4
    31d3:	884b           	addi.n	a8, a8, 4

000031d5 <get_size_mpvq_calc_offset_fx+0x2d>:
    31d5:	f40b71        	l32r	a7, 204 (1ab50 <tabledKMAX>)
    31d8:	a06650        	addx4	a6, a6, a5
    31db:	948d           	ae_zext16	a8, a4
    31dd:	903370        	addx2	a3, a3, a7
    31e0:	437d           	ae_l16ui.n	a7, a3, 0
    31e2:	0638           	l32i.n	a3, a6, 0
    31e4:	041787        	beq	a7, a8, 31ec <get_size_mpvq_calc_offset_fx+0x44>
    31e7:	413130        	srli	a3, a3, 1
    31ea:	0639           	s32i.n	a3, a6, 0

000031ec <get_size_mpvq_calc_offset_fx+0x44>:
    31ec:	a04450        	addx4	a4, a4, a5
    31ef:	0448           	l32i.n	a4, a4, 0
    31f1:	414140        	srli	a4, a4, 1
    31f4:	334a           	add.n	a3, a3, a4
    31f6:	331b           	addi.n	a3, a3, 1
    31f8:	2239           	s32i.n	a3, a2, 8
    31fa:	f01d           	retw.n

000031fc <mpvq_deindex_fx>:
    31fc:	004136        	entry	a1, 32
    31ff:	069252        	l16si	a5, a2, 12
    3202:	0b0c           	movi.n	a11, 0
    3204:	04ad           	mov.n	a10, a4
    3206:	11c5f0        	slli	a12, a5, 1
    3209:	f39851        	l32r	a5, 6c (cc0 <basop_memset>)
    320c:	0005e0        	callx8	a5
    320f:	071262        	l16ui	a6, a2, 14
    3212:	069252        	l16si	a5, a2, 12
    3215:	42bd           	ae_l16ui.n	a11, a2, 0
    3217:	093616        	beqz	a6, 32ae <mpvq_deindex_fx+0xb2>
    321a:	0215e6        	bgei	a5, 1, 3220 <mpvq_deindex_fx+0x24>
    321d:	002346        	j	32ae <mpvq_deindex_fx+0xb2>
    3220:	1228           	l32i.n	a2, a2, 4
    3222:	f97c           	movi.n	a9, -1
    3224:	fc7c           	movi.n	a12, -1
    3226:	180c           	movi.n	a8, 1
    3228:	fcc372        	addi	a7, a3, -4
    322b:	f49090        	extui	a9, a9, 0, 16
    322e:	fa7c           	movi.n	a10, -1
    3230:	938cb0        	movnez	a8, a12, a11

00003233 <mpvq_deindex_fx+0x37>:
    3233:	06f216        	beqz	a2, 32a6 <mpvq_deindex_fx+0xaa>
    3236:	86bd           	ae_sext16	a11, a6
    3238:	a0bb30        	addx4	a11, a11, a3
    323b:	0bc8           	l32i.n	a12, a11, 0
    323d:	06bd           	mov.n	a11, a6
    323f:	0fb2c7        	bgeu	a2, a12, 3252 <mpvq_deindex_fx+0x56>
    3242:	b60b           	addi.n	a11, a6, -1
    3244:	8bcd           	ae_sext16	a12, a11
    3246:	a0cc30        	addx4	a12, a12, a3
    3249:	0cc8           	l32i.n	a12, a12, 0
    324b:	bb0b           	addi.n	a11, a11, -1
    324d:	f332c7        	bltu	a2, a12, 3244 <mpvq_deindex_fx+0x48>
    3250:	bb1b           	addi.n	a11, a11, 1
    3252:	c0d6b0        	sub	a13, a6, a11
    3255:	c022c0        	sub	a2, a2, a12
    3258:	1409d7        	bnone	a9, a13, 3270 <mpvq_deindex_fx+0x74>
    325b:	6060d0        	neg	a6, a13
    325e:	b36d80        	movgez	a6, a13, a8
    3261:	04c020        	extui	a12, a2, 0, 1
    3264:	180c           	movi.n	a8, 1
    3266:	646d           	ae_s16i.n	a6, a4, 0
    3268:	412120        	srli	a2, a2, 1
    326b:	0b6d           	mov.n	a6, a11
    326d:	938ac0        	movnez	a8, a10, a12
    3270:	b61b           	addi.n	a11, a6, 1
    3272:	8bbd           	ae_sext16	a11, a11
    3274:	271ba6        	blti	a11, 1, 329f <mpvq_deindex_fx+0xa3>
    3277:	9bed           	ae_zext16	a14, a11
    3279:	0b0c           	movi.n	a11, 0
    327b:	03dd           	mov.n	a13, a3
    327d:	ce1b           	addi.n	a12, a14, 1
    327f:	0d8e76        	loop	a14, 3290 <mpvq_deindex_fx+0x94>
    3282:	1de8           	l32i.n	a14, a13, 4
    3284:	0df8           	l32i.n	a15, a13, 0
    3286:	0db9           	s32i.n	a11, a13, 0
    3288:	c0eeb0        	sub	a14, a14, a11
    328b:	dd4b           	addi.n	a13, a13, 4
    328d:	c0bef0        	sub	a11, a14, a15

00003290 <mpvq_deindex_fx+0x94>:
    3290:	a0cc70        	addx4	a12, a12, a7
    3293:	550b           	addi.n	a5, a5, -1
    3295:	442b           	addi.n	a4, a4, 2
    3297:	0cb9           	s32i.n	a11, a12, 0
    3299:	f96556        	bnez	a5, 3233 <mpvq_deindex_fx+0x37>
    329c:	000386        	j	32ae <mpvq_deindex_fx+0xb2>

0000329f <mpvq_deindex_fx+0xa3>:
    329f:	0b0c           	movi.n	a11, 0
    32a1:	1c0c           	movi.n	a12, 1
    32a3:	fffa46        	j	3290 <mpvq_deindex_fx+0x94>

000032a6 <mpvq_deindex_fx+0xaa>:
    32a6:	602060        	neg	a2, a6
    32a9:	b32680        	movgez	a2, a6, a8
    32ac:	642d           	ae_s16i.n	a2, a4, 0
    32ae:	f01d           	retw.n

000032b0 <mpvq_index_fx>:
    32b0:	010136        	entry	a1, 128
    32b3:	160c           	movi.n	a6, 1
    32b5:	116610        	slli	a6, a6, 15
    32b8:	156152        	s32i	a5, a1, 84
    32bb:	075252        	s16i	a5, a2, 14
    32be:	f3d251        	l32r	a5, 208 (dee4 <UL_deposit_h>)
    32c1:	06ad           	mov.n	a10, a6
    32c3:	065242        	s16i	a4, a2, 12
    32c6:	0005e0        	callx8	a5
    32c9:	fec442        	addi	a4, a4, -2
    32cc:	844d           	ae_sext16	a4, a4
    32ce:	907430        	addx2	a7, a4, a3
    32d1:	146142        	s32i	a4, a1, 80
    32d4:	374d           	ae_l16si.n	a4, a7, 2
    32d6:	278d           	ae_l16si.n	a8, a7, 0
    32d8:	090c           	movi.n	a9, 0
    32da:	06ad           	mov.n	a10, a6
    32dc:	136122        	s32i	a2, a1, 76
    32df:	1299           	s32i.n	a9, a2, 4
    32e1:	602180        	abs	a2, a8
    32e4:	604140        	abs	a4, a4
    32e7:	126132        	s32i	a3, a1, 72
    32ea:	342a           	add.n	a3, a4, a2
    32ec:	0005e0        	callx8	a5
    32ef:	f67c           	movi.n	a6, -1
    32f1:	f46060        	extui	a6, a6, 0, 16
    32f4:	03dd           	mov.n	a13, a3
    32f6:	0b0c           	movi.n	a11, 0
    32f8:	3d0637        	bnone	a6, a3, 3339 <mpvq_index_fx+0x89>
    32fb:	1d0627        	bnone	a6, a2, 331c <mpvq_index_fx+0x6c>
    32fe:	1a0647        	bnone	a6, a4, 331c <mpvq_index_fx+0x6c>
    3301:	e97c           	movi.n	a9, -2
    3303:	372d           	ae_l16si.n	a2, a7, 2
    3305:	f49090        	extui	a9, a9, 0, 16
    3308:	260c           	movi.n	a6, 2
    330a:	180c           	movi.n	a8, 1
    330c:	90f490        	addx2	a15, a4, a9
    330f:	a38620        	movltz	a8, a6, a2
    3312:	102f90        	and	a2, a15, a9
    3315:	050c           	movi.n	a5, 0
    3317:	b82a           	add.n	a11, a8, a2
    3319:	0003c6        	j	332c <mpvq_index_fx+0x7c>

0000331c <mpvq_index_fx+0x6c>:
    331c:	0b0c           	movi.n	a11, 0
    331e:	050c           	movi.n	a5, 0
    3320:	0d8627        	bany	a6, a2, 3331 <mpvq_index_fx+0x81>
    3323:	f27c           	movi.n	a2, -1
    3325:	902420        	addx2	a2, a4, a2
    3328:	150c           	movi.n	a5, 1
    332a:	92bd           	ae_zext16	a11, a2
    332c:	132122        	l32i	a2, a1, 76
    332f:	12b9           	s32i.n	a11, a2, 4
    3331:	902570        	addx2	a2, a5, a7
    3334:	422d           	ae_l16ui.n	a2, a2, 0
    3336:	41af20        	srli	a10, a2, 15
    3339:	152122        	l32i	a2, a1, 84
    333c:	030c           	movi.n	a3, 0
    333e:	190c           	movi.n	a9, 1
    3340:	924d           	ae_zext16	a4, a2
    3342:	821b           	addi.n	a8, a2, 1
    3344:	220c           	movi.n	a2, 2
    3346:	4139           	s32i.n	a3, a1, 16
    3348:	5199           	s32i.n	a9, a1, 20
    334a:	176142        	s32i	a4, a1, 92
    334d:	2224b6        	bltui	a4, 2, 3373 <mpvq_index_fx+0xc3>
    3350:	172152        	l32i	a5, a1, 92
    3353:	140c           	movi.n	a4, 1
    3355:	18c162        	addi	a6, a1, 24
    3358:	251b           	addi.n	a2, a5, 1
    335a:	550b           	addi.n	a5, a5, -1
    335c:	2c0c           	movi.n	a12, 2
    335e:	01c442        	addi	a4, a4, 1
    3361:	0e8576        	loop	a5, 3373 <mpvq_index_fx+0xc3>
    3364:	82f4c0        	mull	a15, a4, a12
    3367:	049d           	mov.n	a9, a4
    3369:	4f1b           	addi.n	a4, a15, 1
    336b:	0649           	s32i.n	a4, a6, 0
    336d:	491b           	addi.n	a4, a9, 1
    336f:	cc2b           	addi.n	a12, a12, 2
    3371:	664b           	addi.n	a6, a6, 4

00003373 <mpvq_index_fx+0xc3>:
    3373:	10c132        	addi	a3, a1, 16
    3376:	824290        	mull	a4, a2, a9
    3379:	a0e230        	addx4	a14, a2, a3
    337c:	8dfd           	ae_sext16	a15, a13
    337e:	0e49           	s32i.n	a4, a14, 0
    3380:	a02f30        	addx4	a2, a15, a3
    3383:	142142        	l32i	a4, a1, 80
    3386:	0228           	l32i.n	a2, a2, 0
    3388:	039d           	mov.n	a9, a3
    338a:	883d           	ae_sext16	a3, a8
    338c:	0214e6        	bgei	a4, 1, 3392 <mpvq_index_fx+0xe2>
    338f:	003086        	j	3455 <mpvq_index_fx+0x1a5>
    3392:	1221e2        	l32i	a14, a1, 72
    3395:	166132        	s32i	a3, a1, 88
    3398:	340b           	addi.n	a3, a4, -1
    339a:	9043e0        	addx2	a4, a3, a14
    339d:	244d           	ae_l16si.n	a4, a4, 0
    339f:	905ba0        	addx2	a5, a11, a10
    33a2:	060c           	movi.n	a6, 0
    33a4:	835b40        	moveqz	a5, a11, a4
    33a7:	a35ba0        	movltz	a5, a11, a10
    33aa:	608140        	abs	a8, a4
    33ad:	1f0c           	movi.n	a15, 1
    33af:	93a640        	movnez	a10, a6, a4
    33b2:	bd8a           	add.n	a11, a13, a8
    33b4:	a3af40        	movltz	a10, a15, a4
    33b7:	852a           	add.n	a8, a5, a2
    33b9:	089316        	beqz	a3, 3446 <mpvq_index_fx+0x196>
    33bc:	162162        	l32i	a6, a1, 88
    33bf:	1521c2        	l32i	a12, a1, 84
    33c2:	14c122        	addi	a2, a1, 20
    33c5:	14c1d2        	addi	a13, a1, 20
    33c8:	126122        	s32i	a2, a1, 72
    33cb:	a0e690        	addx4	a14, a6, a9
    33ce:	a0fc90        	addx4	a15, a12, a9
    33d1:	fcc772        	addi	a7, a7, -4
    33d4:	1461d2        	s32i	a13, a1, 80

000033d7 <mpvq_index_fx+0x127>:
    33d7:	0f28           	l32i.n	a2, a15, 0
    33d9:	152142        	l32i	a4, a1, 84
    33dc:	09cd           	mov.n	a12, a9
    33de:	0e98           	l32i.n	a9, a14, 0
    33e0:	412120        	srli	a2, a2, 1
    33e3:	5714a6        	blti	a4, 1, 343e <mpvq_index_fx+0x18e>
    33e6:	172152        	l32i	a5, a1, 92
    33e9:	1421d2        	l32i	a13, a1, 80
    33ec:	140c           	movi.n	a4, 1
    33ee:	0d8576        	loop	a5, 33ff <mpvq_index_fx+0x14f>
    33f1:	0d58           	l32i.n	a5, a13, 0
    33f3:	1d68           	l32i.n	a6, a13, 4
    33f5:	0d49           	s32i.n	a4, a13, 0
    33f7:	554a           	add.n	a5, a5, a4
    33f9:	556a           	add.n	a5, a5, a6
    33fb:	dd4b           	addi.n	a13, a13, 4
    33fd:	054d           	mov.n	a4, a5

000033ff <mpvq_index_fx+0x14f>:
    33ff:	0d59           	s32i.n	a5, a13, 0
    3401:	275d           	ae_l16si.n	a5, a7, 0
    3403:	0fd8           	l32i.n	a13, a15, 0
    3405:	9068a0        	addx2	a6, a8, a10
    3408:	836850        	moveqz	a6, a8, a5
    340b:	292a           	add.n	a2, a9, a2
    340d:	a368a0        	movltz	a6, a8, a10
    3410:	4181d0        	srli	a8, a13, 1
    3413:	228a           	add.n	a2, a2, a8
    3415:	8b4d           	ae_sext16	a4, a11
    3417:	221b           	addi.n	a2, a2, 1
    3419:	a044c0        	addx4	a4, a4, a12
    341c:	0e29           	s32i.n	a2, a14, 0
    341e:	0428           	l32i.n	a2, a4, 0
    3420:	0d0c           	movi.n	a13, 0
    3422:	608150        	abs	a8, a5
    3425:	93ad50        	movnez	a10, a13, a5
    3428:	1d0c           	movi.n	a13, 1
    342a:	330b           	addi.n	a3, a3, -1
    342c:	bb8a           	add.n	a11, a11, a8
    342e:	fec772        	addi	a7, a7, -2
    3431:	0c9d           	mov.n	a9, a12
    3433:	a3ad50        	movltz	a10, a13, a5
    3436:	862a           	add.n	a8, a6, a2
    3438:	f9b356        	bnez	a3, 33d7 <mpvq_index_fx+0x127>
    343b:	0001c6        	j	3446 <mpvq_index_fx+0x196>

0000343e <mpvq_index_fx+0x18e>:
    343e:	1221d2        	l32i	a13, a1, 72
    3441:	150c           	movi.n	a5, 1
    3443:	ffee06        	j	33ff <mpvq_index_fx+0x14f>

00003446 <mpvq_index_fx+0x196>:
    3446:	132132        	l32i	a3, a1, 76
    3449:	8b2d           	ae_sext16	a2, a11
    344b:	a02290        	addx4	a2, a2, a9
    344e:	1389           	s32i.n	a8, a3, 4
    3450:	0228           	l32i.n	a2, a2, 0
    3452:	162132        	l32i	a3, a1, 88
    3455:	a03390        	addx4	a3, a3, a9
    3458:	0338           	l32i.n	a3, a3, 0
    345a:	412120        	srli	a2, a2, 1
    345d:	132142        	l32i	a4, a1, 76
    3460:	223a           	add.n	a2, a2, a3
    3462:	221b           	addi.n	a2, a2, 1
    3464:	64ad           	ae_s16i.n	a10, a4, 0
    3466:	2429           	s32i.n	a2, a4, 8
    3468:	f01d           	retw.n

0000346a <mpvq_index_fx+0x1ba>:
    346a:	00000000                                 ......

00003470 <pvq_dec_deidx_fx>:
    3470:	018136        	entry	a1, 192
    3473:	40c172        	addi	a7, a1, 64
    3476:	f36581        	l32r	a8, 20c (31a8 <get_size_mpvq_calc_offset_fx>)
    3479:	70c1d2        	addi	a13, a1, 112
    347c:	04bd           	mov.n	a11, a4
    347e:	03cd           	mov.n	a12, a3
    3480:	07ad           	mov.n	a10, a7
    3482:	0008e0        	callx8	a8
    3485:	f36231        	l32r	a3, 210 (ddec <memcpy>)
    3488:	10c1a2        	addi	a10, a1, 16
    348b:	0c3c           	movi.n	a12, 48
    348d:	07bd           	mov.n	a11, a7
    348f:	0003e0        	callx8	a3
    3492:	030c           	movi.n	a3, 0
    3494:	085152        	s16i	a5, a1, 16
    3497:	5139           	s32i.n	a3, a1, 20
    3499:	0e1426        	beqi	a4, 1, 34ab <pvq_dec_deidx_fx+0x3b>
    349c:	6138           	l32i.n	a3, a1, 24
    349e:	140c           	movi.n	a4, 1
    34a0:	725630        	salt	a5, a6, a3
    34a3:	303540        	xor	a3, a5, a4
    34a6:	935650        	movnez	a5, a6, a5
    34a9:	5159           	s32i.n	a5, a1, 20

000034ab <pvq_dec_deidx_fx+0x3b>:
    34ab:	f35a41        	l32r	a4, 214 (31fc <mpvq_deindex_fx>)
    34ae:	10c1a2        	addi	a10, a1, 16
    34b1:	70c1b2        	addi	a11, a1, 112
    34b4:	02cd           	mov.n	a12, a2
    34b6:	0004e0        	callx8	a4
    34b9:	032d           	mov.n	a2, a3
    34bb:	f01d           	retw.n

000034bd <pvq_dec_deidx_fx+0x4d>:
    34bd:	000000                                        ...

000034c0 <pvq_dec_scale_vec_fx>:
    34c0:	004136        	entry	a1, 32
    34c3:	850c           	movi.n	a5, 8
    34c5:	fcc442        	addi	a4, a4, -4
    34c8:	300334        	ae_cvtp24a16x2.ll	aep0, a3, a3
    34cb:	449204        	ae_lp16x2f.iu	aep1, a2, 0
    34ce:	188576        	loop	a5, 34ea <pvq_dec_scale_vec_fx+0x2a>
    34d1:	e8062db41f 	{ ae_lp16x2f.iu	aep3, a4, 4; ae_mulfs32p16s.hh	aeq0, aep1, aep0 }
    34d6:	001874        	ae_mulfs32p16s.ll	aeq1, aep1, aep0
    34d9:	1b8f74        	ae_roundsp16q48asym	aep7, aeq0
    34dc:	1b9f24        	ae_roundsp16q48asym	aep2, aeq1
    34df:	1afa14        	ae_selp24.hl	aep1, aep7, aep2
    34e2:	d9652d921f 	{ ae_lp16x2f.iu	aep1, a2, 4; ae_addsp24s	aep2, aep1, aep3 }
    34e7:	46a404        	ae_sp16x2f.iu	aep2, a4, 0

000034ea <pvq_dec_scale_vec_fx+0x2a>:
    34ea:	f01d           	retw.n

000034ec <pvq_dec_en1_normQ14_fx>:
    34ec:	006136        	entry	a1, 48
    34ef:	fc2493733f 	{ or	a7, a3, a3; ae_zeroq56	aeq0 }
    34f4:	216150        	srai	a6, a5, 1
    34f7:	0a25a6        	blti	a5, 2, 3505 <pvq_dec_en1_normQ14_fx+0x19>
    34fa:	448704        	ae_lp16x2f.iu	aep0, a7, 0
    34fd:	048676        	loop	a6, 3505 <pvq_dec_en1_normQ14_fx+0x19>
    3500:	e200ad871f 	{ ae_lp16x2f.iu	aep0, a7, 4; ae_mulaap24s.hh.ll	aeq0, aep0, aep0 }

00003505 <pvq_dec_en1_normQ14_fx+0x19>:
    3505:	368704        	ae_trunca32q48	a7, aeq0
    3508:	f80c           	movi.n	a8, 15
    350a:	b1cb           	addi.n	a11, a1, 12
    350c:	0ad7e6        	bgei	a7, 64, 351a <pvq_dec_en1_normQ14_fx+0x2e>
    350f:	f34281        	l32r	a8, 218 (1ab80 <isqrt_Q16tab>)
    3512:	907780        	addx2	a7, a7, a8
    3515:	477d           	ae_l16ui.n	a7, a7, 0
    3517:	000a06        	j	3543 <pvq_dec_en1_normQ14_fx+0x57>

0000351a <pvq_dec_en1_normQ14_fx+0x2e>:
    351a:	87ad           	ae_sext16	a10, a7
    351c:	f34071        	l32r	a7, 21c (ec8 <ISqrt16>)
    351f:	065182        	s16i	a8, a1, 12
    3522:	0007e0        	callx8	a7
    3525:	069172        	l16si	a7, a1, 12
    3528:	771b           	addi.n	a7, a7, 1
    352a:	877d           	ae_sext16	a7, a7
    352c:	00a796        	bltz	a7, 353a <pvq_dec_en1_normQ14_fx+0x4e>
    352f:	401700        	ssl	a7
    3532:	a17a00        	sll	a7, a10
    3535:	877d           	ae_sext16	a7, a7
    3537:	000206        	j	3543 <pvq_dec_en1_normQ14_fx+0x57>

0000353a <pvq_dec_en1_normQ14_fx+0x4e>:
    353a:	607070        	neg	a7, a7
    353d:	400700        	ssr	a7
    3540:	b170a0        	sra	a7, a10
    3543:	40e480        	nsa	a8, a4
    3546:	f0c882        	addi	a8, a8, -16
    3549:	838440        	moveqz	a8, a4, a4
    354c:	031684        	wur.ae_sar	a8
    354f:	3125a6        	blti	a5, 2, 3584 <pvq_dec_en1_normQ14_fx+0x98>
    3552:	d40c           	movi.n	a4, 13
    3554:	c04480        	sub	a4, a4, a8
    3557:	300774        	ae_cvtp24a16x2.ll	aep0, a7, a7
    355a:	449304        	ae_lp16x2f.iu	aep1, a3, 0
    355d:	fcc222        	addi	a2, a2, -4
    3560:	844d           	ae_sext16	a4, a4
    3562:	1e8676        	loop	a6, 3584 <pvq_dec_en1_normQ14_fx+0x98>
    3565:	0b1094        	ae_sllssp24s	aep1, aep1
    3568:	010144        	ae_mulfp24s.hh	aeq0, aep0, aep1
    356b:	010974        	ae_mulfp24s.ll	aeq1, aep0, aep1
    356e:	fc24fe840f 	{ ae_slaasq56s	aeq0, aeq0, a4; nop }
    3573:	fb63fe944f 	{ ae_slaasq56s	aeq1, aeq1, a4; ae_roundsp16q48asym	aep7, aeq0 }
    3578:	1b9f24        	ae_roundsp16q48asym	aep2, aeq1
    357b:	1afa14        	ae_selp24.hl	aep1, aep7, aep2
    357e:	469214        	ae_sp16x2f.iu	aep1, a2, 4
    3581:	449314        	ae_lp16x2f.iu	aep1, a3, 4

00003584 <pvq_dec_en1_normQ14_fx+0x98>:
    3584:	f01d           	retw.n

00003586 <pvq_dec_en1_normQ14_fx+0x9a>:
	...

00003588 <BASOP_cfft>:
    3588:	006136        	entry	a1, 48
    358b:	9e5c           	movi.n	a14, 89
    358d:	05fd           	mov.n	a15, a5
    358f:	2d2e47        	blt	a14, a4, 35c0 <BASOP_cfft+0x38>
    3592:	752c           	movi.n	a5, 39
    3594:	5ca547        	bge	a5, a4, 35f4 <BASOP_cfft+0x6c>
    3597:	852c           	movi.n	a5, 40
    3599:	029457        	bne	a4, a5, 359f <BASOP_cfft+0x17>
    359c:	0025c6        	j	3637 <BASOP_cfft+0xaf>
    359f:	c53c           	movi.n	a5, 60
    35a1:	029457        	bne	a4, a5, 35a7 <BASOP_cfft+0x1f>
    35a4:	002806        	j	3648 <BASOP_cfft+0xc0>
    35a7:	055c           	movi.n	a5, 80
    35a9:	021457        	beq	a4, a5, 35af <BASOP_cfft+0x27>
    35ac:	004646        	j	36c9 <BASOP_cfft+0x141>
    35af:	f31dc1        	l32r	a12, 224 (12b40 <RotVector_320>)
    35b2:	f31d91        	l32r	a9, 228 (36cc <fftN2>)
    35b5:	842c           	movi.n	a4, 40
    35b7:	480c           	movi.n	a8, 4
    35b9:	850c           	movi.n	a5, 8
    35bb:	ad0c           	movi.n	a13, 10
    35bd:	002cc6        	j	3674 <BASOP_cfft+0xec>

000035c0 <BASOP_cfft+0x38>:
    35c0:	9fa052        	movi	a5, 159
    35c3:	4ea547        	bge	a5, a4, 3615 <BASOP_cfft+0x8d>
    35c6:	a0a052        	movi	a5, 160
    35c9:	029457        	bne	a4, a5, 35cf <BASOP_cfft+0x47>
    35cc:	002586        	j	3666 <BASOP_cfft+0xde>
    35cf:	b4a052        	movi	a5, 180
    35d2:	029457        	bne	a4, a5, 35d8 <BASOP_cfft+0x50>
    35d5:	002b46        	j	3686 <BASOP_cfft+0xfe>
    35d8:	f0a052        	movi	a5, 240
    35db:	021457        	beq	a4, a5, 35e1 <BASOP_cfft+0x59>
    35de:	0039c6        	j	36c9 <BASOP_cfft+0x141>
    35e1:	f312c1        	l32r	a12, 22c (11f00 <RotVector_480>)
    35e4:	f31181        	l32r	a8, 228 (36cc <fftN2>)
    35e7:	c43c           	movi.n	a4, 60
    35e9:	2149           	s32i.n	a4, a1, 8
    35eb:	250c           	movi.n	a5, 2
    35ed:	ed1c           	movi.n	a13, 30
    35ef:	8e0c           	movi.n	a14, 8
    35f1:	003046        	j	36b6 <BASOP_cfft+0x12e>

000035f4 <BASOP_cfft+0x6c>:
    35f4:	550c           	movi.n	a5, 5
    35f6:	02b466        	bnei	a4, 16, 35fc <BASOP_cfft+0x74>
    35f9:	003186        	j	36c3 <BASOP_cfft+0x13b>
    35fc:	e51c           	movi.n	a5, 30
    35fe:	021457        	beq	a4, a5, 3604 <BASOP_cfft+0x7c>
    3601:	003106        	j	36c9 <BASOP_cfft+0x141>
    3604:	f30741        	l32r	a4, 220 (67e0 <fix_fft30>)
    3607:	02ad           	mov.n	a10, a2
    3609:	03bd           	mov.n	a11, a3
    360b:	0fcd           	mov.n	a12, a15
    360d:	0004e0        	callx8	a4
    3610:	650c           	movi.n	a5, 6
    3612:	002b46        	j	36c3 <BASOP_cfft+0x13b>

00003615 <BASOP_cfft+0x8d>:
    3615:	a55c           	movi.n	a5, 90
    3617:	029457        	bne	a4, a5, 361d <BASOP_cfft+0x95>
    361a:	002206        	j	36a6 <BASOP_cfft+0x11e>
    361d:	78a052        	movi	a5, 120
    3620:	021457        	beq	a4, a5, 3626 <BASOP_cfft+0x9e>
    3623:	002886        	j	36c9 <BASOP_cfft+0x141>
    3626:	f301c1        	l32r	a12, 22c (11f00 <RotVector_480>)
    3629:	f2ff91        	l32r	a9, 228 (36cc <fftN2>)
    362c:	c43c           	movi.n	a4, 60
    362e:	480c           	movi.n	a8, 4
    3630:	850c           	movi.n	a5, 8
    3632:	fd0c           	movi.n	a13, 15
    3634:	000f06        	j	3674 <BASOP_cfft+0xec>

00003637 <BASOP_cfft+0xaf>:
    3637:	f2fe41        	l32r	a4, 230 (6aec <fix_fft40>)
    363a:	02ad           	mov.n	a10, a2
    363c:	03bd           	mov.n	a11, a3
    363e:	0fcd           	mov.n	a12, a15
    3640:	07dd           	mov.n	a13, a7
    3642:	0004e0        	callx8	a4
    3645:	000606        	j	3661 <BASOP_cfft+0xd9>

00003648 <BASOP_cfft+0xc0>:
    3648:	2159           	s32i.n	a5, a1, 8
    364a:	f2f8c1        	l32r	a12, 22c (11f00 <RotVector_480>)
    364d:	f2f651        	l32r	a5, 228 (36cc <fftN2>)
    3650:	440c           	movi.n	a4, 4
    3652:	fd0c           	movi.n	a13, 15
    3654:	4e0c           	movi.n	a14, 4
    3656:	02ad           	mov.n	a10, a2
    3658:	03bd           	mov.n	a11, a3
    365a:	1179           	s32i.n	a7, a1, 4
    365c:	0149           	s32i.n	a4, a1, 0
    365e:	0005e0        	callx8	a5
    3661:	750c           	movi.n	a5, 7
    3663:	001706        	j	36c3 <BASOP_cfft+0x13b>

00003666 <BASOP_cfft+0xde>:
    3666:	f2efc1        	l32r	a12, 224 (12b40 <RotVector_320>)
    3669:	f2ef91        	l32r	a9, 228 (36cc <fftN2>)
    366c:	842c           	movi.n	a4, 40
    366e:	280c           	movi.n	a8, 2
    3670:	850c           	movi.n	a5, 8
    3672:	4d1c           	movi.n	a13, 20
    3674:	2149           	s32i.n	a4, a1, 8
    3676:	8e0c           	movi.n	a14, 8
    3678:	02ad           	mov.n	a10, a2
    367a:	03bd           	mov.n	a11, a3
    367c:	1179           	s32i.n	a7, a1, 4
    367e:	0189           	s32i.n	a8, a1, 0
    3680:	0009e0        	callx8	a9
    3683:	000f06        	j	36c3 <BASOP_cfft+0x13b>

00003686 <BASOP_cfft+0xfe>:
    3686:	f2ecc1        	l32r	a12, 238 (12610 <RotVector_360>)
    3689:	f2e781        	l32r	a8, 228 (36cc <fftN2>)
    368c:	c43c           	movi.n	a4, 60
    368e:	450c           	movi.n	a5, 4
    3690:	fd0c           	movi.n	a13, 15
    3692:	ce0c           	movi.n	a14, 12
    3694:	02ad           	mov.n	a10, a2
    3696:	03bd           	mov.n	a11, a3
    3698:	2149           	s32i.n	a4, a1, 8
    369a:	1179           	s32i.n	a7, a1, 4
    369c:	0159           	s32i.n	a5, a1, 0
    369e:	0008e0        	callx8	a8
    36a1:	a50c           	movi.n	a5, 10
    36a3:	000706        	j	36c3 <BASOP_cfft+0x13b>

000036a6 <BASOP_cfft+0x11e>:
    36a6:	f2e3c1        	l32r	a12, 234 (13370 <RotVector_15_6>)
    36a9:	f2df81        	l32r	a8, 228 (36cc <fftN2>)
    36ac:	e41c           	movi.n	a4, 30
    36ae:	2149           	s32i.n	a4, a1, 8
    36b0:	250c           	movi.n	a5, 2
    36b2:	fd0c           	movi.n	a13, 15
    36b4:	6e0c           	movi.n	a14, 6
    36b6:	1179           	s32i.n	a7, a1, 4
    36b8:	02ad           	mov.n	a10, a2
    36ba:	03bd           	mov.n	a11, a3
    36bc:	0159           	s32i.n	a5, a1, 0
    36be:	0008e0        	callx8	a8
    36c1:	950c           	movi.n	a5, 9
    36c3:	262d           	ae_l16si.n	a2, a6, 0
    36c5:	225a           	add.n	a2, a2, a5
    36c7:	662d           	ae_s16i.n	a2, a6, 0
    36c9:	f01d           	retw.n

000036cb <BASOP_cfft+0x143>:
	...

000036cc <fftN2>:
    36cc:	038136        	entry	a1, 0x1c0
    36cf:	4149           	s32i.n	a4, a1, 16
    36d1:	712142        	l32i	a4, a1, 0x1c4
    36d4:	396142        	s32i	a4, a1, 228
    36d7:	2b16a6        	blti	a6, 1, 3706 <fftN2+0x3a>
    36da:	d1d670        	mul16s	a13, a6, a7
    36dd:	887c           	movi.n	a8, -8
    36df:	11b7e0        	slli	a11, a7, 2
    36e2:	0a0c           	movi.n	a10, 0
    36e4:	8e0c           	movi.n	a14, 8
    36e6:	5d8484        	ae_lp24x2f.xu	aep0, a4, a8
    36e9:	06cd           	mov.n	a12, a6
    36eb:	11dde0        	slli	a13, a13, 2

000036ee <fftN2+0x22>:
    36ee:	0d15a6        	blti	a5, 1, 36ff <fftN2+0x33>
    36f1:	028d           	mov.n	a8, a2
    36f3:	5d88a4        	ae_lp24x2f.xu	aep0, a8, a10
    36f6:	058576        	loop	a5, 36ff <fftN2+0x33>
    36f9:	5f84e4        	ae_sp24x2f.xu	aep0, a4, a14
    36fc:	5d88d4        	ae_lp24x2f.xu	aep0, a8, a13

000036ff <fftN2+0x33>:
    36ff:	cc0b           	addi.n	a12, a12, -1
    3701:	aaba           	add.n	a10, a10, a11
    3703:	fe7c56        	bnez	a12, 36ee <fftN2+0x22>

00003706 <fftN2+0x3a>:
    3706:	2159           	s32i.n	a5, a1, 8
    3708:	386162        	s32i	a6, a1, 224
    370b:	3d6132        	s32i	a3, a1, 244
    370e:	3c6122        	s32i	a2, a1, 240
    3711:	8179           	s32i.n	a7, a1, 32
    3713:	6199           	s32i.n	a9, a1, 24
    3715:	36b5e6        	bgei	a5, 16, 374f <fftN2+0x83>
    3718:	718526        	beqi	a5, 8, 378d <fftN2+0xc1>
    371b:	029566        	bnei	a5, 10, 3721 <fftN2+0x55>
    371e:	029d06        	j	4196 <fftN2+0xaca>
    3721:	f20c           	movi.n	a2, 15
    3723:	021527        	beq	a5, a2, 3729 <fftN2+0x5d>
    3726:	007f46        	j	3927 <fftN2+0x25b>
    3729:	382122        	l32i	a2, a1, 224
    372c:	382132        	l32i	a3, a1, 224
    372f:	392142        	l32i	a4, a1, 228
    3732:	0212e6        	bgei	a2, 1, 3738 <fftN2+0x6c>
    3735:	007b86        	j	3927 <fftN2+0x25b>
    3738:	f2c121        	l32r	a2, 23c (55c4 <fix_fft15>)
    373b:	b44b           	addi.n	a11, a4, 4
    373d:	2c0c           	movi.n	a12, 2
    373f:	04ad           	mov.n	a10, a4
    3741:	0002e0        	callx8	a2
    3744:	330b           	addi.n	a3, a3, -1
    3746:	78c442        	addi	a4, a4, 120
    3749:	fee356        	bnez	a3, 373b <fftN2+0x6f>
    374c:	0075c6        	j	3927 <fftN2+0x25b>

0000374f <fftN2+0x83>:
    374f:	02b566        	bnei	a5, 16, 3755 <fftN2+0x89>
    3752:	0298c6        	j	41b9 <fftN2+0xaed>
    3755:	441c           	movi.n	a4, 20
    3757:	029547        	bne	a5, a4, 375d <fftN2+0x91>
    375a:	02a006        	j	41de <fftN2+0xb12>
    375d:	e21c           	movi.n	a2, 30
    375f:	021527        	beq	a5, a2, 3765 <fftN2+0x99>
    3762:	007046        	j	3927 <fftN2+0x25b>
    3765:	382122        	l32i	a2, a1, 224
    3768:	382152        	l32i	a5, a1, 224
    376b:	392142        	l32i	a4, a1, 228
    376e:	0212e6        	bgei	a2, 1, 3774 <fftN2+0xa8>
    3771:	006c86        	j	3927 <fftN2+0x25b>
    3774:	f2ab21        	l32r	a2, 220 (67e0 <fix_fft30>)
    3777:	f0a032        	movi	a3, 240
    377a:	b44b           	addi.n	a11, a4, 4
    377c:	2c0c           	movi.n	a12, 2
    377e:	04ad           	mov.n	a10, a4
    3780:	0002e0        	callx8	a2
    3783:	550b           	addi.n	a5, a5, -1
    3785:	443a           	add.n	a4, a4, a3
    3787:	fef556        	bnez	a5, 377a <fftN2+0xae>
    378a:	006646        	j	3927 <fftN2+0x25b>

0000378d <fftN2+0xc1>:
    378d:	0216e6        	bgei	a6, 1, 3793 <fftN2+0xc7>
    3790:	0064c6        	j	3927 <fftN2+0x25b>
    3793:	382122        	l32i	a2, a1, 224
    3796:	392182        	l32i	a8, a1, 228
    3799:	178276        	loop	a2, 37b4 <fftN2+0xe8>
    379c:	030120        	rsr.lend	a2
    379f:	130020        	wsr.lbeg	a2
    37a2:	f2ac21        	l32r	a2, 254 (3927 <fftN2+0x25b>)
    37a5:	0020f0        	nop
    37a8:	130120        	wsr.lend	a2
    37ab:	002000        	isync
    37ae:	030220        	rsr.lcount	a2
    37b1:	01c222        	addi	a2, a2, 1
    37b4:	1838           	l32i.n	a3, a8, 4
    37b6:	98a8           	l32i.n	a10, a8, 36
    37b8:	2848           	l32i.n	a4, a8, 8
    37ba:	a8b8           	l32i.n	a11, a8, 40
    37bc:	3858           	l32i.n	a5, a8, 12
    37be:	5868           	l32i.n	a6, a8, 20
    37c0:	6878           	l32i.n	a7, a8, 24
    37c2:	b8c8           	l32i.n	a12, a8, 44
    37c4:	d8d8           	l32i.n	a13, a8, 52
    37c6:	e8e8           	l32i.n	a14, a8, 56
    37c8:	7898           	l32i.n	a9, a8, 28
    37ca:	213430        	srai	a3, a3, 4
    37cd:	21a4a0        	srai	a10, a10, 4
    37d0:	3a6192        	s32i	a9, a1, 232
    37d3:	9a3a           	add.n	a9, a10, a3
    37d5:	214440        	srai	a4, a4, 4
    37d8:	21b4b0        	srai	a11, a11, 4
    37db:	3e6192        	s32i	a9, a1, 248
    37de:	9b4a           	add.n	a9, a11, a4
    37e0:	c0b4b0        	sub	a11, a4, a11
    37e3:	215450        	srai	a5, a5, 4
    37e6:	21c4c0        	srai	a12, a12, 4
    37e9:	216460        	srai	a6, a6, 4
    37ec:	217470        	srai	a7, a7, 4
    37ef:	21d4d0        	srai	a13, a13, 4
    37f2:	21e4e0        	srai	a14, a14, 4
    37f5:	f8f8           	l32i.n	a15, a8, 60
    37f7:	456192        	s32i	a9, a1, 0x114
    37fa:	4461b2        	s32i	a11, a1, 0x110
    37fd:	c045c0        	sub	a4, a5, a12
    3800:	bc5a           	add.n	a11, a12, a5
    3802:	cd6a           	add.n	a12, a13, a6
    3804:	c066d0        	sub	a6, a6, a13
    3807:	de7a           	add.n	a13, a14, a7
    3809:	c097e0        	sub	a9, a7, a14
    380c:	3a21e2        	l32i	a14, a1, 232
    380f:	c858           	l32i.n	a5, a8, 48
    3811:	436142        	s32i	a4, a1, 0x10c
    3814:	2144e0        	srai	a4, a14, 4
    3817:	21f4f0        	srai	a15, a15, 4
    381a:	c0a3a0        	sub	a10, a3, a10
    381d:	217450        	srai	a7, a5, 4
    3820:	0858           	l32i.n	a5, a8, 0
    3822:	4828           	l32i.n	a2, a8, 16
    3824:	3f4a           	add.n	a3, a15, a4
    3826:	c0e4f0        	sub	a14, a4, a15
    3829:	8848           	l32i.n	a4, a8, 32
    382b:	21f420        	srai	a15, a2, 4
    382e:	215450        	srai	a5, a5, 4
    3831:	214440        	srai	a4, a4, 4
    3834:	27fa           	add.n	a2, a7, a15
    3836:	c0ff70        	sub	a15, a15, a7
    3839:	745a           	add.n	a7, a4, a5
    383b:	c04540        	sub	a4, a5, a4
    383e:	527a           	add.n	a5, a2, a7
    3840:	476152        	s32i	a5, a1, 0x11c
    3843:	c05460        	sub	a5, a4, a6
    3846:	3a6152        	s32i	a5, a1, 232
    3849:	5faa           	add.n	a5, a15, a10
    384b:	c02720        	sub	a2, a7, a2
    384e:	764a           	add.n	a7, a6, a4
    3850:	c06af0        	sub	a6, a10, a15
    3853:	3e2142        	l32i	a4, a1, 248
    3856:	3e6152        	s32i	a5, a1, 248
    3859:	f3ba           	add.n	a15, a3, a11
    385b:	c053b0        	sub	a5, a3, a11
    385e:	4521b2        	l32i	a11, a1, 0x114
    3861:	466122        	s32i	a2, a1, 0x118
    3864:	3b6172        	s32i	a7, a1, 236
    3867:	7c4a           	add.n	a7, a12, a4
    3869:	4321a2        	l32i	a10, a1, 0x10c
    386c:	2dba           	add.n	a2, a13, a11
    386e:	c03bd0        	sub	a3, a11, a13
    3871:	4421d2        	l32i	a13, a1, 0x110
    3874:	bf7a           	add.n	a11, a15, a7
    3876:	c077f0        	sub	a7, a7, a15
    3879:	4621f2        	l32i	a15, a1, 0x118
    387c:	c0c4c0        	sub	a12, a4, a12
    387f:	3f6162        	s32i	a6, a1, 252
    3882:	4eaa           	add.n	a4, a14, a10
    3884:	c0aae0        	sub	a10, a10, a14
    3887:	e9da           	add.n	a14, a9, a13
    3889:	c06d90        	sub	a6, a13, a9
    388c:	d46a           	add.n	a13, a4, a6
    388e:	c06460        	sub	a6, a4, a6
    3891:	c04ae0        	sub	a4, a10, a14
    3894:	9aea           	add.n	a9, a10, a14
    3896:	c0ac30        	sub	a10, a12, a3
    3899:	33ca           	add.n	a3, a3, a12
    389b:	c0cf50        	sub	a12, a15, a5
    389e:	55fa           	add.n	a5, a5, a15
    38a0:	4721f2        	l32i	a15, a1, 0x11c
    38a3:	c859           	s32i.n	a5, a8, 48
    38a5:	82a052        	movi	a5, 130
    38a8:	e2fa           	add.n	a14, a2, a15
    38aa:	08e9           	s32i.n	a14, a8, 0
    38ac:	9879           	s32i.n	a7, a8, 36
    38ae:	5ad572        	addmi	a7, a5, 0x5a00
    38b1:	7ea0e2        	movi	a14, 126
    38b4:	48c9           	s32i.n	a12, a8, 16
    38b6:	18b9           	s32i.n	a11, a8, 4
    38b8:	58a9           	s32i.n	a10, a8, 20
    38ba:	82ad70        	mull	a10, a13, a7
    38bd:	b2bd70        	mulsh	a11, a13, a7
    38c0:	82c670        	mull	a12, a6, a7
    38c3:	b2d670        	mulsh	a13, a6, a7
    38c6:	a5de62        	addmi	a6, a14, 0xffffa500
    38c9:	c02f20        	sub	a2, a15, a2
    38cc:	82f960        	mull	a15, a9, a6
    38cf:	8829           	s32i.n	a2, a8, 32
    38d1:	412fa0        	srli	a2, a10, 15
    38d4:	b26960        	mulsh	a6, a9, a6
    38d7:	829470        	mull	a9, a4, a7
    38da:	415ff0        	srli	a5, a15, 15
    38dd:	d839           	s32i.n	a3, a8, 52
    38df:	413fc0        	srli	a3, a12, 15
    38e2:	1beb20        	depbits	a2, a11, 17, 15
    38e5:	b24470        	mulsh	a4, a4, a7
    38e8:	3f21a2        	l32i	a10, a1, 252
    38eb:	3e21b2        	l32i	a11, a1, 248
    38ee:	3b21c2        	l32i	a12, a1, 236
    38f1:	3a21e2        	l32i	a14, a1, 232
    38f4:	1be650        	depbits	a5, a6, 17, 15
