
Discarded input sections

 .note.GNU-stack
                0x00000000        0x0 C:/usr/xtensa/XtDevTools/install/builds/RI-2021.8-win32/AB1568_i64B_d32B_512K/xtensa-elf/lib/xcc/crtbegin.o
 .note.GNU-stack
                0x00000000        0x0 Build/source/piclib_fft10ms.picsl.o
 .note.GNU-stack
                0x00000000        0x0 Build/source/lc3_scratch_allocator.picsl.o
 .note.GNU-stack
                0x00000000        0x0 Build/source/IRAM_fft_com.picsl.o
 .note.GNU-stack
                0x00000000        0x0 Build/source/IRAM_fft_fft10.picsl.o
 .note.GNU-stack
                0x00000000        0x0 Build/source/IRAM_fft_fft16.picsl.o
 .note.GNU-stack
                0x00000000        0x0 Build/source/IRAM_fft_fft20.picsl.o
 .note.GNU-stack
                0x00000000        0x0 Build/source/IRAM_fft_fft30.picsl.o
 .note.GNU-stack
                0x00000000        0x0 C:/usr/xtensa/XtDevTools/install/builds/RI-2021.8-win32/AB1568_i64B_d32B_512K/xtensa-elf/lib/xcc/crtend.o

Linker script and memory map

LOAD C:/usr/xtensa/XtDevTools/install/builds/RI-2021.8-win32/AB1568_i64B_d32B_512K/xtensa-elf/lib/xcc/crti.o
LOAD C:/usr/xtensa/XtDevTools/install/builds/RI-2021.8-win32/AB1568_i64B_d32B_512K/xtensa-elf/lib/xcc/crtbegin.o
LOAD Build/source/piclib_fft10ms.picsl.o
LOAD Build/source/lc3_scratch_allocator.picsl.o
LOAD Build/source/IRAM_fft_com.picsl.o
LOAD Build/source/IRAM_fft_fft10.picsl.o
LOAD Build/source/IRAM_fft_fft16.picsl.o
LOAD Build/source/IRAM_fft_fft20.picsl.o
LOAD Build/source/IRAM_fft_fft30.picsl.o
LOAD C:/usr/xtensa/XtDevTools/install/builds/RI-2021.8-win32/AB1568_i64B_d32B_512K/xtensa-elf/lib/xcc/\libgcc.a
LOAD C:/usr/xtensa/XtDevTools/install/builds/RI-2021.8-win32/AB1568_i64B_d32B_512K/xtensa-elf/lib/xcc/\libgcc.a
LOAD C:/usr/xtensa/XtDevTools/install/builds/RI-2021.8-win32/AB1568_i64B_d32B_512K/xtensa-elf/lib/xcc/crtend.o
LOAD C:/usr/xtensa/XtDevTools/install/builds/RI-2021.8-win32/AB1568_i64B_d32B_512K/xtensa-elf/lib/xcc/crtn.o

.text           0x00000000     0x2bad
                0x00000000                _text_start = ABSOLUTE (.)
 *(.got.plt* .plt*)
 .got.plt       0x00000000        0x0 C:/usr/xtensa/XtDevTools/install/builds/RI-2021.8-win32/AB1568_i64B_d32B_512K/xtensa-elf/lib/xcc/crti.o
                0x00000000                _GLOBAL_OFFSET_TABLE_
 .init.literal  0x00000000        0x4 C:/usr/xtensa/XtDevTools/install/builds/RI-2021.8-win32/AB1568_i64B_d32B_512K/xtensa-elf/lib/xcc/crtbegin.o
 .init.literal  0x00000004        0x4 C:/usr/xtensa/XtDevTools/install/builds/RI-2021.8-win32/AB1568_i64B_d32B_512K/xtensa-elf/lib/xcc/crtend.o
 .literal       0x00000008       0x14 C:/usr/xtensa/XtDevTools/install/builds/RI-2021.8-win32/AB1568_i64B_d32B_512K/xtensa-elf/lib/xcc/crtbegin.o
                                         0x20 (size before relaxing)
 .literal       0x0000001c       0x40 Build/source/piclib_fft10ms.picsl.o
 .literal       0x0000005c       0x34 Build/source/IRAM_fft_com.picsl.o
                                         0x4c (size before relaxing)
 .literal       0x00000090        0x0 Build/source/IRAM_fft_fft10.picsl.o
                                          0x4 (size before relaxing)
 .literal       0x00000090       0x14 Build/source/IRAM_fft_fft16.picsl.o
                                         0x24 (size before relaxing)
 .literal       0x000000a4        0x0 Build/source/IRAM_fft_fft20.picsl.o
                                          0x4 (size before relaxing)
 .literal       0x000000a4        0x8 Build/source/IRAM_fft_fft30.picsl.o
                                          0xc (size before relaxing)
 .literal       0x000000ac        0x4 C:/usr/xtensa/XtDevTools/install/builds/RI-2021.8-win32/AB1568_i64B_d32B_512K/xtensa-elf/lib/xcc/crtend.o
 .fini.literal  0x000000b0        0x4 C:/usr/xtensa/XtDevTools/install/builds/RI-2021.8-win32/AB1568_i64B_d32B_512K/xtensa-elf/lib/xcc/crtbegin.o
 .plt           0x000000b4        0x0 C:/usr/xtensa/XtDevTools/install/builds/RI-2021.8-win32/AB1568_i64B_d32B_512K/xtensa-elf/lib/xcc/crti.o
 *(.init.literal)
 *(.init)
 .init          0x000000b4        0x3 C:/usr/xtensa/XtDevTools/install/builds/RI-2021.8-win32/AB1568_i64B_d32B_512K/xtensa-elf/lib/xcc/crti.o
                0x000000b4                _init
 .init          0x000000b7        0x8 C:/usr/xtensa/XtDevTools/install/builds/RI-2021.8-win32/AB1568_i64B_d32B_512K/xtensa-elf/lib/xcc/crtbegin.o
 .init          0x000000bf        0x8 C:/usr/xtensa/XtDevTools/install/builds/RI-2021.8-win32/AB1568_i64B_d32B_512K/xtensa-elf/lib/xcc/crtend.o
 .init          0x000000c7        0x2 C:/usr/xtensa/XtDevTools/install/builds/RI-2021.8-win32/AB1568_i64B_d32B_512K/xtensa-elf/lib/xcc/crtn.o
 *(.literal .text .stub .literal.* .text.* .gnu.linkonce.literal.* .gnu.linkonce.t.*.literal .gnu.linkonce.t.*)
 *fill*         0x000000c9        0x3 00000000
 .text          0x000000cc       0x4a C:/usr/xtensa/XtDevTools/install/builds/RI-2021.8-win32/AB1568_i64B_d32B_512K/xtensa-elf/lib/xcc/crtbegin.o
 *fill*         0x00000116        0x2 00000000
 .text          0x00000118       0x5a Build/source/piclib_fft10ms.picsl.o
                0x00000118                _start
 *fill*         0x00000172        0x6 00000000
 .text          0x00000178     0x11f3 Build/source/IRAM_fft_com.picsl.o
                0x00000178                fix_fft_Init
                0x0000018c                fix_fft5_stage
                0x000002d4                fix_fft15_stage
                0x0000061c                fix_fft40
                0x00000c8c                FFT8N
 *fill*         0x0000136b        0x1 00000000
 .text          0x0000136c      0x280 Build/source/IRAM_fft_fft10.picsl.o
                0x0000136c                fix_fft10
 *fill*         0x000015ec        0x4 00000000
 .text          0x000015f0      0xa4e Build/source/IRAM_fft_fft16.picsl.o
                0x000015f0                FFT16N
 *fill*         0x0000203e        0x2 00000000
 .text          0x00002040      0x4cf Build/source/IRAM_fft_fft20.picsl.o
                0x00002040                fix_fft20
 *fill*         0x0000250f        0x1 00000000
 .text          0x00002510      0x5a7 Build/source/IRAM_fft_fft30.picsl.o
                0x00002510                fix_fft30
 *fill*         0x00002ab7        0x1 00000000
 .text          0x00002ab8       0x1e C:/usr/xtensa/XtDevTools/install/builds/RI-2021.8-win32/AB1568_i64B_d32B_512K/xtensa-elf/lib/xcc/crtend.o
 .text          0x00002ad6        0x0 C:/usr/xtensa/XtDevTools/install/builds/RI-2021.8-win32/AB1568_i64B_d32B_512K/xtensa-elf/lib/xcc/crti.o
 *fill*         0x00002ad6        0x0 00000000
 *fill*         0x00002ad6        0x0 00000000
 *fill*         0x00002ad6        0x2 00000000
 .text          0x00002ad8       0xc6 Build/source/lc3_scratch_allocator.picsl.o
                0x00002ad8                LC3Plus_lc3_scratch_init
                0x00002b34                LC3Plus_lc3_scratch_push
                0x00002b74                LC3Plus_lc3_scratch_pop
 *fill*         0x00002b9e        0x0 00000000
 *fill*         0x00002b9e        0x0 00000000
 *fill*         0x00002b9e        0x0 00000000
 *fill*         0x00002b9e        0x0 00000000
 *fill*         0x00002b9e        0x0 00000000
 *fill*         0x00002b9e        0x0 00000000
 *fill*         0x00002b9e        0x0 00000000
 .text          0x00002b9e        0x0 C:/usr/xtensa/XtDevTools/install/builds/RI-2021.8-win32/AB1568_i64B_d32B_512K/xtensa-elf/lib/xcc/crtn.o
 *(.clib.literal .clib.text)
 *(.text.*personality*)
 *(.gnu.warning)
 *(.fini.literal)
 *fill*         0x00002b9e        0x0 00000000
 *(.fini)
 *fill*         0x00002b9e        0x2 00000000
 .fini          0x00002ba0        0x3 C:/usr/xtensa/XtDevTools/install/builds/RI-2021.8-win32/AB1568_i64B_d32B_512K/xtensa-elf/lib/xcc/crti.o
                0x00002ba0                _fini
 .fini          0x00002ba3        0x8 C:/usr/xtensa/XtDevTools/install/builds/RI-2021.8-win32/AB1568_i64B_d32B_512K/xtensa-elf/lib/xcc/crtbegin.o
 .fini          0x00002bab        0x2 C:/usr/xtensa/XtDevTools/install/builds/RI-2021.8-win32/AB1568_i64B_d32B_512K/xtensa-elf/lib/xcc/crtn.o
                [!provide]                        PROVIDE (__etext = .)
                [!provide]                        PROVIDE (_etext = .)
                [!provide]                        PROVIDE (etext = .)

.dynamic        0x00002bb0       0xa8
                0x00002bb0        0x4 LONG 0x70000002
                0x00002bb4        0x4 LONG 0x0 _text_start
 *(.dynamic)
 .dynamic       0x00002bb8       0xa0 C:/usr/xtensa/XtDevTools/install/builds/RI-2021.8-win32/AB1568_i64B_d32B_512K/xtensa-elf/lib/xcc/crti.o
                0x00002bb8                _DYNAMIC

.hash           0x00002c58       0x10
 *(.hash)
 .hash          0x00002c58       0x10 C:/usr/xtensa/XtDevTools/install/builds/RI-2021.8-win32/AB1568_i64B_d32B_512K/xtensa-elf/lib/xcc/crti.o

.dynsym         0x00002c68       0x10
 *(.dynsym)
 .dynsym        0x00002c68       0x10 C:/usr/xtensa/XtDevTools/install/builds/RI-2021.8-win32/AB1568_i64B_d32B_512K/xtensa-elf/lib/xcc/crti.o

.dynstr         0x00002c78        0x1
 *(.dynstr)
 .dynstr        0x00002c78        0x1 C:/usr/xtensa/XtDevTools/install/builds/RI-2021.8-win32/AB1568_i64B_d32B_512K/xtensa-elf/lib/xcc/crti.o

.gnu.version    0x00002c7a        0x0
 *(.gnu.version)
 .gnu.version   0x00002c7a        0x0 C:/usr/xtensa/XtDevTools/install/builds/RI-2021.8-win32/AB1568_i64B_d32B_512K/xtensa-elf/lib/xcc/crti.o

.gnu.version_d  0x00002c7c        0x0
 *(.gnu.version_d)
 .gnu.version_d
                0x00002c7c        0x0 C:/usr/xtensa/XtDevTools/install/builds/RI-2021.8-win32/AB1568_i64B_d32B_512K/xtensa-elf/lib/xcc/crti.o

.gnu.version_r  0x00002c7c        0x0
 *(.gnu.version_r)
 .gnu.version_r
                0x00002c7c        0x0 C:/usr/xtensa/XtDevTools/install/builds/RI-2021.8-win32/AB1568_i64B_d32B_512K/xtensa-elf/lib/xcc/crti.o

.rel.init
 *(.rel.init)

.rela.init
 *(.rela.init)

.rel.text
 *(.rel.text .rel.text.* .rel.gnu.linkonce.t.*)

.rela.text
 *(.rela.text .rela.text.* .rela.gnu.linkonce.t.*)

.rel.fini
 *(.rel.fini)

.rela.fini
 *(.rela.fini)

.rel.rodata
 *(.rel.rodata .rel.rodata.* .rel.gnu.linkonce.r.*)

.rela.rodata
 *(.rela.rodata .rela.rodata.* .rela.gnu.linkonce.r.*)

.rel.data.rel.ro
 *(.rel.data.rel.ro*)

.rela.data.rel.ro
 *(.rel.data.rel.ro*)

.rel.data
 *(.rel.data .rel.data.* .rel.gnu.linkonce.d.*)

.rela.data
 *(.rela.data .rela.data.* .rela.gnu.linkonce.d.*)

.rel.tdata
 *(.rel.tdata .rel.tdata.* .rel.gnu.linkonce.td.*)

.rela.tdata
 *(.rela.tdata .rela.tdata.* .rela.gnu.linkonce.td.*)

.rel.tbss
 *(.rel.tbss .rel.tbss.* .rel.gnu.linkonce.tb.*)

.rela.tbss
 *(.rela.tbss .rela.tbss.* .rela.gnu.linkonce.tb.*)

.rel.ctors
 *(.rel.ctors)

.rela.ctors
 *(.rela.ctors)

.rel.dtors
 *(.rel.dtors)

.rela.dtors
 *(.rela.dtors)

.rel.got
 *(.rel.got)

.rela.got       0x00002c7c      0x1ec
 *(.rela.got)
 .rela.got      0x00002c7c      0x1ec C:/usr/xtensa/XtDevTools/install/builds/RI-2021.8-win32/AB1568_i64B_d32B_512K/xtensa-elf/lib/xcc/crti.o

.rel.bss
 *(.rel.bss .rel.bss.* .rel.gnu.linkonce.b.*)

.rela.bss
 *(.rela.bss .rela.bss.* .rela.gnu.linkonce.b.*)

.rel.plt
 *(.rel.plt)

.rela.plt       0x00002e68        0x0
 *(.rela.plt)
 .rela.plt      0x00002e68        0x0 C:/usr/xtensa/XtDevTools/install/builds/RI-2021.8-win32/AB1568_i64B_d32B_512K/xtensa-elf/lib/xcc/crti.o

.got            0x00002e68        0x4
 *(.got)
 .got           0x00002e68        0x4 C:/usr/xtensa/XtDevTools/install/builds/RI-2021.8-win32/AB1568_i64B_d32B_512K/xtensa-elf/lib/xcc/crti.o

.got.loc        0x00002e6c       0x48
 *(.got.loc)
 .got.loc       0x00002e6c       0x48 C:/usr/xtensa/XtDevTools/install/builds/RI-2021.8-win32/AB1568_i64B_d32B_512K/xtensa-elf/lib/xcc/crti.o

.clib.rodata
 *(.clib.rodata)

.rtos.rodata
 *(.rtos.rodata)

.clib.data
 *(.clib.data)

.rtos.data
 *(.rtos.data)

.clib.percpu.data
 *(.clib.percpu.data)

.rtos.percpu.data
 *(.rtos.percpu.data)

.rodata
 *(.rodata .rodata.* .gnu.linkonce.r.*)

.interp         0x00002eb4        0xb
 .interp        0x00002eb4        0xb C:/usr/xtensa/XtDevTools/install/builds/RI-2021.8-win32/AB1568_i64B_d32B_512K/xtensa-elf/lib/xcc/crti.o

.rodata1
 *(.rodata1)

.xt_except_table
 *(.xt_except_table)

.eh_frame       0x00002ec0        0x4
 *(.eh_frame)
 .eh_frame      0x00002ec0        0x0 C:/usr/xtensa/XtDevTools/install/builds/RI-2021.8-win32/AB1568_i64B_d32B_512K/xtensa-elf/lib/xcc/crtbegin.o
 .eh_frame      0x00002ec0        0x4 C:/usr/xtensa/XtDevTools/install/builds/RI-2021.8-win32/AB1568_i64B_d32B_512K/xtensa-elf/lib/xcc/crtend.o

.gcc_except_table
 *(.gcc_except_table)
 *(.gcc_except_table.*)

.eh_frame
 *(.eh_frame)

.gcc_except_table
 *(.gcc_except_table)
 *(.gcc_except_table.*)

.tdata
 *(.tdata .tdata.* .gnu.linkonce.td.*)

.tbss
 *(.tbss .tbss.* .gnu.linkonce.tb.*)
 *(.tcommon)
                0x00002ec4                . = ALIGN (0x4)
                [!provide]                        PROVIDE (__preinit_array_start = .)

.preinit_array
 *(.preinit_array)
                [!provide]                        PROVIDE (__preinit_array_end = .)
                [!provide]                        PROVIDE (__init_array_start = .)

.init_array
 *(.init_array)
                [!provide]                        PROVIDE (__init_array_end = .)
                [!provide]                        PROVIDE (__fini_array_start = .)

.fini_array
 *(.fini_array)
                [!provide]                        PROVIDE (__fini_array_end = .)

.ctors          0x00002ec4        0x8
 *crtbegin*.o(.ctors)
 .ctors         0x00002ec4        0x4 C:/usr/xtensa/XtDevTools/install/builds/RI-2021.8-win32/AB1568_i64B_d32B_512K/xtensa-elf/lib/xcc/crtbegin.o
 *(EXCLUDE_FILE(*crtend*.o) .ctors)
 *(SORT_BY_NAME(.ctors.*))
 *(.ctors)
 .ctors         0x00002ec8        0x4 C:/usr/xtensa/XtDevTools/install/builds/RI-2021.8-win32/AB1568_i64B_d32B_512K/xtensa-elf/lib/xcc/crtend.o

.dtors          0x00002ecc        0x8
 *crtbegin*.o(.dtors)
 .dtors         0x00002ecc        0x4 C:/usr/xtensa/XtDevTools/install/builds/RI-2021.8-win32/AB1568_i64B_d32B_512K/xtensa-elf/lib/xcc/crtbegin.o
 *(EXCLUDE_FILE(*crtend*.o) .dtors)
 *(SORT_BY_NAME(.dtors.*))
 *(.dtors)
 .dtors         0x00002ed0        0x4 C:/usr/xtensa/XtDevTools/install/builds/RI-2021.8-win32/AB1568_i64B_d32B_512K/xtensa-elf/lib/xcc/crtend.o

.jcr
 *(.jcr)

.data.rel.ro
 *(.data.rel.ro.local)
 *(.data.rel.ro*)

.data           0x00002ee0       0xb8
 *(.data .data.* .gnu.linkonce.d.*)
 .data          0x00002ee0        0x0 C:/usr/xtensa/XtDevTools/install/builds/RI-2021.8-win32/AB1568_i64B_d32B_512K/xtensa-elf/lib/xcc/crti.o
 .data          0x00002ee0       0x24 C:/usr/xtensa/XtDevTools/install/builds/RI-2021.8-win32/AB1568_i64B_d32B_512K/xtensa-elf/lib/xcc/crtbegin.o
                0x00002ee0                __dso_handle
 *fill*         0x00002f04        0xc 
 .data          0x00002f10       0x88 Build/source/piclib_fft10ms.picsl.o
                0x00002f10                export_parameter_array
 .data          0x00002f98        0x0 Build/source/lc3_scratch_allocator.picsl.o
 .data          0x00002f98        0x0 Build/source/IRAM_fft_com.picsl.o
 .data          0x00002f98        0x0 Build/source/IRAM_fft_fft10.picsl.o
 .data          0x00002f98        0x0 Build/source/IRAM_fft_fft16.picsl.o
 .data          0x00002f98        0x0 Build/source/IRAM_fft_fft20.picsl.o
 .data          0x00002f98        0x0 Build/source/IRAM_fft_fft30.picsl.o
 .data          0x00002f98        0x0 C:/usr/xtensa/XtDevTools/install/builds/RI-2021.8-win32/AB1568_i64B_d32B_512K/xtensa-elf/lib/xcc/crtend.o
 .data          0x00002f98        0x0 C:/usr/xtensa/XtDevTools/install/builds/RI-2021.8-win32/AB1568_i64B_d32B_512K/xtensa-elf/lib/xcc/crtn.o
 *(.gnu.linkonce.d.*personality*)

.data1
 *(.data1)

.xt_except_desc
 *(.xt_except_desc .gnu.linkonce.h.*)
 *(.xt_except_desc_end)
                0x00002f98                _edata = .
                [!provide]                        PROVIDE (edata = .)
                0x00002f98                __bss_start = .

.bss            0x00002f98      0x2c0
 *(.dynbss)
 *(.bss .bss.* .gnu.linkonce.b.*)
 .bss           0x00002f98        0x0 C:/usr/xtensa/XtDevTools/install/builds/RI-2021.8-win32/AB1568_i64B_d32B_512K/xtensa-elf/lib/xcc/crti.o
 .bss           0x00002f98        0x0 C:/usr/xtensa/XtDevTools/install/builds/RI-2021.8-win32/AB1568_i64B_d32B_512K/xtensa-elf/lib/xcc/crtbegin.o
 .bss           0x00002f98      0x2c0 Build/source/piclib_fft10ms.picsl.o
                0x00002f98                printf_ptr
                0x00002f9c                LC3Plus_LowDelayShapes_n960_len
                0x00002fa0                LC3Plus_LowDelayShapes_n960_la_zeroes
                0x00002fa4                LC3Plus_LowDelayShapes_n960
                0x00002fa8                LC3Plus_LowDelayShapes_n960_len_5ms
                0x00002fac                LC3Plus_LowDelayShapes_n960_la_zeroes_5ms
                0x00002fb0                LC3Plus_LowDelayShapes_n960_5ms
                0x00002fb4                LC3Plus_LowDelayShapes_n960_len_2_5ms
                0x00002fb8                LC3Plus_LowDelayShapes_n960_la_zeroes_2_5ms
                0x00002fbc                LC3Plus_LowDelayShapes_n960_2_5ms
                0x00002fc0                LC3Plus_LowDelayShapes_n960_HRA_2_5ms
                0x00002fc4                LC3Plus_LowDelayShapes_n960_HRA_5ms
                0x00002fc8                LC3Plus_LowDelayShapes_n960_HRA
                0x00002fcc                LC3Plus_NN_thresh
                0x00002fce                LC3Plus_NN_thresh_exp
                0x00002fd0                LC3Plus_BW_thresh_quiet
                0x00002fd4                LC3Plus_BW_thresh_quiet_exp
                0x00002fd8                LC3Plus_BW_thresh_brickwall
                0x00002fdc                LC3Plus_BW_brickwall_dist
                0x00002fe0                LC3Plus_BW_warp_idx_start_all
                0x00002fe4                LC3Plus_BW_warp_idx_stop_all
                0x00002fe8                LC3Plus_BW_brickwall_dist_5ms
                0x00002fec                LC3Plus_BW_warp_idx_start_all_5ms
                0x00002ff0                LC3Plus_BW_warp_idx_stop_all_5ms
                0x00002ff4                LC3Plus_BW_warp_idx_start_all_2_5ms
                0x00002ff8                LC3Plus_BW_warp_idx_stop_all_2_5ms
                0x00002ffc                LC3Plus_BW_cutoff_bin_all
                0x00003000                LC3Plus_BW_cutoff_bin_all_HR
                0x00003004                LC3Plus_BW_cutoff_bits_all
                0x00003008                LC3Plus_tns_subdiv_startfreq
                0x0000300c                LC3Plus_tns_subdiv_stopfreq
                0x00003010                LC3Plus_tns_subdiv_startfreq_48k_HR
                0x00003014                LC3Plus_tns_subdiv_stopfreq_48k_HR
                0x00003018                LC3Plus_tns_subdiv_startfreq_96k_HR
                0x0000301c                LC3Plus_tns_subdiv_stopfreq_96k_HR
                0x00003020                LC3Plus_tns_subdiv_startfreq_HR
                0x00003024                LC3Plus_tns_subdiv_stopfreq_HR
                0x00003028                LC3Plus_tns_subdiv_startfreq_5ms_HR
                0x0000302c                LC3Plus_tns_subdiv_stopfreq_5ms_HR
                0x00003030                LC3Plus_tns_subdiv_startfreq_5ms
                0x00003034                LC3Plus_tns_subdiv_stopfreq_5ms
                0x00003038                LC3Plus_tns_subdiv_startfreq_2_5ms_HR
                0x0000303c                LC3Plus_tns_subdiv_stopfreq_2_5ms_HR
                0x00003040                LC3Plus_tns_subdiv_startfreq_2_5ms
                0x00003044                LC3Plus_tns_subdiv_stopfreq_2_5ms
                0x00003048                LC3Plus_tnsAcfWindow
                0x0000304c                LC3Plus_tnsQuantThr
                0x00003050                LC3Plus_ac_tns_order_bits
                0x00003054                LC3Plus_ac_tns_coef_bits
                0x00003058                LC3Plus_tnsQuantPts
                0x0000305c                LC3Plus_ac_tns_order_freq
                0x00003060                LC3Plus_ac_tns_order_cumfreq
                0x00003064                LC3Plus_ac_tns_coef_freq
                0x00003068                LC3Plus_ac_tns_coef_cumfreq
                0x0000306c                LC3Plus_Tab_esc_nb
                0x00003070                LC3Plus_ari_spec_lookup
                0x00003074                LC3Plus_ari_spec_cumfreq
                0x00003078                LC3Plus_ari_spec_freq
                0x0000307c                LC3Plus_ari_spec_bits
                0x00003080                LC3Plus_lpc_pre_emphasis
                0x00003084                LC3Plus_lpc_pre_emphasis_e
                0x00003088                LC3Plus_lpc_lin_pre_emphasis
                0x0000308c                LC3Plus_lpc_lin_pre_emphasis_e
                0x00003090                LC3Plus_lpc_lin_pre_emphasis_5ms
                0x00003094                LC3Plus_lpc_lin_pre_emphasis_e_5ms
                0x00003098                LC3Plus_lpc_lin_pre_emphasis_2_5ms
                0x0000309c                LC3Plus_lpc_lin_pre_emphasis_e_2_5ms
                0x000030a0                LC3Plus_lpc_warp_dee_emphasis
                0x000030a4                LC3Plus_lpc_warp_dee_emphasis_e
                0x000030a8                LC3Plus_bands_nrg_scale
                0x000030ac                LC3Plus_bands_offset
                0x000030b0                LC3Plus_bands_offset_5ms
                0x000030b4                LC3Plus_bands_offset_2_5ms
                0x000030b8                LC3Plus_bands_number_5ms
                0x000030bc                LC3Plus_bands_number_2_5ms_HR
                0x000030c0                LC3Plus_bands_number_2_5ms
                0x000030c4                LC3Plus_bands_offset_with_one_max
                0x000030c8                LC3Plus_bands_offset_with_two_max
                0x000030cc                LC3Plus_bands_offset_with_one_max_5ms
                0x000030d0                LC3Plus_bands_offset_with_two_max_5ms
                0x000030d4                LC3Plus_bands_offset_with_one_max_2_5ms
                0x000030d8                LC3Plus_bands_offset_with_two_max_2_5ms
                0x000030dc                LC3Plus_bands_offset_HR
                0x000030e0                LC3Plus_bands_offset_5ms_HR
                0x000030e4                LC3Plus_bands_offset_2_5ms_HR
                0x000030e8                LC3Plus_bands_offset_lin
                0x000030ec                LC3Plus_bands_offset_lin_5ms
                0x000030f0                LC3Plus_bands_offset_lin_2_5ms
                0x000030f4                LC3Plus_bands_offset_with_one_max_lin
                0x000030f8                LC3Plus_bands_offset_with_two_max_lin
                0x000030fc                LC3Plus_bands_offset_with_one_max_lin_5ms
                0x00003100                LC3Plus_bands_offset_with_two_max_lin_5ms
                0x00003104                LC3Plus_bands_offset_with_one_max_lin_2_5ms
                0x00003108                LC3Plus_bands_offset_with_two_max_lin_2_5ms
                0x0000310c                LC3Plus_inv_odft_twiddle_80_re
                0x00003110                LC3Plus_inv_odft_twiddle_80_im
                0x00003114                LC3Plus_inv_odft_twiddle_60_re
                0x00003118                LC3Plus_inv_odft_twiddle_60_im
                0x0000311c                LC3Plus_inv_odft_twiddle_40_re
                0x00003120                LC3Plus_inv_odft_twiddle_40_im
                0x00003124                LC3Plus_inv_odft_twiddle_20_re
                0x00003128                LC3Plus_inv_odft_twiddle_20_im
                0x0000312c                LC3Plus_resamp_filts
                0x00003130                LC3Plus_resamp_params
                0x00003134                LC3Plus_highpass50_filt_num
                0x00003138                LC3Plus_highpass50_filt_den
                0x0000313c                LC3Plus_olpa_ac_weighting
                0x00003140                LC3Plus_ltpf_ac_interp_filt
                0x00003144                LC3Plus_inter_filter
                0x00003148                LC3Plus_inter_filter_shift
                0x0000314c                LC3Plus_inter_filter_len
                0x00003150                LC3Plus_tilt_filter
                0x00003154                LC3Plus_tilt_filter_len
                0x00003158                LC3Plus_gain_scale_fac
                0x0000315c                LC3Plus_pitch_scale
                0x00003160                LC3Plus_ltpf_overlap_len
                0x00003164                LC3Plus_plc_preemph_fac
                0x00003168                LC3Plus_TDC_high_16_fx
                0x0000316c                LC3Plus_TDC_high_32_fx
                0x00003170                LC3Plus_TDC_high_16_harm_fx
                0x00003174                LC3Plus_TDC_high_32_harm_fx
                0x00003178                LC3Plus_lag_win
                0x0000317c                LC3Plus_rectLengthTab
                0x00003180                LC3Plus_sns_gaintabPtr
                0x00003184                LC3Plus_sns_gainSz
                0x00003188                LC3Plus_sns_gainMSBbits
                0x0000318c                LC3Plus_sns_Kval
                0x00003190                LC3Plus_sns_MPVQ_Sz
                0x00003194                LC3Plus_st1SCF0_7_base5_32x8_Q27
                0x00003198                LC3Plus_st1SCF8_15_base5_32x8_Q27
                0x0000319c                LC3Plus_sns_gainLSBbits
                0x000031a0                LC3Plus_MPVQ_offs_ptr
                0x000031a4                LC3Plus_tabledKMAX
                0x000031a8                LC3Plus_isqrt_Q16tab
                0x000031ac                LC3Plus_isqrt_Q31tab
                0x000031b0                LC3Plus_adjust_global_gain_tables
                0x000031b4                LC3Plus_BitReverseTable256
                0x000031b8                LC3Plus_Tab_T
                0x000031bc                LC3Plus_Bit_Shft
                0x000031c0                LC3Plus_AB_Shft
                0x000031c4                LC3Plus_Tab_esc_Dec
                0x000031c8                LC3Plus_ldCoeff
                0x000031cc                LC3Plus_ldCoeff_Hifi5
                0x000031d0                LC3Plus_exp2_tab_long
                0x000031d4                LC3Plus_exp2w_tab_long
                0x000031d8                LC3Plus_exp2x_tab_long
                0x000031dc                LC3Plus_SqrtTable
                0x000031e0                LC3Plus_SqrtDiffTable
                0x000031e4                LC3Plus_ISqrtTable
                0x000031e8                LC3Plus_ISqrtDiffTable
                0x000031ec                LC3Plus_InvTable
                0x000031f0                LC3Plus_InvIntTable
                0x000031f4                LC3Plus_InvDiffTable
                0x000031f8                LC3Plus_SineTable480
                0x000031fc                LC3Plus_SineTable320
                0x00003200                LC3Plus_SineTable960
                0x00003204                SineWindow40
                0x00003208                LC3Plus_SineWindow60
                0x0000320c                LC3Plus_SineWindow80
                0x00003210                LC3Plus_SineWindow120
                0x00003214                LC3Plus_SineWindow160
                0x00003218                LC3Plus_SineWindow240
                0x0000321c                LC3Plus_SineWindow320
                0x00003220                LC3Plus_SineWindow480
                0x00003224                LC3Plus_SineWindow960
                0x00003228                LC3Plus_RealFFT80_twid
                0x0000322c                LC3Plus_RotVector_40_32
                0x00003230                LC3Plus_RotVector_480
                0x00003234                LC3Plus_RotVector_30_16
                0x00003238                LC3Plus_RotVector_320
                0x0000323c                LC3Plus_RotVector_32_8
                0x00003240                LC3Plus_isqrt_table
                0x00003244                LC3Plus_Log2_16_table1
                0x00003248                LC3Plus_Log2_16_table2
                0x0000324c                LC3Plus_InvLog2_16_table1
                0x00003250                LC3Plus_InvLog2_16_table2
                0x00003254                LC3Plus_invSqrtTab
 .bss           0x00003258        0x0 Build/source/lc3_scratch_allocator.picsl.o
 .bss           0x00003258        0x0 Build/source/IRAM_fft_com.picsl.o
 .bss           0x00003258        0x0 Build/source/IRAM_fft_fft10.picsl.o
 .bss           0x00003258        0x0 Build/source/IRAM_fft_fft16.picsl.o
 .bss           0x00003258        0x0 Build/source/IRAM_fft_fft20.picsl.o
 .bss           0x00003258        0x0 Build/source/IRAM_fft_fft30.picsl.o
 .bss           0x00003258        0x0 C:/usr/xtensa/XtDevTools/install/builds/RI-2021.8-win32/AB1568_i64B_d32B_512K/xtensa-elf/lib/xcc/crtend.o
 .bss           0x00003258        0x0 C:/usr/xtensa/XtDevTools/install/builds/RI-2021.8-win32/AB1568_i64B_d32B_512K/xtensa-elf/lib/xcc/crtn.o
 *(.clib.bss)
 *(.clib.percpu.bss)
 *(.rtos.bss)
 *(.rtos.percpu.bss)
 *(COMMON)
                0x00003258                . = ALIGN (0x4)
                0x00003258                . = ALIGN (0x4)
                0x00003258                _end = .
                [!provide]                        PROVIDE (end = .)

.stab
 *(.stab)

.stabstr
 *(.stabstr)

.stab.excl
 *(.stab.excl)

.stab.exclstr
 *(.stab.exclstr)

.stab.index
 *(.stab.index)

.stab.indexstr
 *(.stab.indexstr)

.comment        0x00000000       0x5f
 *(.comment)
 .comment       0x00000000       0x28 C:/usr/xtensa/XtDevTools/install/builds/RI-2021.8-win32/AB1568_i64B_d32B_512K/xtensa-elf/lib/xcc/crtbegin.o
                                         0x29 (size before relaxing)
 .comment       0x00000028       0x37 Build/source/piclib_fft10ms.picsl.o
                                         0x38 (size before relaxing)
 .comment       0x0000005f       0x38 Build/source/lc3_scratch_allocator.picsl.o
 .comment       0x0000005f       0x38 Build/source/IRAM_fft_com.picsl.o
 .comment       0x0000005f       0x38 Build/source/IRAM_fft_fft10.picsl.o
 .comment       0x0000005f       0x38 Build/source/IRAM_fft_fft16.picsl.o
 .comment       0x0000005f       0x38 Build/source/IRAM_fft_fft20.picsl.o
 .comment       0x0000005f       0x38 Build/source/IRAM_fft_fft30.picsl.o
 .comment       0x0000005f       0x29 C:/usr/xtensa/XtDevTools/install/builds/RI-2021.8-win32/AB1568_i64B_d32B_512K/xtensa-elf/lib/xcc/crtend.o

.xtensa.info    0x00000000      0x1f0
 .xtensa.info   0x00000000      0x1f0 C:/usr/xtensa/XtDevTools/install/builds/RI-2021.8-win32/AB1568_i64B_d32B_512K/xtensa-elf/lib/xcc/crti.o
 .xtensa.info   0x000001f0        0x0 C:/usr/xtensa/XtDevTools/install/builds/RI-2021.8-win32/AB1568_i64B_d32B_512K/xtensa-elf/lib/xcc/crtbegin.o
 .xtensa.info   0x000001f0        0x0 Build/source/piclib_fft10ms.picsl.o
 .xtensa.info   0x000001f0        0x0 Build/source/lc3_scratch_allocator.picsl.o
 .xtensa.info   0x000001f0        0x0 Build/source/IRAM_fft_com.picsl.o
 .xtensa.info   0x000001f0        0x0 Build/source/IRAM_fft_fft10.picsl.o
 .xtensa.info   0x000001f0        0x0 Build/source/IRAM_fft_fft16.picsl.o
 .xtensa.info   0x000001f0        0x0 Build/source/IRAM_fft_fft20.picsl.o
 .xtensa.info   0x000001f0        0x0 Build/source/IRAM_fft_fft30.picsl.o
 .xtensa.info   0x000001f0        0x0 C:/usr/xtensa/XtDevTools/install/builds/RI-2021.8-win32/AB1568_i64B_d32B_512K/xtensa-elf/lib/xcc/crtend.o
 .xtensa.info   0x000001f0        0x0 C:/usr/xtensa/XtDevTools/install/builds/RI-2021.8-win32/AB1568_i64B_d32B_512K/xtensa-elf/lib/xcc/crtn.o

.debug
 *(.debug)

.line
 *(.line)

.debug_srcinfo
 *(.debug_srcinfo)

.debug_sfnames
 *(.debug_sfnames)

.debug_aranges
 *(.debug_aranges)

.debug_pubnames
 *(.debug_pubnames)

.debug_info     0x00000000     0x891f
 *(.debug_info .gnu.linkonce.wi.*)
 .debug_info    0x00000000      0xe5d Build/source/piclib_fft10ms.picsl.o
 .debug_info    0x00000e5d      0x217 Build/source/lc3_scratch_allocator.picsl.o
 .debug_info    0x00001074     0x4efc Build/source/IRAM_fft_com.picsl.o
 .debug_info    0x00005f70      0x21f Build/source/IRAM_fft_fft10.picsl.o
 .debug_info    0x0000618f     0x2009 Build/source/IRAM_fft_fft16.picsl.o
 .debug_info    0x00008198      0x36c Build/source/IRAM_fft_fft20.picsl.o
 .debug_info    0x00008504      0x41b Build/source/IRAM_fft_fft30.picsl.o

.debug_abbrev   0x00000000      0x80d
 *(.debug_abbrev)
 .debug_abbrev  0x00000000       0xe0 Build/source/piclib_fft10ms.picsl.o
 .debug_abbrev  0x000000e0       0xb5 Build/source/lc3_scratch_allocator.picsl.o
 .debug_abbrev  0x00000195      0x261 Build/source/IRAM_fft_com.picsl.o
 .debug_abbrev  0x000003f6       0xe5 Build/source/IRAM_fft_fft10.picsl.o
 .debug_abbrev  0x000004db      0x14c Build/source/IRAM_fft_fft16.picsl.o
 .debug_abbrev  0x00000627       0xd4 Build/source/IRAM_fft_fft20.picsl.o
 .debug_abbrev  0x000006fb      0x112 Build/source/IRAM_fft_fft30.picsl.o

.debug_line     0x00000000     0x507e
 *(.debug_line)
 .debug_line    0x00000000       0xf4 Build/source/piclib_fft10ms.picsl.o
 .debug_line    0x000000f4      0x373 Build/source/lc3_scratch_allocator.picsl.o
 .debug_line    0x00000467     0x1f6c Build/source/IRAM_fft_com.picsl.o
 .debug_line    0x000023d3      0x5d5 Build/source/IRAM_fft_fft10.picsl.o
 .debug_line    0x000029a8     0x13da Build/source/IRAM_fft_fft16.picsl.o
 .debug_line    0x00003d82      0x8f6 Build/source/IRAM_fft_fft20.picsl.o
 .debug_line    0x00004678      0xa06 Build/source/IRAM_fft_fft30.picsl.o

.debug_frame    0x00000000      0x1b8
 *(.debug_frame)
 .debug_frame   0x00000000       0x28 Build/source/piclib_fft10ms.picsl.o
 .debug_frame   0x00000028       0x50 Build/source/lc3_scratch_allocator.picsl.o
 .debug_frame   0x00000078       0x78 Build/source/IRAM_fft_com.picsl.o
 .debug_frame   0x000000f0       0x28 Build/source/IRAM_fft_fft10.picsl.o
 .debug_frame   0x00000118       0x3c Build/source/IRAM_fft_fft16.picsl.o
 .debug_frame   0x00000154       0x28 Build/source/IRAM_fft_fft20.picsl.o
 .debug_frame   0x0000017c       0x3c Build/source/IRAM_fft_fft30.picsl.o

.debug_str      0x00000000     0x2dfe
 *(.debug_str)
 .debug_str     0x00000000     0x1408 Build/source/piclib_fft10ms.picsl.o
                                       0x1437 (size before relaxing)
 .debug_str     0x00001408      0x1ae Build/source/lc3_scratch_allocator.picsl.o
                                        0x253 (size before relaxing)
 .debug_str     0x000015b6     0x15bc Build/source/IRAM_fft_com.picsl.o
                                       0x2ac2 (size before relaxing)
 .debug_str     0x00002b72       0x6b Build/source/IRAM_fft_fft10.picsl.o
                                        0x193 (size before relaxing)
 .debug_str     0x00002bdd       0xe6 Build/source/IRAM_fft_fft16.picsl.o
                                        0x241 (size before relaxing)
 .debug_str     0x00002cc3       0xab Build/source/IRAM_fft_fft20.picsl.o
                                        0x215 (size before relaxing)
 .debug_str     0x00002d6e       0x90 Build/source/IRAM_fft_fft30.picsl.o
                                        0x20f (size before relaxing)

.debug_loc      0x00000000     0x7d72
 *(.debug_loc)
 .debug_loc     0x00000000       0x13 Build/source/piclib_fft10ms.picsl.o
 .debug_loc     0x00000013      0x178 Build/source/lc3_scratch_allocator.picsl.o
 .debug_loc     0x0000018b     0x4291 Build/source/IRAM_fft_com.picsl.o
 .debug_loc     0x0000441c      0x237 Build/source/IRAM_fft_fft10.picsl.o
 .debug_loc     0x00004653     0x2b3a Build/source/IRAM_fft_fft16.picsl.o
 .debug_loc     0x0000718d      0x49e Build/source/IRAM_fft_fft20.picsl.o
 .debug_loc     0x0000762b      0x747 Build/source/IRAM_fft_fft30.picsl.o

.debug_macinfo
 *(.debug_macinfo)

.debug_weaknames
 *(.debug_weaknames)

.debug_funcnames
 *(.debug_funcnames)

.debug_typenames
 *(.debug_typenames)

.debug_varnames
 *(.debug_varnames)

.xt.lit         0x00000000       0x48
 *(.xt.lit .xt.lit.* .gnu.linkonce.p.*)
 .xt.lit.plt    0x00000000        0x0 C:/usr/xtensa/XtDevTools/install/builds/RI-2021.8-win32/AB1568_i64B_d32B_512K/xtensa-elf/lib/xcc/crti.o
 .xt.lit        0x00000000       0x18 C:/usr/xtensa/XtDevTools/install/builds/RI-2021.8-win32/AB1568_i64B_d32B_512K/xtensa-elf/lib/xcc/crtbegin.o
 .xt.lit        0x00000018        0x8 Build/source/piclib_fft10ms.picsl.o
 .xt.lit        0x00000020        0x8 Build/source/IRAM_fft_com.picsl.o
 .xt.lit        0x00000028        0x0 Build/source/IRAM_fft_fft10.picsl.o
                                          0x8 (size before relaxing)
 .xt.lit        0x00000028        0x8 Build/source/IRAM_fft_fft16.picsl.o
 .xt.lit        0x00000030        0x0 Build/source/IRAM_fft_fft20.picsl.o
                                          0x8 (size before relaxing)
 .xt.lit        0x00000030        0x8 Build/source/IRAM_fft_fft30.picsl.o
 .xt.lit        0x00000038       0x10 C:/usr/xtensa/XtDevTools/install/builds/RI-2021.8-win32/AB1568_i64B_d32B_512K/xtensa-elf/lib/xcc/crtend.o

.xt.insn
 *(.xt.insn .gnu.linkonce.x.*)

.xt.prop        0x00000000      0x4f8
 *(.xt.prop .gnu.linkonce.prop.*)
 .xt.prop       0x00000000       0x30 C:/usr/xtensa/XtDevTools/install/builds/RI-2021.8-win32/AB1568_i64B_d32B_512K/xtensa-elf/lib/xcc/crti.o
 .xt.prop       0x00000030       0xd8 C:/usr/xtensa/XtDevTools/install/builds/RI-2021.8-win32/AB1568_i64B_d32B_512K/xtensa-elf/lib/xcc/crtbegin.o
 .xt.prop       0x00000108       0x30 Build/source/piclib_fft10ms.picsl.o
 .xt.prop       0x00000138       0x90 Build/source/lc3_scratch_allocator.picsl.o
 .xt.prop       0x000001c8      0x138 Build/source/IRAM_fft_com.picsl.o
 .xt.prop       0x00000300       0x24 Build/source/IRAM_fft_fft10.picsl.o
                                         0x30 (size before relaxing)
 .xt.prop       0x00000324       0x90 Build/source/IRAM_fft_fft16.picsl.o
 .xt.prop       0x000003b4       0x24 Build/source/IRAM_fft_fft20.picsl.o
                                         0x30 (size before relaxing)
 .xt.prop       0x000003d8       0x90 Build/source/IRAM_fft_fft30.picsl.o
 .xt.prop       0x00000468       0x60 C:/usr/xtensa/XtDevTools/install/builds/RI-2021.8-win32/AB1568_i64B_d32B_512K/xtensa-elf/lib/xcc/crtend.o
 .xt.prop       0x000004c8       0x30 C:/usr/xtensa/XtDevTools/install/builds/RI-2021.8-win32/AB1568_i64B_d32B_512K/xtensa-elf/lib/xcc/crtn.o

/DISCARD/
 *(.note.GNU-stack)
OUTPUT(Build/fft10ms/pisplit_lc3plusi_fft10ms_position_independent.splitload.lib elf32-xtensa-le)

.debug_ranges   0x00000000     0x1650
 .debug_ranges  0x00000000      0xc70 Build/source/IRAM_fft_com.picsl.o
 .debug_ranges  0x00000c70      0x9e0 Build/source/IRAM_fft_fft16.picsl.o

Memory Configuration

Name             Origin          Length          Used            Unused          Attributes
*default*        0x00000000      0xffffffff      
