
Build/lib/pisplit_ecnr_inear_v2_swb_prcs_position_independent.splitload.lib:     file format elf32-xtensa-le


Disassembly of section .text:

00000000 <_init-0x65c>:
       0:	000006a8 0000d688 0000e4dc 00000000     ................
      10:	0000e4a8 00000000 0000e4c4 0000f598     ................
      20:	0000e55c 00006508 0000e576 00003460     \....e..v...`4..
      30:	0000e58d 00003358 0000e5a8 000031c4     ....X3.......1..
      40:	0000e5bf 000032a0 0000e5d6 000033b0     .....2.......3..
      50:	0000e5f4 000083f0 0000e60d 00006520     ............ e..
      60:	0000e61d 00003108 0000e637 00003420     .....1..7... 4..
      70:	0000e659 0000832c 0000e676 000049cc     Y...,...v....I..
      80:	0000e694 000049b4 0000e6b4 00003100     .....I.......1..
      90:	0000e6c7 000032fc 0000e6df 000049f8     .....2.......I..
      a0:	0000e6f7 000064f0 0000e718 00003430     .....d......04..
      b0:	0000e739 00003400 0000e75a 00006514     9....4..Z....e..
      c0:	0000e4f0 00009cc8 000009cc 0000f59c     ................
      d0:	0000f2a0 0000f310 00009c74 00009c70     ........t...p...
      e0:	00009c66 00009c64 00009c5c 00009c62     f...d...\...b...
      f0:	0000f560 0000f500 dacccccd 0dfffffe     `...............
     100:	00009c54 00b33333 fb4ccccd 00009c58     T...33....L.X...
     110:	000096a2 fcb33333 000096a4 0000969e     ....33..........
     120:	00009c6a 00009c6c 000096ca 000096cc     j...l...........
     130:	7fff0000 000096a6 0000d6a8 00001010     ................
     140:	33334ccd 00009c68 7fe70019 7e1401ec     .L33h..........~
     150:	00006f48 000096dc 0000d6fc 00009698     Ho..............
     160:	000010c4 004ccccd 002ccccd 006ccccd     ......L...,...l.
     170:	0059999a 00733333 0070a3d7 007e147b     ..Y.33s...p.{.~.
     180:	007fbe77 0000d6e8 00009744 00147ae1     w.......D....z..
     190:	000098ec 00009722 00002388 00009bb0     ...."....#......
     1a0:	00009bb2 0000c148 00466666 00533333     ....H...ffF.33S.
     1b0:	005851ec 005ae148 005ccccd 00009c04     .QX.H.Z...\.....
     1c0:	000096a8 00009bda 7ffffffe 0039999a     ..............9.
     1d0:	005d70a4 00666666 00014001 000ccccd     .p].fff..@......
     1e0:	000096b0 000096c4 0000d744 000aaaab     ........D.......
     1f0:	000096c6 000096c8 000096ce 000096bc     ................
     200:	000096b8 000096b4 00000a24 000096d0     ........$.......
     210:	000096d2 000096d4 00cccccd 0099999a     ................
     220:	00435e51 0159999a 13ffffff f570a3d7     Q^C...Y.......p.
     230:	2428f5c4 000021ce 005a8200 c28f0000     ..($.!....Z.....
     240:	cccd0000 e6660000 f3330000 0ccd0000     ......f...3.....
     250:	199a0000 33330000 3d710000 0000be9c     ......33..q=....
     260:	00002750 0000bfa4 000027b8 0000f210     P'.......'......
     270:	00002850 000028ec 00002990 00002a10     P(...(...)...*..
     280:	002aaa00 0000300c 01513cd0 00008664     ..*..0...<Q.d...
     290:	00009caa 0000c270 0000321c 000084e0     ....p....2......
     2a0:	00008828 0000348c 0000968c 0000c32c     (....4......,...
     2b0:	0000c2b4 00006574 000103dc 7fbe0042     ....te......B...
     2c0:	000103cc 000103d0 000103d6 0000c2b6     ................
     2d0:	0000c348 0000e780 00010588 00006690     H............f..
     2e0:	00003138 00006ccc 0000675c 00002498     81...l..\g...$..
     2f0:	00002a90 000103dd 000069b0 0001057c     .*.......i..|...
     300:	000103e0 00006800 00006b18 00006d88     .....h...k...m..
     310:	00006fd0 000072c8 000075d8 0000740c     .o...r...u...t..
     320:	00007a18 00007b90 00006ba0 00007e90     .z...{...k...~..
     330:	00007fe0 000103d4 00007868 00002d58     ........hx..X-..
     340:	00002de0 00002d9c 00002e24 00008878     .-...-..$...x...
     350:	00008530 00006bdc 00010a2e 00006c58     0....k......Xl..
     360:	00003180 000103da 000103d8 00004a24     .1..........$J..
     370:	00010a24 00010a20 00010a28 00010a2c     $... ...(...,...
     380:	000107d8 00010a18 00010a1c 00010a10     ................
     390:	00010a14 000107b8 000107f8 000109f8     ................
     3a0:	000109e0 00010778 000109fc 00006e48     ....x.......Hn..
     3b0:	000109e4 00010798 00010858 00006ed8     ........X....n..
     3c0:	00010870 00010a08 000109dc 0001096c     p...........l...
     3d0:	00006f10 00010888 000109a4 00010a04     .o..............
     3e0:	000108fa 00010818 00010a0c 00010838     ............8...
     3f0:	000107d4 00010834 00010774 000107f4     ....4...t.......
     400:	000107b4 00010794 00010814 000099d0     ................
     410:	000086f4 40004000 0000b9f4 7f800080     .....@.@........
     420:	78000800 00017fff 7c000400 0000f440     ...x.......|@...
     430:	0000f480 0006ffff 0000f4c0 0000f420     ............ ...
     440:	000103de 0000e7c0 000ccccc 00393e4b     ............K>9.
     450:	00155555 00175e97 00007254 000079c0     UU...^..Tr...y..
     460:	00006f68 c0010000 3fff0000 0000c2c8     ho.........?....
     470:	0000c2b8 0000c2a4 0000c2a8 00009c78     ............x...
     480:	0000c2ac 0000af7c 0000d3e8 0000d598     ....|...........
     490:	00001078 00009d10 00001c30 00009eb8     x.......0.......
     4a0:	0000a000 0000a354 0000a4c8 0000b138     ....T.......8...
     4b0:	0000a598 000007f0 00002f3c 0000ad88     ........</......
     4c0:	00009690 00008b70 0000a164 00009934     ....p...d...4...
     4d0:	75c30a3d 00009688 00009980 00009ce8     =..u............
     4e0:	0000965c 0000e800 0000c408 7f5c00a4     \.............\.
     4f0:	7ff00010 0000c9e8 034ccccd 00d9999b     ..........L.....
     500:	fe266666 01eb851f 04cccccd ffa66666     ff&.........ff..
     510:	02bfffff 0000e667 0000e001 46666666     ....g.......fffF
     520:	2666599a 1b333333 1e666666 7ccd0333     .Yf&333.fff.3..|
     530:	23333333 1ccccccd 00333333 7eb80148     333#....333.H..~
     540:	6666199a 00266666 599a2666 66666667     ..ffff&.f&.Ygfff
     550:	f6666666 0999999a 007ccccd 7f1b00e5     fff.......|.....
     560:	6ccd1333 799a0666 5999999a 0000f280     3..lf..y...Y....
     570:	10000001 00038e39 00035e51 0000f520     ....9...Q^.. ...
     580:	0000f550 0000f580 000e38e4 00124925     P........8..%I..
     590:	0000f540 00000a68 00001064 0000abe8     @...h...d.......
     5a0:	0000acb8 00002e68 007fff00 fed9999a     ....h...........
     5b0:	0000d008 0000d264 80000001 0000f000     ....d...........
     5c0:	0000c5dc 0000c62c 0000c604 0000bfc8     ....,...........
     5d0:	0000c5b4 0000c994 0000c654 0000c220     ........T... ...
     5e0:	0000c8f8 0000c9bc cb333334 0000cf28     ........433.(...
     5f0:	fb333334 ffe00001 00028f5e fe924dd3     433.....^....M..
     600:	04d24dd3 00333334 0effffff 077fffff     .M..433.........
     610:	0021eb86 00266667 00666667 0399999a     ..!.gf&.gff.....
     620:	0299999a 003eb852 0019999a ffc147ae     ....R.>......G..
     630:	ffcccccc ffd99999 ffe66666 fff33333     ........ff..33..
     640:	7fffff00 0000af5c 7ffffb00 0000f200     ....\...........
     650:	0000d49a 0000e4b0 00000674              ........t...

0000065c <_init>:
     65c:	008136        	entry	a1, 64
     65f:	fe6881        	l32r	a8, 0 (6a8 <frame_dummy>)
     662:	f03d           	nop.n
     664:	0008e0        	callx8	a8
     667:	fe6781        	l32r	a8, 4 (d688 <__do_global_ctors_aux>)
     66a:	f03d           	nop.n
     66c:	0008e0        	callx8	a8
     66f:	f01d           	retw.n

00000671 <_init+0x15>:
     671:	000000                                        ...

00000674 <__do_global_dtors_aux>:
     674:	004136        	entry	a1, 32
     677:	fe6421        	l32r	a2, 8 (e4dc <__do_global_dtors_aux.completed>)
     67a:	000232        	l8ui	a3, a2, 0
     67d:	23ec           	bnez.n	a3, 6a3 <__do_global_dtors_aux+0x2f>

0000067f <__do_global_dtors_aux+0xb>:
     67f:	1248           	l32i.n	a4, a2, 4
     681:	0438           	l32i.n	a3, a4, 0
     683:	444b           	addi.n	a4, a4, 4
     685:	738c           	beqz.n	a3, 690 <__do_global_dtors_aux+0x1c>
     687:	1249           	s32i.n	a4, a2, 4
     689:	0003e0        	callx8	a3
     68c:	fffbc6        	j	67f <__do_global_dtors_aux+0xb>

0000068f <__do_global_dtors_aux+0x1b>:
	...

00000690 <__do_global_dtors_aux+0x1c>:
     690:	fe5f31        	l32r	a3, c (0 <_text_start>)
     693:	fe5fa1        	l32r	a10, 10 (e4a8 <__FRAME_END__>)
     696:	438c           	beqz.n	a3, 69e <__do_global_dtors_aux+0x2a>
     698:	fe5d81        	l32r	a8, c (0 <_text_start>)
     69b:	0008e0        	callx8	a8
     69e:	130c           	movi.n	a3, 1
     6a0:	004232        	s8i	a3, a2, 0
     6a3:	f01d           	retw.n

000006a5 <__do_global_dtors_aux+0x31>:
     6a5:	000000                                        ...

000006a8 <frame_dummy>:
     6a8:	004136        	entry	a1, 32
     6ab:	fe5a21        	l32r	a2, 14 (0 <_text_start>)
     6ae:	fe58a1        	l32r	a10, 10 (e4a8 <__FRAME_END__>)
     6b1:	fe59b1        	l32r	a11, 18 (e4c4 <frame_dummy.object>)
     6b4:	428c           	beqz.n	a2, 6bc <frame_dummy+0x14>
     6b6:	fe5781        	l32r	a8, 14 (0 <_text_start>)
     6b9:	0008e0        	callx8	a8

000006bc <frame_dummy+0x14>:
     6bc:	f01d           	retw.n

000006be <frame_dummy+0x16>:
	...

000006c0 <_start>:
     6c0:	004136        	entry	a1, 32
     6c3:	0258           	l32i.n	a5, a2, 0
     6c5:	fe5621        	l32r	a2, 20 (e55c <export_parameter_array+0x6c>)
     6c8:	fe5731        	l32r	a3, 24 (6508 <dummy_EC_extNR_func>)
     6cb:	fe5441        	l32r	a4, 1c (f598 <printf_ptr>)
     6ce:	02ad           	mov.n	a10, a2
     6d0:	03bd           	mov.n	a11, a3
     6d2:	0459           	s32i.n	a5, a4, 0
     6d4:	0005e0        	callx8	a5
     6d7:	0458           	l32i.n	a5, a4, 0
     6d9:	02ad           	mov.n	a10, a2
     6db:	03bd           	mov.n	a11, a3
     6dd:	0005e0        	callx8	a5
     6e0:	0458           	l32i.n	a5, a4, 0
     6e2:	fe51a1        	l32r	a10, 28 (e576 <export_parameter_array+0x86>)
     6e5:	fe51b1        	l32r	a11, 2c (3460 <Voice_WB_TX_Prcs>)
     6e8:	0005e0        	callx8	a5
     6eb:	0458           	l32i.n	a5, a4, 0
     6ed:	fe50a1        	l32r	a10, 30 (e58d <export_parameter_array+0x9d>)
     6f0:	fe51b1        	l32r	a11, 34 (3358 <EC_REF_GAIN_READBACK>)
     6f3:	0005e0        	callx8	a5
     6f6:	0458           	l32i.n	a5, a4, 0
     6f8:	02ad           	mov.n	a10, a2
     6fa:	03bd           	mov.n	a11, a3
     6fc:	0005e0        	callx8	a5
     6ff:	0458           	l32i.n	a5, a4, 0
     701:	fe4da1        	l32r	a10, 38 (e5a8 <export_parameter_array+0xb8>)
     704:	fe4eb1        	l32r	a11, 3c (31c4 <Voice_NB_RX_Prcs>)
     707:	0005e0        	callx8	a5
     70a:	0458           	l32i.n	a5, a4, 0
     70c:	02ad           	mov.n	a10, a2
     70e:	03bd           	mov.n	a11, a3
     710:	0005e0        	callx8	a5
     713:	0458           	l32i.n	a5, a4, 0
     715:	fe4aa1        	l32r	a10, 40 (e5bf <export_parameter_array+0xcf>)
     718:	fe4bb1        	l32r	a11, 44 (32a0 <Voice_WB_RX_Prcs>)
     71b:	0005e0        	callx8	a5
     71e:	0458           	l32i.n	a5, a4, 0
     720:	fe4aa1        	l32r	a10, 48 (e5d6 <export_parameter_array+0xe6>)
     723:	fe4ab1        	l32r	a11, 4c (33b0 <EC_PreLim_Coef_READBACK>)
     726:	0005e0        	callx8	a5
     729:	0458           	l32i.n	a5, a4, 0
     72b:	fe49a1        	l32r	a10, 50 (e5f4 <export_parameter_array+0x104>)
     72e:	fe49b1        	l32r	a11, 54 (83f0 <AEC_NR_Write_FLASH>)
     731:	0005e0        	callx8	a5
     734:	0458           	l32i.n	a5, a4, 0
     736:	fe48a1        	l32r	a10, 58 (e60d <export_parameter_array+0x11d>)
     739:	fe48b1        	l32r	a11, 5c (6520 <EQ_update>)
     73c:	0005e0        	callx8	a5
     73f:	0458           	l32i.n	a5, a4, 0
     741:	fe47a1        	l32r	a10, 60 (e61d <export_parameter_array+0x12d>)
     744:	fe48b1        	l32r	a11, 64 (3108 <get_txnr_pitch_last>)
     747:	0005e0        	callx8	a5
     74a:	0458           	l32i.n	a5, a4, 0
     74c:	fe47a1        	l32r	a10, 68 (e637 <export_parameter_array+0x147>)
     74f:	fe47b1        	l32r	a11, 6c (3420 <DaulMIC_power_Coef_READBACK>)
     752:	0005e0        	callx8	a5
     755:	0458           	l32i.n	a5, a4, 0
     757:	fe46a1        	l32r	a10, 70 (e659 <export_parameter_array+0x169>)
     75a:	fe46b1        	l32r	a11, 74 (832c <TWO_MIC_WB_Write_FLASH>)
     75d:	0005e0        	callx8	a5
     760:	0458           	l32i.n	a5, a4, 0
     762:	fe45a1        	l32r	a10, 78 (e676 <export_parameter_array+0x186>)
     765:	fe45b1        	l32r	a11, 7c (49cc <IE_EC_REF_GAIN_READBACK>)
     768:	0005e0        	callx8	a5
     76b:	0458           	l32i.n	a5, a4, 0
     76d:	02ad           	mov.n	a10, a2
     76f:	03bd           	mov.n	a11, a3
     771:	0005e0        	callx8	a5
     774:	0458           	l32i.n	a5, a4, 0
     776:	fe42a1        	l32r	a10, 80 (e694 <export_parameter_array+0x1a4>)
     779:	fe42b1        	l32r	a11, 84 (49b4 <Voice_WB_TX_Inear_Prcs_V2>)
     77c:	0005e0        	callx8	a5
     77f:	0458           	l32i.n	a5, a4, 0
     781:	fe41a1        	l32r	a10, 88 (e6b4 <export_parameter_array+0x1c4>)
     784:	fe42b1        	l32r	a11, 8c (3100 <get_ECNR_SVN>)
     787:	0005e0        	callx8	a5
     78a:	0458           	l32i.n	a5, a4, 0
     78c:	02ad           	mov.n	a10, a2
     78e:	03bd           	mov.n	a11, a3
     790:	0005e0        	callx8	a5
     793:	0458           	l32i.n	a5, a4, 0
     795:	fe3ea1        	l32r	a10, 90 (e6c7 <export_parameter_array+0x1d7>)
     798:	fe3fb1        	l32r	a11, 94 (32fc <Voice_SWB_RX_Prcs>)
     79b:	0005e0        	callx8	a5
     79e:	0458           	l32i.n	a5, a4, 0
     7a0:	02ad           	mov.n	a10, a2
     7a2:	03bd           	mov.n	a11, a3
     7a4:	0005e0        	callx8	a5
     7a7:	0458           	l32i.n	a5, a4, 0
     7a9:	fe3ba1        	l32r	a10, 98 (e6df <export_parameter_array+0x1ef>)
     7ac:	fe3cb1        	l32r	a11, 9c (49f8 <Voice_SWB_TX_Prcs>)
     7af:	0005e0        	callx8	a5
     7b2:	0458           	l32i.n	a5, a4, 0
     7b4:	02ad           	mov.n	a10, a2
     7b6:	03bd           	mov.n	a11, a3
     7b8:	0005e0        	callx8	a5
     7bb:	0428           	l32i.n	a2, a4, 0
     7bd:	fe38a1        	l32r	a10, a0 (e6f7 <export_parameter_array+0x207>)
     7c0:	fe39b1        	l32r	a11, a4 (64f0 <Voice_SWB_TX_Inear_Prcs_V2>)
     7c3:	0002e0        	callx8	a2
     7c6:	0428           	l32i.n	a2, a4, 0
     7c8:	fe38a1        	l32r	a10, a8 (e718 <export_parameter_array+0x228>)
     7cb:	fe38b1        	l32r	a11, ac (3430 <BAND5_EC_REF_GAIN_READBACK>)
     7ce:	0002e0        	callx8	a2
     7d1:	0428           	l32i.n	a2, a4, 0
     7d3:	fe37a1        	l32r	a10, b0 (e739 <export_parameter_array+0x249>)
     7d6:	fe37b1        	l32r	a11, b4 (3400 <BAND5_PreLim_Coef_READBACK>)
     7d9:	0002e0        	callx8	a2
     7dc:	0428           	l32i.n	a2, a4, 0
     7de:	fe36a1        	l32r	a10, b8 (e75a <export_parameter_array+0x26a>)
     7e1:	fe36b1        	l32r	a11, bc (6514 <Assign_EC_RXNR_scratch_memory>)
     7e4:	0002e0        	callx8	a2
     7e7:	fe3621        	l32r	a2, c0 (e4f0 <export_parameter_array>)
     7ea:	f01d           	retw.n

000007ec <_start+0x12c>:
     7ec:	00000000                                ....

000007f0 <comfort_noise_gen_wb>:
     7f0:	00c136        	entry	a1, 96
     7f3:	13d2f2        	addmi	a15, a2, 0x1300
     7f6:	036d           	mov.n	a6, a3
     7f8:	7b9f32        	l16si	a3, a15, 246
     7fb:	c139           	s32i.n	a3, a1, 48
     7fd:	3802a2        	l8ui	a10, a2, 56
     800:	fe3131        	l32r	a3, c4 (9cc8 <get_sb_ptn_addr>)
     803:	fcc572        	addi	a7, a5, -4
     806:	0003e0        	callx8	a3
     809:	360232        	l8ui	a3, a2, 54
     80c:	02cd           	mov.n	a12, a2
     80e:	d1a9           	s32i.n	a10, a1, 52
     810:	1de327        	bbsi	a3, 2, 831 <comfort_noise_gen_wb+0x41>
     813:	020c           	movi.n	a2, 0
     815:	0b0c           	movi.n	a11, 0
     817:	0d0c           	movi.n	a13, 0
     819:	0e0c           	movi.n	a14, 0
     81b:	0f0c           	movi.n	a15, 0
     81d:	7129           	s32i.n	a2, a1, 28
     81f:	81b9           	s32i.n	a11, a1, 32
     821:	a1d9           	s32i.n	a13, a1, 40
     823:	b1e9           	s32i.n	a14, a1, 44
     825:	050c           	movi.n	a5, 0
     827:	030c           	movi.n	a3, 0
     829:	91f9           	s32i.n	a15, a1, 36
     82b:	05c456        	bnez	a4, 88b <comfort_noise_gen_wb+0x9b>
     82e:	001d06        	j	8a6 <comfort_noise_gen_wb+0xb6>

00000831 <comfort_noise_gen_wb+0x41>:
     831:	25dc32        	addmi	a3, a12, 0x2500
     834:	3b2332        	l32i	a3, a3, 236
     837:	0f0c           	movi.n	a15, 0
     839:	89a1d2        	movi	a13, 0x189
     83c:	02d352        	addmi	a5, a3, 0x200
     83f:	651552        	l16ui	a5, a5, 202
     842:	1bd3e2        	addmi	a14, a3, 0x1b00
     845:	219e22        	l16si	a2, a14, 66
     848:	048d           	mov.n	a8, a4
     84a:	069d           	mov.n	a9, a6
     84c:	114dd0        	slli	a4, a13, 3
     84f:	b129           	s32i.n	a2, a1, 44
     851:	81f9           	s32i.n	a15, a1, 32
     853:	0c2566        	bnei	a5, 2, 863 <comfort_noise_gen_wb+0x73>
     856:	02d952        	addmi	a5, a9, 0x200
     859:	701552        	l16ui	a5, a5, 224
     85c:	160c           	movi.n	a6, 1
     85e:	622560        	saltu	a2, a5, a6
     861:	8129           	s32i.n	a2, a1, 32
     863:	234a           	add.n	a2, a3, a4
     865:	a129           	s32i.n	a2, a1, 40
     867:	d8ac           	beqz.n	a8, 898 <comfort_noise_gen_wb+0xa8>
     869:	0cd832        	addmi	a3, a8, 0xc00
     86c:	151332        	l16ui	a3, a3, 42
     86f:	084d           	mov.n	a4, a8
     871:	050c           	movi.n	a5, 0
     873:	0c1366        	bnei	a3, 1, 883 <comfort_noise_gen_wb+0x93>
     876:	0cd432        	addmi	a3, a4, 0xc00
     879:	141332        	l16ui	a3, a3, 40
     87c:	120c           	movi.n	a2, 1
     87e:	330b           	addi.n	a3, a3, -1
     880:	625320        	saltu	a5, a3, a2
     883:	02d932        	addmi	a3, a9, 0x200
     886:	519322        	l16si	a2, a3, 162
     889:	7129           	s32i.n	a2, a1, 28
     88b:	0cd432        	addmi	a3, a4, 0xc00
     88e:	0f9322        	l16si	a2, a3, 30
     891:	053d           	mov.n	a3, a5
     893:	9129           	s32i.n	a2, a1, 36
     895:	000346        	j	8a6 <comfort_noise_gen_wb+0xb6>

00000898 <comfort_noise_gen_wb+0xa8>:
     898:	02d942        	addmi	a4, a9, 0x200
     89b:	519422        	l16si	a2, a4, 162
     89e:	0f0c           	movi.n	a15, 0
     8a0:	030c           	movi.n	a3, 0
     8a2:	7129           	s32i.n	a2, a1, 28
     8a4:	91f9           	s32i.n	a15, a1, 36
     8a6:	07c804        	ae_zerop48	aep0
     8a9:	468714        	ae_sp16x2f.iu	aep0, a7, 4
     8ac:	468714        	ae_sp16x2f.iu	aep0, a7, 4
     8af:	468714        	ae_sp16x2f.iu	aep0, a7, 4
     8b2:	1d1c42        	l16ui	a4, a12, 58
     8b5:	572b           	addi.n	a5, a7, 2
     8b7:	25dc22        	addmi	a2, a12, 0x2500
     8ba:	0f1416        	beqz	a4, 9af <comfort_noise_gen_wb+0x1bf>
     8bd:	3722e2        	l32i	a14, a2, 220
     8c0:	360e34        	ae_cvtq48a32s	aeq0, a14
     8c3:	f842003b8f 	{ movi	a8, 59; ae_truncp24q48x2	aep0, aeq0, aeq0 }
     8c8:	160c           	movi.n	a6, 1
     8ca:	30f360        	xor	a15, a3, a6
     8cd:	f88004fc4f 	{ movi	a4, 0x4fc; ae_mulfq32sp24s.l	aeq0, aeq0, aep0 }
     8d2:	25dc72        	addmi	a7, a12, 0x2500
     8d5:	f84237012f 	{ ae_sp24x2s.i	aep0, a1, 16; ae_truncp24q48x2	aep0, aeq0, aeq0 }
     8da:	118890        	slli	a8, a8, 7
     8dd:	f179           	s32i.n	a7, a1, 60
     8df:	6c4a           	add.n	a6, a12, a4
     8e1:	e1f9           	s32i.n	a15, a1, 56
     8e3:	070c           	movi.n	a7, 0
     8e5:	030c           	movi.n	a3, 0
     8e7:	4c8a           	add.n	a4, a12, a8
     8e9:	560114        	ae_sp24x2s.i	aep0, a1, 8
     8ec:	000c06        	j	920 <comfort_noise_gen_wb+0x130>

000008ef <comfort_noise_gen_wb+0xff>:
     8ef:	081524        	ae_mulfq32sp24s.l	aeq0, aeq0, aep1
     8f2:	301894        	ae_cvtp24a16x2.ll	aep1, a8, a9
     8f5:	d4e640133e 	{ addi	a3, a3, 1; ae_mulfq32sp16s.l	aeq1, aeq0, aep1 }
     8fa:	d56640477e 	{ addi	a7, a7, 4; ae_mulfq32sp16s.h	aeq3, aeq0, aep1 }
     8ff:	030a54        	ae_mulfq32sp16s.l	aeq1, aeq1, aep0
     902:	0302d4        	ae_mulfq32sp16s.l	aeq0, aeq3, aep0
     905:	fc20be9a4f 	{ ae_slaasq56s	aeq1, aeq1, a10; ae_zerop48	aep0 }
     90a:	fbebbe8a0f 	{ ae_slaasq56s	aeq0, aeq0, a10; ae_roundsp16q48sym	aep6, aeq1 }
     90f:	fbe3f2e51f 	{ ae_sp16f.l.iu	aep6, a5, 2; ae_roundsp16q48sym	aep7, aeq0 }
     914:	42f514        	ae_sp16f.l.iu	aep7, a5, 2
     917:	1d1cf2        	l16ui	a15, a12, 58
     91a:	0233f7        	bltu	a3, a15, 920 <comfort_noise_gen_wb+0x130>
     91d:	002386        	j	9af <comfort_noise_gen_wb+0x1bf>
     920:	7128           	l32i.n	a2, a1, 28
     922:	81f8           	l32i.n	a15, a1, 32
     924:	728320        	salt	a8, a3, a2
     927:	10bf80        	and	a11, a15, a8
     92a:	a188           	l32i.n	a8, a1, 40
     92c:	0bcc           	bnez.n	a11, 930 <comfort_noise_gen_wb+0x140>
     92e:	068d           	mov.n	a8, a6
     930:	e128           	l32i.n	a2, a1, 56
     932:	b1a8           	l32i.n	a10, a1, 44
     934:	209b20        	or	a9, a11, a2
     937:	0bcc           	bnez.n	a11, 93b <comfort_noise_gen_wb+0x14b>
     939:	c1a8           	l32i.n	a10, a1, 48
     93b:	9128           	l32i.n	a2, a1, 36
     93d:	a1d8           	l32i.n	a13, a1, 40
     93f:	72b320        	salt	a11, a3, a2
     942:	39cc           	bnez.n	a9, 949 <comfort_noise_gen_wb+0x159>
     944:	068d           	mov.n	a8, a6
     946:	938db0        	movnez	a8, a13, a11
     949:	0c2d           	mov.n	a2, a12
     94b:	59cc           	bnez.n	a9, 954 <comfort_noise_gen_wb+0x164>
     94d:	c1a8           	l32i.n	a10, a1, 48
     94f:	b198           	l32i.n	a9, a1, 44
     951:	93a9b0        	movnez	a10, a9, a11
     954:	887a           	add.n	a8, a8, a7
     956:	08b8           	l32i.n	a11, a8, 0
     958:	fddc81        	l32r	a8, c8 (9cc <HIFI_sqrt>)
     95b:	0008e0        	callx8	a8
     95e:	fddb81        	l32r	a8, cc (f59c <p_ecnr_mem>)
     961:	f1d8           	l32i.n	a13, a1, 60
     963:	75a0e2        	movi	a14, 117
     966:	0888           	l32i.n	a8, a8, 0
     968:	f1a3f2        	movi	a15, 0x3f1
     96b:	360b34        	ae_cvtq48a32s	aeq0, a11
     96e:	2cd8c2        	addmi	a12, a8, 0x2c00
     971:	239c92        	l16si	a9, a12, 70
     974:	bbde82        	addmi	a8, a14, 0xffffbb00
     977:	739dd2        	l16si	a13, a13, 230
     97a:	b0bff0        	addx8	a11, a15, a15
     97d:	828980        	mull	a8, a9, a8
     980:	8299b0        	mull	a9, a9, a11
     983:	235c92        	s16i	a9, a12, 70
     986:	408414        	ae_lp16f.iu	aep0, a4, 2
     989:	02cd           	mov.n	a12, a2
     98b:	02a3d7        	bge	a3, a13, 991 <comfort_noise_gen_wb+0x1a1>
     98e:	ffd806        	j	8f2 <comfort_noise_gen_wb+0x102>
     991:	1d1cb2        	l16ui	a11, a12, 58
     994:	d128           	l32i.n	a2, a1, 52
     996:	541114        	ae_lp24x2.i	aep1, a1, 8
     999:	0233b7        	bltu	a3, a11, 99f <comfort_noise_gen_wb+0x1af>
     99c:	ffd486        	j	8f2 <comfort_noise_gen_wb+0x102>
     99f:	0892b2        	l16si	a11, a2, 16
     9a2:	0223b7        	blt	a3, a11, 9a8 <comfort_noise_gen_wb+0x1b8>
     9a5:	ffd186        	j	8ef <comfort_noise_gen_wb+0xff>
     9a8:	541124        	ae_lp24x2.i	aep1, a1, 16
     9ab:	ffd006        	j	8ef <comfort_noise_gen_wb+0xff>

000009ae <comfort_noise_gen_wb+0x1be>:
	...

000009af <comfort_noise_gen_wb+0x1bf>:
     9af:	380c22        	l8ui	a2, a12, 56
     9b2:	930c           	movi.n	a3, 9
     9b4:	142c           	movi.n	a4, 33
     9b6:	622320        	saltu	a2, a3, a2
     9b9:	ff0c           	movi.n	a15, 15
     9bb:	93f420        	movnez	a15, a4, a2
     9be:	fec522        	addi	a2, a5, -2
     9c1:	028f76        	loop	a15, 9c7 <comfort_noise_gen_wb+0x1d7>
     9c4:	468214        	ae_sp16x2f.iu	aep0, a2, 4

000009c7 <comfort_noise_gen_wb+0x1d7>:
     9c7:	f01d           	retw.n

000009c9 <comfort_noise_gen_wb+0x1d9>:
     9c9:	000000                                        ...

000009cc <HIFI_sqrt>:
     9cc:	004136        	entry	a1, 32
     9cf:	4b13a6        	blti	a3, 1, a1e <HIFI_sqrt+0x52>
     9d2:	40e340        	nsa	a4, a3
     9d5:	c02240        	sub	a2, a2, a4
     9d8:	401400        	ssl	a4
     9db:	044020        	extui	a4, a2, 0, 1
     9de:	a1c300        	sll	a12, a3
     9e1:	400400        	ssr	a4
     9e4:	b130c0        	sra	a3, a12
     9e7:	656930        	extui	a6, a3, 25, 7
     9ea:	fdb9d1        	l32r	a13, d0 (f2a0 <TABLE_SQRT>)
     9ed:	050c           	movi.n	a5, 0
     9ef:	f0c662        	addi	a6, a6, -16
     9f2:	535650        	max	a5, a6, a5
     9f5:	9055d0        	addx2	a5, a5, a13
     9f8:	456d           	ae_l16ui.n	a6, a5, 0
     9fa:	355d           	ae_l16si.n	a5, a5, 2
     9fc:	413930        	srli	a3, a3, 9
     9ff:	11f600        	slli	a15, a6, 16
     a02:	c0e560        	sub	a14, a5, a6
     a05:	300334        	ae_cvtp24a16x2.ll	aep0, a3, a3
     a08:	113e00        	slli	a3, a14, 16
     a0b:	360f34        	ae_cvtq48a32s	aeq0, a15
     a0e:	364334        	ae_cvtq48a32s	aeq1, a3
     a11:	d4e110242f 	{ add	a2, a4, a2; ae_mulaq32sp16u.l	aeq0, aeq1, aep0 }
     a16:	212120        	srai	a2, a2, 1
     a19:	368304        	ae_trunca32q48	a3, aeq0
     a1c:	f01d           	retw.n

00000a1e <HIFI_sqrt+0x52>:
     a1e:	020c           	movi.n	a2, 0
     a20:	030c           	movi.n	a3, 0
     a22:	f01d           	retw.n

00000a24 <Log2_norm>:
     a24:	004136        	entry	a1, 32
     a27:	024d           	mov.n	a4, a2
     a29:	ff7c           	movi.n	a15, -1
     a2b:	012f10        	slli	a2, a15, 31
     a2e:	3214a6        	blti	a4, 1, a64 <Log2_norm+0x40>
     a31:	156c           	movi.n	a5, -31
     a33:	2d2357        	blt	a3, a5, a64 <Log2_norm+0x40>
     a36:	022c           	movi.n	a2, 32
     a38:	06a237        	bge	a2, a3, a42 <Log2_norm+0x1e>
     a3b:	f27c           	movi.n	a2, -1
     a3d:	412120        	srli	a2, a2, 1
     a40:	f01d           	retw.n

00000a42 <Log2_norm+0x1e>:
     a42:	fda451        	l32r	a5, d4 (f310 <TABLE_LOG2_1530>)
     a45:	552840        	extui	a2, a4, 24, 6
     a48:	1122e0        	slli	a2, a2, 2
     a4b:	603524        	ae_lq32f.xu	aeq0, a5, a2
     a4e:	604514        	ae_lq32f.i	aeq1, a5, 4
     a51:	f92ae2044f 	{ ae_movpa24x2	aep0, a4, a4; ae_subq56	aeq1, aeq1, aeq0 }
     a56:	030174        	ae_mulaq32sp16u.l	aeq0, aeq1, aep0
     a59:	013360        	slli	a3, a3, 26
     a5c:	368f04        	ae_trunca32q48	a15, aeq0
     a5f:	2125f0        	srai	a2, a15, 5
     a62:	223a           	add.n	a2, a2, a3
     a64:	f01d           	retw.n

00000a66 <Log2_norm+0x42>:
	...

00000a68 <PD_Noise_Est>:
     a68:	00e136        	entry	a1, 112
     a6b:	fd9831        	l32r	a3, cc (f59c <p_ecnr_mem>)
     a6e:	25d2c2        	addmi	a12, a2, 0x2500
     a71:	fd9c51        	l32r	a5, e4 (9c64 <two_mic_SWB_NR_proc+0x294>)
     a74:	03e8           	l32i.n	a14, a3, 0
     a76:	312c32        	l32i	a3, a12, 196
     a79:	fd98f1        	l32r	a15, dc (9c70 <two_mic_SWB_NR_proc+0x2a0>)
     a7c:	5ba272        	movi	a7, 0x25b
     a7f:	10c3d2        	addi	a13, a3, 16
     a82:	605d14        	ae_lq32f.iu	aeq1, a13, 4
     a85:	609d14        	ae_lq32f.iu	aeq2, a13, 4
     a88:	fd9881        	l32r	a8, e8 (9c5c <two_mic_SWB_NR_proc+0x28c>)
     a8b:	fd9541        	l32r	a4, e0 (9c66 <two_mic_SWB_NR_proc+0x296>)
     a8e:	f9ea3d7d1f 	{ ae_lq32f.iu	aeq3, a13, 4; ae_addq56	aeq1, aeq1, aeq2 }
     a93:	f9ee3d7d1f 	{ ae_lq32f.iu	aeq3, a13, 4; ae_addq56	aeq1, aeq1, aeq3 }
     a98:	1177a0        	slli	a7, a7, 6
     a9b:	f1c9           	s32i.n	a12, a1, 60
     a9d:	ce5a           	add.n	a12, a14, a5
     a9f:	5e7a           	add.n	a5, a14, a7
     aa1:	fd8d91        	l32r	a9, d8 (9c74 <two_mic_SWB_NR_proc+0x2a4>)
     aa4:	060c           	movi.n	a6, 0
     aa6:	f9ee3c0fef 	{ ae_lq32f.xu	aeq0, a15, a14; ae_addq56	aeq1, aeq1, aeq3 }
     aab:	3550b4        	ae_sraiq56	aeq1, aeq1, 2
     aae:	be4a           	add.n	a11, a14, a4
     ab0:	8e8a           	add.n	a8, a14, a8
     ab2:	05d8           	l32i.n	a13, a5, 0
     ab4:	3802a2        	l8ui	a10, a2, 56
     ab7:	2b7d           	ae_l16si.n	a7, a11, 0
     ab9:	d1c9           	s32i.n	a12, a1, 52
     abb:	6c6d           	ae_s16i.n	a6, a12, 0
     abd:	08c8           	l32i.n	a12, a8, 0
     abf:	f8663899ef 	{ ae_sq32f.xu	aeq1, a9, a14; ae_addq56	aeq0, aeq0, aeq1 }
     ac4:	350074        	ae_sraiq56	aeq0, aeq0, 1
     ac7:	8159           	s32i.n	a5, a1, 32
     ac9:	b189           	s32i.n	a8, a1, 44
     acb:	c199           	s32i.n	a9, a1, 48
     acd:	1061f2        	s32i	a15, a1, 64
     ad0:	620f04        	ae_sq32f.i	aeq0, a15, 0
     ad3:	151da6        	blti	a13, 1, aec <PD_Noise_Est+0x84>
     ad6:	152ca6        	blti	a12, 2, aef <PD_Noise_Est+0x87>
     ad9:	fd8431        	l32r	a3, ec (9c62 <two_mic_SWB_NR_proc+0x292>)
     adc:	f0c742        	addi	a4, a7, -16
     adf:	3e3a           	add.n	a3, a14, a3
     ae1:	233d           	ae_l16si.n	a3, a3, 0
     ae3:	1133f0        	slli	a3, a3, 1
     ae6:	435430        	min	a5, a4, a3
     ae9:	000c06        	j	b1d <PD_Noise_Est+0xb5>

00000aec <PD_Noise_Est+0x84>:
     aec:	121ca6        	blti	a12, 1, b02 <PD_Noise_Est+0x9a>
     aef:	c138           	l32i.n	a3, a1, 48
     af1:	f8c752        	addi	a5, a7, -8
     af4:	0338           	l32i.n	a3, a3, 0
     af6:	0213a6        	blti	a3, 1, afc <PD_Noise_Est+0x94>
     af9:	000806        	j	b1d <PD_Noise_Est+0xb5>

00000afc <PD_Noise_Est+0x94>:
     afc:	fec752        	addi	a5, a7, -2
     aff:	000686        	j	b1d <PD_Noise_Est+0xb5>

00000b02 <PD_Noise_Est+0x9a>:
     b02:	0348           	l32i.n	a4, a3, 0
     b04:	1338           	l32i.n	a3, a3, 4
     b06:	534a           	add.n	a5, a3, a4
     b08:	0415a6        	blti	a5, 1, b10 <PD_Noise_Est+0xa8>
     b0b:	572b           	addi.n	a5, a7, 2
     b0d:	000306        	j	b1d <PD_Noise_Est+0xb5>

00000b10 <PD_Noise_Est+0xa8>:
     b10:	0714e6        	bgei	a4, 1, b1b <PD_Noise_Est+0xb3>
     b13:	0413e6        	bgei	a3, 1, b1b <PD_Noise_Est+0xb3>
     b16:	570b           	addi.n	a5, a7, -1
     b18:	000046        	j	b1d <PD_Noise_Est+0xb5>

00000b1b <PD_Noise_Est+0xb3>:
     b1b:	571b           	addi.n	a5, a7, 1
     b1d:	2cde42        	addmi	a4, a14, 0x2c00
     b20:	080c           	movi.n	a8, 0
     b22:	249442        	l16si	a4, a4, 72
     b25:	f33c           	movi.n	a3, 63
     b27:	535580        	max	a5, a5, a8
     b2a:	433530        	min	a3, a5, a3
     b2d:	2cde92        	addmi	a9, a14, 0x2c00
     b30:	a1b9           	s32i.n	a11, a1, 40
     b32:	6b3d           	ae_s16i.n	a3, a11, 0
     b34:	0b0c           	movi.n	a11, 0
     b36:	068496        	bltz	a4, ba2 <PD_Noise_Est+0x13a>
     b39:	2699b2        	l16si	a11, a9, 76
     b3c:	111da6        	blti	a13, 1, b51 <PD_Noise_Est+0xe9>
     b3f:	169252        	l16si	a5, a2, 44
     b42:	159232        	l16si	a3, a2, 42
     b45:	fecb42        	addi	a4, a11, -2
     b48:	35a357        	bge	a3, a5, b81 <PD_Noise_Est+0x119>
     b4b:	d8cbb2        	addi	a11, a11, -40
     b4e:	001406        	j	ba2 <PD_Noise_Est+0x13a>

00000b51 <PD_Noise_Est+0xe9>:
     b51:	4d2ce6        	bgei	a12, 2, ba2 <PD_Noise_Est+0x13a>
     b54:	fd6741        	l32r	a4, f0 (f560 <swb_score_bands>)
     b57:	fd6751        	l32r	a5, f4 (f500 <wb_score_bands>)
     b5a:	930c           	movi.n	a3, 9
     b5c:	6233a0        	saltu	a3, a3, a10
     b5f:	935430        	movnez	a5, a4, a3
     b62:	903a50        	addx2	a3, a10, a5
     b65:	354d           	ae_l16si.n	a4, a5, 2
     b67:	029562        	l16si	a6, a5, 4
     b6a:	233d           	ae_l16si.n	a3, a3, 0
     b6c:	191272        	l16ui	a7, a2, 50
     b6f:	446a           	add.n	a4, a4, a6
     b71:	434a           	add.n	a4, a3, a4
     b73:	1ea747        	bge	a7, a4, b95 <PD_Noise_Est+0x12d>
     b76:	20a737        	bge	a7, a3, b9a <PD_Noise_Est+0x132>
     b79:	27ac           	beqz.n	a7, b9f <PD_Noise_Est+0x137>
     b7b:	fecbb2        	addi	a11, a11, -2
     b7e:	000806        	j	ba2 <PD_Noise_Est+0x13a>

00000b81 <PD_Noise_Est+0x119>:
     b81:	059537        	bne	a5, a3, b8a <PD_Noise_Est+0x122>
     b84:	facbb2        	addi	a11, a11, -6
     b87:	0005c6        	j	ba2 <PD_Noise_Est+0x13a>

00000b8a <PD_Noise_Est+0x122>:
     b8a:	330b           	addi.n	a3, a3, -1
     b8c:	c03350        	sub	a3, a3, a5
     b8f:	83b430        	moveqz	a11, a4, a3
     b92:	000306        	j	ba2 <PD_Noise_Est+0x13a>

00000b95 <PD_Noise_Est+0x12d>:
     b95:	bb2b           	addi.n	a11, a11, 2
     b97:	0001c6        	j	ba2 <PD_Noise_Est+0x13a>

00000b9a <PD_Noise_Est+0x132>:
     b9a:	bb1b           	addi.n	a11, a11, 1
     b9c:	000086        	j	ba2 <PD_Noise_Est+0x13a>

00000b9f <PD_Noise_Est+0x137>:
     b9f:	e8cbb2        	addi	a11, a11, -24
     ba2:	53fb80        	max	a15, a11, a8
     ba5:	ffa032        	movi	a3, 255
     ba8:	7129           	s32i.n	a2, a1, 28
     baa:	432f30        	min	a2, a15, a3
     bad:	fd4531        	l32r	a3, c4 (9cc8 <get_sb_ptn_addr>)
     bb0:	61e9           	s32i.n	a14, a1, 24
     bb2:	265922        	s16i	a2, a9, 76
     bb5:	0003e0        	callx8	a3
     bb8:	8138           	l32i.n	a3, a1, 32
     bba:	e1a9           	s32i.n	a10, a1, 56
     bbc:	fd5751        	l32r	a5, 118 (96a4 <two_mic_WB_NR_NSN_proc+0xb34>)
     bbf:	03c8           	l32i.n	a12, a3, 0
     bc1:	6148           	l32i.n	a4, a1, 24
     bc3:	7178           	l32i.n	a7, a1, 28
     bc5:	021ce6        	bgei	a12, 1, bcb <PD_Noise_Est+0x163>
     bc8:	005d46        	j	d41 <PD_Noise_Est+0x2d9>
     bcb:	7138           	l32i.n	a3, a1, 28
     bcd:	7158           	l32i.n	a5, a1, 28
     bcf:	cca462        	movi	a6, 0x4cc
     bd2:	169322        	l16si	a2, a3, 44
     bd5:	159332        	l16si	a3, a3, 42
     bd8:	fd4841        	l32r	a4, f8 (dacccccd <_end+0xdacbd72d>)
     bdb:	756a           	add.n	a7, a5, a6
     bdd:	022327        	blt	a3, a2, be3 <PD_Noise_Est+0x17b>
     be0:	007486        	j	db6 <PD_Noise_Est+0x34e>
     be3:	601714        	ae_lq32f.iu	aeq0, a7, 4
     be6:	605714        	ae_lq32f.iu	aeq1, a7, 4
     be9:	f8663d771f 	{ ae_lq32f.iu	aeq3, a7, 4; ae_addq56	aeq0, aeq0, aeq1 }
     bee:	f8e63d571f 	{ ae_lq32f.iu	aeq2, a7, 4; ae_addq56	aeq0, aeq0, aeq3 }
     bf3:	f8e23ec4ff 	{ ae_cvtq48a32s	aeq3, a4; ae_addq56	aeq0, aeq0, aeq2 }
     bf8:	3500b4        	ae_sraiq56	aeq0, aeq0, 2
     bfb:	d55830d15e 	{ l32i	a5, a1, 52; ae_leq56s	b0, aeq0, aeq3 }
     c00:	020c           	movi.n	a2, 0
     c02:	1e0c           	movi.n	a14, 1
     c04:	61a8           	l32i.n	a10, a1, 24
     c06:	5d0c           	movi.n	a13, 5
     c08:	0f0c           	movi.n	a15, 0
     c0a:	d32e00        	movt	a2, a14, b0
     c0d:	080c           	movi.n	a8, 0
     c0f:	65dd           	ae_s16i.n	a13, a5, 0
     c11:	91f9           	s32i.n	a15, a1, 36
     c13:	62ec           	bnez.n	a2, c3d <PD_Noise_Est+0x1d5>
     c15:	e3a422        	movi	a2, 0x4e3
     c18:	1122b0        	slli	a2, a2, 5
     c1b:	2a2a           	add.n	a2, a10, a2
     c1d:	222d           	ae_l16si.n	a2, a2, 0
     c1f:	f37c           	movi.n	a3, -1
     c21:	013310        	slli	a3, a3, 31
     c24:	114200        	slli	a4, a2, 16
     c27:	305230        	xor	a5, a2, a3
     c2a:	222b           	addi.n	a2, a2, 2
     c2c:	212220        	srai	a2, a2, 2
     c2f:	11f200        	slli	a15, a2, 16
     c32:	302230        	xor	a2, a2, a3
     c35:	c022f0        	sub	a2, a2, a15
     c38:	c08540        	sub	a8, a5, a4
     c3b:	9129           	s32i.n	a2, a1, 36
     c3d:	fd2f31        	l32r	a3, fc (dfffffe <_end+0xdff0a5e>)
     c40:	fd3041        	l32r	a4, 100 (9c54 <two_mic_SWB_NR_proc+0x284>)
     c43:	2c2b           	addi.n	a2, a12, 2
     c45:	21b220        	srai	a11, a2, 2
     c48:	723c30        	salt	a3, a12, a3
     c4b:	fa4a           	add.n	a15, a10, a4
     c4d:	f67c           	movi.n	a6, -1
     c4f:	933b30        	movnez	a3, a11, a3
     c52:	0fc8           	l32i.n	a12, a15, 0
     c54:	fd2c91        	l32r	a9, 104 (b33333 <_end+0xb23d93>)
     c57:	016660        	slli	a6, a6, 26
     c5a:	7b3a           	add.n	a7, a11, a3
     c5c:	fd2b21        	l32r	a2, 108 (fb4ccccd <_end+0xfb4bd72d>)
     c5f:	476a           	add.n	a4, a7, a6
     c61:	0c5d           	mov.n	a5, a12
     c63:	242497        	blt	a4, a9, c8b <PD_Noise_Est+0x223>
     c66:	fd29f1        	l32r	a15, 10c (9c58 <two_mic_SWB_NR_proc+0x288>)
     c69:	190c           	movi.n	a9, 1
     c6b:	572a           	add.n	a5, a7, a2
     c6d:	7afa           	add.n	a7, a10, a15
     c6f:	019980        	slli	a9, a9, 24
     c72:	559a           	add.n	a5, a5, a9
     c74:	0778           	l32i.n	a7, a7, 0
     c76:	759850        	extui	a9, a5, 24, 8
     c79:	0c5d           	mov.n	a5, a12
     c7b:	0c8976        	loop	a9, c8b <PD_Noise_Est+0x223>
     c7e:	0589           	s32i.n	a8, a5, 0
     c80:	0798           	l32i.n	a9, a7, 0
     c82:	554b           	addi.n	a5, a5, 4
     c84:	1199f0        	slli	a9, a9, 1
     c87:	0799           	s32i.n	a9, a7, 0
     c89:	774b           	addi.n	a7, a7, 4

00000c8b <PD_Noise_Est+0x223>:
     c8b:	e178           	l32i.n	a7, a1, 56
     c8d:	91f8           	l32i.n	a15, a1, 36
     c8f:	05f9           	s32i.n	a15, a5, 0
     c91:	059772        	l16si	a7, a7, 10
     c94:	90ab30        	addx2	a10, a11, a3
     c97:	e36a           	add.n	a14, a3, a6
     c99:	772b           	addi.n	a7, a7, 2
     c9b:	019780        	slli	a9, a7, 24
     c9e:	136192        	s32i	a9, a1, 76
     ca1:	02a947        	bge	a9, a4, ca7 <PD_Noise_Est+0x23f>
     ca4:	004386        	j	db6 <PD_Noise_Est+0x34e>
     ca7:	fd1a51        	l32r	a5, 110 (96a2 <two_mic_WB_NR_NSN_proc+0xb32>)
     caa:	61f8           	l32i.n	a15, a1, 24
     cac:	fd1891        	l32r	a9, 10c (9c58 <two_mic_SWB_NR_proc+0x288>)
     caf:	6a2a           	add.n	a6, a10, a2
     cb1:	af5a           	add.n	a10, a15, a5
     cb3:	1d0c           	movi.n	a13, 1
     cb5:	2a5d           	ae_l16si.n	a5, a10, 0
     cb7:	fd1741        	l32r	a4, 114 (fcb33333 <_end+0xfcb23d93>)
     cba:	012d80        	slli	a2, a13, 24
     cbd:	df9a           	add.n	a13, a15, a9
     cbf:	977c           	movi.n	a7, -7
     cc1:	116122        	s32i	a2, a1, 68
     cc4:	0d28           	l32i.n	a2, a13, 0
     cc6:	017790        	slli	a7, a7, 23
     cc9:	11f5e0        	slli	a15, a5, 2
     ccc:	434a           	add.n	a4, a3, a4
     cce:	737a           	add.n	a7, a3, a7
     cd0:	1261f2        	s32i	a15, a1, 72

00000cd3 <PD_Noise_Est+0x26b>:
     cd3:	5b7a           	add.n	a5, a11, a7
     cd5:	31a850        	srai	a10, a5, 24
     cd8:	a09ac0        	addx4	a9, a10, a12
     cdb:	0f0c           	movi.n	a15, 0
     cdd:	5a1b           	addi.n	a5, a10, 1
     cdf:	09f9           	s32i.n	a15, a9, 0
     ce1:	019580        	slli	a9, a5, 24
     ce4:	db4a           	add.n	a13, a11, a4
     ce6:	a03a20        	addx4	a3, a10, a2
     ce9:	1221f2        	l32i	a15, a1, 72
     cec:	03f9           	s32i.n	a15, a3, 0
     cee:	0ba9d7        	bge	a9, a13, cfd <PD_Noise_Est+0x295>
     cf1:	a035c0        	addx4	a3, a5, a12
     cf4:	9198           	l32i.n	a9, a1, 36
     cf6:	5a2b           	addi.n	a5, a10, 2
     cf8:	0399           	s32i.n	a9, a3, 0
     cfa:	019580        	slli	a9, a5, 24
     cfd:	a0a5c0        	addx4	a10, a5, a12
     d00:	252697        	blt	a6, a9, d29 <PD_Noise_Est+0x2c1>
     d03:	112192        	l32i	a9, a1, 68
     d06:	013580        	slli	a3, a5, 24
     d09:	c03630        	sub	a3, a6, a3
     d0c:	339a           	add.n	a3, a3, a9
     d0e:	753830        	extui	a3, a3, 24, 8
     d11:	1f0c           	movi.n	a15, 1
     d13:	5333f0        	max	a3, a3, a15
     d16:	a05520        	addx4	a5, a5, a2
     d19:	0c8376        	loop	a3, d29 <PD_Noise_Est+0x2c1>
     d1c:	0a89           	s32i.n	a8, a10, 0
     d1e:	0538           	l32i.n	a3, a5, 0
     d20:	aa4b           	addi.n	a10, a10, 4
     d22:	1133f0        	slli	a3, a3, 1
     d25:	0539           	s32i.n	a3, a5, 0
     d27:	554b           	addi.n	a5, a5, 4

00000d29 <PD_Noise_Est+0x2c1>:
     d29:	132152        	l32i	a5, a1, 76
     d2c:	eeba           	add.n	a14, a14, a11
     d2e:	9138           	l32i.n	a3, a1, 36
     d30:	fbea           	add.n	a15, a11, a14
     d32:	0a39           	s32i.n	a3, a10, 0
     d34:	44ba           	add.n	a4, a4, a11
     d36:	77ba           	add.n	a7, a7, a11
     d38:	66ba           	add.n	a6, a6, a11
     d3a:	95a5f7        	bge	a5, a15, cd3 <PD_Noise_Est+0x26b>
     d3d:	001d46        	j	db6 <PD_Noise_Est+0x34e>

00000d40 <PD_Noise_Est+0x2d8>:
	...

00000d41 <PD_Noise_Est+0x2d9>:
     d41:	345a           	add.n	a3, a4, a5
     d43:	233d           	ae_l16si.n	a3, a3, 0
     d45:	6168           	l32i.n	a6, a1, 24
     d47:	fcf141        	l32r	a4, 10c (9c58 <two_mic_SWB_NR_proc+0x288>)
     d4a:	682237        	blt	a2, a3, db6 <PD_Noise_Est+0x34e>
     d4d:	1d1732        	l16ui	a3, a7, 58
     d50:	b5a452        	movi	a5, 0x4b5
     d53:	1155b0        	slli	a5, a5, 5
     d56:	a39c           	beqz.n	a3, d74 <PD_Noise_Est+0x30c>
     d58:	464a           	add.n	a4, a6, a4
     d5a:	0448           	l32i.n	a4, a4, 0
     d5c:	410654        	ae_lp16f.x	aep0, a6, a5
     d5f:	4c1404        	ae_lp24.i	aep1, a4, 0
     d62:	020174        	ae_mulp24s.ll	aeq0, aep0, aep1
     d65:	368f04        	ae_trunca32q48	a15, aeq0
     d68:	5f2b           	addi.n	a5, a15, 2
     d6a:	215250        	srai	a5, a5, 2
     d6d:	038376        	loop	a3, d74 <PD_Noise_Est+0x30c>
     d70:	0459           	s32i.n	a5, a4, 0
     d72:	444b           	addi.n	a4, a4, 4

00000d74 <PD_Noise_Est+0x30c>:
     d74:	fcea41        	l32r	a4, 11c (969e <two_mic_WB_NR_NSN_proc+0xb2e>)
     d77:	6188           	l32i.n	a8, a1, 24
     d79:	fcea51        	l32r	a5, 124 (9c6c <two_mic_SWB_NR_proc+0x29c>)
     d7c:	464a           	add.n	a4, a6, a4
     d7e:	244d           	ae_l16si.n	a4, a4, 0
     d80:	260c           	movi.n	a6, 2
     d82:	fcdfe1        	l32r	a14, 100 (9c54 <two_mic_SWB_NR_proc+0x284>)
     d85:	2d2247        	blt	a2, a4, db6 <PD_Noise_Est+0x34e>
     d88:	a3ac           	beqz.n	a3, db6 <PD_Noise_Est+0x34e>
     d8a:	b128           	l32i.n	a2, a1, 44
     d8c:	fce541        	l32r	a4, 120 (9c6a <two_mic_SWB_NR_proc+0x29a>)
     d8f:	585a           	add.n	a5, a8, a5
     d91:	0228           	l32i.n	a2, a2, 0
     d93:	484a           	add.n	a4, a8, a4
     d95:	f77c           	movi.n	a7, -1
     d97:	722260        	salt	a2, a2, a6
     d9a:	835420        	moveqz	a5, a4, a2
     d9d:	254d           	ae_l16si.n	a4, a5, 0
     d9f:	f8ea           	add.n	a15, a8, a14
     da1:	017710        	slli	a7, a7, 31
     da4:	0f28           	l32i.n	a2, a15, 0
     da6:	115400        	slli	a5, a4, 16
     da9:	304470        	xor	a4, a4, a7
     dac:	c04450        	sub	a4, a4, a5
     daf:	038376        	loop	a3, db6 <PD_Noise_Est+0x34e>
     db2:	0249           	s32i.n	a4, a2, 0
     db4:	224b           	addi.n	a2, a2, 4
     db6:	71c8           	l32i.n	a12, a1, 28
     db8:	61d8           	l32i.n	a13, a1, 24
     dba:	e1b8           	l32i.n	a11, a1, 56
     dbc:	191c22        	l16ui	a2, a12, 50
     dbf:	431c           	movi.n	a3, 20
     dc1:	753327        	bltu	a3, a2, e3a <PD_Noise_Est+0x3d2>
     dc4:	0572f6        	bgeui	a2, 7, dcd <PD_Noise_Est+0x365>
     dc7:	f9a422        	movi	a2, 0x4f9
     dca:	000386        	j	ddc <PD_Noise_Est+0x374>

00000dcd <PD_Noise_Est+0x365>:
     dcd:	08b2f6        	bgeui	a2, 16, dd9 <PD_Noise_Est+0x371>
     dd0:	7da222        	movi	a2, 0x27d
     dd3:	1122d0        	slli	a2, a2, 3
     dd6:	000146        	j	ddf <PD_Noise_Est+0x377>

00000dd9 <PD_Noise_Est+0x371>:
     dd9:	fba422        	movi	a2, 0x4fb
     ddc:	1122e0        	slli	a2, a2, 2
     ddf:	d1f8           	l32i.n	a15, a1, 52
     de1:	4c2a           	add.n	a4, a12, a2
     de3:	380c32        	l8ui	a3, a12, 56
     de6:	2f2d           	ae_l16si.n	a2, a15, 0
     de8:	f158           	l32i.n	a5, a1, 60
     dea:	fcc571        	l32r	a7, 100 (9c54 <two_mic_SWB_NR_proc+0x284>)
     ded:	49a237        	bge	a2, a3, e3a <PD_Noise_Est+0x3d2>
     df0:	244d           	ae_l16si.n	a4, a4, 0
     df2:	312552        	l32i	a5, a5, 196
     df5:	f67c           	movi.n	a6, -1
     df7:	016610        	slli	a6, a6, 31
     dfa:	7d7a           	add.n	a7, a13, a7
     dfc:	000a86        	j	e2a <PD_Noise_Est+0x3c2>

00000dff <PD_Noise_Est+0x397>:
     dff:	221b           	addi.n	a2, a2, 1
     e01:	9092b0        	addx2	a9, a2, a11
     e04:	2a8d           	ae_l16si.n	a8, a10, 0
     e06:	299d           	ae_l16si.n	a9, a9, 0
     e08:	1ba897        	bge	a8, a9, e27 <PD_Noise_Est+0x3bf>
     e0b:	07a8           	l32i.n	a10, a7, 0
     e0d:	c09980        	sub	a9, a9, a8
     e10:	a088a0        	addx4	a8, a8, a10
     e13:	108976        	loop	a9, e27 <PD_Noise_Est+0x3bf>
     e16:	489d           	ae_l16ui.n	a9, a8, 0
     e18:	994a           	add.n	a9, a9, a4
     e1a:	11a900        	slli	a10, a9, 16
     e1d:	309960        	xor	a9, a9, a6
     e20:	c099a0        	sub	a9, a9, a10
     e23:	0899           	s32i.n	a9, a8, 0
     e25:	884b           	addi.n	a8, a8, 4

00000e27 <PD_Noise_Est+0x3bf>:
     e27:	0fa237        	bge	a2, a3, e3a <PD_Noise_Est+0x3d2>

00000e2a <PD_Noise_Est+0x3c2>:
     e2a:	a08250        	addx4	a8, a2, a5
     e2d:	0888           	l32i.n	a8, a8, 0
     e2f:	90a2b0        	addx2	a10, a2, a11
     e32:	c918a6        	blti	a8, 1, dff <PD_Noise_Est+0x397>
     e35:	221b           	addi.n	a2, a2, 1
     e37:	fffb06        	j	e27 <PD_Noise_Est+0x3bf>

00000e3a <PD_Noise_Est+0x3d2>:
     e3a:	fcbb21        	l32r	a2, 128 (96ca <two_mic_WB_NR_NSN_proc+0xb5a>)
     e3d:	f57c           	movi.n	a5, -1
     e3f:	4d2a           	add.n	a4, a13, a2
     e41:	442d           	ae_l16ui.n	a2, a4, 0
     e43:	823d           	ae_sext16	a3, a2
     e45:	015396        	bltz	a3, e5e <PD_Noise_Est+0x3f6>
     e48:	021c52        	l16ui	a5, a12, 4
     e4b:	631b           	addi.n	a6, a3, 1
     e4d:	90f550        	addx2	a15, a5, a5
     e50:	113fe0        	slli	a3, a15, 2
     e53:	622230        	saltu	a2, a2, a3
     e56:	f37c           	movi.n	a3, -1
     e58:	933620        	movnez	a3, a6, a2
     e5b:	000086        	j	e61 <PD_Noise_Est+0x3f9>

00000e5e <PD_Noise_Est+0x3f6>:
     e5e:	f43050        	extui	a3, a5, 0, 16
     e61:	8128           	l32i.n	a2, a1, 32
     e63:	fcb251        	l32r	a5, 12c (96cc <two_mic_WB_NR_NSN_proc+0xb5c>)
     e66:	fcb2b1        	l32r	a11, 130 (7fff0000 <_end+0x7ffe0a60>)
     e69:	0228           	l32i.n	a2, a2, 0
     e6b:	643d           	ae_s16i.n	a3, a4, 0
     e6d:	102142        	l32i	a4, a1, 64
     e70:	a28c           	beqz.n	a2, e7e <PD_Noise_Est+0x416>
     e72:	6d5a           	add.n	a6, a13, a5
     e74:	0448           	l32i.n	a4, a4, 0
     e76:	1584d6        	bgez	a4, fd2 <PD_Noise_Est+0x56a>
     e79:	464d           	ae_l16ui.n	a4, a6, 0
     e7b:	153456        	bnez	a4, fd2 <PD_Noise_Est+0x56a>
     e7e:	b148           	l32i.n	a4, a1, 44
     e80:	fc9b71        	l32r	a7, ec (9c62 <two_mic_SWB_NR_proc+0x292>)
     e83:	a168           	l32i.n	a6, a1, 40
     e85:	0448           	l32i.n	a4, a4, 0
     e87:	7d7a           	add.n	a7, a13, a7
     e89:	833d           	ae_sext16	a3, a3
     e8b:	0224a6        	blti	a4, 2, e91 <PD_Noise_Est+0x429>
     e8e:	005006        	j	fd2 <PD_Noise_Est+0x56a>
     e91:	266d           	ae_l16si.n	a6, a6, 0
     e93:	274d           	ae_l16si.n	a4, a7, 0
     e95:	1e0c           	movi.n	a14, 1
     e97:	11ee20        	slli	a14, a14, 14
     e9a:	022467        	blt	a4, a6, ea0 <PD_Noise_Est+0x438>
     e9d:	004c46        	j	fd2 <PD_Noise_Est+0x56a>
     ea0:	002396        	bltz	a3, ea6 <PD_Noise_Est+0x43e>
     ea3:	000a06        	j	ecf <PD_Noise_Est+0x467>

00000ea6 <PD_Noise_Est+0x43e>:
     ea6:	0a9c22        	l16si	a2, a12, 20
     ea9:	0b9c32        	l16si	a3, a12, 22
     eac:	0c9c42        	l16si	a4, a12, 24
     eaf:	fca1f1        	l32r	a15, 134 (96a6 <two_mic_WB_NR_NSN_proc+0xb36>)
     eb2:	c168           	l32i.n	a6, a1, 48
     eb4:	232a           	add.n	a2, a3, a2
     eb6:	224a           	add.n	a2, a2, a4
     eb8:	3dfa           	add.n	a3, a13, a15
     eba:	06a8           	l32i.n	a10, a6, 0
     ebc:	23cd           	ae_l16si.n	a12, a3, 0
     ebe:	045122        	s16i	a2, a1, 8
     ec1:	82bd           	ae_sext16	a11, a2
     ec3:	fc9d21        	l32r	a2, 138 (d6a8 <cal_wind_score>)
     ec6:	0002e0        	callx8	a2
     ec9:	8128           	l32i.n	a2, a1, 32
     ecb:	0aed           	mov.n	a14, a10
     ecd:	0228           	l32i.n	a2, a2, 0
     ecf:	ffa032        	movi	a3, 255
     ed2:	3fd332        	addmi	a3, a3, 0x3f00
     ed5:	a1a8           	l32i.n	a10, a1, 40
     ed7:	3e3a           	add.n	a3, a14, a3
     ed9:	045132        	s16i	a3, a1, 8
     edc:	09b216        	beqz	a2, f7b <PD_Noise_Est+0x513>
     edf:	7188           	l32i.n	a8, a1, 28
     ee1:	401144        	ae_lp16f.i	aep1, a1, 8
     ee4:	6198           	l32i.n	a9, a1, 24
     ee6:	20c822        	addi	a2, a8, 32
     ee9:	400204        	ae_lp16f.i	aep0, a2, 0
     eec:	e820802a6f 	{ movi	a6, 42; ae_mulfp24s.hh	aeq0, aep0, aep1 }
     ef1:	fc86f1        	l32r	a15, 10c (9c58 <two_mic_SWB_NR_proc+0x288>)
     ef4:	3502f4        	ae_sraiq56	aeq0, aeq0, 11
     ef7:	620134        	ae_sq32f.i	aeq0, a1, 12
     efa:	29fa           	add.n	a2, a9, a15
     efc:	0228           	l32i.n	a2, a2, 0
     efe:	032132        	l32i	a3, a1, 12
     f01:	038676        	loop	a6, f08 <PD_Noise_Est+0x4a0>
     f04:	0239           	s32i.n	a3, a2, 0
     f06:	224b           	addi.n	a2, a2, 4

00000f08 <PD_Noise_Est+0x4a0>:
     f08:	272d           	ae_l16si.n	a2, a7, 0
     f0a:	2a3d           	ae_l16si.n	a3, a10, 0
     f0c:	343c           	movi.n	a4, 51
     f0e:	5bd442        	addmi	a4, a4, 0x5b00
     f11:	d14240        	mul16s	a4, a2, a4
     f14:	113330        	slli	a3, a3, 13
     f17:	2fa437        	bge	a4, a3, f4a <PD_Noise_Est+0x4e2>
     f1a:	fc7931        	l32r	a3, 100 (9c54 <two_mic_SWB_NR_proc+0x284>)
     f1d:	13d822        	addmi	a2, a8, 0x1300
     f20:	25d842        	addmi	a4, a8, 0x2500
     f23:	f93a           	add.n	a15, a9, a3
     f25:	3922d2        	l32i	a13, a2, 228
     f28:	7294b2        	l16si	a11, a4, 228
     f2b:	0fa8           	l32i.n	a10, a15, 0
     f2d:	fc8321        	l32r	a2, 13c (1010 <wind_noise_alpha>)
     f30:	fc84c1        	l32r	a12, 140 (33334ccd <_end+0x3332572d>)
     f33:	0002e0        	callx8	a2
     f36:	61d8           	l32i.n	a13, a1, 24
     f38:	fc8321        	l32r	a2, 144 (9c68 <two_mic_SWB_NR_proc+0x298>)
     f3b:	2d2a           	add.n	a2, a13, a2
     f3d:	222d           	ae_l16si.n	a2, a2, 0
     f3f:	d12220        	mul16s	a2, a2, a2
     f42:	11b2f0        	slli	a11, a2, 1
     f45:	0021c6        	j	fd0 <PD_Noise_Est+0x568>

00000f48 <PD_Noise_Est+0x4e0>:
	...

00000f4a <PD_Noise_Est+0x4e2>:
     f4a:	112220        	slli	a2, a2, 14
     f4d:	5ea237        	bge	a2, a3, faf <PD_Noise_Est+0x547>
     f50:	fc6c31        	l32r	a3, 100 (9c54 <two_mic_SWB_NR_proc+0x284>)
     f53:	13d822        	addmi	a2, a8, 0x1300
     f56:	25d842        	addmi	a4, a8, 0x2500
     f59:	f93a           	add.n	a15, a9, a3
     f5b:	7294b2        	l16si	a11, a4, 228
     f5e:	3922c2        	l32i	a12, a2, 228
     f61:	3a22d2        	l32i	a13, a2, 232
     f64:	0fa8           	l32i.n	a10, a15, 0
     f66:	fc7521        	l32r	a2, 13c (1010 <wind_noise_alpha>)
     f69:	0002e0        	callx8	a2
     f6c:	61d8           	l32i.n	a13, a1, 24
     f6e:	fc7521        	l32r	a2, 144 (9c68 <two_mic_SWB_NR_proc+0x298>)
     f71:	2d2a           	add.n	a2, a13, a2
     f73:	222d           	ae_l16si.n	a2, a2, 0
     f75:	11b200        	slli	a11, a2, 16
     f78:	001506        	j	fd0 <PD_Noise_Est+0x568>

00000f7b <PD_Noise_Est+0x513>:
     f7b:	7188           	l32i.n	a8, a1, 28
     f7d:	6198           	l32i.n	a9, a1, 24
     f7f:	fc6341        	l32r	a4, 10c (9c58 <two_mic_SWB_NR_proc+0x288>)
     f82:	25d822        	addmi	a2, a8, 0x2500
     f85:	729232        	l16si	a3, a2, 228
     f88:	294a           	add.n	a2, a9, a4
     f8a:	400144        	ae_lp16f.i	aep0, a1, 8
     f8d:	0213e6        	bgei	a3, 1, f93 <PD_Noise_Est+0x52b>
     f90:	ffdd06        	j	f08 <PD_Noise_Est+0x4a0>
     f93:	936d           	ae_zext16	a6, a3
     f95:	0228           	l32i.n	a2, a2, 0
     f97:	600204        	ae_lq32f.i	aeq0, a2, 0
     f9a:	fcc232        	addi	a3, a2, -4
     f9d:	0b8676        	loop	a6, fac <PD_Noise_Est+0x544>
     fa0:	030214        	ae_mulfq32sp16s.l	aeq0, aeq0, aep0
     fa3:	354054        	ae_slliq56	aeq1, aeq0, 1
     fa6:	601214        	ae_lq32f.iu	aeq0, a2, 4
     fa9:	625314        	ae_sq32f.iu	aeq1, a3, 4

00000fac <PD_Noise_Est+0x544>:
     fac:	ffd606        	j	f08 <PD_Noise_Est+0x4a0>

00000faf <PD_Noise_Est+0x547>:
     faf:	fc5431        	l32r	a3, 100 (9c54 <two_mic_SWB_NR_proc+0x284>)
     fb2:	13d822        	addmi	a2, a8, 0x1300
     fb5:	25d842        	addmi	a4, a8, 0x2500
     fb8:	f93a           	add.n	a15, a9, a3
     fba:	7294b2        	l16si	a11, a4, 228
     fbd:	3a22c2        	l32i	a12, a2, 232
     fc0:	3b22d2        	l32i	a13, a2, 236
     fc3:	0fa8           	l32i.n	a10, a15, 0
     fc5:	fc5d21        	l32r	a2, 13c (1010 <wind_noise_alpha>)
     fc8:	0002e0        	callx8	a2
     fcb:	61d8           	l32i.n	a13, a1, 24
     fcd:	fc58b1        	l32r	a11, 130 (7fff0000 <_end+0x7ffe0a60>)
     fd0:	71c8           	l32i.n	a12, a1, 28
     fd2:	25dc42        	addmi	a4, a12, 0x2500
     fd5:	fc5c21        	l32r	a2, 148 (7fe70019 <_end+0x7fe60a79>)
     fd8:	4129           	s32i.n	a2, a1, 16
     fda:	3824a2        	l32i	a10, a4, 224
     fdd:	fc5c21        	l32r	a2, 150 (6f48 <siir_safr>)
     fe0:	fc5b31        	l32r	a3, 14c (7e1401ec <_end+0x7e130c4c>)
     fe3:	10c1c2        	addi	a12, a1, 16
     fe6:	5139           	s32i.n	a3, a1, 20
     fe8:	0d6d           	mov.n	a6, a13
     fea:	0002e0        	callx8	a2
     fed:	8128           	l32i.n	a2, a1, 32
     fef:	565a           	add.n	a5, a6, a5
     ff1:	25cd           	ae_l16si.n	a12, a5, 0
     ff3:	0238           	l32i.n	a3, a2, 0
     ff5:	3d0c           	movi.n	a13, 3
     ff7:	ec1b           	addi.n	a14, a12, 1
     ff9:	0f0c           	movi.n	a15, 0
     ffb:	2c0b           	addi.n	a2, a12, -1
     ffd:	3864a2        	s32i	a10, a4, 224
    1000:	5362f0        	max	a6, a2, a15
    1003:	434ed0        	min	a4, a14, a13
    1006:	936430        	movnez	a6, a4, a3
    1009:	020c           	movi.n	a2, 0
    100b:	656d           	ae_s16i.n	a6, a5, 0
    100d:	f01d           	retw.n

0000100f <PD_Noise_Est+0x5a7>:
	...

00001010 <wind_noise_alpha>:
    1010:	004136        	entry	a1, 32
    1013:	f77c           	movi.n	a7, -1
    1015:	017710        	slli	a7, a7, 31
    1018:	2213a6        	blti	a3, 1, 103e <wind_noise_alpha+0x2e>
    101b:	944d           	ae_zext16	a4, a4
    101d:	824460        	mull	a4, a4, a6
    1020:	414e40        	srli	a4, a4, 14
    1023:	948d           	ae_zext16	a8, a4
    1025:	114400        	slli	a4, a4, 16
    1028:	c08840        	sub	a8, a8, a4
    102b:	024d           	mov.n	a4, a2
    102d:	887a           	add.n	a8, a8, a7
    102f:	038376        	loop	a3, 1036 <wind_noise_alpha+0x26>
    1032:	0489           	s32i.n	a8, a4, 0
    1034:	444b           	addi.n	a4, a4, 4

00001036 <wind_noise_alpha+0x26>:
    1036:	942c           	movi.n	a4, 41
    1038:	04b437        	bgeu	a4, a3, 1040 <wind_noise_alpha+0x30>
    103b:	0008c6        	j	1062 <wind_noise_alpha+0x52>

0000103e <wind_noise_alpha+0x2e>:
    103e:	030c           	movi.n	a3, 0
    1040:	954d           	ae_zext16	a4, a5
    1042:	824460        	mull	a4, a4, a6
    1045:	d6c3d2        	addi	a13, a3, -42
    1048:	41fe40        	srli	a15, a4, 14
    104b:	a02320        	addx4	a2, a3, a2
    104e:	9f4d           	ae_zext16	a4, a15
    1050:	113f00        	slli	a3, a15, 16
    1053:	c03430        	sub	a3, a4, a3
    1056:	60e0d0        	neg	a14, a13
    1059:	337a           	add.n	a3, a3, a7
    105b:	038e76        	loop	a14, 1062 <wind_noise_alpha+0x52>
    105e:	0239           	s32i.n	a3, a2, 0
    1060:	224b           	addi.n	a2, a2, 4

00001062 <wind_noise_alpha+0x52>:
    1062:	f01d           	retw.n

00001064 <PD_Noise_Gain>:
    1064:	004136        	entry	a1, 32
    1067:	fc1921        	l32r	a2, cc (f59c <p_ecnr_mem>)
    106a:	fc1e31        	l32r	a3, e4 (9c64 <two_mic_SWB_NR_proc+0x294>)
    106d:	0228           	l32i.n	a2, a2, 0
    106f:	223a           	add.n	a2, a2, a3
    1071:	222d           	ae_l16si.n	a2, a2, 0
    1073:	f01d           	retw.n

00001075 <PD_Noise_Gain+0x11>:
    1075:	000000                                        ...

00001078 <PD_TD_prcs>:
    1078:	004136        	entry	a1, 32
    107b:	fc1431        	l32r	a3, cc (f59c <p_ecnr_mem>)
    107e:	fc3541        	l32r	a4, 154 (96dc <two_mic_WB_NR_NSN_proc+0xb6c>)
    1081:	fc3561        	l32r	a6, 158 (d6fc <xt_memcpy>)
    1084:	0328           	l32i.n	a2, a3, 0
    1086:	2c3c           	movi.n	a12, 50
    1088:	2cd252        	addmi	a5, a2, 0x2c00
    108b:	202552        	l32i	a5, a5, 128
    108e:	b24a           	add.n	a11, a2, a4
    1090:	9cc522        	addi	a2, a5, -100
    1093:	02ad           	mov.n	a10, a2
    1095:	0006e0        	callx8	a6
    1098:	0378           	l32i.n	a7, a3, 0
    109a:	fc3061        	l32r	a6, 15c (9698 <two_mic_WB_NR_NSN_proc+0xb28>)
    109d:	02ad           	mov.n	a10, a2
    109f:	b76a           	add.n	a11, a7, a6
    10a1:	fc2f71        	l32r	a7, 160 (10c4 <Pitch_by_Corel>)
    10a4:	0007e0        	callx8	a7
    10a7:	0328           	l32i.n	a2, a3, 0
    10a9:	d8c5a2        	addi	a10, a5, -40
    10ac:	b26a           	add.n	a11, a2, a6
    10ae:	0007e0        	callx8	a7
    10b1:	0328           	l32i.n	a2, a3, 0
    10b3:	14c5b2        	addi	a11, a5, 20
    10b6:	2c3c           	movi.n	a12, 50
    10b8:	a24a           	add.n	a10, a2, a4
    10ba:	fc2721        	l32r	a2, 158 (d6fc <xt_memcpy>)
    10bd:	0002e0        	callx8	a2
    10c0:	f01d           	retw.n

000010c2 <PD_TD_prcs+0x4a>:
	...

000010c4 <Pitch_by_Corel>:
    10c4:	01a136        	entry	a1, 208
    10c7:	08a562        	movi	a6, 0x508
    10ca:	18a542        	movi	a4, 0x518
    10cd:	636a           	add.n	a6, a3, a6
    10cf:	434a           	add.n	a4, a3, a4
    10d1:	05d3c2        	addmi	a12, a3, 0x500
    10d4:	f3f660        	wur.ae_cbegin0	a6
    10d7:	f3f740        	wur.ae_cend0	a4
    10da:	0c68           	l32i.n	a6, a12, 0
    10dc:	450c           	movi.n	a5, 4
    10de:	aca0e2        	movi	a14, 172
    10e1:	0678           	l32i.n	a7, a6, 0
    10e3:	fc24fb865f 	{ ae_lq32f.c	aeq0, a6, a5; nop }
    10e8:	0688           	l32i.n	a8, a6, 0
    10ea:	fc24fb865f 	{ ae_lq32f.c	aeq0, a6, a5; nop }
    10ef:	0698           	l32i.n	a9, a6, 0
    10f1:	fc24fb865f 	{ ae_lq32f.c	aeq0, a6, a5; nop }
    10f6:	06a8           	l32i.n	a10, a6, 0
    10f8:	fc24fb865f 	{ ae_lq32f.c	aeq0, a6, a5; nop }
    10fd:	fc24fb865f 	{ ae_lq32f.c	aeq0, a6, a5; nop }
    1102:	f3ea           	add.n	a15, a3, a14
    1104:	fc18d1        	l32r	a13, 164 (4ccccd <_end+0x4bd72d>)
    1107:	216132        	s32i	a3, a1, 132
    110a:	030c           	movi.n	a3, 0
    110c:	0c69           	s32i.n	a6, a12, 0
    110e:	398dd4        	ae_movpa24x2	aep0, a13, a13
    1111:	eb1c           	movi.n	a11, 30
    1113:	050c           	movi.n	a5, 0
    1115:	0c0c           	movi.n	a12, 0
    1117:	fc248622de 	{ addi	a13, a2, 98; ae_zeroq56	aeq0 }
    111c:	50c262        	addi	a6, a2, 80
    111f:	fccfe2        	addi	a14, a15, -4
    1122:	1f6132        	s32i	a3, a1, 124

00001125 <Pitch_by_Corel+0x61>:
    1125:	0dfd           	mov.n	a15, a13
    1127:	202660        	or	a2, a6, a6
    112a:	409f14        	ae_lp16f.iu	aep1, a15, 2
    112d:	078b76        	loop	a11, 1138 <Pitch_by_Corel+0x74>
    1130:	40a214        	ae_lp16f.iu	aep2, a2, 2
    1133:	e444ac9f1f 	{ ae_lp16f.iu	aep1, a15, 2; ae_mulafs56p24s.hh	aeq0, aep1, aep2 }

00001138 <Pitch_by_Corel+0x74>:
    1138:	350174        	ae_sraiq56	aeq0, aeq0, 5
    113b:	fc247d270f 	{ ae_lq32f.i	aeq1, a7, 0; ae_roundsq32asym	aeq0, aeq0 }
    1140:	f9667d480f 	{ ae_lq32f.i	aeq2, a8, 0; ae_addsq56s	aeq1, aeq0, aeq1 }
    1145:	f9ea7d690f 	{ ae_lq32f.i	aeq3, a9, 0; ae_addsq56s	aeq1, aeq1, aeq2 }
    114a:	f9ee7d6a0f 	{ ae_lq32f.i	aeq3, a10, 0; ae_addsq56s	aeq1, aeq1, aeq3 }
    114f:	f9ee4fec2e 	{ addi	a2, a12, -2; ae_addsq56s	aeq1, aeq1, aeq3 }
    1154:	f8603ad16f 	{ ae_sllisq56s	aeq1, aeq1, 6; ae_mulrfq32sp24s.h	aeq0, aeq0, aep0 }
    1159:	fd2c40264f 	{ movi	a4, 38; ae_roundsq32asym	aeq1, aeq1 }
    115e:	625e14        	ae_sq32f.iu	aeq1, a14, 4
    1161:	0ef8           	l32i.n	a15, a14, 0
    1163:	922d           	ae_zext16	a2, a2
    1165:	622240        	saltu	a2, a2, a4
    1168:	53ff30        	max	a15, a15, a3
    116b:	0ef9           	s32i.n	a15, a14, 0
    116d:	620704        	ae_sq32f.i	aeq0, a7, 0
    1170:	600804        	ae_lq32f.i	aeq0, a8, 0
    1173:	f860001cce 	{ addi	a12, a12, 1; ae_mulrfq32sp24s.h	aeq0, aeq0, aep0 }
    1178:	7245f0        	salt	a4, a5, a15
    117b:	620804        	ae_sq32f.i	aeq0, a8, 0
    117e:	600904        	ae_lq32f.i	aeq0, a9, 0
    1181:	f8600fe66e 	{ addi	a6, a6, -2; ae_mulrfq32sp24s.h	aeq0, aeq0, aep0 }
    1186:	83f540        	moveqz	a15, a5, a4
    1189:	620904        	ae_sq32f.i	aeq0, a9, 0
    118c:	600a04        	ae_lq32f.i	aeq0, a10, 0
    118f:	f86000477e 	{ addi	a7, a7, 4; ae_mulrfq32sp24s.h	aeq0, aeq0, aep0 }
    1194:	935f20        	movnez	a5, a15, a2
    1197:	af2c           	movi.n	a15, 42
    1199:	fc24b98a0f 	{ ae_sq32f.i	aeq0, a10, 0; ae_zeroq56	aeq0 }
    119e:	884b           	addi.n	a8, a8, 4
    11a0:	994b           	addi.n	a9, a9, 4
    11a2:	aa4b           	addi.n	a10, a10, 4
    11a4:	021cf7        	beq	a12, a15, 11aa <Pitch_by_Corel+0xe6>
    11a7:	ffde86        	j	1125 <Pitch_by_Corel+0x61>
    11aa:	212182        	l32i	a8, a1, 132
    11ad:	54a132        	movi	a3, 0x154
    11b0:	7cc162        	addi	a6, a1, 124
    11b3:	1f6152        	s32i	a5, a1, 124
    11b6:	603384        	ae_lq32f.xu	aeq0, a3, a8
    11b9:	604604        	ae_lq32f.i	aeq1, a6, 0
    11bc:	065814        	ae_subsq56s	aeq1, aeq1, aeq0
    11bf:	fbea41        	l32r	a4, 168 (2ccccd <_end+0x2bd72d>)
    11c2:	fd04e2044f 	{ ae_movpa24x2	aep0, a4, a4; ae_satq48s	aeq1, aeq1 }
    11c7:	d461b7016f 	{ ae_sp24x2s.i	aep0, a1, 48; ae_mularfq32sp24s.h	aeq0, aeq1, aep0 }
    11cc:	04d822        	addmi	a2, a8, 0x400
    11cf:	fc00f3e2fe 	{ l32i	a15, a2, 248; ae_satq48s	aeq0, aeq0 }
    11d4:	620304        	ae_sq32f.i	aeq0, a3, 0
    11d7:	552832        	l32i	a3, a8, 0x154
    11da:	286162        	s32i	a6, a1, 160
    11dd:	58a162        	movi	a6, 0x158
    11e0:	434f30        	min	a4, a15, a3
    11e3:	0a1832        	l16ui	a3, a8, 20
    11e6:	3e6242        	s32i	a4, a2, 248
    11e9:	872c           	movi.n	a7, 40
    11eb:	6173b6        	bltui	a3, 7, 1250 <Pitch_by_Corel+0x18c>
    11ee:	f8a432        	movi	a3, 0x4f8
    11f1:	686a           	add.n	a6, a8, a6
    11f3:	1e6142        	s32i	a4, a1, 120
    11f6:	068776        	loop	a7, 1200 <Pitch_by_Corel+0x13c>
    11f9:	0678           	l32i.n	a7, a6, 0
    11fb:	664b           	addi.n	a6, a6, 4
    11fd:	434740        	min	a4, a7, a4
    1200:	50a262        	movi	a6, 0x250
    1203:	1e6142        	s32i	a4, a1, 120
    1206:	78c192        	addi	a9, a1, 120
    1209:	58a1a2        	movi	a10, 0x158
    120c:	602834        	ae_lq32f.x	aeq0, a8, a3
    120f:	38aa           	add.n	a3, a8, a10
    1211:	604904        	ae_lq32f.i	aeq1, a9, 0
    1214:	60b684        	ae_lq32f.xu	aeq2, a6, a8
    1217:	fa5681f8cf 	{ movi	a12, 0x1f8; ae_subsq56s	aeq2, aeq2, aeq1 }
    121c:	fbd471        	l32r	a7, 16c (6ccccd <_end+0x6bd72d>)
    121f:	f3f630        	wur.ae_cbegin0	a3
    1222:	38ca           	add.n	a3, a8, a12
    1224:	05d8b2        	addmi	a11, a8, 0x500
    1227:	fe80e2077f 	{ ae_movpa24x2	aep0, a7, a7; ae_satq48s	aeq2, aeq2 }
    122c:	f3f730        	wur.ae_cend0	a3
    122f:	d660f01bee 	{ l32i	a14, a11, 4; ae_mularfq32sp24s.h	aeq1, aeq2, aep0 }
    1234:	4d0c           	movi.n	a13, 4
    1236:	fd04cfffff 	{ movi	a15, -1; ae_satq48s	aeq1, aeq1 }
    123b:	621604        	ae_sq32f.i	aeq1, a6, 0
    123e:	fc24f80edf 	{ ae_sq32f.c	aeq0, a14, a13; nop }
    1243:	4161f0        	srli	a6, a15, 1
    1246:	3e6262        	s32i	a6, a2, 248
    1249:	020c           	movi.n	a2, 0
    124b:	1be9           	s32i.n	a14, a11, 4
    124d:	000046        	j	1252 <Pitch_by_Corel+0x18e>

00001250 <Pitch_by_Corel+0x18c>:
    1250:	231b           	addi.n	a2, a3, 1
    1252:	50a232        	movi	a3, 0x250
    1255:	fbc6e1        	l32r	a14, 170 (59999a <_end+0x58a3fa>)
    1258:	607384        	ae_lq32f.xu	aeq1, a3, a8
    125b:	398ee4        	ae_movpa24x2	aep0, a14, a14
    125e:	0a5822        	s16i	a2, a8, 20
    1261:	f90102542f 	{ movi	a2, 0x254; ae_mulfq32sp24s.h	aeq2, aeq1, aep0 }
    1266:	603284        	ae_lq32f.xu	aeq0, a2, a8
    1269:	d6500000ff 	{ movi	a15, 0; ae_ltq56s	b0, aeq0, aeq2 }
    126e:	160c           	movi.n	a6, 1
    1270:	fbc171        	l32r	a7, 174 (733333 <_end+0x723d93>)
    1273:	d3f600        	movt	a15, a6, b0
    1276:	fbc061        	l32r	a6, 178 (70a3d7 <_end+0x6fae37>)
    1279:	78c142        	addi	a4, a1, 120
    127c:	1a6152        	s32i	a5, a1, 104
    127f:	5604b4        	ae_sp24x2s.i	aep0, a4, -40
    1282:	6f8c           	beqz.n	a15, 128c <Pitch_by_Corel+0x1c8>
    1284:	0368           	l32i.n	a6, a3, 0
    1286:	398774        	ae_movpa24x2	aep0, a7, a7
    1289:	0011c6        	j	12d4 <Pitch_by_Corel+0x210>

0000128c <Pitch_by_Corel+0x1c8>:
    128c:	398664        	ae_movpa24x2	aep0, a6, a6
    128f:	f90100004f 	{ movi	a4, 0; ae_mulfq32sp24s.h	aeq2, aeq1, aep0 }
    1294:	1f0c           	movi.n	a15, 1
    1296:	d65000018f 	{ movi	a8, 1; ae_ltq56s	b0, aeq0, aeq2 }
    129b:	fbb871        	l32r	a7, 17c (7e147b <_end+0x7d1edb>)
    129e:	398774        	ae_movpa24x2	aep0, a7, a7
    12a1:	d34f00        	movt	a4, a15, b0
    12a4:	348c           	beqz.n	a4, 12ab <Pitch_by_Corel+0x1e7>
    12a6:	0368           	l32i.n	a6, a3, 0
    12a8:	000a06        	j	12d4 <Pitch_by_Corel+0x210>

000012ab <Pitch_by_Corel+0x1e7>:
    12ab:	0138c0        	slli	a3, a8, 20
    12ae:	398334        	ae_movpa24x2	aep0, a3, a3
    12b1:	080a54        	ae_mularfq32sp24s.h	aeq1, aeq1, aep0
    12b4:	01d1f2        	addmi	a15, a1, 0x100
    12b7:	fd04c80f3e 	{ addi	a3, a15, -128; ae_satq48s	aeq1, aeq1 }
    12bc:	621304        	ae_sq32f.i	aeq1, a3, 0
    12bf:	202162        	l32i	a6, a1, 128
    12c2:	fbae31        	l32r	a3, 17c (7e147b <_end+0x7d1edb>)
    12c5:	398334        	ae_movpa24x2	aep0, a3, a3
    12c8:	022657        	blt	a6, a5, 12ce <Pitch_by_Corel+0x20a>
    12cb:	022846        	j	1b70 <Pitch_by_Corel+0xaac>
    12ce:	fbac31        	l32r	a3, 180 (7fbe77 <_end+0x7ec8d7>)
    12d1:	398334        	ae_movpa24x2	aep0, a3, a3
    12d4:	1a6162        	s32i	a6, a1, 104
    12d7:	68c132        	addi	a3, a1, 104
    12da:	604304        	ae_lq32f.i	aeq1, a3, 0
    12dd:	f84680ff4f 	{ movi	a4, 255; ae_subsq56s	aeq0, aeq0, aeq1 }
    12e2:	fc00c001ef 	{ movi	a14, 1; ae_satq48s	aeq0, aeq0 }
    12e7:	080a24        	ae_mulafq32sp24s.h	aeq1, aeq0, aep0
    12ea:	2a6162        	s32i	a6, a1, 168
    12ed:	060944        	ae_satq48s	aeq0, aeq1
    12f0:	064834        	ae_roundsq32sym	aeq1, aeq0
    12f3:	621204        	ae_sq32f.i	aeq1, a2, 0
    12f6:	02f8           	l32i.n	a15, a2, 0
    12f8:	116e20        	slli	a6, a14, 14
    12fb:	3fd442        	addmi	a4, a4, 0x3f00
    12fe:	364634        	ae_cvtq48a32s	aeq1, a6
    1301:	0124f7        	blt	a4, a15, 1306 <Pitch_by_Corel+0x242>
    1304:	0269           	s32i.n	a6, a2, 0
    1306:	fb7121        	l32r	a2, cc (f59c <p_ecnr_mem>)
    1309:	f86701148f 	{ movi	a8, 0x114; ae_maxq56s	aeq0, aeq1, aeq0 }
    130e:	9ca0d2        	movi	a13, 156
    1311:	0248           	l32i.n	a4, a2, 0
    1313:	eca0e2        	movi	a14, 236
    1316:	0b0c           	movi.n	a11, 0
    1318:	2cd432        	addmi	a3, a4, 0x2c00
    131b:	1f2362        	l32i	a6, a3, 124
    131e:	7c2c           	movi.n	a12, 39
    1320:	1b6152        	s32i	a5, a1, 108
    1323:	f68a           	add.n	a15, a6, a8
    1325:	fb9781        	l32r	a8, 184 (d6e8 <xt_memset>)
    1328:	06ad           	mov.n	a10, a6
    132a:	56da           	add.n	a5, a6, a13
    132c:	76ea           	add.n	a7, a6, a14
    132e:	630144        	ae_sq56s.i	aeq0, a1, 32
    1331:	2461f2        	s32i	a15, a1, 144
    1334:	020c           	movi.n	a2, 0
    1336:	732c           	movi.n	a3, 39
    1338:	0008e0        	callx8	a8
    133b:	226152        	s32i	a5, a1, 136
    133e:	05ad           	mov.n	a10, a5
    1340:	fb9151        	l32r	a5, 184 (d6e8 <xt_memset>)
    1343:	0b0c           	movi.n	a11, 0
    1345:	8c2c           	movi.n	a12, 40
    1347:	0005e0        	callx8	a5
    134a:	0b0c           	movi.n	a11, 0
    134c:	4c1c           	movi.n	a12, 20
    134e:	07ad           	mov.n	a10, a7
    1350:	a179           	s32i.n	a7, a1, 40
    1352:	0005e0        	callx8	a5
    1355:	2421a2        	l32i	a10, a1, 144
    1358:	0b0c           	movi.n	a11, 0
    135a:	4c1c           	movi.n	a12, 20
    135c:	0005e0        	callx8	a5
    135f:	fb8c71        	l32r	a7, 190 (98ec <two_mic_WB_NR_NSN_proc+0xd7c>)
    1362:	6cc1b2        	addi	a11, a1, 108
    1365:	fb8951        	l32r	a5, 18c (147ae1 <_end+0x138541>)
    1368:	398554        	ae_movpa24x2	aep0, a5, a5
    136b:	60cb04        	ae_lq32f.i	aeq3, a11, 0
    136e:	fb017bb47f 	{ ae_lq32f.x	aeq1, a4, a7; ae_mulfq32sp24s.h	aeq3, aeq3, aep0 }
    1373:	190c           	movi.n	a9, 1
    1375:	5da2a2        	movi	a10, 0x25d
    1378:	3499b4        	ae_sraaq56	aeq2, aeq1, a9
    137b:	fb83d1        	l32r	a13, 188 (9744 <two_mic_WB_NR_NSN_proc+0xbd4>)
    137e:	01d1c2        	addmi	a12, a1, 0x100
    1381:	f9ea4accce 	{ addi	a12, a12, -84; ae_addsq56s	aeq1, aeq1, aeq2 }
    1386:	11aaa0        	slli	a10, a10, 6
    1389:	f9ef3ec23f 	{ ae_cvtq48a32s	aeq0, a2; ae_maxq56s	aeq1, aeq3, aeq1 }
    138e:	f4aa           	add.n	a15, a4, a10
    1390:	630134        	ae_sq56s.i	aeq0, a1, 24
    1393:	150c           	movi.n	a5, 1
    1395:	580c           	movi.n	a8, 5
    1397:	070c           	movi.n	a7, 0
    1399:	94da           	add.n	a9, a4, a13
    139b:	2961b2        	s32i	a11, a1, 164
    139e:	006f22        	s32i	a2, a15, 0
    13a1:	1261c2        	s32i	a12, a1, 72
    13a4:	621c04        	ae_sq32f.i	aeq1, a12, 0
    13a7:	609914        	ae_lq32f.iu	aeq2, a9, 4
    13aa:	d6540000af 	{ movi	a10, 0; ae_ltq56s	b0, aeq1, aeq2 }
    13af:	01c222        	addi	a2, a2, 1
    13b2:	61c134        	ae_lq56.i	aeq3, a1, 24
    13b5:	d3a500        	movt	a10, a5, b0
    13b8:	da9c           	beqz.n	a10, 13d9 <Pitch_by_Corel+0x315>
    13ba:	f4c9a2        	addi	a10, a9, -12
    13bd:	058876        	loop	a8, 13c6 <Pitch_by_Corel+0x302>
    13c0:	601a14        	ae_lq32f.iu	aeq0, a10, 4
    13c3:	01f0c4        	ae_maxq56s	aeq3, aeq0, aeq3

000013c6 <Pitch_by_Corel+0x302>:
    13c6:	d4d80000af 	{ movi	a10, 0; ae_eqq56	b0, aeq2, aeq3 }
    13cb:	87bd           	ae_sext16	a11, a7
    13cd:	90cb60        	addx2	a12, a11, a6
    13d0:	d3a500        	movt	a10, a5, b0
    13d3:	2a8c           	beqz.n	a10, 13d9 <Pitch_by_Corel+0x315>
    13d5:	771b           	addi.n	a7, a7, 1
    13d7:	6c2d           	ae_s16i.n	a2, a12, 0

000013d9 <Pitch_by_Corel+0x315>:
    13d9:	ca9237        	bne	a2, a3, 13a7 <Pitch_by_Corel+0x2e3>
    13dc:	270b           	addi.n	a2, a7, -1
    13de:	70c1c2        	addi	a12, a1, 112
    13e1:	823d           	ae_sext16	a3, a2
    13e3:	10c172        	addi	a7, a1, 16
    13e6:	0a5122        	s16i	a2, a1, 20
    13e9:	2661c2        	s32i	a12, a1, 152
    13ec:	0213e6        	bgei	a3, 1, 13f2 <Pitch_by_Corel+0x32e>
    13ef:	003686        	j	14cd <Pitch_by_Corel+0x409>
    13f2:	120c           	movi.n	a2, 1
    13f4:	950c           	movi.n	a5, 9
    13f6:	112210        	slli	a2, a2, 15
    13f9:	115580        	slli	a5, a5, 8
    13fc:	fb66d1        	l32r	a13, 194 (9722 <two_mic_WB_NR_NSN_proc+0xbb2>)
    13ff:	368234        	ae_cvtq48a32s	aeq2, a2
    1402:	864b           	addi.n	a8, a6, 4
    1404:	398554        	ae_movpa24x2	aep0, a5, a5
    1407:	256182        	s32i	a8, a1, 148
    140a:	090c           	movi.n	a9, 0
    140c:	020c           	movi.n	a2, 0
    140e:	560174        	ae_sp24x2s.i	aep0, a1, 56
    1411:	632134        	ae_sq56s.i	aeq2, a1, 24
    1414:	001486        	j	146a <Pitch_by_Corel+0x3a6>

00001417 <Pitch_by_Corel+0x353>:
    1417:	9c0c           	movi.n	a12, 9
    1419:	afea           	add.n	a10, a15, a14
    141b:	fb5f81        	l32r	a8, 198 (2388 <Xfrac_num_pd_td32>)
    141e:	236122        	s32i	a2, a1, 140
    1421:	062d           	mov.n	a2, a6
    1423:	076d           	mov.n	a6, a7
    1425:	047d           	mov.n	a7, a4
    1427:	0d4d           	mov.n	a4, a13
    1429:	0008e0        	callx8	a8
    142c:	04dd           	mov.n	a13, a4
    142e:	074d           	mov.n	a4, a7
    1430:	067d           	mov.n	a7, a6
    1432:	026d           	mov.n	a6, a2
    1434:	232122        	l32i	a2, a1, 140
    1437:	2621c2        	l32i	a12, a1, 152
    143a:	618134        	ae_lq56.i	aeq2, a1, 24
    143d:	1c61a2        	s32i	a10, a1, 112
    1440:	600c04        	ae_lq32f.i	aeq0, a12, 0
    1443:	f8e3b2219e 	{ l32i	a9, a1, 136; ae_roundsp16q48sym	aep0, aeq0 }
    1448:	420704        	ae_sp16f.l.i	aep0, a7, 0
    144b:	0891b2        	l16si	a11, a1, 16
    144e:	828d           	ae_sext16	a8, a2
    1450:	a09890        	addx4	a9, a8, a9
    1453:	a1e8           	l32i.n	a14, a1, 40
    1455:	09a9           	s32i.n	a10, a9, 0
    1457:	a09b40        	addx4	a9, a11, a4
    145a:	99da           	add.n	a9, a9, a13
    145c:	49fd           	ae_l16ui.n	a15, a9, 0
    145e:	9088e0        	addx2	a8, a8, a14
    1461:	221b           	addi.n	a2, a2, 1
    1463:	059d           	mov.n	a9, a5
    1465:	68fd           	ae_s16i.n	a15, a8, 0
    1467:	66a537        	bge	a5, a3, 14d1 <Pitch_by_Corel+0x40d>
    146a:	591b           	addi.n	a5, a9, 1
    146c:	fc1451896f 	{ addx2	a8, a9, a6; ae_movq56	aeq0, aeq2 }
    1471:	90a560        	addx2	a10, a5, a6
    1474:	28bd           	ae_l16si.n	a11, a8, 0
    1476:	2a8d           	ae_l16si.n	a8, a10, 0
    1478:	fb44e1        	l32r	a14, 188 (9744 <two_mic_WB_NR_NSN_proc+0xbd4>)
    147b:	a0fb40        	addx4	a15, a11, a4
    147e:	c0a8b0        	sub	a10, a8, a11
    1481:	921a66        	bnei	a10, 1, 1417 <Pitch_by_Corel+0x353>
    1484:	28a537        	bge	a5, a3, 14b0 <Pitch_by_Corel+0x3ec>
    1487:	fc147251ae 	{ l32i	a10, a1, 148; ae_movq56	aeq0, aeq2 }
    148c:	c0b350        	sub	a11, a3, a5
    148f:	08ed           	mov.n	a14, a8
    1491:	9099a0        	addx2	a9, a9, a10
    1494:	05ad           	mov.n	a10, a5
    1496:	168b76        	loop	a11, 14b0 <Pitch_by_Corel+0x3ec>
    1499:	298d           	ae_l16si.n	a8, a9, 0
    149b:	8e5d           	ae_sext16	a5, a14
    149d:	992b           	addi.n	a9, a9, 2
    149f:	c0b850        	sub	a11, a8, a5
    14a2:	0a5d           	mov.n	a5, a10
    14a4:	081b66        	bnei	a11, 1, 14b0 <Pitch_by_Corel+0x3ec>
    14a7:	f8e2401aae 	{ addi	a10, a10, 1; ae_addsq56s	aeq0, aeq0, aeq2 }
    14ac:	035d           	mov.n	a5, a3
    14ae:	08ed           	mov.n	a14, a8

000014b0 <Pitch_by_Corel+0x3ec>:
    14b0:	908560        	addx2	a8, a5, a6
    14b3:	400804        	ae_lp16f.i	aep0, a8, 0
    14b6:	541174        	ae_lp24x2.i	aep1, a1, 56
    14b9:	d82100155e 	{ addi	a5, a5, 1; ae_addsp24s	aep0, aep0, aep1 }
    14be:	0a4884        	ae_cvtq48p24s.h	aeq1, aep0
    14c1:	061814        	ae_subsq56s	aeq0, aeq1, aeq0
    14c4:	620c04        	ae_sq32f.i	aeq0, a12, 0
    14c7:	1c21a2        	l32i	a10, a1, 112
    14ca:	ffdc86        	j	1440 <Pitch_by_Corel+0x37c>

000014cd <Pitch_by_Corel+0x409>:
    14cd:	020c           	movi.n	a2, 0
    14cf:	050c           	movi.n	a5, 0
    14d1:	419537        	bne	a5, a3, 1516 <Pitch_by_Corel+0x452>
    14d4:	903360        	addx2	a3, a3, a6
    14d7:	fb2cf1        	l32r	a15, 188 (9744 <two_mic_WB_NR_NSN_proc+0xbd4>)
    14da:	23bd           	ae_l16si.n	a11, a3, 0
    14dc:	fb2f51        	l32r	a5, 198 (2388 <Xfrac_num_pd_td32>)
    14df:	34fa           	add.n	a3, a4, a15
    14e1:	a0ab30        	addx4	a10, a11, a3
    14e4:	9c0c           	movi.n	a12, 9
    14e6:	0005e0        	callx8	a5
    14e9:	262182        	l32i	a8, a1, 152
    14ec:	1c61a2        	s32i	a10, a1, 112
    14ef:	222162        	l32i	a6, a1, 136
    14f2:	600804        	ae_lq32f.i	aeq0, a8, 0
    14f5:	f8e3b0a1fe 	{ l32i	a15, a1, 40; ae_roundsp16q48sym	aep0, aeq0 }
    14fa:	420704        	ae_sp16f.l.i	aep0, a7, 0
    14fd:	089172        	l16si	a7, a1, 16
    1500:	825d           	ae_sext16	a5, a2
    1502:	a06560        	addx4	a6, a5, a6
    1505:	a03730        	addx4	a3, a7, a3
    1508:	06a9           	s32i.n	a10, a6, 0
    150a:	dec332        	addi	a3, a3, -34
    150d:	9055f0        	addx2	a5, a5, a15
    1510:	433d           	ae_l16ui.n	a3, a3, 0
    1512:	221b           	addi.n	a2, a2, 1
    1514:	653d           	ae_s16i.n	a3, a5, 0
    1516:	fb2151        	l32r	a5, 19c (9bb0 <two_mic_SWB_NR_proc+0x1e0>)
    1519:	f67c           	movi.n	a6, -1
    151b:	82bd           	ae_sext16	a11, a2
    151d:	0166f0        	slli	a6, a6, 17
    1520:	74c132        	addi	a3, a1, 116
    1523:	021be6        	bgei	a11, 1, 1529 <Pitch_by_Corel+0x465>
    1526:	007206        	j	16f2 <Pitch_by_Corel+0x62e>
    1529:	242172        	l32i	a7, a1, 144
    152c:	160c           	movi.n	a6, 1
    152e:	038b76        	loop	a11, 1535 <Pitch_by_Corel+0x471>
    1531:	676d           	ae_s16i.n	a6, a7, 0
    1533:	772b           	addi.n	a7, a7, 2

00001535 <Pitch_by_Corel+0x471>:
    1535:	645a           	add.n	a6, a4, a5
    1537:	265d           	ae_l16si.n	a5, a6, 0
    1539:	170c           	movi.n	a7, 1
    153b:	117700        	slli	a7, a7, 16
    153e:	2761b2        	s32i	a11, a1, 156
    1541:	0215e6        	bgei	a5, 1, 1547 <Pitch_by_Corel+0x483>
    1544:	006d06        	j	16fc <Pitch_by_Corel+0x638>
    1547:	3f0c           	movi.n	a15, 3
    1549:	fb1c91        	l32r	a9, 1bc (9c04 <two_mic_SWB_NR_proc+0x234>)
    154c:	01ffb0        	slli	a15, a15, 21
    154f:	2721a2        	l32i	a10, a1, 156
    1552:	fb19e1        	l32r	a14, 1b8 (5ccccd <_end+0x5bd72d>)
    1555:	39eff4        	ae_movpa24x2	aep6, a15, a15
    1558:	78c1f2        	addi	a15, a1, 120
    155b:	f80c           	movi.n	a8, 15
    155d:	39dee4        	ae_movpa24x2	aep5, a14, a14
    1560:	566f94        	ae_sp24x2s.i	aep6, a15, -56
    1563:	2221e2        	l32i	a14, a1, 136
    1566:	2421f2        	l32i	a15, a1, 144
    1569:	360734        	ae_cvtq48a32s	aeq0, a7
    156c:	118810        	slli	a8, a8, 15
    156f:	fb0e71        	l32r	a7, 1a8 (466666 <_end+0x4570c6>)
    1572:	fb0eb1        	l32r	a11, 1ac (533333 <_end+0x523d93>)
    1575:	fb0ec1        	l32r	a12, 1b0 (5851ec <_end+0x575c4c>)
    1578:	fb0fd1        	l32r	a13, 1b4 (5ae148 <_end+0x59eba8>)
    157b:	949a           	add.n	a9, a4, a9
    157d:	399774        	ae_movpa24x2	aep1, a7, a7
    1580:	39cdd4        	ae_movpa24x2	aep4, a13, a13
    1583:	955d           	ae_zext16	a5, a5
    1585:	630134        	ae_sq56s.i	aeq0, a1, 24
    1588:	236192        	s32i	a9, a1, 140
    158b:	398884        	ae_movpa24x2	aep0, a8, a8
    158e:	aa0b           	addi.n	a10, a10, -1
    1590:	070c           	movi.n	a7, 0
    1592:	39abb4        	ae_movpa24x2	aep2, a11, a11
    1595:	39bcc4        	ae_movpa24x2	aep3, a12, a12
    1598:	1d0c           	movi.n	a13, 1

0000159a <Pitch_by_Corel+0x4d6>:
    159a:	600e04        	ae_lq32f.i	aeq0, a14, 0
    159d:	d4620ff5be 	{ addi	a11, a5, -1; ae_mulfq32sp16s.h	aeq0, aeq0, aep0 }
    15a2:	0e58           	l32i.n	a5, a14, 0
    15a4:	614134        	ae_lq56.i	aeq1, a1, 24
    15a7:	f86b32318e 	{ l32i	a8, a1, 140; ae_maxq56s	aeq0, aeq0, aeq1 }
    15ac:	29a7b7        	bge	a7, a11, 15d9 <Pitch_by_Corel+0x515>
    15af:	fd10959b7f 	{ sub	a9, a11, a7; ae_negq56	aeq1, aeq0 }
    15b4:	07cd           	mov.n	a12, a7
    15b6:	a08780        	addx4	a8, a7, a8
    15b9:	1c8976        	loop	a9, 15d9 <Pitch_by_Corel+0x515>
    15bc:	0878           	l32i.n	a7, a8, 0
    15be:	090c           	movi.n	a9, 0
    15c0:	884b           	addi.n	a8, a8, 4
    15c2:	c07750        	sub	a7, a7, a5
    15c5:	1d6172        	s32i	a7, a1, 116
    15c8:	608304        	ae_lq32f.i	aeq2, a3, 0
    15cb:	d654137ccf 	{ or	a7, a12, a12; ae_ltq56s	b0, aeq1, aeq2 }
    15d0:	cc1b           	addi.n	a12, a12, 1
    15d2:	d39d00        	movt	a9, a13, b0
    15d5:	09cc           	bnez.n	a9, 15d9 <Pitch_by_Corel+0x515>
    15d7:	0b7d           	mov.n	a7, a11

000015d9 <Pitch_by_Corel+0x515>:
    15d9:	faf891        	l32r	a9, 1bc (9c04 <two_mic_SWB_NR_proc+0x234>)
    15dc:	a08740        	addx4	a8, a7, a4
    15df:	0c0c           	movi.n	a12, 0
    15e1:	889a           	add.n	a8, a8, a9
    15e3:	0888           	l32i.n	a8, a8, 0
    15e5:	c05850        	sub	a5, a8, a5
    15e8:	605150        	abs	a5, a5
    15eb:	1d6152        	s32i	a5, a1, 116
    15ee:	604304        	ae_lq32f.i	aeq1, a3, 0
    15f1:	d54411574f 	{ addx2	a5, a7, a4; ae_leq56s	b0, aeq1, aeq0 }
    15f6:	faf281        	l32r	a8, 1c0 (96a8 <two_mic_WB_NR_NSN_proc+0xb38>)
    15f9:	faf2b1        	l32r	a11, 1c4 (9bda <two_mic_SWB_NR_proc+0x20a>)
    15fc:	d3cd00        	movt	a12, a13, b0
    15ff:	04ac16        	beqz	a12, 164d <Pitch_by_Corel+0x589>
    1602:	417484        	ae_lp16f.x	aep7, a4, a8
    1605:	4165b4        	ae_lp16f.x	aep6, a5, a11
    1608:	e9dc8d8fce 	{ addi	a12, a15, -40; ae_mulfp24s.hh	aeq2, aep7, aep6 }
    160d:	407c04        	ae_lp16f.i	aep7, a12, 0
    1610:	ffe430616f 	{ ae_lp24x2.i	aep6, a1, 48; ae_cvtq48p24s.h	aeq3, aep7 }
    1615:	fbf7fa017f 	{ ae_sq56s.i	aeq0, a1, 56; ae_roundsp24q48sym	aep7, aeq2 }
    161a:	e8f8bb309f 	{ ae_sraiq56	aeq2, aeq3, 1; ae_mulfp24s.hh	aeq0, aep6, aep7 }
    161f:	e9e4c0009f 	{ movi	a9, 0; ae_mulfp24s.hh	aeq3, aep1, aep7 }
    1624:	d6c000018f 	{ movi	a8, 1; ae_ltq56s	b0, aeq2, aeq0 }
    1629:	d6d84000bf 	{ movi	a11, 0; ae_ltq56s	b1, aeq2, aeq3 }
    162e:	01bf44        	ae_mulfp24s.hh	aeq3, aep3, aep7
    1631:	e8e8969d0f 	{ movt	a9, a13, b0; ae_mulfp24s.hh	aeq0, aep2, aep7 }
    1636:	066956        	bnez	a9, 16a0 <Pitch_by_Corel+0x5dc>
    1639:	d6c016bd1f 	{ movt	a11, a13, b1; ae_ltq56s	b0, aeq2, aeq0 }
    163e:	5b9c           	beqz.n	a11, 1657 <Pitch_by_Corel+0x593>
    1640:	fad881        	l32r	a8, 1a0 (9bb2 <two_mic_SWB_NR_proc+0x1e2>)
    1643:	558a           	add.n	a5, a5, a8
    1645:	255d           	ae_l16si.n	a5, a5, 0
    1647:	fbc552        	addi	a5, a5, -5
    164a:	001346        	j	169b <Pitch_by_Corel+0x5d7>

0000164d <Pitch_by_Corel+0x589>:
    164d:	150c           	movi.n	a5, 1
    164f:	6f5d           	ae_s16i.n	a5, a15, 0
    1651:	059a56        	bnez	a10, 16ae <Pitch_by_Corel+0x5ea>
    1654:	002a86        	j	1702 <Pitch_by_Corel+0x63e>

00001657 <Pitch_by_Corel+0x593>:
    1657:	d6d840008f 	{ movi	a8, 0; ae_ltq56s	b1, aeq2, aeq3 }
    165c:	e8f0968d0f 	{ movt	a8, a13, b0; ae_mulfp24s.hh	aeq0, aep4, aep7 }
    1661:	b88c           	beqz.n	a8, 1670 <Pitch_by_Corel+0x5ac>
    1663:	facf81        	l32r	a8, 1a0 (9bb2 <two_mic_SWB_NR_proc+0x1e2>)
    1666:	558a           	add.n	a5, a5, a8
    1668:	255d           	ae_l16si.n	a5, a5, 0
    166a:	fcc552        	addi	a5, a5, -4
    166d:	000a86        	j	169b <Pitch_by_Corel+0x5d7>

00001670 <Pitch_by_Corel+0x5ac>:
    1670:	d6c000008f 	{ movi	a8, 0; ae_ltq56s	b0, aeq2, aeq0 }
    1675:	e8f4968d1f 	{ movt	a8, a13, b1; ae_mulfp24s.hh	aeq0, aep5, aep7 }
    167a:	b88c           	beqz.n	a8, 1689 <Pitch_by_Corel+0x5c5>
    167c:	fac981        	l32r	a8, 1a0 (9bb2 <two_mic_SWB_NR_proc+0x1e2>)
    167f:	558a           	add.n	a5, a5, a8
    1681:	255d           	ae_l16si.n	a5, a5, 0
    1683:	fec552        	addi	a5, a5, -2
    1686:	000446        	j	169b <Pitch_by_Corel+0x5d7>

00001689 <Pitch_by_Corel+0x5c5>:
    1689:	080c           	movi.n	a8, 0
    168b:	d6c0568d0f 	{ movt	a8, a13, b0; ae_ltq56s	b1, aeq2, aeq0 }
    1690:	58ac           	beqz.n	a8, 16b9 <Pitch_by_Corel+0x5f5>
    1692:	fac381        	l32r	a8, 1a0 (9bb2 <two_mic_SWB_NR_proc+0x1e2>)
    1695:	558a           	add.n	a5, a5, a8
    1697:	255d           	ae_l16si.n	a5, a5, 0
    1699:	550b           	addi.n	a5, a5, -1
    169b:	180c           	movi.n	a8, 1
    169d:	538580        	max	a8, a5, a8
    16a0:	6f8d           	ae_s16i.n	a8, a15, 0
    16a2:	265d           	ae_l16si.n	a5, a6, 0
    16a4:	550b           	addi.n	a5, a5, -1
    16a6:	725750        	salt	a5, a7, a5
    16a9:	775a           	add.n	a7, a7, a5
    16ab:	053a16        	beqz	a10, 1702 <Pitch_by_Corel+0x63e>
    16ae:	265d           	ae_l16si.n	a5, a6, 0
    16b0:	ff2b           	addi.n	a15, a15, 2
    16b2:	aa0b           	addi.n	a10, a10, -1
    16b4:	ee4b           	addi.n	a14, a14, 4
    16b6:	ffb806        	j	159a <Pitch_by_Corel+0x4d6>

000016b9 <Pitch_by_Corel+0x5f5>:
    16b9:	080c           	movi.n	a8, 0
    16bb:	d38d10        	movt	a8, a13, b1
    16be:	888c           	beqz.n	a8, 16ca <Pitch_by_Corel+0x606>
    16c0:	fab881        	l32r	a8, 1a0 (9bb2 <two_mic_SWB_NR_proc+0x1e2>)
    16c3:	558a           	add.n	a5, a5, a8
    16c5:	458d           	ae_l16ui.n	a8, a5, 0
    16c7:	fff546        	j	16a0 <Pitch_by_Corel+0x5dc>

000016ca <Pitch_by_Corel+0x606>:
    16ca:	78c1b2        	addi	a11, a1, 120
    16cd:	546b94        	ae_lp24x2.i	aep6, a11, -56
    16d0:	610174        	ae_lq56.i	aeq0, a1, 56
    16d3:	f81800008f 	{ movi	a8, 0; ae_mulfq32sp24s.h	aeq0, aeq0, aep6 }
    16d8:	fab291        	l32r	a9, 1a0 (9bb2 <two_mic_SWB_NR_proc+0x1e2>)
    16db:	d5440010cf 	{ movi	a12, 16; ae_leq56s	b0, aeq1, aeq0 }
    16e0:	559a           	add.n	a5, a5, a9
    16e2:	255d           	ae_l16si.n	a5, a5, 0
    16e4:	d38d00        	movt	a8, a13, b0
    16e7:	fae816        	beqz	a8, 1699 <Pitch_by_Corel+0x5d5>
    16ea:	551b           	addi.n	a5, a5, 1
    16ec:	4385c0        	min	a8, a5, a12
    16ef:	ffeb46        	j	16a0 <Pitch_by_Corel+0x5dc>

000016f2 <Pitch_by_Corel+0x62e>:
    16f2:	545a           	add.n	a5, a4, a5
    16f4:	360634        	ae_cvtq48a32s	aeq0, a6
    16f7:	652d           	ae_s16i.n	a2, a5, 0
    16f9:	003a86        	j	17e7 <Pitch_by_Corel+0x723>

000016fc <Pitch_by_Corel+0x638>:
    16fc:	360734        	ae_cvtq48a32s	aeq0, a7
    16ff:	630134        	ae_sq56s.i	aeq0, a1, 24
    1702:	faa751        	l32r	a5, 1a0 (9bb2 <two_mic_SWB_NR_proc+0x1e2>)
    1705:	2421b2        	l32i	a11, a1, 144
    1708:	fa9481        	l32r	a8, 158 (d6fc <xt_memcpy>)
    170b:	745a           	add.n	a7, a4, a5
    170d:	272152        	l32i	a5, a1, 156
    1710:	07ad           	mov.n	a10, a7
    1712:	05cd           	mov.n	a12, a5
    1714:	0008e0        	callx8	a8
    1717:	8fa382        	movi	a8, 0x38f
    171a:	1221a2        	l32i	a10, a1, 72
    171d:	390c           	movi.n	a9, 3
    171f:	7fd882        	addmi	a8, a8, 0x7f00
    1722:	36c834        	ae_cvtq48a32s	aeq3, a8
    1725:	fc7c           	movi.n	a12, -1
    1727:	119900        	slli	a9, a9, 16
    172a:	662d           	ae_s16i.n	a2, a6, 0
    172c:	012cf0        	slli	a2, a12, 17
    172f:	604a04        	ae_lq32f.i	aeq1, a10, 0
    1732:	1a0c           	movi.n	a10, 1
    1734:	a1f8           	l32i.n	a15, a1, 40
    1736:	633174        	ae_sq56s.i	aeq3, a1, 56
    1739:	78c1c2        	addi	a12, a1, 120
    173c:	36c934        	ae_cvtq48a32s	aeq3, a9
    173f:	fa99e1        	l32r	a14, 1a4 (c148 <xtensa_fft_pass_32b+0x180>)
    1742:	633cd4        	ae_sq56s.i	aeq3, a12, -24
    1745:	35d074        	ae_sraiq56	aeq3, aeq1, 1
    1748:	1d0c           	movi.n	a13, 1
    174a:	01aaf0        	slli	a10, a10, 17
    174d:	05bd           	mov.n	a11, a5
    174f:	360234        	ae_cvtq48a32s	aeq0, a2
    1752:	112d20        	slli	a2, a13, 14
    1755:	368e34        	ae_cvtq48a32s	aeq2, a14
    1758:	633ca4        	ae_sq56s.i	aeq3, a12, -48
    175b:	36ca34        	ae_cvtq48a32s	aeq3, a10
    175e:	300224        	ae_cvtp24a16x2.ll	aep0, a2, a2
    1761:	920c           	movi.n	a2, 9
    1763:	51cb           	addi.n	a5, a1, 12
    1765:	632c94        	ae_sq56s.i	aeq2, a12, -56
    1768:	fecf62        	addi	a6, a15, -2
    176b:	01a082        	movi	a8, 1
    176e:	633cc4        	ae_sq56s.i	aeq3, a12, -32
    1771:	728b76        	loop	a11, 17e7 <Pitch_by_Corel+0x723>
    1774:	279d           	ae_l16si.n	a9, a7, 0
    1776:	409614        	ae_lp16f.iu	aep1, a6, 2
    1779:	fe240000af 	{ movi	a10, 0; ae_cvtq48p24s.h	aeq2, aep1 }
    177e:	1a39a6        	blti	a9, 3, 179c <Pitch_by_Corel+0x6d8>
    1781:	392927        	blt	a9, a2, 17be <Pitch_by_Corel+0x6fa>
    1784:	36d094        	ae_sllisq56s	aeq3, aeq1, 2
    1787:	fb5e80009f 	{ movi	a9, 0; ae_subsq56s	aeq3, aeq3, aeq1 }
    178c:	d6d40781ae 	{ addi	a10, a1, 120; ae_ltq56s	b0, aeq3, aeq2 }
    1791:	d39800        	movt	a9, a8, b0
    1794:	99ac           	beqz.n	a9, 17c1 <Pitch_by_Corel+0x6fd>
    1796:	618ad4        	ae_lq56.i	aeq2, a10, -24
    1799:	001086        	j	17df <Pitch_by_Corel+0x71b>

0000179c <Pitch_by_Corel+0x6d8>:
    179c:	151966        	bnei	a9, 1, 17b5 <Pitch_by_Corel+0x6f1>
    179f:	36d054        	ae_sllisq56s	aeq3, aeq1, 1
    17a2:	f503c7819e 	{ addi	a9, a1, 120; ae_mulafq32sp16s.h	aeq3, aeq1, aep0 }
    17a7:	09b204        	ae_ltq56s	b0, aeq2, aeq3
    17aa:	d3a800        	movt	a10, a8, b0
    17ad:	4a8c           	beqz.n	a10, 17b5 <Pitch_by_Corel+0x6f1>
    17af:	618994        	ae_lq56.i	aeq2, a9, -56
    17b2:	000086        	j	17b8 <Pitch_by_Corel+0x6f4>

000017b5 <Pitch_by_Corel+0x6f1>:
    17b5:	618174        	ae_lq56.i	aeq2, a1, 56
    17b8:	060a14        	ae_subsq56s	aeq0, aeq0, aeq2
    17bb:	0008c6        	j	17e2 <Pitch_by_Corel+0x71e>

000017be <Pitch_by_Corel+0x6fa>:
    17be:	1a69a6        	blti	a9, 6, 17dc <Pitch_by_Corel+0x718>
    17c1:	78c1d2        	addi	a13, a1, 120
    17c4:	61cda4        	ae_lq56.i	aeq3, a13, -48
    17c7:	fb7e40009f 	{ movi	a9, 0; ae_addsq56s	aeq3, aeq3, aeq1 }
    17cc:	d6d40781fe 	{ addi	a15, a1, 120; ae_ltq56s	b0, aeq3, aeq2 }
    17d1:	d39800        	movt	a9, a8, b0
    17d4:	498c           	beqz.n	a9, 17dc <Pitch_by_Corel+0x718>
    17d6:	618fc4        	ae_lq56.i	aeq2, a15, -32
    17d9:	000086        	j	17df <Pitch_by_Corel+0x71b>

000017dc <Pitch_by_Corel+0x718>:
    17dc:	618134        	ae_lq56.i	aeq2, a1, 24
    17df:	060a04        	ae_addsq56s	aeq0, aeq0, aeq2
    17e2:	772b           	addi.n	a7, a7, 2
    17e4:	620504        	ae_sq32f.i	aeq0, a5, 0

000017e7 <Pitch_by_Corel+0x723>:
    17e7:	fa4061        	l32r	a6, e8 (9c5c <two_mic_SWB_NR_proc+0x28c>)
    17ea:	f8e381412e 	{ addi	a2, a1, 20; ae_roundsp16q48sym	aep0, aeq0 }
    17ef:	420204        	ae_sp16f.l.i	aep0, a2, 0
    17f2:	0a9122        	l16si	a2, a1, 20
    17f5:	646a           	add.n	a6, a4, a6
    17f7:	850c           	movi.n	a5, 8
    17f9:	06a8           	l32i.n	a10, a6, 0
    17fb:	877c           	movi.n	a7, -8
    17fd:	432250        	min	a2, a2, a5
    1800:	532270        	max	a2, a2, a7
    1803:	22aa           	add.n	a2, a2, a10
    1805:	0c1c           	movi.n	a12, 16
    1807:	4352c0        	min	a5, a2, a12
    180a:	020c           	movi.n	a2, 0
    180c:	fa6cd1        	l32r	a13, 1bc (9c04 <two_mic_SWB_NR_proc+0x234>)
    180f:	fa6ee1        	l32r	a14, 1c8 (7ffffffe <_end+0x7fff0a5e>)
    1812:	535520        	max	a5, a5, a2
    1815:	0659           	s32i.n	a5, a6, 0
    1817:	11fbf0        	slli	a15, a11, 1
    181a:	0b5d           	mov.n	a5, a11
    181c:	2221b2        	l32i	a11, a1, 136
    181f:	fa4e61        	l32r	a6, 158 (d6fc <xt_memcpy>)
    1822:	a4da           	add.n	a10, a4, a13
    1824:	10cfe0        	and	a12, a15, a14
    1827:	0006e0        	callx8	a6
    182a:	fa6671        	l32r	a7, 1c4 (9bda <two_mic_SWB_NR_proc+0x20a>)
    182d:	a1b8           	l32i.n	a11, a1, 40
    182f:	05cd           	mov.n	a12, a5
    1831:	a47a           	add.n	a10, a4, a7
    1833:	0006e0        	callx8	a6
    1836:	fa2541        	l32r	a4, cc (f59c <p_ecnr_mem>)
    1839:	a50c           	movi.n	a5, 10
    183b:	0448           	l32i.n	a4, a4, 0
    183d:	2cd442        	addmi	a4, a4, 0x2c00
    1840:	1f2472        	l32i	a7, a4, 124
    1843:	074d           	mov.n	a4, a7
    1845:	038576        	loop	a5, 184c <Pitch_by_Corel+0x788>
    1848:	0429           	s32i.n	a2, a4, 0
    184a:	444b           	addi.n	a4, a4, 4

0000184c <Pitch_by_Corel+0x788>:
    184c:	2121a2        	l32i	a10, a1, 132
    184f:	fa4a61        	l32r	a6, 178 (70a3d7 <_end+0x6fae37>)
    1852:	f8a142        	movi	a4, 0x1f8
    1855:	a52c           	movi.n	a5, 42
    1857:	28c722        	addi	a2, a7, 40
    185a:	4a4a           	add.n	a4, a10, a4
    185c:	61c144        	ae_lq56.i	aeq3, a1, 32
    185f:	078576        	loop	a5, 186a <Pitch_by_Corel+0x7a6>
    1862:	245d           	ae_l16si.n	a5, a4, 0
    1864:	625d           	ae_s16i.n	a5, a2, 0
    1866:	442b           	addi.n	a4, a4, 2
    1868:	222b           	addi.n	a2, a2, 2
    186a:	102ad2        	l32i	a13, a10, 64
    186d:	fa4121        	l32r	a2, 174 (733333 <_end+0x723d93>)
    1870:	fa57e1        	l32r	a14, 1cc (39999a <_end+0x38a3fa>)
    1873:	aca052        	movi	a5, 172
    1876:	fca1f2        	movi	a15, 0x1fc
    1879:	399224        	ae_movpa24x2	aep1, a2, a2
    187c:	39aee4        	ae_movpa24x2	aep2, a14, a14
    187f:	398664        	ae_movpa24x2	aep0, a6, a6
    1882:	2ac742        	addi	a4, a7, 42
    1885:	280c           	movi.n	a8, 2
    1887:	892c           	movi.n	a9, 40
    1889:	5b0c           	movi.n	a11, 5
    188b:	1c0c           	movi.n	a12, 1
    188d:	020c           	movi.n	a2, 0
    188f:	2361d2        	s32i	a13, a1, 140
    1892:	6ad9           	s32i.n	a13, a10, 24
    1894:	da5a           	add.n	a13, a10, a5
    1896:	eafa           	add.n	a14, a10, a15

00001898 <Pitch_by_Corel+0x7d4>:
    1898:	4e5d           	ae_l16ui.n	a5, a14, 0
    189a:	0dfd           	mov.n	a15, a13
    189c:	060c           	movi.n	a6, 0
    189e:	068b76        	loop	a11, 18a8 <Pitch_by_Corel+0x7e4>
    18a1:	0fa8           	l32i.n	a10, a15, 0
    18a3:	ff4b           	addi.n	a15, a15, 4
    18a5:	536a60        	max	a6, a10, a6

000018a8 <Pitch_by_Corel+0x7e4>:
    18a8:	2121a2        	l32i	a10, a1, 132
    18ab:	600d24        	ae_lq32f.i	aeq0, a13, 8
    18ae:	3580f4        	ae_sraiq56	aeq2, aeq0, 3
    18b1:	403a04        	ae_lp16f.i	aep3, a10, 0
    18b4:	d66fc000af 	{ movi	a10, 0; ae_mulfq32sp16u.h	aeq1, aeq3, aep3 }
    18b9:	0f0c           	movi.n	a15, 0
    18bb:	09a104        	ae_ltq56s	b0, aeq1, aeq2
    18be:	d3ac00        	movt	a10, a12, b0
    18c1:	08ea16        	beqz	a10, 1953 <Pitch_by_Corel+0x88f>
    18c4:	2da8           	l32i.n	a10, a13, 8
    18c6:	021a67        	beq	a10, a6, 18cc <Pitch_by_Corel+0x808>
    18c9:	002186        	j	1953 <Pitch_by_Corel+0x88f>
    18cc:	54ad           	ae_l16ui.n	a10, a4, 2
    18ce:	056d           	mov.n	a6, a5
    18d0:	0adc           	bnez.n	a10, 18e4 <Pitch_by_Corel+0x820>
    18d2:	246d           	ae_l16si.n	a6, a4, 0
    18d4:	0a0c           	movi.n	a10, 0
    18d6:	0a16e6        	bgei	a6, 1, 18e4 <Pitch_by_Corel+0x820>
    18d9:	029462        	l16si	a6, a4, 4
    18dc:	72aa60        	salt	a10, a10, a6
    18df:	9356a0        	movnez	a5, a6, a10
    18e2:	056d           	mov.n	a6, a5

000018e4 <Pitch_by_Corel+0x820>:
    18e4:	282152        	l32i	a5, a1, 160
    18e7:	2121a2        	l32i	a10, a1, 132
    18ea:	60c504        	ae_lq32f.i	aeq3, a5, 0
    18ed:	403a24        	ae_lp16f.i	aep3, a10, 4
    18f0:	d76f8000af 	{ movi	a10, 0; ae_mulfq32sp16u.h	aeq2, aeq3, aep3 }
    18f5:	925d           	ae_zext16	a5, a2
    18f7:	d66ed1557f 	{ addx2	a5, a5, a7; ae_mulfq32sp16u.h	aeq1, aeq2, aep3 }
    18fc:	098214        	ae_ltq56s	b1, aeq2, aeq0
    18ff:	f8017a113f 	{ ae_sq56s.i	aeq1, a1, 24; ae_mulfq32sp24s.h	aeq1, aeq1, aep0 }
    1904:	d6443da13f 	{ ae_lq56.i	aeq1, a1, 24; ae_ltq56s	b0, aeq1, aeq0 }
    1909:	d64416ac0f 	{ movt	a10, a12, b0; ae_ltq56s	b0, aeq1, aeq0 }
    190e:	ea8c           	beqz.n	a10, 1920 <Pitch_by_Corel+0x85c>
    1910:	0a0c           	movi.n	a10, 0
    1912:	f80556ac1f 	{ movt	a10, a12, b1; ae_mulfq32sp24s.h	aeq1, aeq1, aep1 }
    1917:	658d           	ae_s16i.n	a8, a5, 0
    1919:	fa9c           	beqz.n	a10, 193c <Pitch_by_Corel+0x878>
    191b:	662b           	addi.n	a6, a6, 2
    191d:	000986        	j	1947 <Pitch_by_Corel+0x883>

00001920 <Pitch_by_Corel+0x85c>:
    1920:	fa0940005f 	{ movi	a5, 0; ae_mulfq32sp24s.h	aeq1, aeq3, aep2 }
    1925:	d6443de14f 	{ ae_lq56.i	aeq3, a1, 32; ae_ltq56s	b0, aeq1, aeq0 }
    192a:	86ad           	ae_sext16	a10, a6
    192c:	d35c00        	movt	a5, a12, b0
    192f:	05ac           	beqz.n	a5, 1953 <Pitch_by_Corel+0x88f>
    1931:	fbca52        	addi	a5, a10, -5
    1934:	0f0c           	movi.n	a15, 0
    1936:	53ff50        	max	a15, a15, a5
    1939:	000586        	j	1953 <Pitch_by_Corel+0x88f>

0000193c <Pitch_by_Corel+0x878>:
    193c:	050c           	movi.n	a5, 0
    193e:	d648565c0f 	{ movt	a5, a12, b0; ae_ltq56s	b1, aeq0, aeq1 }
    1943:	f59c           	beqz.n	a5, 1966 <Pitch_by_Corel+0x8a2>
    1945:	661b           	addi.n	a6, a6, 1
    1947:	61c144        	ae_lq56.i	aeq3, a1, 32
    194a:	865d           	ae_sext16	a5, a6
    194c:	4f1c           	movi.n	a15, 20
    194e:	221b           	addi.n	a2, a2, 1
    1950:	43f5f0        	min	a15, a5, a15
    1953:	881b           	addi.n	a8, a8, 1
    1955:	6efd           	ae_s16i.n	a15, a14, 0
    1957:	dd4b           	addi.n	a13, a13, 4
    1959:	ee2b           	addi.n	a14, a14, 2
    195b:	442b           	addi.n	a4, a4, 2
    195d:	021897        	beq	a8, a9, 1963 <Pitch_by_Corel+0x89f>
    1960:	ffcd06        	j	1898 <Pitch_by_Corel+0x7d4>
    1963:	0005c6        	j	197e <Pitch_by_Corel+0x8ba>

00001966 <Pitch_by_Corel+0x8a2>:
    1966:	050c           	movi.n	a5, 0
    1968:	61c144        	ae_lq56.i	aeq3, a1, 32
    196b:	d35c10        	movt	a5, a12, b1
    196e:	fd8516        	beqz	a5, 194a <Pitch_by_Corel+0x886>
    1971:	865d           	ae_sext16	a5, a6
    1973:	fec552        	addi	a5, a5, -2
    1976:	0f0c           	movi.n	a15, 0
    1978:	536f50        	max	a6, a15, a5
    197b:	fff2c6        	j	194a <Pitch_by_Corel+0x886>

0000197e <Pitch_by_Corel+0x8ba>:
    197e:	2121d2        	l32i	a13, a1, 132
    1981:	fa1341        	l32r	a4, 1d0 (5d70a4 <_end+0x5c7b04>)
    1984:	399444        	ae_movpa24x2	aep1, a4, a4
    1987:	400d04        	ae_lp16f.i	aep0, a13, 0
    198a:	d663ac7d1f 	{ ae_lp16f.i	aep7, a13, 2; ae_mulfq32sp16u.h	aeq0, aeq3, aep0 }
    198f:	2621f2        	l32i	a15, a1, 152
    1992:	d57e8fffef 	{ movi	a14, -1; ae_mulfq32sp16u.h	aeq2, aeq0, aep7 }
    1997:	f4e0e0        	extui	a14, a14, 0, 16
    199a:	fa6479a30f 	{ ae_sq32f.i	aeq2, a3, 0; ae_mulrfq32sp24s.h	aeq1, aeq2, aep1 }
    199f:	282142        	l32i	a4, a1, 160
    19a2:	621f04        	ae_sq32f.i	aeq1, a15, 0
    19a5:	028e27        	bany	a14, a2, 19ab <Pitch_by_Corel+0x8e7>
    19a8:	005046        	j	1aed <Pitch_by_Corel+0xa29>
    19ab:	0f0c           	movi.n	a15, 0
    19ad:	150c           	movi.n	a5, 1
    19af:	600404        	ae_lq32f.i	aeq0, a4, 0
    19b2:	35c134        	ae_sraiq56	aeq3, aeq0, 4
    19b5:	d5d800008f 	{ movi	a8, 0; ae_leq56s	b0, aeq2, aeq3 }
    19ba:	d55c40016f 	{ movi	a6, 1; ae_leq56s	b1, aeq1, aeq3 }
    19bf:	091d42        	l16ui	a4, a13, 18
    19c2:	d3f500        	movt	a15, a5, b0
    19c5:	afcc           	bnez.n	a15, 19d3 <Pitch_by_Corel+0x90f>
    19c7:	d38610        	movt	a8, a6, b1
    19ca:	128816        	beqz	a8, 1af6 <Pitch_by_Corel+0xa32>
    19cd:	0224f6        	bgeui	a4, 2, 19d3 <Pitch_by_Corel+0x90f>
    19d0:	004886        	j	1af6 <Pitch_by_Corel+0xa32>
    19d3:	fa00e1        	l32r	a14, 1d4 (666666 <_end+0x6570c6>)
    19d6:	398ee4        	ae_movpa24x2	aep0, a14, a14
    19d9:	78c1e2        	addi	a14, a1, 120
    19dc:	547eb4        	ae_lp24x2.i	aep7, a14, -40
    19df:	f81c31b1ae 	{ l32i	a10, a1, 108; ae_mulfq32sp24s.h	aeq0, aeq0, aep7 }
    19e4:	2a21e2        	l32i	a14, a1, 168
    19e7:	04ddb2        	addmi	a11, a13, 0x400
    19ea:	1d21c2        	l32i	a12, a1, 116
    19ed:	92fd           	ae_zext16	a15, a2
    19ef:	060c           	movi.n	a6, 0
    19f1:	c1b9           	s32i.n	a11, a1, 48
    19f3:	2561c2        	s32i	a12, a1, 148
    19f6:	560134        	ae_sp24x2s.i	aep0, a1, 24
    19f9:	630154        	ae_sq56s.i	aeq0, a1, 40
    19fc:	272d           	ae_l16si.n	a2, a7, 0
    19fe:	aca052        	movi	a5, 172
    1a01:	9042d0        	addx2	a4, a2, a13
    1a04:	fc1442        	l16ui	a4, a4, 0x1f8
    1a07:	226142        	s32i	a4, a1, 136
    1a0a:	614154        	ae_lq56.i	aeq1, a1, 40
    1a0d:	0264f6        	bgeui	a4, 6, 1a13 <Pitch_by_Corel+0x94f>
    1a10:	002d46        	j	1ac9 <Pitch_by_Corel+0xa05>
    1a13:	a042d0        	addx4	a4, a2, a13
    1a16:	603454        	ae_lq32f.xu	aeq0, a4, a5
    1a19:	d64400008f 	{ movi	a8, 0; ae_ltq56s	b0, aeq1, aeq0 }
    1a1e:	1c0c           	movi.n	a12, 1
    1a20:	929d           	ae_zext16	a9, a2
    1a22:	d38c00        	movt	a8, a12, b0
    1a25:	0a0816        	beqz	a8, 1ac9 <Pitch_by_Corel+0xa05>
    1a28:	8199           	s32i.n	a9, a1, 32
    1a2a:	f9db81        	l32r	a8, 198 (2388 <Xfrac_num_pd_td32>)
    1a2d:	9c0c           	movi.n	a12, 9
    1a2f:	04ad           	mov.n	a10, a4
    1a31:	02bd           	mov.n	a11, a2
    1a33:	035d           	mov.n	a5, a3
    1a35:	0f3d           	mov.n	a3, a15
    1a37:	0008e0        	callx8	a8
    1a3a:	2321c2        	l32i	a12, a1, 140
    1a3d:	f9e691        	l32r	a9, 1d8 (14001 <_end+0x4a61>)
    1a40:	c1b8           	l32i.n	a11, a1, 48
    1a42:	0bec16        	beqz	a12, 1b04 <Pitch_by_Corel+0xa40>
    1a45:	c08ca0        	sub	a8, a12, a10
    1a48:	02a897        	bge	a8, a9, 1a4e <Pitch_by_Corel+0x98a>
    1a4b:	002d46        	j	1b04 <Pitch_by_Corel+0xa40>
    1a4e:	2121d2        	l32i	a13, a1, 132
    1a51:	be0c           	movi.n	a14, 11
    1a53:	7e1b82        	l16ui	a8, a11, 252
    1a56:	af0c           	movi.n	a15, 10
    1a58:	980b           	addi.n	a9, a8, -1
    1a5a:	90b9d0        	addx2	a11, a9, a13
    1a5d:	fc1bb2        	l16ui	a11, a11, 0x1f8
    1a60:	0fbbe7        	bgeu	a11, a14, 1a73 <Pitch_by_Corel+0x9af>
    1a63:	981b           	addi.n	a9, a8, 1
    1a65:	90b9d0        	addx2	a11, a9, a13
    1a68:	fc1bb2        	l16ui	a11, a11, 0x1f8
    1a6b:	62bfb0        	saltu	a11, a15, a11
    1a6e:	9389b0        	movnez	a8, a9, a11
    1a71:	089d           	mov.n	a9, a8
    1a73:	998d           	ae_zext16	a8, a9
    1a75:	9098d0        	addx2	a9, a8, a13
    1a78:	fc1992        	l16ui	a9, a9, 0x1f8
    1a7b:	03fd           	mov.n	a15, a3
    1a7d:	053d           	mov.n	a3, a5
    1a7f:	02b9e7        	bgeu	a9, a14, 1a85 <Pitch_by_Corel+0x9c1>
    1a82:	0020c6        	j	1b09 <Pitch_by_Corel+0xa45>
    1a85:	a088d0        	addx4	a8, a8, a13
    1a88:	04b8           	l32i.n	a11, a4, 0
    1a8a:	2b28c2        	l32i	a12, a8, 172
    1a8d:	02ed           	mov.n	a14, a2
    1a8f:	252152        	l32i	a5, a1, 148
    1a92:	332bc7        	blt	a11, a12, 1ac9 <Pitch_by_Corel+0xa05>
    1a95:	21b5b0        	srai	a11, a11, 5
    1a98:	02ed           	mov.n	a14, a2
    1a9a:	2b2b57        	blt	a11, a5, 1ac9 <Pitch_by_Corel+0xa05>
    1a9d:	222152        	l32i	a5, a1, 136
    1aa0:	600404        	ae_lq32f.i	aeq0, a4, 0
    1aa3:	540134        	ae_lp24x2.i	aep0, a1, 24
    1aa6:	026526        	beqi	a5, 6, 1aac <Pitch_by_Corel+0x9e8>
    1aa9:	003206        	j	1b75 <Pitch_by_Corel+0xab1>
    1aac:	02a9f6        	bgeui	a9, 12, 1ab2 <Pitch_by_Corel+0x9ee>
    1aaf:	003086        	j	1b75 <Pitch_by_Corel+0xab1>
    1ab2:	f86000acbf 	{ movi	a11, 172; ae_mulrfq32sp24s.h	aeq0, aeq0, aep0 }
    1ab7:	6068b4        	ae_lq32f.x	aeq1, a8, a11
    1aba:	d6480000cf 	{ movi	a12, 0; ae_ltq56s	b0, aeq0, aeq1 }
    1abf:	150c           	movi.n	a5, 1
    1ac1:	02ed           	mov.n	a14, a2
    1ac3:	d3c500        	movt	a12, a5, b0
    1ac6:	0b1c16        	beqz	a12, 1b7b <Pitch_by_Corel+0xab7>
    1ac9:	661b           	addi.n	a6, a6, 1
    1acb:	772b           	addi.n	a7, a7, 2
    1acd:	02b6f7        	bgeu	a6, a15, 1ad3 <Pitch_by_Corel+0xa0f>
    1ad0:	ffca06        	j	19fc <Pitch_by_Corel+0x938>
    1ad3:	472d           	ae_l16ui.n	a2, a7, 0
    1ad5:	8129           	s32i.n	a2, a1, 32
    1ad7:	1a61e2        	s32i	a14, a1, 104
    1ada:	822d           	ae_sext16	a2, a2
    1adc:	9022d0        	addx2	a2, a2, a13
    1adf:	fc1252        	l16ui	a5, a2, 0x1f8
    1ae2:	2321c2        	l32i	a12, a1, 140
    1ae5:	fe7c           	movi.n	a14, -1
    1ae7:	f4e0e0        	extui	a14, a14, 0, 16
    1aea:	000986        	j	1b14 <Pitch_by_Corel+0xa50>

00001aed <Pitch_by_Corel+0xa29>:
    1aed:	091d22        	l16ui	a2, a13, 18
    1af0:	09e256        	bnez	a2, 1b92 <Pitch_by_Corel+0xace>
    1af3:	000086        	j	1af9 <Pitch_by_Corel+0xa35>

00001af6 <Pitch_by_Corel+0xa32>:
    1af6:	098456        	bnez	a4, 1b92 <Pitch_by_Corel+0xace>
    1af9:	04dd22        	addmi	a2, a13, 0x400
    1afc:	040c           	movi.n	a4, 0
    1afe:	7e5242        	s16i	a4, a2, 252
    1b01:	002346        	j	1b92 <Pitch_by_Corel+0xace>

00001b04 <Pitch_by_Corel+0xa40>:
    1b04:	053d           	mov.n	a3, a5
    1b06:	2121d2        	l32i	a13, a1, 132
    1b09:	222152        	l32i	a5, a1, 136
    1b0c:	fe7c           	movi.n	a14, -1
    1b0e:	f4e0e0        	extui	a14, a14, 0, 16
    1b11:	1a6122        	s32i	a2, a1, 104
    1b14:	1b61a2        	s32i	a10, a1, 108
    1b17:	6b75b6        	bltui	a5, 7, 1b86 <Pitch_by_Corel+0xac2>
    1b1a:	c05ca0        	sub	a5, a12, a10
    1b1d:	540c           	movi.n	a4, 5
    1b1f:	091d22        	l16ui	a2, a13, 18
    1b22:	114420        	slli	a4, a4, 14
    1b25:	8168           	l32i.n	a6, a1, 32
    1b27:	605150        	abs	a5, a5
    1b2a:	065162        	s16i	a6, a1, 12
    1b2d:	042457        	blt	a4, a5, 1b35 <Pitch_by_Corel+0xa71>
    1b30:	221b           	addi.n	a2, a2, 1
    1b32:	000c86        	j	1b68 <Pitch_by_Corel+0xaa4>

00001b35 <Pitch_by_Corel+0xa71>:
    1b35:	2832b6        	bltui	a2, 3, 1b61 <Pitch_by_Corel+0xa9d>
    1b38:	4151a0        	srli	a5, a10, 1
    1b3b:	c05c50        	sub	a5, a12, a5
    1b3e:	605150        	abs	a5, a5
    1b41:	1c2457        	blt	a4, a5, 1b61 <Pitch_by_Corel+0xa9d>
    1b44:	292142        	l32i	a4, a1, 164
    1b47:	221b           	addi.n	a2, a2, 1
    1b49:	095d22        	s16i	a2, a13, 18
    1b4c:	600404        	ae_lq32f.i	aeq0, a4, 0
    1b4f:	350074        	ae_sraiq56	aeq0, aeq0, 1
    1b52:	1b8e04        	ae_roundsp16q48sym	aep0, aeq0
    1b55:	420164        	ae_sp16f.l.i	aep0, a1, 12
    1b58:	069142        	l16si	a4, a1, 12
    1b5b:	f7c4c2        	addi	a12, a4, -9
    1b5e:	000d46        	j	1b97 <Pitch_by_Corel+0xad3>

00001b61 <Pitch_by_Corel+0xa9d>:
    1b61:	c148           	l32i.n	a4, a1, 48
    1b63:	020c           	movi.n	a2, 0
    1b65:	7e5422        	s16i	a2, a4, 252
    1b68:	095d22        	s16i	a2, a13, 18
    1b6b:	81c8           	l32i.n	a12, a1, 32
    1b6d:	000a46        	j	1b9a <Pitch_by_Corel+0xad6>

00001b70 <Pitch_by_Corel+0xaac>:
    1b70:	056d           	mov.n	a6, a5
    1b72:	fdd846        	j	12d7 <Pitch_by_Corel+0x213>

00001b75 <Pitch_by_Corel+0xab1>:
    1b75:	1a6122        	s32i	a2, a1, 104
    1b78:	ffd986        	j	1ae2 <Pitch_by_Corel+0xa1e>

00001b7b <Pitch_by_Corel+0xab7>:
    1b7b:	fe7c           	movi.n	a14, -1
    1b7d:	f4e0e0        	extui	a14, a14, 0, 16
    1b80:	1a6122        	s32i	a2, a1, 104
    1b83:	1b61a2        	s32i	a10, a1, 108
    1b86:	091d22        	l16ui	a2, a13, 18
    1b89:	c148           	l32i.n	a4, a1, 48
    1b8b:	050c           	movi.n	a5, 0
    1b8d:	12cc           	bnez.n	a2, 1b92 <Pitch_by_Corel+0xace>
    1b8f:	7e5452        	s16i	a5, a4, 252
    1b92:	0c0c           	movi.n	a12, 0
    1b94:	095dc2        	s16i	a12, a13, 18
    1b97:	0651c2        	s16i	a12, a1, 12
    1b9a:	04dd42        	addmi	a4, a13, 0x400
    1b9d:	7e1452        	l16ui	a5, a4, 252
    1ba0:	020c           	movi.n	a2, 0
    1ba2:	0a0c           	movi.n	a10, 0
    1ba4:	061556        	bnez	a5, 1c09 <Pitch_by_Corel+0xb45>
    1ba7:	f8a182        	movi	a8, 0x1f8
    1baa:	060c           	movi.n	a6, 0
    1bac:	b92c           	movi.n	a9, 43
    1bae:	070c           	movi.n	a7, 0
    1bb0:	050c           	movi.n	a5, 0
    1bb2:	8d8a           	add.n	a8, a13, a8
    1bb4:	6d69           	s32i.n	a6, a13, 24
    1bb6:	0e8976        	loop	a9, 1bc8 <Pitch_by_Corel+0xb04>
    1bb9:	489d           	ae_l16ui.n	a9, a8, 0
    1bbb:	882b           	addi.n	a8, a8, 2
    1bbd:	62a790        	saltu	a10, a7, a9
    1bc0:	9356a0        	movnez	a5, a6, a10
    1bc3:	737790        	maxu	a7, a7, a9
    1bc6:	661b           	addi.n	a6, a6, 1

00001bc8 <Pitch_by_Corel+0xb04>:
    1bc8:	0a0c           	movi.n	a10, 0
    1bca:	3b47b6        	bltui	a7, 4, 1c09 <Pitch_by_Corel+0xb45>
    1bcd:	f98361        	l32r	a6, 1dc (ccccd <_end+0xbd72d>)
    1bd0:	85bd           	ae_sext16	a11, a5
    1bd2:	600304        	ae_lq32f.i	aeq0, a3, 0
    1bd5:	398664        	ae_movpa24x2	aep0, a6, a6
    1bd8:	d46080ac3f 	{ movi	a3, 172; ae_mularfq32sp24s.h	aeq0, aeq0, aep0 }
    1bdd:	a05bd0        	addx4	a5, a11, a13
    1be0:	fc00fbb53f 	{ ae_lq32f.x	aeq1, a5, a3; ae_satq48s	aeq0, aeq0 }
    1be5:	355134        	ae_sraiq56	aeq1, aeq1, 4
    1be8:	d6480000ff 	{ movi	a15, 0; ae_ltq56s	b0, aeq0, aeq1 }
    1bed:	170c           	movi.n	a7, 1
    1bef:	0c6d           	mov.n	a6, a12
    1bf1:	d3f700        	movt	a15, a7, b0
    1bf4:	1f9c           	beqz.n	a15, 1c09 <Pitch_by_Corel+0xb45>
    1bf6:	a53a           	add.n	a10, a5, a3
    1bf8:	f96831        	l32r	a3, 198 (2388 <Xfrac_num_pd_td32>)
    1bfb:	9c0c           	movi.n	a12, 9
    1bfd:	0e5d           	mov.n	a5, a14
    1bff:	0003e0        	callx8	a3
    1c02:	2121d2        	l32i	a13, a1, 132
    1c05:	06cd           	mov.n	a12, a6
    1c07:	05ed           	mov.n	a14, a5

00001c09 <Pitch_by_Corel+0xb45>:
    1c09:	7da9           	s32i.n	a10, a13, 28
    1c0b:	7e54c2        	s16i	a12, a4, 252
    1c0e:	160ec7        	bnone	a14, a12, 1c28 <Pitch_by_Corel+0xb64>
    1c11:	9cbd           	ae_zext16	a11, a12
    1c13:	aca022        	movi	a2, 172
    1c16:	a03bd0        	addx4	a3, a11, a13
    1c19:	a32a           	add.n	a10, a3, a2
    1c1b:	f95f21        	l32r	a2, 198 (2388 <Xfrac_num_pd_td32>)
    1c1e:	9c0c           	movi.n	a12, 9
    1c20:	0002e0        	callx8	a2
    1c23:	2121d2        	l32i	a13, a1, 132
    1c26:	0a2d           	mov.n	a2, a10
    1c28:	106d22        	s32i	a2, a13, 64
    1c2b:	f01d           	retw.n

00001c2d <Pitch_by_Corel+0xb69>:
    1c2d:	000000                                        ...

00001c30 <pitch_by_harmonic>:
    1c30:	012136        	entry	a1, 144
    1c33:	f926d1        	l32r	a13, cc (f59c <p_ecnr_mem>)
    1c36:	f96af1        	l32r	a15, 1e0 (96b0 <two_mic_WB_NR_NSN_proc+0xb40>)
    1c39:	126142        	s32i	a4, a1, 72
    1c3c:	0d78           	l32i.n	a7, a13, 0
    1c3e:	f96991        	l32r	a9, 1e4 (96c4 <two_mic_WB_NR_NSN_proc+0xb54>)
    1c41:	5ba262        	movi	a6, 0x25b
    1c44:	47fa           	add.n	a4, a7, a15
    1c46:	8149           	s32i.n	a4, a1, 32
    1c48:	0448           	l32i.n	a4, a4, 0
    1c4a:	0e0c           	movi.n	a14, 0
    1c4c:	1166a0        	slli	a6, a6, 6
    1c4f:	a139           	s32i.n	a3, a1, 40
    1c51:	1652e2        	s16i	a14, a2, 44
    1c54:	136172        	s32i	a7, a1, 76
    1c57:	089416        	beqz	a4, 1ce4 <pitch_by_harmonic+0xb4>
    1c5a:	fb7c           	movi.n	a11, -1
    1c5c:	196122        	s32i	a2, a1, 100
    1c5f:	f96221        	l32r	a2, 1e8 (d744 <__udivdi3>)
    1c62:	11c420        	slli	a12, a4, 14
    1c65:	d5d240        	extui	a13, a4, 18, 14
    1c68:	01bb10        	slli	a11, a11, 31
    1c6b:	0a0c           	movi.n	a10, 0
    1c6d:	093d           	mov.n	a3, a9
    1c6f:	0002e0        	callx8	a2
    1c72:	132172        	l32i	a7, a1, 76
    1c75:	540c           	movi.n	a4, 5
    1c77:	d1a9           	s32i.n	a10, a1, 52
    1c79:	276a           	add.n	a2, a7, a6
    1c7b:	0228           	l32i.n	a2, a2, 0
    1c7d:	f73a           	add.n	a15, a7, a3
    1c7f:	6f4d           	ae_s16i.n	a4, a15, 0
    1c81:	0212e6        	bgei	a2, 1, 1c87 <pitch_by_harmonic+0x57>
    1c84:	004c46        	j	1db9 <pitch_by_harmonic+0x189>
    1c87:	34c132        	addi	a3, a1, 52
    1c8a:	f95841        	l32r	a4, 1ec (aaaab <_end+0x9b50b>)
    1c8d:	602764        	ae_lq32f.x	aeq0, a7, a6
    1c90:	604304        	ae_lq32f.i	aeq1, a3, 0
    1c93:	f94aa2044f 	{ ae_movpa24x2	aep0, a4, a4; ae_subsq56s	aeq1, aeq1, aeq0 }
    1c98:	fd04c000df 	{ movi	a13, 0; ae_satq48s	aeq1, aeq1 }
    1c9d:	f8000001ef 	{ movi	a14, 1; ae_mulfq32sp24s.h	aeq0, aeq0, aep0 }
    1ca2:	fd0c93866f 	{ or	a8, a6, a6; ae_abssq56s	aeq1, aeq1 }
    1ca7:	d64800346f 	{ movi	a6, 52; ae_ltq56s	b0, aeq0, aeq1 }
    1cac:	f951f1        	l32r	a15, 1f0 (96c6 <two_mic_WB_NR_NSN_proc+0xb56>)
    1caf:	f95141        	l32r	a4, 1f4 (96c8 <two_mic_WB_NR_NSN_proc+0xb58>)
    1cb2:	d3de00        	movt	a13, a14, b0
    1cb5:	37fa           	add.n	a3, a7, a15
    1cb7:	127d16        	beqz	a13, 1de2 <pitch_by_harmonic+0x1b2>
    1cba:	636d           	ae_s16i.n	a6, a3, 0
    1cbc:	474a           	add.n	a4, a7, a4
    1cbe:	244d           	ae_l16si.n	a4, a4, 0
    1cc0:	0334a6        	blti	a4, 3, 1cc7 <pitch_by_harmonic+0x97>
    1cc3:	02ad           	mov.n	a10, a2
    1cc5:	d129           	s32i.n	a2, a1, 52

00001cc7 <pitch_by_harmonic+0x97>:
    1cc7:	f94c21        	l32r	a2, 1f8 (96ce <two_mic_WB_NR_NSN_proc+0xb5e>)
    1cca:	f94cd1        	l32r	a13, 1fc (96bc <two_mic_WB_NR_NSN_proc+0xb4c>)
    1ccd:	f94ce1        	l32r	a14, 200 (96b8 <two_mic_WB_NR_NSN_proc+0xb48>)
    1cd0:	130c           	movi.n	a3, 1
    1cd2:	272a           	add.n	a2, a7, a2
    1cd4:	623d           	ae_s16i.n	a3, a2, 0
    1cd6:	37ea           	add.n	a3, a7, a14
    1cd8:	21faa0        	srai	a15, a10, 10
    1cdb:	27da           	add.n	a2, a7, a13
    1cdd:	03a9           	s32i.n	a10, a3, 0
    1cdf:	02f9           	s32i.n	a15, a2, 0
    1ce1:	004806        	j	1e05 <pitch_by_harmonic+0x1d5>

00001ce4 <pitch_by_harmonic+0xb4>:
    1ce4:	f94831        	l32r	a3, 204 (96b4 <two_mic_WB_NR_NSN_proc+0xb44>)
    1ce7:	fb7c           	movi.n	a11, -1
    1ce9:	01bb10        	slli	a11, a11, 31
    1cec:	373a           	add.n	a3, a7, a3
    1cee:	0338           	l32i.n	a3, a3, 0
    1cf0:	0a0c           	movi.n	a10, 0
    1cf2:	f94341        	l32r	a4, 200 (96b8 <two_mic_WB_NR_NSN_proc+0xb48>)
    1cf5:	586316        	beqz	a3, 227f <pitch_by_harmonic+0x64f>
    1cf8:	196122        	s32i	a2, a1, 100
    1cfb:	f93b21        	l32r	a2, 1e8 (d744 <__udivdi3>)
    1cfe:	11c320        	slli	a12, a3, 14
    1d01:	d5d230        	extui	a13, a3, 18, 14
    1d04:	093d           	mov.n	a3, a9
    1d06:	0002e0        	callx8	a2
    1d09:	132172        	l32i	a7, a1, 76
    1d0c:	34c122        	addi	a2, a1, 52
    1d0f:	d1a9           	s32i.n	a10, a1, 52
    1d11:	600204        	ae_lq32f.i	aeq0, a2, 0
    1d14:	606764        	ae_lq32f.x	aeq1, a7, a6
    1d17:	358074        	ae_sraiq56	aeq2, aeq0, 1
    1d1a:	fb568001ef 	{ movi	a14, 1; ae_subsq56s	aeq3, aeq2, aeq1 }
    1d1f:	ff84d3933f 	{ or	a9, a3, a3; ae_satq48s	aeq3, aeq3 }
    1d24:	013e70        	slli	a3, a14, 25
    1d27:	ff8cba013f 	{ ae_sq56s.i	aeq0, a1, 24; ae_abssq56s	aeq3, aeq3 }
    1d2c:	360334        	ae_cvtq48a32s	aeq0, a3
    1d2f:	d6c40000ff 	{ movi	a15, 0; ae_ltq56s	b0, aeq3, aeq0 }
    1d34:	140c           	movi.n	a4, 1
    1d36:	351074        	ae_sraiq56	aeq0, aeq1, 1
    1d39:	d3f400        	movt	a15, a4, b0
    1d3c:	0fec           	bnez.n	a15, 1d60 <pitch_by_harmonic+0x130>
    1d3e:	618134        	ae_lq56.i	aeq2, a1, 24
    1d41:	f85280013f 	{ movi	a3, 1; ae_subsq56s	aeq0, aeq2, aeq0 }
    1d46:	fc00c000ff 	{ movi	a15, 0; ae_satq48s	aeq0, aeq0 }
    1d4b:	013380        	slli	a3, a3, 24
    1d4e:	fc08bec3ff 	{ ae_cvtq48a32s	aeq3, a3; ae_abssq56s	aeq0, aeq0 }
    1d53:	d65800014f 	{ movi	a4, 1; ae_ltq56s	b0, aeq0, aeq3 }
    1d58:	d3f400        	movt	a15, a4, b0
    1d5b:	4f8c           	beqz.n	a15, 1d63 <pitch_by_harmonic+0x133>
    1d5d:	36a054        	ae_sllisq56s	aeq2, aeq2, 1
    1d60:	622204        	ae_sq32f.i	aeq2, a2, 0
    1d63:	00a782        	movi	a8, 0x700
    1d66:	600204        	ae_lq32f.i	aeq0, a2, 0
    1d69:	398884        	ae_movpa24x2	aep0, a8, a8
    1d6c:	f80010479f 	{ add	a4, a7, a9; ae_mulfq32sp24s.h	aeq0, aeq0, aep0 }
    1d71:	9c0c           	movi.n	a12, 9
    1d73:	360154        	ae_sllisq56s	aeq0, aeq0, 5
    1d76:	f92031        	l32r	a3, 1f8 (96ce <two_mic_WB_NR_NSN_proc+0xb5e>)
    1d79:	64cd           	ae_s16i.n	a12, a4, 0
    1d7b:	f920e1        	l32r	a14, 1fc (96bc <two_mic_WB_NR_NSN_proc+0xb4c>)
    1d7e:	fbe3c141ce 	{ addi	a12, a1, 20; ae_roundsp16q48sym	aep7, aeq0 }
    1d83:	427c04        	ae_sp16f.l.i	aep7, a12, 0
    1d86:	f91ef1        	l32r	a15, 200 (96b8 <two_mic_WB_NR_NSN_proc+0xb48>)
    1d89:	0a9122        	l16si	a2, a1, 20
    1d8c:	d1a8           	l32i.n	a10, a1, 52
    1d8e:	97ea           	add.n	a9, a7, a14
    1d90:	1d0c           	movi.n	a13, 1
    1d92:	373a           	add.n	a3, a7, a3
    1d94:	f917e1        	l32r	a14, 1f0 (96c6 <two_mic_WB_NR_NSN_proc+0xb56>)
    1d97:	63dd           	ae_s16i.n	a13, a3, 0
    1d99:	3d2c           	movi.n	a13, 35
    1d9b:	47fa           	add.n	a4, a7, a15
    1d9d:	5322d0        	max	a2, a2, a13
    1da0:	df2c           	movi.n	a15, 45
    1da2:	21baa0        	srai	a11, a10, 10
    1da5:	04a9           	s32i.n	a10, a4, 0
    1da7:	4322f0        	min	a2, a2, a15
    1daa:	47ea           	add.n	a4, a7, a14
    1dac:	09b9           	s32i.n	a11, a9, 0
    1dae:	0a5122        	s16i	a2, a1, 20
    1db1:	642d           	ae_s16i.n	a2, a4, 0
    1db3:	561ae6        	bgei	a10, 1, 1e0d <pitch_by_harmonic+0x1dd>
    1db6:	0132c6        	j	2285 <pitch_by_harmonic+0x655>

00001db9 <pitch_by_harmonic+0x189>:
    1db9:	f90d21        	l32r	a2, 1f0 (96c6 <two_mic_WB_NR_NSN_proc+0xb56>)
    1dbc:	f90fb1        	l32r	a11, 1f8 (96ce <two_mic_WB_NR_NSN_proc+0xb5e>)
    1dbf:	f90fd1        	l32r	a13, 1fc (96bc <two_mic_WB_NR_NSN_proc+0xb4c>)
    1dc2:	f90fe1        	l32r	a14, 200 (96b8 <two_mic_WB_NR_NSN_proc+0xb48>)
    1dc5:	e33c           	movi.n	a3, 62
    1dc7:	272a           	add.n	a2, a7, a2
    1dc9:	623d           	ae_s16i.n	a3, a2, 0
    1dcb:	1c0c           	movi.n	a12, 1
    1dcd:	27ba           	add.n	a2, a7, a11
    1dcf:	62cd           	ae_s16i.n	a12, a2, 0
    1dd1:	37ea           	add.n	a3, a7, a14
    1dd3:	21faa0        	srai	a15, a10, 10
    1dd6:	27da           	add.n	a2, a7, a13
    1dd8:	03a9           	s32i.n	a10, a3, 0
    1dda:	02f9           	s32i.n	a15, a2, 0
    1ddc:	2d1ae6        	bgei	a10, 1, 1e0d <pitch_by_harmonic+0x1dd>
    1ddf:	012886        	j	2285 <pitch_by_harmonic+0x655>

00001de2 <pitch_by_harmonic+0x1b2>:
    1de2:	f905c1        	l32r	a12, 1f8 (96ce <two_mic_WB_NR_NSN_proc+0xb5e>)
    1de5:	f90561        	l32r	a6, 1fc (96bc <two_mic_WB_NR_NSN_proc+0xb4c>)
    1de8:	f906e1        	l32r	a14, 200 (96b8 <two_mic_WB_NR_NSN_proc+0xb48>)
    1deb:	22aa           	add.n	a2, a2, a10
    1ded:	e43c           	movi.n	a4, 62
    1def:	634d           	ae_s16i.n	a4, a3, 0
    1df1:	212a20        	srai	a2, a2, 10
    1df4:	2d0c           	movi.n	a13, 2
    1df6:	37ca           	add.n	a3, a7, a12
    1df8:	63dd           	ae_s16i.n	a13, a3, 0
    1dfa:	f76a           	add.n	a15, a7, a6
    1dfc:	11a270        	slli	a10, a2, 9
    1dff:	37ea           	add.n	a3, a7, a14
    1e01:	0f29           	s32i.n	a2, a15, 0
    1e03:	03a9           	s32i.n	a10, a3, 0
    1e05:	086d           	mov.n	a6, a8
    1e07:	021ae6        	bgei	a10, 1, 1e0d <pitch_by_harmonic+0x1dd>
    1e0a:	011dc6        	j	2285 <pitch_by_harmonic+0x655>
    1e0d:	f8fc21        	l32r	a2, 200 (96b8 <two_mic_WB_NR_NSN_proc+0xb48>)
    1e10:	122142        	l32i	a4, a1, 72
    1e13:	a168           	l32i.n	a6, a1, 40
    1e15:	272a           	add.n	a2, a7, a2
    1e17:	156122        	s32i	a2, a1, 84
    1e1a:	a09640        	addx4	a9, a6, a4
    1e1d:	04a132        	movi	a3, 0x104
    1e20:	84a182        	movi	a8, 0x184
    1e23:	f8f921        	l32r	a2, 208 (a24 <Log2_norm>)
    1e26:	393a           	add.n	a3, a9, a3
    1e28:	f98a           	add.n	a15, a9, a8
    1e2a:	6139           	s32i.n	a3, a1, 24
    1e2c:	1166e0        	slli	a6, a6, 2
    1e2f:	174c           	movi.n	a7, 65
    1e31:	043d           	mov.n	a3, a4
    1e33:	146192        	s32i	a9, a1, 80
    1e36:	1661f2        	s32i	a15, a1, 88
    1e39:	1388           	l32i.n	a8, a3, 4
    1e3b:	436a           	add.n	a4, a3, a6
    1e3d:	770b           	addi.n	a7, a7, -1
    1e3f:	40e890        	nsa	a9, a8
    1e42:	401900        	ssl	a9
    1e45:	c0b590        	sub	a11, a5, a9
    1e48:	a1a800        	sll	a10, a8
    1e4b:	0002e0        	callx8	a2
    1e4e:	334b           	addi.n	a3, a3, 4
    1e50:	04a9           	s32i.n	a10, a4, 0
    1e52:	fe3756        	bnez	a7, 1e39 <pitch_by_harmonic+0x209>
    1e55:	f8e631        	l32r	a3, 1f0 (96c6 <two_mic_WB_NR_NSN_proc+0xb56>)
    1e58:	132182        	l32i	a8, a1, 76
    1e5b:	f8e241        	l32r	a4, 1e4 (96c4 <two_mic_WB_NR_NSN_proc+0xb54>)
    1e5e:	f8eb21        	l32r	a2, 20c (96d0 <two_mic_WB_NR_NSN_proc+0xb60>)
    1e61:	383a           	add.n	a3, a8, a3
    1e63:	484a           	add.n	a4, a8, a4
    1e65:	245d           	ae_l16si.n	a5, a4, 0
    1e67:	233d           	ae_l16si.n	a3, a3, 0
    1e69:	61d8           	l32i.n	a13, a1, 24
    1e6b:	e82a           	add.n	a14, a8, a2
    1e6d:	c0f350        	sub	a15, a3, a5
    1e70:	070c           	movi.n	a7, 0
    1e72:	8f2d           	ae_sext16	a2, a15
    1e74:	1b61e2        	s32i	a14, a1, 108
    1e77:	0e79           	s32i.n	a7, a14, 0
    1e79:	0212e6        	bgei	a2, 1, 1e7f <pitch_by_harmonic+0x24f>
    1e7c:	00fb06        	j	226c <pitch_by_harmonic+0x63c>
    1e7f:	a1e8           	l32i.n	a14, a1, 40
    1e81:	f8e341        	l32r	a4, 210 (96d2 <two_mic_WB_NR_NSN_proc+0xb62>)
    1e84:	142132        	l32i	a3, a1, 80
    1e87:	122192        	l32i	a9, a1, 72
    1e8a:	927d           	ae_zext16	a7, a2
    1e8c:	2e5a           	add.n	a2, a14, a5
    1e8e:	a03530        	addx4	a3, a5, a3
    1e91:	a02290        	addx4	a2, a2, a9
    1e94:	0f0c           	movi.n	a15, 0
    1e96:	484a           	add.n	a4, a8, a4
    1e98:	5c0c           	movi.n	a12, 5
    1e9a:	060c           	movi.n	a6, 0
    1e9c:	1461f2        	s32i	a15, a1, 80
    1e9f:	fcc332        	addi	a3, a3, -4
    1ea2:	f4c222        	addi	a2, a2, -12
    1ea5:	126142        	s32i	a4, a1, 72
    1ea8:	001286        	j	1ef6 <pitch_by_harmonic+0x2c6>

00001eab <pitch_by_harmonic+0x27b>:
    1eab:	5348a0        	max	a4, a8, a10
    1eae:	399947        	bne	a9, a4, 1eeb <pitch_by_harmonic+0x2bb>
    1eb1:	8148           	l32i.n	a4, a1, 32
    1eb3:	f0c3a2        	addi	a10, a3, -16
    1eb6:	0448           	l32i.n	a4, a4, 0
    1eb8:	f4ac           	beqz.n	a4, 1eeb <pitch_by_harmonic+0x2bb>
    1eba:	4388           	l32i.n	a8, a3, 16
    1ebc:	0a48           	l32i.n	a4, a10, 0
    1ebe:	03ad           	mov.n	a10, a3
    1ec0:	05bd           	mov.n	a11, a5
    1ec2:	434480        	min	a4, a4, a8
    1ec5:	22a497        	bge	a4, a9, 1eeb <pitch_by_harmonic+0x2bb>
    1ec8:	f8b441        	l32r	a4, 198 (2388 <Xfrac_num_pd_td32>)
    1ecb:	1c0c           	movi.n	a12, 1
    1ecd:	0004e0        	callx8	a4
    1ed0:	142192        	l32i	a9, a1, 80
    1ed3:	162182        	l32i	a8, a1, 88
    1ed6:	1b21f2        	l32i	a15, a1, 108
    1ed9:	61d8           	l32i.n	a13, a1, 24
    1edb:	894d           	ae_sext16	a4, a9
    1edd:	991b           	addi.n	a9, a9, 1
    1edf:	5c0c           	movi.n	a12, 5
    1ee1:	a04480        	addx4	a4, a4, a8
    1ee4:	146192        	s32i	a9, a1, 80
    1ee7:	6f9d           	ae_s16i.n	a9, a15, 0
    1ee9:	04a9           	s32i.n	a10, a4, 0
    1eeb:	770b           	addi.n	a7, a7, -1
    1eed:	334b           	addi.n	a3, a3, 4
    1eef:	224b           	addi.n	a2, a2, 4
    1ef1:	551b           	addi.n	a5, a5, 1
    1ef3:	082716        	beqz	a7, 1f79 <pitch_by_harmonic+0x349>
    1ef6:	f4c342        	addi	a4, a3, -12
    1ef9:	0488           	l32i.n	a8, a4, 0
    1efb:	924b           	addi.n	a9, a2, 4
    1efd:	02ad           	mov.n	a10, a2
    1eff:	068c76        	loop	a12, 1f09 <pitch_by_harmonic+0x2d9>
    1f02:	0a48           	l32i.n	a4, a10, 0
    1f04:	aa4b           	addi.n	a10, a10, 4
    1f06:	538840        	max	a8, a8, a4

00001f09 <pitch_by_harmonic+0x2d9>:
    1f09:	f8c342        	addi	a4, a3, -8
    1f0c:	04b8           	l32i.n	a11, a4, 0
    1f0e:	20abb0        	or	a10, a11, a11
    1f11:	068c76        	loop	a12, 1f1b <pitch_by_harmonic+0x2eb>
    1f14:	0948           	l32i.n	a4, a9, 0
    1f16:	994b           	addi.n	a9, a9, 4
    1f18:	53aa40        	max	a10, a10, a4
    1f1b:	0398           	l32i.n	a9, a3, 0
    1f1d:	021987        	beq	a9, a8, 1f23 <pitch_by_harmonic+0x2f3>
    1f20:	8799a7        	bne	a9, a10, 1eab <pitch_by_harmonic+0x27b>

00001f23 <pitch_by_harmonic+0x2f3>:
    1f23:	540c           	movi.n	a4, 5
    1f25:	014480        	slli	a4, a4, 24
    1f28:	4b4a           	add.n	a4, a11, a4
    1f2a:	112497        	blt	a4, a9, 1f3f <pitch_by_harmonic+0x30f>
    1f2d:	fcc342        	addi	a4, a3, -4
    1f30:	0448           	l32i.n	a4, a4, 0
    1f32:	3b0c           	movi.n	a11, 3
    1f34:	01bb60        	slli	a11, a11, 26
    1f37:	44ba           	add.n	a4, a4, a11
    1f39:	022497        	blt	a4, a9, 1f3f <pitch_by_harmonic+0x30f>
    1f3c:	ffdac6        	j	1eab <pitch_by_harmonic+0x27b>
    1f3f:	2348           	l32i.n	a4, a3, 8
    1f41:	5b0c           	movi.n	a11, 5
    1f43:	01bb80        	slli	a11, a11, 24
    1f46:	44ba           	add.n	a4, a4, a11
    1f48:	0e2497        	blt	a4, a9, 1f5a <pitch_by_harmonic+0x32a>
    1f4b:	1348           	l32i.n	a4, a3, 4
    1f4d:	3b0c           	movi.n	a11, 3
    1f4f:	01bb60        	slli	a11, a11, 26
    1f52:	44ba           	add.n	a4, a4, a11
    1f54:	022497        	blt	a4, a9, 1f5a <pitch_by_harmonic+0x32a>
    1f57:	ffd406        	j	1eab <pitch_by_harmonic+0x27b>
    1f5a:	f88f41        	l32r	a4, 198 (2388 <Xfrac_num_pd_td32>)
    1f5d:	1c0c           	movi.n	a12, 1
    1f5f:	03ad           	mov.n	a10, a3
    1f61:	05bd           	mov.n	a11, a5
    1f63:	0004e0        	callx8	a4
    1f66:	61d8           	l32i.n	a13, a1, 24
    1f68:	122182        	l32i	a8, a1, 72
    1f6b:	864d           	ae_sext16	a4, a6
    1f6d:	661b           	addi.n	a6, a6, 1
    1f6f:	5c0c           	movi.n	a12, 5
    1f71:	a044d0        	addx4	a4, a4, a13
    1f74:	686d           	ae_s16i.n	a6, a8, 0
    1f76:	ffdbc6        	j	1ee9 <pitch_by_harmonic+0x2b9>

00001f79 <pitch_by_harmonic+0x349>:
    1f79:	132182        	l32i	a8, a1, 76
    1f7c:	862d           	ae_sext16	a2, a6
    1f7e:	070c           	movi.n	a7, 0
    1f80:	0212e6        	bgei	a2, 1, 1f86 <pitch_by_harmonic+0x356>
    1f83:	00b946        	j	226c <pitch_by_harmonic+0x63c>
    1f86:	f8a481        	l32r	a8, 218 (cccccd <_end+0xcbd72d>)
    1f89:	368834        	ae_cvtq48a32s	aeq2, a8
    1f8c:	f8a221        	l32r	a2, 214 (96d4 <two_mic_WB_NR_NSN_proc+0xb64>)
    1f8f:	132182        	l32i	a8, a1, 76
    1f92:	f899f1        	l32r	a15, 1f8 (96ce <two_mic_WB_NR_NSN_proc+0xb5e>)
    1f95:	f89971        	l32r	a7, 1fc (96bc <two_mic_WB_NR_NSN_proc+0xb4c>)
    1f98:	130c           	movi.n	a3, 1
    1f9a:	140c           	movi.n	a4, 1
    1f9c:	013380        	slli	a3, a3, 24
    1f9f:	f89fc1        	l32r	a12, 21c (99999a <_end+0x98a3fa>)
    1fa2:	36cc34        	ae_cvtq48a32s	aeq3, a12
    1fa5:	c8fa           	add.n	a12, a8, a15
    1fa7:	f89ee1        	l32r	a14, 220 (435e51 <_end+0x4268b1>)
    1faa:	190c           	movi.n	a9, 1
    1fac:	360334        	ae_cvtq48a32s	aeq0, a3
    1faf:	282a           	add.n	a2, a8, a2
    1fb1:	114400        	slli	a4, a4, 16
    1fb4:	f87a           	add.n	a15, a8, a7
    1fb6:	966d           	ae_zext16	a6, a6
    1fb8:	1a6192        	s32i	a9, a1, 104
    1fbb:	398ee4        	ae_movpa24x2	aep0, a14, a14
    1fbe:	050c           	movi.n	a5, 0
    1fc0:	40c192        	addi	a9, a1, 64
    1fc3:	630144        	ae_sq56s.i	aeq0, a1, 32
    1fc6:	10c1a2        	addi	a10, a1, 16
    1fc9:	632154        	ae_sq56s.i	aeq2, a1, 40
    1fcc:	44c1b2        	addi	a11, a1, 68
    1fcf:	0e0c           	movi.n	a14, 0
    1fd1:	633134        	ae_sq56s.i	aeq3, a1, 24
    1fd4:	1761c2        	s32i	a12, a1, 92
    1fd7:	126122        	s32i	a2, a1, 72
    1fda:	0249           	s32i.n	a4, a2, 0
    1fdc:	1861f2        	s32i	a15, a1, 96
    1fdf:	178676        	loop	a6, 1ffa <pitch_by_harmonic+0x3ca>
    1fe2:	030160        	rsr.lend	a6
    1fe5:	130060        	wsr.lbeg	a6
    1fe8:	f89361        	l32r	a6, 234 (21ce <pitch_by_harmonic+0x59e>)
    1feb:	0020f0        	nop
    1fee:	130160        	wsr.lend	a6
    1ff1:	002000        	isync
    1ff4:	030260        	rsr.lcount	a6
    1ff7:	01c662        	addi	a6, a6, 1
    1ffa:	060c           	movi.n	a6, 0
    1ffc:	113e16        	beqz	a14, 2113 <pitch_by_harmonic+0x4e3>
    1fff:	604d04        	ae_lq32f.i	aeq1, a13, 0
    2002:	608df4        	ae_lq32f.i	aeq2, a13, -4
    2005:	f9ca933ddf 	{ or	a3, a13, a13; ae_subsq56s	aeq1, aeq1, aeq2 }
    200a:	1521d2        	l32i	a13, a1, 84
    200d:	355064        	ae_srliq56	aeq1, aeq1, 1
    2010:	38c122        	addi	a2, a1, 56
    2013:	0d48           	l32i.n	a4, a13, 0
    2015:	621204        	ae_sq32f.i	aeq1, a2, 0
    2018:	e168           	l32i.n	a6, a1, 56
    201a:	218c40        	srai	a8, a4, 12
    201d:	f878c1        	l32r	a12, 200 (96b8 <two_mic_WB_NR_NSN_proc+0xb48>)
    2020:	d24680        	quos	a4, a6, a8
    2023:	f149           	s32i.n	a4, a1, 60
    2025:	132162        	l32i	a6, a1, 76
    2028:	60c214        	ae_lq32f.i	aeq3, a2, 4
    202b:	3cc172        	addi	a7, a1, 60
    202e:	36b3d4        	ae_sllisq56s	aeq2, aeq3, 15
    2031:	f8f3fbf6cf 	{ ae_lq32f.x	aeq3, a6, a12; ae_roundsp16q48sym	aep1, aeq2 }
    2036:	fb253ad22f 	{ ae_sllisq56s	aeq0, aeq1, 10; ae_mulq32sp16s.h	aeq2, aeq3, aep1 }
    203b:	0bfd           	mov.n	a15, a11
    203d:	36a3d4        	ae_sllisq56s	aeq2, aeq2, 15
    2040:	f852bdc14f 	{ ae_lq56.i	aeq2, a1, 32; ae_subsq56s	aeq0, aeq2, aeq0 }
    2045:	fc0093baaf 	{ or	a11, a10, a10; ae_absq56	aeq0, aeq0 }
    204a:	d65013a99f 	{ or	a10, a9, a9; ae_ltq56s	b0, aeq0, aeq2 }
    204f:	040c           	movi.n	a4, 0
    2051:	190c           	movi.n	a9, 1
    2053:	d34900        	movt	a4, a9, b0
    2056:	421164        	ae_sp16f.l.i	aep1, a1, 12
    2059:	c1cb           	addi.n	a12, a1, 12
    205b:	74bc           	beqz.n	a4, 2096 <pitch_by_harmonic+0x466>
    205d:	f86771        	l32r	a7, 1fc (96bc <two_mic_WB_NR_NSN_proc+0xb4c>)
    2060:	172182        	l32i	a8, a1, 92
    2063:	365054        	ae_sllisq56s	aeq1, aeq1, 1
    2066:	602674        	ae_lq32f.x	aeq0, a6, a7
    2069:	f86660082e 	{ l16si	a2, a8, 0; ae_addsq56s	aeq0, aeq0, aeq1 }
    206e:	fc00e0614e 	{ l16si	a4, a1, 12; ae_satq48s	aeq0, aeq0 }
    2073:	1821c2        	l32i	a12, a1, 96
    2076:	628674        	ae_sq32f.x	aeq0, a6, a7
    2079:	242a           	add.n	a2, a4, a2
    207b:	0c48           	l32i.n	a4, a12, 0
    207d:	682d           	ae_s16i.n	a2, a8, 0
    207f:	822d           	ae_sext16	a2, a2
    2081:	d22420        	quos	a2, a4, a2
    2084:	112260        	slli	a2, a2, 10
    2087:	0d29           	s32i.n	a2, a13, 0
    2089:	0a9d           	mov.n	a9, a10
    208b:	0bad           	mov.n	a10, a11
    208d:	160c           	movi.n	a6, 1
    208f:	03dd           	mov.n	a13, a3
    2091:	0fbd           	mov.n	a11, a15
    2093:	001f06        	j	2113 <pitch_by_harmonic+0x4e3>

00002096 <pitch_by_harmonic+0x466>:
    2096:	0a9d           	mov.n	a9, a10
    2098:	0bad           	mov.n	a10, a11
    209a:	060c           	movi.n	a6, 0
    209c:	03dd           	mov.n	a13, a3
    209e:	0fbd           	mov.n	a11, a15
    20a0:	6f2eb6        	bltui	a14, 2, 2113 <pitch_by_harmonic+0x4e3>
    20a3:	600d04        	ae_lq32f.i	aeq0, a13, 0
    20a6:	604de4        	ae_lq32f.i	aeq1, a13, -8
    20a9:	f8468000ff 	{ movi	a15, 0; ae_subsq56s	aeq0, aeq0, aeq1 }
    20ae:	354064        	ae_srliq56	aeq1, aeq0, 1
    20b1:	621204        	ae_sq32f.i	aeq1, a2, 0
    20b4:	e128           	l32i.n	a2, a1, 56
    20b6:	130c           	movi.n	a3, 1
    20b8:	060c           	movi.n	a6, 0
    20ba:	d22280        	quos	a2, a2, a8
    20bd:	f129           	s32i.n	a2, a1, 60
    20bf:	608704        	ae_lq32f.i	aeq2, a7, 0
    20c2:	3623d4        	ae_sllisq56s	aeq0, aeq2, 15
    20c5:	f8e3fad2af 	{ ae_sllisq56s	aeq2, aeq1, 10; ae_roundsp16q48sym	aep1, aeq0 }
    20ca:	fa253de14f 	{ ae_lq56.i	aeq3, a1, 32; ae_mulq32sp16s.h	aeq0, aeq3, aep1 }
    20cf:	421c04        	ae_sp16f.l.i	aep1, a12, 0
    20d2:	3603d4        	ae_sllisq56s	aeq0, aeq0, 15
    20d5:	f8c2b131ce 	{ l32i	a12, a1, 76; ae_subsq56s	aeq0, aeq0, aeq2 }
    20da:	fc00b1717e 	{ l32i	a7, a1, 92; ae_absq56	aeq0, aeq0 }
    20df:	d65831818e 	{ l32i	a8, a1, 96; ae_ltq56s	b0, aeq0, aeq3 }
    20e4:	d3f300        	movt	a15, a3, b0
    20e7:	8fac           	beqz.n	a15, 2113 <pitch_by_harmonic+0x4e3>
    20e9:	f84431        	l32r	a3, 1fc (96bc <two_mic_WB_NR_NSN_proc+0xb4c>)
    20ec:	365054        	ae_sllisq56s	aeq1, aeq1, 1
    20ef:	272d           	ae_l16si.n	a2, a7, 0
    20f1:	602c34        	ae_lq32f.x	aeq0, a12, a3
    20f4:	f86660614e 	{ l16si	a4, a1, 12; ae_addsq56s	aeq0, aeq0, aeq1 }
    20f9:	fc00f151fe 	{ l32i	a15, a1, 84; ae_satq48s	aeq0, aeq0 }
    20fe:	628c34        	ae_sq32f.x	aeq0, a12, a3
    2101:	08c8           	l32i.n	a12, a8, 0
    2103:	242a           	add.n	a2, a4, a2
    2105:	672d           	ae_s16i.n	a2, a7, 0
    2107:	822d           	ae_sext16	a2, a2
    2109:	d22c20        	quos	a2, a12, a2
    210c:	112260        	slli	a2, a2, 10
    210f:	160c           	movi.n	a6, 1
    2111:	0f29           	s32i.n	a2, a15, 0
    2113:	1521c2        	l32i	a12, a1, 84
    2116:	0d28           	l32i.n	a2, a13, 0
    2118:	132182        	l32i	a8, a1, 76
    211b:	0c48           	l32i.n	a4, a12, 0
    211d:	f83871        	l32r	a7, 200 (96b8 <two_mic_WB_NR_NSN_proc+0xb48>)
    2120:	116122        	s32i	a2, a1, 68
    2123:	214b40        	srai	a4, a4, 11
    2126:	d24240        	quos	a4, a2, a4
    2129:	106142        	s32i	a4, a1, 64
    212c:	604904        	ae_lq32f.i	aeq1, a9, 0
    212f:	3653d4        	ae_sllisq56s	aeq1, aeq1, 15
    2132:	f8ebfb987f 	{ ae_lq32f.x	aeq0, a8, a7; ae_roundsp16q48sym	aep1, aeq1 }
    2137:	f824321a0f 	{ ae_sp16f.l.i	aep1, a10, 0; ae_mulq32sp16s.h	aeq0, aeq0, aep1 }
    213c:	081172        	l16ui	a7, a1, 16
    213f:	60cb04        	ae_lq32f.i	aeq3, a11, 0
    2142:	36b254        	ae_sllisq56s	aeq2, aeq3, 9
    2145:	3603d4        	ae_sllisq56s	aeq0, aeq0, 15
    2148:	fac2bda13f 	{ ae_lq56.i	aeq1, a1, 24; ae_subsq56s	aeq2, aeq0, aeq2 }
    214d:	081726        	beqi	a7, 1, 2159 <pitch_by_harmonic+0x529>
    2150:	614154        	ae_lq56.i	aeq1, a1, 40
    2153:	022726        	beqi	a7, 2, 2159 <pitch_by_harmonic+0x529>
    2156:	614144        	ae_lq56.i	aeq1, a1, 32
    2159:	069a64        	ae_absq56	aeq2, aeq2
    215c:	168c           	beqz.n	a6, 2161 <pitch_by_harmonic+0x531>
    215e:	088594        	ae_mulrfq32sp24s.l	aeq2, aeq2, aep0
    2161:	d6c800004f 	{ movi	a4, 0; ae_ltq56s	b0, aeq2, aeq1 }
    2166:	130c           	movi.n	a3, 1
    2168:	1821f2        	l32i	a15, a1, 96
    216b:	d34300        	movt	a4, a3, b0
    216e:	041416        	beqz	a4, 21b3 <pitch_by_harmonic+0x583>
    2171:	872d           	ae_sext16	a2, a7
    2173:	2322a6        	blti	a2, 2, 219a <pitch_by_harmonic+0x56a>
    2176:	f82131        	l32r	a3, 1fc (96bc <two_mic_WB_NR_NSN_proc+0xb4c>)
    2179:	172172        	l32i	a7, a1, 92
    217c:	602834        	ae_lq32f.x	aeq0, a8, a3
    217f:	f8e660074e 	{ l16si	a4, a7, 0; ae_addsq56s	aeq0, aeq0, aeq3 }
    2184:	060844        	ae_satq48s	aeq0, aeq0
    2187:	628834        	ae_sq32f.x	aeq0, a8, a3
    218a:	0f68           	l32i.n	a6, a15, 0
    218c:	442a           	add.n	a4, a4, a2
    218e:	674d           	ae_s16i.n	a4, a7, 0
    2190:	844d           	ae_sext16	a4, a4
    2192:	d24640        	quos	a4, a6, a4
    2195:	114460        	slli	a4, a4, 10
    2198:	0c49           	s32i.n	a4, a12, 0
    219a:	122132        	l32i	a3, a1, 72
    219d:	551b           	addi.n	a5, a5, 1
    219f:	122162        	l32i	a6, a1, 72
    21a2:	635d           	ae_s16i.n	a5, a3, 0
    21a4:	226207        	bbci	a2, 0, 21ca <pitch_by_harmonic+0x59a>
    21a7:	040c           	movi.n	a4, 0
    21a9:	030c           	movi.n	a3, 0
    21ab:	1a6132        	s32i	a3, a1, 104
    21ae:	764d           	ae_s16i.n	a4, a6, 2
    21b0:	000586        	j	21ca <pitch_by_harmonic+0x59a>

000021b3 <pitch_by_harmonic+0x583>:
    21b3:	142172        	l32i	a7, a1, 80
    21b6:	162162        	l32i	a6, a1, 88
    21b9:	1b2132        	l32i	a3, a1, 108
    21bc:	874d           	ae_sext16	a4, a7
    21be:	771b           	addi.n	a7, a7, 1
    21c0:	a04460        	addx4	a4, a4, a6
    21c3:	146172        	s32i	a7, a1, 80
    21c6:	637d           	ae_s16i.n	a7, a3, 0
    21c8:	0429           	s32i.n	a2, a4, 0
    21ca:	dd4b           	addi.n	a13, a13, 4
    21cc:	ee1b           	addi.n	a14, a14, 1

000021ce <pitch_by_harmonic+0x59e>:
    21ce:	142132        	l32i	a3, a1, 80
    21d1:	192142        	l32i	a4, a1, 100
    21d4:	152172        	l32i	a7, a1, 84
    21d7:	1621c2        	l32i	a12, a1, 88
    21da:	1a21d2        	l32i	a13, a1, 104
    21dd:	832d           	ae_sext16	a2, a3
    21df:	165452        	s16i	a5, a4, 44
    21e2:	5b12a6        	blti	a2, 1, 2241 <pitch_by_harmonic+0x611>
    21e5:	0748           	l32i.n	a4, a7, 0
    21e7:	f80621        	l32r	a2, 200 (96b8 <two_mic_WB_NR_NSN_proc+0xb48>)
    21ea:	f80ef1        	l32r	a15, 224 (159999a <_end+0x158a3fa>)
    21ed:	936d           	ae_zext16	a6, a3
    21ef:	602824        	ae_lq32f.x	aeq0, a8, a2
    21f2:	364f34        	ae_cvtq48a32s	aeq1, a15
    21f5:	120c           	movi.n	a2, 1
    21f7:	214b40        	srai	a4, a4, 11
    21fa:	438676        	loop	a6, 2241 <pitch_by_harmonic+0x611>
    21fd:	0c68           	l32i.n	a6, a12, 0
    21ff:	116162        	s32i	a6, a1, 68
    2202:	0f0c           	movi.n	a15, 0
    2204:	d26640        	quos	a6, a6, a4
    2207:	106162        	s32i	a6, a1, 64
    220a:	608904        	ae_lq32f.i	aeq2, a9, 0
    220d:	36a3d4        	ae_sllisq56s	aeq2, aeq2, 15
    2210:	f8f3bd4b0f 	{ ae_lq32f.i	aeq2, a11, 0; ae_roundsp16q48sym	aep0, aeq2 }
    2215:	f9207ae29f 	{ ae_sllisq56s	aeq2, aeq2, 9; ae_mulq32sp16s.h	aeq3, aeq0, aep0 }
    221a:	36f3d4        	ae_sllisq56s	aeq3, aeq3, 15
    221d:	fadab1213e 	{ l32i	a3, a1, 72; ae_subsq56s	aeq2, aeq3, aeq2 }
    2222:	fe80b121ee 	{ l32i	a14, a1, 72; ae_absq56	aeq2, aeq2 }
    2227:	d6c8320a0f 	{ ae_sp16f.l.i	aep0, a10, 0; ae_ltq56s	b0, aeq2, aeq1 }
    222c:	100162        	l8ui	a6, a1, 16
    222f:	d3f200        	movt	a15, a2, b0
    2232:	9f8c           	beqz.n	a15, 223f <pitch_by_harmonic+0x60f>
    2234:	551b           	addi.n	a5, a5, 1
    2236:	635d           	ae_s16i.n	a5, a3, 0
    2238:	036607        	bbci	a6, 0, 223f <pitch_by_harmonic+0x60f>
    223b:	0d0c           	movi.n	a13, 0
    223d:	7edd           	ae_s16i.n	a13, a14, 2

0000223f <pitch_by_harmonic+0x60f>:
    223f:	cc4b           	addi.n	a12, a12, 4

00002241 <pitch_by_harmonic+0x611>:
    2241:	f27c           	movi.n	a2, -1
    2243:	5ba262        	movi	a6, 0x25b
    2246:	f42020        	extui	a2, a2, 0, 16
    2249:	1166a0        	slli	a6, a6, 6
    224c:	4e02d7        	bnone	a2, a13, 229e <pitch_by_harmonic+0x66e>
    224f:	f7ed21        	l32r	a2, 204 (96b4 <two_mic_WB_NR_NSN_proc+0xb44>)
    2252:	853d           	ae_sext16	a3, a5
    2254:	122142        	l32i	a4, a1, 72
    2257:	282a           	add.n	a2, a8, a2
    2259:	0228           	l32i.n	a2, a2, 0
    225b:	859d           	ae_sext16	a9, a5
    225d:	32bc           	beqz.n	a2, 2294 <pitch_by_harmonic+0x664>
    225f:	0233a6        	blti	a3, 3, 2265 <pitch_by_harmonic+0x635>
    2262:	002286        	j	22f0 <pitch_by_harmonic+0x6c0>
    2265:	020c           	movi.n	a2, 0
    2267:	742d           	ae_s16i.n	a2, a4, 2
    2269:	000e46        	j	22a6 <pitch_by_harmonic+0x676>

0000226c <pitch_by_harmonic+0x63c>:
    226c:	f7e231        	l32r	a3, 1f4 (96c8 <two_mic_WB_NR_NSN_proc+0xb58>)
    226f:	5ba222        	movi	a2, 0x25b
    2272:	1122a0        	slli	a2, a2, 6
    2275:	282a           	add.n	a2, a8, a2
    2277:	f83a           	add.n	a15, a8, a3
    2279:	0279           	s32i.n	a7, a2, 0
    227b:	6f7d           	ae_s16i.n	a7, a15, 0
    227d:	f01d           	retw.n

0000227f <pitch_by_harmonic+0x64f>:
    227f:	030c           	movi.n	a3, 0
    2281:	274a           	add.n	a2, a7, a4
    2283:	0239           	s32i.n	a3, a2, 0
    2285:	f7db41        	l32r	a4, 1f4 (96c8 <two_mic_WB_NR_NSN_proc+0xb58>)
    2288:	276a           	add.n	a2, a7, a6
    228a:	030c           	movi.n	a3, 0
    228c:	f74a           	add.n	a15, a7, a4
    228e:	0239           	s32i.n	a3, a2, 0
    2290:	6f3d           	ae_s16i.n	a3, a15, 0
    2292:	f01d           	retw.n

00002294 <pitch_by_harmonic+0x664>:
    2294:	5859e6        	bgei	a9, 5, 22f0 <pitch_by_harmonic+0x6c0>
    2297:	122132        	l32i	a3, a1, 72
    229a:	020c           	movi.n	a2, 0
    229c:	732d           	ae_s16i.n	a2, a3, 2
    229e:	852d           	ae_sext16	a2, a5
    22a0:	0232a6        	blti	a2, 3, 22a6 <pitch_by_harmonic+0x676>
    22a3:	002186        	j	232d <pitch_by_harmonic+0x6fd>
    22a6:	952d           	ae_zext16	a2, a5
    22a8:	022226        	beqi	a2, 2, 22ae <pitch_by_harmonic+0x67e>
    22ab:	0022c6        	j	233a <pitch_by_harmonic+0x70a>
    22ae:	f7d121        	l32r	a2, 1f4 (96c8 <two_mic_WB_NR_NSN_proc+0xb58>)
    22b1:	d37c           	movi.n	a3, -3
    22b3:	013360        	slli	a3, a3, 26
    22b6:	282a           	add.n	a2, a8, a2
    22b8:	422d           	ae_l16ui.n	a2, a2, 0
    22ba:	341c           	movi.n	a4, 19
    22bc:	014480        	slli	a4, a4, 24
    22bf:	077216        	beqz	a2, 233a <pitch_by_harmonic+0x70a>
    22c2:	0728           	l32i.n	a2, a7, 0
    22c4:	f7cf51        	l32r	a5, 200 (96b8 <two_mic_WB_NR_NSN_proc+0xb48>)
    22c7:	f7c9e1        	l32r	a14, 1ec (aaaab <_end+0x9b50b>)
    22ca:	323a           	add.n	a3, a2, a3
    22cc:	6a3437        	bltu	a4, a3, 233a <pitch_by_harmonic+0x70a>
    22cf:	606864        	ae_lq32f.x	aeq1, a8, a6
    22d2:	602854        	ae_lq32f.x	aeq0, a8, a5
    22d5:	f846a20eef 	{ ae_movpa24x2	aep0, a14, a14; ae_subsq56s	aeq0, aeq0, aeq1 }
    22da:	f8e14000ff 	{ movi	a15, 0; ae_mulrfq32sp24s.l	aeq1, aeq1, aep0 }
    22df:	fc0080014f 	{ movi	a4, 1; ae_absq56	aeq0, aeq0 }
    22e4:	098104        	ae_ltq56s	b0, aeq1, aeq0
    22e7:	d3f400        	movt	a15, a4, b0
    22ea:	04cf56        	bnez	a15, 233a <pitch_by_harmonic+0x70a>
    22ed:	0017c6        	j	2350 <pitch_by_harmonic+0x720>

000022f0 <pitch_by_harmonic+0x6c0>:
    22f0:	0728           	l32i.n	a2, a7, 0
    22f2:	f7cd41        	l32r	a4, 228 (13ffffff <_end+0x13ff0a5f>)
    22f5:	f7bf31        	l32r	a3, 1f4 (96c8 <two_mic_WB_NR_NSN_proc+0xb58>)
    22f8:	f7c251        	l32r	a5, 200 (96b8 <two_mic_WB_NR_NSN_proc+0xb48>)
    22fb:	272427        	blt	a4, a2, 2326 <pitch_by_harmonic+0x6f6>
    22fe:	483a           	add.n	a4, a8, a3
    2300:	244d           	ae_l16si.n	a4, a4, 0
    2302:	f7bae1        	l32r	a14, 1ec (aaaab <_end+0x9b50b>)
    2305:	398ee4        	ae_movpa24x2	aep0, a14, a14
    2308:	3c34a6        	blti	a4, 3, 2348 <pitch_by_harmonic+0x718>
    230b:	606864        	ae_lq32f.x	aeq1, a8, a6
    230e:	602854        	ae_lq32f.x	aeq0, a8, a5
    2311:	f8468000ff 	{ movi	a15, 0; ae_subsq56s	aeq0, aeq0, aeq1 }
    2316:	f80140015f 	{ movi	a5, 1; ae_mulfq32sp24s.h	aeq1, aeq1, aep0 }
    231b:	061864        	ae_absq56	aeq0, aeq0
    231e:	099404        	ae_leq56s	b0, aeq0, aeq1
    2321:	d3f500        	movt	a15, a5, b0
    2324:	0fac           	beqz.n	a15, 2348 <pitch_by_harmonic+0x718>
    2326:	122132        	l32i	a3, a1, 72
    2329:	020c           	movi.n	a2, 0
    232b:	732d           	ae_s16i.n	a2, a3, 2
    232d:	0728           	l32i.n	a2, a7, 0
    232f:	f7bf31        	l32r	a3, 22c (f570a3d7 <_end+0xf56fae37>)
    2332:	f7bf41        	l32r	a4, 230 (2428f5c4 <_end+0x24280024>)
    2335:	323a           	add.n	a3, a2, a3
    2337:	153347        	bltu	a3, a4, 2350 <pitch_by_harmonic+0x720>
    233a:	020c           	movi.n	a2, 0
    233c:	0729           	s32i.n	a2, a7, 0
    233e:	f7ad31        	l32r	a3, 1f4 (96c8 <two_mic_WB_NR_NSN_proc+0xb58>)
    2341:	040c           	movi.n	a4, 0
    2343:	383a           	add.n	a3, a8, a3
    2345:	000d06        	j	237d <pitch_by_harmonic+0x74d>

00002348 <pitch_by_harmonic+0x718>:
    2348:	1122f0        	slli	a2, a2, 1
    234b:	0729           	s32i.n	a2, a7, 0
    234d:	ed12a6        	blti	a2, 1, 233e <pitch_by_harmonic+0x70e>
    2350:	f7ac31        	l32r	a3, 200 (96b8 <two_mic_WB_NR_NSN_proc+0xb48>)
    2353:	f7a6e1        	l32r	a14, 1ec (aaaab <_end+0x9b50b>)
    2356:	606864        	ae_lq32f.x	aeq1, a8, a6
    2359:	602834        	ae_lq32f.x	aeq0, a8, a3
    235c:	f846a20eef 	{ ae_movpa24x2	aep0, a14, a14; ae_subsq56s	aeq0, aeq0, aeq1 }
    2361:	f8e14000ff 	{ movi	a15, 0; ae_mulrfq32sp24s.l	aeq1, aeq1, aep0 }
    2366:	fc0080014f 	{ movi	a4, 1; ae_absq56	aeq0, aeq0 }
    236b:	099004        	ae_ltq56s	b0, aeq0, aeq1
    236e:	f7a131        	l32r	a3, 1f4 (96c8 <two_mic_WB_NR_NSN_proc+0xb58>)
    2371:	d3f400        	movt	a15, a4, b0
    2374:	fc6f16        	beqz	a15, 233e <pitch_by_harmonic+0x70e>
    2377:	383a           	add.n	a3, a8, a3
    2379:	234d           	ae_l16si.n	a4, a3, 0
    237b:	441b           	addi.n	a4, a4, 1
    237d:	f86a           	add.n	a15, a8, a6
    237f:	634d           	ae_s16i.n	a4, a3, 0
    2381:	0f29           	s32i.n	a2, a15, 0
    2383:	f01d           	retw.n

00002385 <pitch_by_harmonic+0x755>:
    2385:	000000                                        ...

00002388 <Xfrac_num_pd_td32>:
    2388:	008136        	entry	a1, 64
    238b:	f7ab61        	l32r	a6, 238 (5a8200 <_end+0x598c60>)
    238e:	600204        	ae_lq32f.i	aeq0, a2, 0
    2391:	604214        	ae_lq32f.i	aeq1, a2, 4
    2394:	f946a2066f 	{ ae_movpa24x2	aep0, a6, a6; ae_subsq56s	aeq1, aeq0, aeq1 }
    2399:	f9017d42ff 	{ ae_lq32f.i	aeq2, a2, -4; ae_mulfq32sp24s.h	aeq3, aeq1, aep0 }
    239e:	f8c28000ff 	{ movi	a15, 0; ae_subsq56s	aeq0, aeq0, aeq2 }
    23a3:	d65800017f 	{ movi	a7, 1; ae_ltq56s	b0, aeq0, aeq3 }
    23a8:	5139           	s32i.n	a3, a1, 20
    23aa:	f98039916f 	{ ae_sq32f.i	aeq1, a1, 24; ae_mulfq32sp24s.l	aeq2, aeq0, aep0 }
    23af:	d3f700        	movt	a15, a7, b0
    23b2:	18c152        	addi	a5, a1, 24
    23b5:	620174        	ae_sq32f.i	aeq0, a1, 28
    23b8:	2fac           	beqz.n	a15, 23de <Xfrac_num_pd_td32+0x56>
    23ba:	120c           	movi.n	a2, 1
    23bc:	0122c0        	slli	a2, a2, 20
    23bf:	604504        	ae_lq32f.i	aeq1, a5, 0
    23c2:	398224        	ae_movpa24x2	aep0, a2, a2
    23c5:	f8814000ef 	{ movi	a14, 0; ae_mulfq32sp24s.l	aeq1, aeq1, aep0 }
    23ca:	1f0c           	movi.n	a15, 1
    23cc:	d64800006f 	{ movi	a6, 0; ae_ltq56s	b0, aeq0, aeq1 }
    23d1:	f79a21        	l32r	a2, 23c (c28f0000 <_end+0xc28e0a60>)
    23d4:	150c           	movi.n	a5, 1
    23d6:	d3ef00        	movt	a14, a15, b0
    23d9:	7e9c           	beqz.n	a14, 23f4 <Xfrac_num_pd_td32+0x6c>
    23db:	002546        	j	2474 <Xfrac_num_pd_td32+0xec>

000023de <Xfrac_num_pd_td32+0x56>:
    23de:	604504        	ae_lq32f.i	aeq1, a5, 0
    23e1:	d6c800002f 	{ movi	a2, 0; ae_ltq56s	b0, aeq2, aeq1 }
    23e6:	1f0c           	movi.n	a15, 1
    23e8:	160c           	movi.n	a6, 1
    23ea:	d32f00        	movt	a2, a15, b0
    23ed:	b29c           	beqz.n	a2, 240c <Xfrac_num_pd_td32+0x84>
    23ef:	020c           	movi.n	a2, 0
    23f1:	001fc6        	j	2474 <Xfrac_num_pd_td32+0xec>

000023f4 <Xfrac_num_pd_td32+0x6c>:
    23f4:	369054        	ae_sllisq56s	aeq2, aeq1, 1
    23f7:	fe80c0007f 	{ movi	a7, 0; ae_satq48s	aeq2, aeq2 }
    23fc:	d65000018f 	{ movi	a8, 1; ae_ltq56s	b0, aeq0, aeq2 }
    2401:	f78f21        	l32r	a2, 240 (cccd0000 <_end+0xcccc0a60>)
    2404:	d36500        	movt	a6, a5, b0
    2407:	06ac           	beqz.n	a6, 242b <Xfrac_num_pd_td32+0xa3>
    2409:	0019c6        	j	2474 <Xfrac_num_pd_td32+0xec>

0000240c <Xfrac_num_pd_td32+0x84>:
    240c:	0126a0        	slli	a2, a6, 22
    240f:	398224        	ae_movpa24x2	aep0, a2, a2
    2412:	f8800000ff 	{ movi	a15, 0; ae_mulfq32sp24s.l	aeq0, aeq0, aep0 }
    2417:	150c           	movi.n	a5, 1
    2419:	d6483b009f 	{ ae_sraiq56	aeq2, aeq0, 1; ae_ltq56s	b0, aeq0, aeq1 }
    241e:	f78b21        	l32r	a2, 24c (ccd0000 <_end+0xccc0a60>)
    2421:	070c           	movi.n	a7, 0
    2423:	d3f500        	movt	a15, a5, b0
    2426:	8f9c           	beqz.n	a15, 2442 <Xfrac_num_pd_td32+0xba>
    2428:	001206        	j	2474 <Xfrac_num_pd_td32+0xec>

0000242b <Xfrac_num_pd_td32+0xa3>:
    242b:	365094        	ae_sllisq56s	aeq1, aeq1, 2
    242e:	064944        	ae_satq48s	aeq1, aeq1
    2431:	099004        	ae_ltq56s	b0, aeq0, aeq1
    2434:	f78421        	l32r	a2, 244 (e6660000 <_end+0xe6650a60>)
    2437:	f78451        	l32r	a5, 248 (f3330000 <_end+0xf3320a60>)
    243a:	d37800        	movt	a7, a8, b0
    243d:	879c           	beqz.n	a7, 2459 <Xfrac_num_pd_td32+0xd1>
    243f:	000c46        	j	2474 <Xfrac_num_pd_td32+0xec>

00002442 <Xfrac_num_pd_td32+0xba>:
    2442:	fe80c0015f 	{ movi	a5, 1; ae_satq48s	aeq2, aeq2 }
    2447:	d6c83b002f 	{ ae_sraiq56	aeq0, aeq0, 2; ae_ltq56s	b0, aeq2, aeq1 }
    244c:	f78121        	l32r	a2, 250 (199a0000 <_end+0x19990a60>)
    244f:	060c           	movi.n	a6, 0
    2451:	d37500        	movt	a7, a5, b0
    2454:	678c           	beqz.n	a7, 245e <Xfrac_num_pd_td32+0xd6>
    2456:	000686        	j	2474 <Xfrac_num_pd_td32+0xec>

00002459 <Xfrac_num_pd_td32+0xd1>:
    2459:	052d           	mov.n	a2, a5
    245b:	000546        	j	2474 <Xfrac_num_pd_td32+0xec>

0000245e <Xfrac_num_pd_td32+0xd6>:
    245e:	fc00c0015f 	{ movi	a5, 1; ae_satq48s	aeq0, aeq0 }
    2463:	099004        	ae_ltq56s	b0, aeq0, aeq1
    2466:	f77b21        	l32r	a2, 254 (33330000 <_end+0x33320a60>)
    2469:	d36500        	movt	a6, a5, b0
    246c:	168c           	beqz.n	a6, 2471 <Xfrac_num_pd_td32+0xe9>
    246e:	000086        	j	2474 <Xfrac_num_pd_td32+0xec>

00002471 <Xfrac_num_pd_td32+0xe9>:
    2471:	f77921        	l32r	a2, 258 (3d710000 <_end+0x3d700a60>)
    2474:	d43a           	add.n	a13, a4, a3
    2476:	4129           	s32i.n	a2, a1, 16
    2478:	112d00        	slli	a2, a13, 16
    247b:	600144        	ae_lq32f.i	aeq0, a1, 16
    247e:	5129           	s32i.n	a2, a1, 20
    2480:	604154        	ae_lq32f.i	aeq1, a1, 20
    2483:	3503f4        	ae_sraiq56	aeq0, aeq0, 15
    2486:	0118c4        	ae_addq56	aeq0, aeq1, aeq0
    2489:	060834        	ae_roundsq32sym	aeq0, aeq0
    248c:	620144        	ae_sq32f.i	aeq0, a1, 16
    248f:	4128           	l32i.n	a2, a1, 16
    2491:	f01d           	retw.n

00002493 <Xfrac_num_pd_td32+0x10b>:
    2493:	00000000                                 .....

00002498 <subband_aec_block>:
    2498:	006136        	entry	a1, 48
    249b:	a378           	l32i.n	a7, a3, 40
    249d:	fd24a1138e 	{ l16si	a8, a3, 34; ae_zeroq56	aeq1 }
    24a2:	f41b           	addi.n	a15, a4, 1
    24a4:	a3d8           	l32i.n	a13, a3, 40
    24a6:	90e870        	addx2	a14, a8, a7
    24a9:	b3f440        	movgez	a15, a4, a4
    24ac:	21b1f0        	srai	a11, a15, 1
    24af:	2169           	s32i.n	a6, a1, 8
    24b1:	f3f6d0        	wur.ae_cbegin0	a13
    24b4:	f3f7e0        	wur.ae_cend0	a14
    24b7:	3024a6        	blti	a4, 2, 24eb <subband_aec_block+0x53>
    24ba:	e22272        	l32i	a7, a2, 0x388
    24bd:	122382        	l32i	a8, a3, 72
    24c0:	102362        	l32i	a6, a3, 64
    24c3:	600344        	ae_lq32f.i	aeq0, a3, 16
    24c6:	490c           	movi.n	a9, 4
    24c8:	440804        	ae_lp16x2f.i	aep0, a8, 0
    24cb:	fcc7a2        	addi	a10, a7, -4
    24ce:	198b76        	loop	a11, 24eb <subband_aec_block+0x53>
    24d1:	09001aa69f 	{ ae_lp16x2f.c	aep2, a6, a9; ae_mulzaafq32sp16s.hh	aeq2, aeq0, aep0, aeq0, aep0 }
    24d6:	11006d881f 	{ ae_lp16x2f.iu	aep0, a8, 4; ae_mulzaafq32sp16s.ll	aeq3, aeq0, aep0, aeq0, aep0 }
    24db:	1baf74        	ae_roundsp16q48asym	aep7, aeq2
    24de:	1bbf14        	ae_roundsp16q48asym	aep1, aeq3
    24e1:	f04a7e715f 	{ ae_selp24.hl	aep1, aep7, aep1; ae_mulssfp24s.hh.ll	aeq1, aep2, aep2 }
    24e6:	e224739a1f 	{ ae_sp16x2f.iu	aep1, a10, 4; ae_mulaafp24s.hh.ll	aeq1, aep1, aep1 }

000024eb <subband_aec_block+0x53>:
    24eb:	351234        	ae_sraiq56	aeq0, aeq1, 8
    24ee:	618304        	ae_lq56.i	aeq2, a3, 0
    24f1:	f87230926e 	{ l32i	a6, a2, 36; ae_addq56	aeq0, aeq2, aeq0 }
    24f6:	fc00fec6ff 	{ ae_cvtq48a32s	aeq3, a6; ae_satq48s	aeq0, aeq0 }
    24fb:	f87b1431bf 	{ s32i.n	a11, a1, 12; ae_maxq56s	aeq0, aeq0, aeq3 }
    2500:	630304        	ae_sq56s.i	aeq0, a3, 0
    2503:	00e5d6        	bgez	a5, 2515 <subband_aec_block+0x7d>
    2506:	109362        	l16si	a6, a3, 32
    2509:	368b04        	ae_trunca32q48	a11, aeq0
    250c:	11a670        	slli	a10, a6, 9
    250f:	f75361        	l32r	a6, 25c (be9c <airoha_divide>)
    2512:	0006e0        	callx8	a6

00002515 <subband_aec_block+0x7d>:
    2515:	102362        	l32i	a6, a3, 64
    2518:	7914a6        	blti	a4, 1, 2595 <subband_aec_block+0xfd>
    251b:	0b2372        	l32i	a7, a3, 44
    251e:	1323c2        	l32i	a12, a3, 76
    2521:	1123d2        	l32i	a13, a3, 68
    2524:	e222f2        	l32i	a15, a2, 0x388
    2527:	119382        	l16si	a8, a3, 34
    252a:	360b34        	ae_cvtq48a32s	aeq0, a11
    252d:	02a092        	movi	a9, 2
    2530:	fec772        	addi	a7, a7, -2
    2533:	feccc2        	addi	a12, a12, -2
    2536:	fecdd2        	addi	a13, a13, -2
    2539:	20e440        	or	a14, a4, a4
    253c:	fecff2        	addi	a15, a15, -2
    253f:	408f14        	ae_lp16f.iu	aep0, a15, 2
    2542:	fc24e2869f 	{ ae_sp16f.l.c	aep0, a6, a9; nop }
    2547:	408d14        	ae_lp16f.iu	aep0, a13, 2
    254a:	fd0c13b77f 	{ or	a11, a7, a7; ae_cvtq48p24s.l	aeq1, aep0 }
    254f:	0f18a6        	blti	a8, 1, 2562 <subband_aec_block+0xca>
    2552:	408b14        	ae_lp16f.iu	aep0, a11, 2
    2555:	098876        	loop	a8, 2562 <subband_aec_block+0xca>
    2558:	fc24d9169f 	{ ae_lp16f.c	aep1, a6, a9; nop }
    255d:	ee21ec8b1f 	{ ae_lp16f.iu	aep0, a11, 2; ae_mulsfp24s.ll	aeq1, aep0, aep1 }

00002562 <subband_aec_block+0xca>:
    2562:	f86b93b77f 	{ or	a11, a7, a7; ae_roundsp16q48asym	aep0, aeq1 }
    2567:	d4e2728c1f 	{ ae_sp16f.l.iu	aep0, a12, 2; ae_mulfq32sp16s.l	aeq1, aeq0, aep0 }
    256c:	0205d6        	bgez	a5, 2590 <subband_aec_block+0xf8>
    256f:	fc24fe9a4f 	{ ae_slaasq56s	aeq1, aeq1, a10; nop }
    2574:	1b9d04        	ae_roundsp24q48asym	aep0, aeq1
    2577:	1518a6        	blti	a8, 1, 2590 <subband_aec_block+0xf8>
    257a:	409b14        	ae_lp16f.iu	aep1, a11, 2
    257d:	0f8876        	loop	a8, 2590 <subband_aec_block+0xf8>
    2580:	fd2c19769f 	{ ae_lp16f.c	aep7, a6, a9; ae_cvtq48p24s.l	aeq1, aep1 }
    2585:	e2e3ec9b1f 	{ ae_lp16f.iu	aep1, a11, 2; ae_mulafp24s.ll	aeq1, aep0, aep7 }
    258a:	1b9f24        	ae_roundsp16q48asym	aep2, aeq1
    258d:	422bf4        	ae_sp16f.l.i	aep2, a11, -2
    2590:	ee0b           	addi.n	a14, a14, -1
    2592:	fa9e56        	bnez	a14, 253f <subband_aec_block+0xa7>

00002595 <subband_aec_block+0xfd>:
    2595:	106362        	s32i	a6, a3, 64
    2598:	fe24b1136e 	{ l32i	a6, a3, 68; ae_zeroq56	aeq2 }
    259d:	fc24bf217f 	{ ae_movq56	aeq1, aeq2; ae_zeroq56	aeq0 }
    25a2:	1c24a6        	blti	a4, 2, 25c2 <subband_aec_block+0x12a>
    25a5:	132372        	l32i	a7, a3, 76
    25a8:	032182        	l32i	a8, a1, 12
    25ab:	fcc662        	addi	a6, a6, -4
    25ae:	fcc772        	addi	a7, a7, -4
    25b1:	0d8876        	loop	a8, 25c2 <subband_aec_block+0x12a>
    25b4:	448614        	ae_lp16x2f.iu	aep0, a6, 4
    25b7:	e2006d971f 	{ ae_lp16x2f.iu	aep1, a7, 4; ae_mulaafp24s.hh.ll	aeq1, aep0, aep0 }
    25bc:	050104        	ae_mulaafp24s.hh.ll	aeq0, aep0, aep1
    25bf:	059104        	ae_mulaafp24s.hh.ll	aeq2, aep1, aep1

000025c2 <subband_aec_block+0x12a>:
    25c2:	2178           	l32i.n	a7, a1, 8
    25c4:	060c           	movi.n	a6, 0
    25c6:	35e134        	ae_sraiq56	aeq3, aeq2, 4
    25c9:	0c47a6        	blti	a7, 4, 25d9 <subband_aec_block+0x141>
    25cc:	fab6c0006f 	{ movi	a6, 0; ae_subq56	aeq2, aeq2, aeq3 }
    25d1:	d65400017f 	{ movi	a7, 1; ae_ltq56s	b0, aeq1, aeq2 }
    25d6:	d36700        	movt	a6, a7, b0

000025d9 <subband_aec_block+0x141>:
    25d9:	355134        	ae_sraiq56	aeq1, aeq1, 4
    25dc:	fd2c7b010f 	{ ae_sraiq56	aeq0, aeq0, 4; ae_roundsq32asym	aeq1, aeq1 }
    25e1:	fc247f1bef 	{ ae_trunca32q48	a11, aeq1; ae_roundsq32asym	aeq0, aeq0 }
    25e6:	368c04        	ae_trunca32q48	a12, aeq0
    25e9:	f71d71        	l32r	a7, 260 (2750 <common_x_pow>)
    25ec:	03ad           	mov.n	a10, a3
    25ee:	0007e0        	callx8	a7
    25f1:	6070a0        	neg	a7, a10
    25f4:	0d1677        	beq	a6, a7, 2605 <subband_aec_block+0x16d>
    25f7:	1323a2        	l32i	a10, a3, 76
    25fa:	1123b2        	l32i	a11, a3, 68
    25fd:	f6d661        	l32r	a6, 158 (d6fc <xt_memcpy>)
    2600:	04cd           	mov.n	a12, a4
    2602:	0006e0        	callx8	a6
    2605:	fc24a1337e 	{ l16si	a7, a3, 38; ae_zeroq56	aeq0 }
    260a:	b348           	l32i.n	a4, a3, 44
    260c:	119382        	l16si	a8, a3, 34
    260f:	216170        	srai	a6, a7, 1
    2612:	1427a6        	blti	a7, 2, 262a <subband_aec_block+0x192>
    2615:	11f7f0        	slli	a15, a7, 1
    2618:	904840        	addx2	a4, a8, a4
    261b:	c044f0        	sub	a4, a4, a15
    261e:	fcc442        	addi	a4, a4, -4
    2621:	058676        	loop	a6, 262a <subband_aec_block+0x192>
    2624:	448414        	ae_lp16x2f.iu	aep0, a4, 4
    2627:	050004        	ae_mulaafp24s.hh.ll	aeq0, aep0, aep0

0000262a <subband_aec_block+0x192>:
    262a:	3388           	l32i.n	a8, a3, 12
    262c:	090c           	movi.n	a9, 0
    262e:	3500b4        	ae_sraiq56	aeq0, aeq0, 2
    2631:	53a890        	max	a10, a8, a9
    2634:	fc247023be 	{ l32i	a11, a3, 8; ae_roundsq32asym	aeq0, aeq0 }
    2639:	f70a81        	l32r	a8, 264 (bfa4 <airoha_divide_limit_1>)
    263c:	368404        	ae_trunca32q48	a4, aeq0
    263f:	0008e0        	callx8	a8
    2642:	ffa082        	movi	a8, 255
    2645:	049292        	l16si	a9, a2, 8
    2648:	2403f2        	l8ui	a15, a3, 36
    264b:	7fd882        	addmi	a8, a8, 0x7f00
    264e:	31a0a0        	srai	a10, a10, 16
    2651:	c088a0        	sub	a8, a8, a10
    2654:	538890        	max	a8, a8, a9
    2657:	05ef17        	bbsi	a15, 1, 2660 <subband_aec_block+0x1c8>
    265a:	105382        	s16i	a8, a3, 32
    265d:	000706        	j	267d <subband_aec_block+0x1e5>

00002660 <subband_aec_block+0x1c8>:
    2660:	039292        	l16si	a9, a2, 6
    2663:	02ad           	mov.n	a10, a2
    2665:	03bd           	mov.n	a11, a3
    2667:	828890        	mull	a8, a8, a9
    266a:	04cd           	mov.n	a12, a4
    266c:	40d882        	addmi	a8, a8, 0x4000
    266f:	418f80        	srli	a8, a8, 15
    2672:	105382        	s16i	a8, a3, 32
    2675:	f6fc81        	l32r	a8, 268 (27b8 <ref_gain_adapt>)
    2678:	05dd           	mov.n	a13, a5
    267a:	0008e0        	callx8	a8
    267d:	059282        	l16si	a8, a2, 10
    2680:	0692a2        	l16si	a10, a2, 12
    2683:	290c           	movi.n	a9, 2
    2685:	118800        	slli	a8, a8, 16
    2688:	53a847        	bge	a8, a4, 26df <subband_aec_block+0x247>
    268b:	129382        	l16si	a8, a3, 36
    268e:	11fa00        	slli	a15, a10, 16
    2691:	f6f6b1        	l32r	a11, 26c (f210 <immediate_num>)
    2694:	208890        	or	a8, a8, a9
    2697:	125382        	s16i	a8, a3, 36
    269a:	0eaf47        	bge	a15, a4, 26ac <subband_aec_block+0x214>
    269d:	f6f341        	l32r	a4, 26c (f210 <immediate_num>)
    26a0:	18c442        	addi	a4, a4, 24
    26a3:	400404        	ae_lp16f.i	aep0, a4, 0
    26a6:	0b27e6        	bgei	a7, 2, 26b5 <subband_aec_block+0x21d>
    26a9:	000c86        	j	26df <subband_aec_block+0x247>

000026ac <subband_aec_block+0x214>:
    26ac:	18cb42        	addi	a4, a11, 24
    26af:	400414        	ae_lp16f.i	aep0, a4, 2
    26b2:	2927a6        	blti	a7, 2, 26df <subband_aec_block+0x247>
    26b5:	b348           	l32i.n	a4, a3, 44
    26b7:	119382        	l16si	a8, a3, 34
    26ba:	607070        	neg	a7, a7
    26bd:	904840        	addx2	a4, a8, a4
    26c0:	904740        	addx2	a4, a7, a4
    26c3:	441404        	ae_lp16x2f.i	aep1, a4, 0
    26c6:	fec472        	addi	a7, a4, -2
    26c9:	128676        	loop	a6, 26df <subband_aec_block+0x247>
    26cc:	011054        	ae_mulfp24s.hl	aeq0, aep1, aep0
    26cf:	ea05ed941f 	{ ae_lp16x2f.iu	aep1, a4, 4; ae_mulfp24s.ll	aeq1, aep1, aep0 }
    26d4:	1b8f24        	ae_roundsp16q48asym	aep2, aeq0
    26d7:	fb6bf2a71f 	{ ae_sp16f.l.iu	aep2, a7, 2; ae_roundsp16q48asym	aep7, aeq1 }
    26dc:	42f714        	ae_sp16f.l.iu	aep7, a7, 2

000026df <subband_aec_block+0x247>:
    26df:	129342        	l16si	a4, a3, 36
    26e2:	03d262        	addmi	a6, a2, 0x300
    26e5:	21c8           	l32i.n	a12, a1, 8
    26e7:	3ee407        	bbsi	a4, 0, 2729 <subband_aec_block+0x291>
    26ea:	5d6427        	bbci	a4, 2, 274b <subband_aec_block+0x2b3>
    26ed:	03d272        	addmi	a7, a2, 0x300
    26f0:	4e1762        	l16ui	a6, a7, 156
    26f3:	00f5d6        	bgez	a5, 2706 <subband_aec_block+0x26e>
    26f6:	2158           	l32i.n	a5, a1, 8
    26f8:	ffa582        	movi	a8, 0x5ff
    26fb:	071566        	bnei	a5, 1, 2706 <subband_aec_block+0x26e>
    26fe:	0c3867        	bltu	a8, a6, 270e <subband_aec_block+0x276>
    2701:	661b           	addi.n	a6, a6, 1
    2703:	4e5762        	s16i	a6, a7, 156

00002706 <subband_aec_block+0x26e>:
    2706:	965d           	ae_zext16	a5, a6
    2708:	00a6f2        	movi	a15, 0x600
    270b:	0935f7        	bltu	a5, a15, 2718 <subband_aec_block+0x280>
    270e:	944d           	ae_zext16	a4, a4
    2710:	250c           	movi.n	a5, 2
    2712:	204450        	or	a4, a4, a5
    2715:	125342        	s16i	a4, a3, 36
    2718:	03d242        	addmi	a4, a2, 0x300
    271b:	4b1442        	l16ui	a4, a4, 150
    271e:	f6d651        	l32r	a5, 278 (2990 <aec_post_calc_FB_sb>)
    2721:	1c1466        	bnei	a4, 1, 2741 <subband_aec_block+0x2a9>
    2724:	054d           	mov.n	a4, a5
    2726:	000686        	j	2744 <subband_aec_block+0x2ac>

00002729 <subband_aec_block+0x291>:
    2729:	4b1642        	l16ui	a4, a6, 150
    272c:	02ad           	mov.n	a10, a2
    272e:	03bd           	mov.n	a11, a3
    2730:	051466        	bnei	a4, 1, 2739 <subband_aec_block+0x2a1>
    2733:	f6cf41        	l32r	a4, 270 (2850 <aec_post_calc_sb>)
    2736:	000286        	j	2744 <subband_aec_block+0x2ac>

00002739 <subband_aec_block+0x2a1>:
    2739:	f6ce41        	l32r	a4, 274 (28ec <aec_post_calc>)
    273c:	0004e0        	callx8	a4
    273f:	f01d           	retw.n

00002741 <subband_aec_block+0x2a9>:
    2741:	f6ce41        	l32r	a4, 27c (2a10 <aec_post_calc_FB>)
    2744:	02ad           	mov.n	a10, a2
    2746:	03bd           	mov.n	a11, a3
    2748:	0004e0        	callx8	a4
    274b:	f01d           	retw.n

0000274d <subband_aec_block+0x2b5>:
    274d:	000000                                        ...

00002750 <common_x_pow>:
    2750:	004136        	entry	a1, 32
    2753:	360334        	ae_cvtq48a32s	aeq0, a3
    2756:	fe00bec47f 	{ ae_cvtq48a32s	aeq1, a4; ae_absq56	aeq2, aeq0 }
    275b:	ff0480005f 	{ movi	a5, 0; ae_absq56	aeq3, aeq1 }
    2760:	d6d80001ff 	{ movi	a15, 1; ae_ltq56s	b0, aeq2, aeq3 }
    2765:	023d           	mov.n	a3, a2
    2767:	120c           	movi.n	a2, 1
    2769:	d35f00        	movt	a5, a15, b0
    276c:	65ac           	beqz.n	a5, 2796 <common_x_pow+0x46>
    276e:	f9bac0004f 	{ movi	a4, 0; ae_subq56	aeq1, aeq3, aeq2 }
    2773:	0122b0        	slli	a2, a2, 21
    2776:	36c234        	ae_cvtq48a32s	aeq3, a2
    2779:	d6cc0001ff 	{ movi	a15, 1; ae_ltq56s	b0, aeq3, aeq1 }
    277e:	120c           	movi.n	a2, 1
    2780:	f6c051        	l32r	a5, 280 (2aaa00 <_end+0x29b460>)
    2783:	fd04564f0f 	{ movt	a4, a15, b0; ae_movq56	aeq1, aeq0 }
    2788:	c48c           	beqz.n	a4, 2798 <common_x_pow+0x48>
    278a:	398554        	ae_movpa24x2	aep0, a5, a5
    278d:	030a14        	ae_mulfq32sp16s.l	aeq1, aeq0, aep0
    2790:	065934        	ae_roundsq32asym	aeq1, aeq1
    2793:	000046        	j	2798 <common_x_pow+0x48>

00002796 <common_x_pow+0x46>:
    2796:	020c           	movi.n	a2, 0
    2798:	f6b541        	l32r	a4, 26c (f210 <immediate_num>)
    279b:	608324        	ae_lq32f.i	aeq2, a3, 8
    279e:	60c334        	ae_lq32f.i	aeq3, a3, 12
    27a1:	440404        	ae_lp16x2f.i	aep0, a4, 0
    27a4:	c10084        	ae_mulzaafq32sp16s.lh	aeq0, aeq2, aep0, aeq0, aep0
    27a7:	c108d4        	ae_mulzaafq32sp16s.lh	aeq1, aeq3, aep0, aeq1, aep0
    27aa:	060934        	ae_roundsq32asym	aeq0, aeq0
    27ad:	fd2c79832f 	{ ae_sq32f.i	aeq0, a3, 8; ae_roundsq32asym	aeq1, aeq1 }
    27b2:	621334        	ae_sq32f.i	aeq1, a3, 12
    27b5:	f01d           	retw.n

000027b7 <common_x_pow+0x67>:
	...

000027b8 <ref_gain_adapt>:
    27b8:	004136        	entry	a1, 32
    27bb:	5378           	l32i.n	a7, a3, 20
    27bd:	f6ab61        	l32r	a6, 26c (f210 <immediate_num>)
    27c0:	360734        	ae_cvtq48a32s	aeq0, a7
    27c3:	03b5d6        	bgez	a5, 2802 <ref_gain_adapt+0x4a>
    27c6:	059252        	l16si	a5, a2, 10
    27c9:	440614        	ae_lp16x2f.i	aep0, a6, 4
    27cc:	364434        	ae_cvtq48a32s	aeq1, a4
    27cf:	11d500        	slli	a13, a5, 16
    27d2:	d5637ecdbf 	{ ae_cvtq48a32s	aeq2, a13; ae_mulfq32sp16s.h	aeq3, aeq1, aep0 }
    27d7:	0e0c           	movi.n	a14, 0
    27d9:	d6d80001ff 	{ movi	a15, 1; ae_ltq56s	b0, aeq2, aeq3 }
    27de:	040c           	movi.n	a4, 0
    27e0:	150c           	movi.n	a5, 1
    27e2:	d3ef00        	movt	a14, a15, b0
    27e5:	0edc           	bnez.n	a14, 27f9 <ref_gain_adapt+0x41>
    27e7:	440624        	ae_lp16x2f.i	aep0, a6, 8
    27ea:	d56340007f 	{ movi	a7, 0; ae_mulfq32sp16s.h	aeq3, aeq1, aep0 }
    27ef:	d6d800018f 	{ movi	a8, 1; ae_ltq56s	b0, aeq2, aeq3 }
    27f4:	d34500        	movt	a4, a5, b0
    27f7:	24ac           	beqz.n	a4, 281d <ref_gain_adapt+0x65>

000027f9 <ref_gain_adapt+0x41>:
    27f9:	a10004        	ae_mulzaafq32sp16s.ll	aeq0, aeq0, aep0, aeq0, aep0
    27fc:	060934        	ae_roundsq32asym	aeq0, aeq0
    27ff:	368704        	ae_trunca32q48	a7, aeq0
    2802:	120c           	movi.n	a2, 1
    2804:	0122b0        	slli	a2, a2, 21
    2807:	532720        	max	a2, a7, a2
    280a:	5329           	s32i.n	a2, a3, 20
    280c:	604344        	ae_lq32f.i	aeq1, a3, 16
    280f:	440654        	ae_lp16x2f.i	aep0, a6, 20
    2812:	c10044        	ae_mulzaafq32sp16s.lh	aeq0, aeq1, aep0, aeq0, aep0
    2815:	060934        	ae_roundsq32asym	aeq0, aeq0
    2818:	620344        	ae_sq32f.i	aeq0, a3, 16
    281b:	f01d           	retw.n

0000281d <ref_gain_adapt+0x65>:
    281d:	440634        	ae_lp16x2f.i	aep0, a6, 12
    2820:	d76240004f 	{ movi	a4, 0; ae_mulfq32sp16s.h	aeq3, aeq2, aep0 }
    2825:	03d222        	addmi	a2, a2, 0x300
    2828:	d65c00015f 	{ movi	a5, 1; ae_ltq56s	b0, aeq1, aeq3 }
    282d:	038a94        	ae_mulfq32sp16s.l	aeq3, aeq2, aep0
    2830:	760222        	l8ui	a2, a2, 118
    2833:	d6cc16780f 	{ movt	a7, a8, b0; ae_ltq56s	b0, aeq3, aeq1 }
    2838:	fc0716        	beqz	a7, 27fc <ref_gain_adapt+0x44>
    283b:	370c           	movi.n	a7, 3
    283d:	d34500        	movt	a4, a5, b0
    2840:	14cc           	bnez.n	a4, 2845 <ref_gain_adapt+0x8d>
    2842:	b60727        	bnone	a7, a2, 27fc <ref_gain_adapt+0x44>
    2845:	440644        	ae_lp16x2f.i	aep0, a6, 16
    2848:	030214        	ae_mulfq32sp16s.l	aeq0, aeq0, aep0
    284b:	ffeb46        	j	27fc <ref_gain_adapt+0x44>

0000284e <ref_gain_adapt+0x96>:
	...

00002850 <aec_post_calc_sb>:
    2850:	006136        	entry	a1, 48
    2853:	150c           	movi.n	a5, 1
    2855:	00a142        	movi	a4, 0x100
    2858:	0155d0        	slli	a5, a5, 19
    285b:	170c           	movi.n	a7, 1
    285d:	300444        	ae_cvtp24a16x2.ll	aep0, a4, a4
    2860:	360534        	ae_cvtq48a32s	aeq0, a5
    2863:	117700        	slli	a7, a7, 16
    2866:	d4e2bec7ff 	{ ae_cvtq48a32s	aeq3, a7; ae_mulfq32sp16u.l	aeq0, aeq0, aep0 }
    286b:	23c8           	l32i.n	a12, a3, 8
    286d:	d6e3b9813f 	{ ae_sq32f.i	aeq0, a1, 12; ae_mulfq32sp16u.l	aeq0, aeq3, aep0 }
    2872:	31e8           	l32i.n	a14, a1, 12
    2874:	620134        	ae_sq32f.i	aeq0, a1, 12
    2877:	33d8           	l32i.n	a13, a3, 12
    2879:	3168           	l32i.n	a6, a1, 12
    287b:	53bce0        	max	a11, a12, a14
    287e:	f67941        	l32r	a4, 264 (bfa4 <airoha_divide_limit_1>)
    2881:	53fd60        	max	a15, a13, a6
    2884:	43abf0        	min	a10, a11, a15
    2887:	0004e0        	callx8	a4
    288a:	600364        	ae_lq32f.i	aeq0, a3, 24
    288d:	4c0244        	ae_lp24.i	aep0, a2, 16
    2890:	379aa4        	ae_truncp24a32x2	aep1, a10, a10
    2893:	e207a1c34e 	{ l16si	a4, a3, 56; ae_mulafp24s.ll	aeq0, aep1, aep0 }
    2898:	f966a0225e 	{ l16si	a5, a2, 4; ae_movp48	aep2, aep1 }
    289d:	fc2461a37e 	{ l16si	a7, a3, 52; ae_roundsq32asym	aeq0, aeq0 }
    28a2:	620364        	ae_sq32f.i	aeq0, a3, 24
    28a5:	18a547        	bge	a5, a4, 28c1 <aec_post_calc_sb+0x71>
    28a8:	0a9222        	l16si	a2, a2, 20
    28ab:	1b9342        	l16si	a4, a3, 54
    28ae:	050c           	movi.n	a5, 0
    28b0:	622b           	addi.n	a6, a2, 2
    28b2:	724540        	salt	a4, a5, a4
    28b5:	836240        	moveqz	a6, a2, a4
    28b8:	031664        	wur.ae_sar	a6
    28bb:	0b10a4        	ae_sllssp24s	aep2, aep1
    28be:	000506        	j	28d6 <aec_post_calc_sb+0x86>

000028c1 <aec_post_calc_sb+0x71>:
    28c1:	072d           	mov.n	a2, a7
    28c3:	0f27a6        	blti	a7, 2, 28d6 <aec_post_calc_sb+0x86>
    28c6:	922d           	ae_zext16	a2, a2
    28c8:	f9668ff22e 	{ addi	a2, a2, -1; ae_movp48	aep2, aep1 }
    28cd:	058276        	loop	a2, 28d6 <aec_post_calc_sb+0x86>
    28d0:	012174        	ae_mulfp24s.ll	aeq0, aep2, aep1
    28d3:	1b8d24        	ae_roundsp24q48asym	aep2, aeq0

000028d6 <aec_post_calc_sb+0x86>:
    28d6:	30c322        	addi	a2, a3, 48
    28d9:	401204        	ae_lp16f.i	aep1, a2, 0
    28dc:	d82a7d037f 	{ ae_lq32f.i	aeq0, a3, 28; ae_maxp24s	aep1, aep2, aep1 }
    28e1:	011034        	ae_mulafp24s.ll	aeq0, aep1, aep0
    28e4:	060934        	ae_roundsq32asym	aeq0, aeq0
    28e7:	620374        	ae_sq32f.i	aeq0, a3, 28
    28ea:	f01d           	retw.n

000028ec <aec_post_calc>:
    28ec:	006136        	entry	a1, 48
    28ef:	054466        	bnei	a4, 4, 28f8 <aec_post_calc+0xc>
    28f2:	20c242        	addi	a4, a2, 32
    28f5:	000086        	j	28fb <aec_post_calc+0xf>

000028f8 <aec_post_calc+0xc>:
    28f8:	1ec242        	addi	a4, a2, 30
    28fb:	150c           	movi.n	a5, 1
    28fd:	0155d0        	slli	a5, a5, 19
    2900:	400404        	ae_lp16f.i	aep0, a4, 0
    2903:	360534        	ae_cvtq48a32s	aeq0, a5
    2906:	1d0c           	movi.n	a13, 1
    2908:	115d00        	slli	a5, a13, 16
    290b:	d4e2bec5ff 	{ ae_cvtq48a32s	aeq3, a5; ae_mulfq32sp16u.l	aeq0, aeq0, aep0 }
    2910:	23c8           	l32i.n	a12, a3, 8
    2912:	d6e3b9813f 	{ ae_sq32f.i	aeq0, a1, 12; ae_mulfq32sp16u.l	aeq0, aeq3, aep0 }
    2917:	3178           	l32i.n	a7, a1, 12
    2919:	33e8           	l32i.n	a14, a3, 12
    291b:	620134        	ae_sq32f.i	aeq0, a1, 12
    291e:	3168           	l32i.n	a6, a1, 12
    2920:	53bc70        	max	a11, a12, a7
    2923:	f65041        	l32r	a4, 264 (bfa4 <airoha_divide_limit_1>)
    2926:	53fe60        	max	a15, a14, a6
    2929:	43abf0        	min	a10, a11, a15
    292c:	0004e0        	callx8	a4
    292f:	600364        	ae_lq32f.i	aeq0, a3, 24
    2932:	4c0244        	ae_lp24.i	aep0, a2, 16
    2935:	379aa4        	ae_truncp24a32x2	aep1, a10, a10
    2938:	e207a1724e 	{ l16si	a4, a2, 46; ae_mulafp24s.ll	aeq0, aep1, aep0 }
    293d:	f966a0225e 	{ l16si	a5, a2, 4; ae_movp48	aep2, aep1 }
    2942:	fc2460b27e 	{ l16si	a7, a2, 22; ae_roundsq32asym	aeq0, aeq0 }
    2947:	620364        	ae_sq32f.i	aeq0, a3, 24
    294a:	18a547        	bge	a5, a4, 2966 <aec_post_calc+0x7a>
    294d:	0a9242        	l16si	a4, a2, 20
    2950:	169252        	l16si	a5, a2, 44
    2953:	060c           	movi.n	a6, 0
    2955:	742b           	addi.n	a7, a4, 2
    2957:	725650        	salt	a5, a6, a5
    295a:	837450        	moveqz	a7, a4, a5
    295d:	031674        	wur.ae_sar	a7
    2960:	0b10a4        	ae_sllssp24s	aep2, aep1
    2963:	000506        	j	297b <aec_post_calc+0x8f>

00002966 <aec_post_calc+0x7a>:
    2966:	074d           	mov.n	a4, a7
    2968:	0f27a6        	blti	a7, 2, 297b <aec_post_calc+0x8f>
    296b:	944d           	ae_zext16	a4, a4
    296d:	f9668ff44e 	{ addi	a4, a4, -1; ae_movp48	aep2, aep1 }
    2972:	058476        	loop	a4, 297b <aec_post_calc+0x8f>
    2975:	012174        	ae_mulfp24s.ll	aeq0, aep2, aep1
    2978:	1b8d24        	ae_roundsp24q48asym	aep2, aeq0

0000297b <aec_post_calc+0x8f>:
    297b:	401274        	ae_lp16f.i	aep1, a2, 14
    297e:	d82a7d037f 	{ ae_lq32f.i	aeq0, a3, 28; ae_maxp24s	aep1, aep2, aep1 }
    2983:	011034        	ae_mulafp24s.ll	aeq0, aep1, aep0
    2986:	060934        	ae_roundsq32asym	aeq0, aeq0
    2989:	620374        	ae_sq32f.i	aeq0, a3, 28
    298c:	f01d           	retw.n

0000298e <aec_post_calc+0xa2>:
	...

00002990 <aec_post_calc_FB_sb>:
    2990:	004136        	entry	a1, 32
    2993:	2348           	l32i.n	a4, a3, 8
    2995:	3368           	l32i.n	a6, a3, 12
    2997:	150c           	movi.n	a5, 1
    2999:	115540        	slli	a5, a5, 12
    299c:	00a2f2        	movi	a15, 0x200
    299f:	53b450        	max	a11, a4, a5
    29a2:	5346f0        	max	a4, a6, a15
    29a5:	43ab40        	min	a10, a11, a4
    29a8:	f62f41        	l32r	a4, 264 (bfa4 <airoha_divide_limit_1>)
    29ab:	0004e0        	callx8	a4
    29ae:	600364        	ae_lq32f.i	aeq0, a3, 24
    29b1:	4c0244        	ae_lp24.i	aep0, a2, 16
    29b4:	379aa4        	ae_truncp24a32x2	aep1, a10, a10
    29b7:	e207a1c34e 	{ l16si	a4, a3, 56; ae_mulafp24s.ll	aeq0, aep1, aep0 }
    29bc:	f966a0225e 	{ l16si	a5, a2, 4; ae_movp48	aep2, aep1 }
    29c1:	fc2461a37e 	{ l16si	a7, a3, 52; ae_roundsq32asym	aeq0, aeq0 }
    29c6:	620364        	ae_sq32f.i	aeq0, a3, 24
    29c9:	18a547        	bge	a5, a4, 29e5 <aec_post_calc_FB_sb+0x55>
    29cc:	0a9222        	l16si	a2, a2, 20
    29cf:	1b9342        	l16si	a4, a3, 54
    29d2:	050c           	movi.n	a5, 0
    29d4:	622b           	addi.n	a6, a2, 2
    29d6:	724540        	salt	a4, a5, a4
    29d9:	836240        	moveqz	a6, a2, a4
    29dc:	031664        	wur.ae_sar	a6
    29df:	0b10a4        	ae_sllssp24s	aep2, aep1
    29e2:	000506        	j	29fa <aec_post_calc_FB_sb+0x6a>

000029e5 <aec_post_calc_FB_sb+0x55>:
    29e5:	072d           	mov.n	a2, a7
    29e7:	0f27a6        	blti	a7, 2, 29fa <aec_post_calc_FB_sb+0x6a>
    29ea:	922d           	ae_zext16	a2, a2
    29ec:	f9668ff22e 	{ addi	a2, a2, -1; ae_movp48	aep2, aep1 }
    29f1:	058276        	loop	a2, 29fa <aec_post_calc_FB_sb+0x6a>
    29f4:	012174        	ae_mulfp24s.ll	aeq0, aep2, aep1
    29f7:	1b8d24        	ae_roundsp24q48asym	aep2, aeq0

000029fa <aec_post_calc_FB_sb+0x6a>:
    29fa:	30c322        	addi	a2, a3, 48
    29fd:	401204        	ae_lp16f.i	aep1, a2, 0
    2a00:	d82a7d037f 	{ ae_lq32f.i	aeq0, a3, 28; ae_maxp24s	aep1, aep2, aep1 }
    2a05:	011034        	ae_mulafp24s.ll	aeq0, aep1, aep0
    2a08:	060934        	ae_roundsq32asym	aeq0, aeq0
    2a0b:	620374        	ae_sq32f.i	aeq0, a3, 28
    2a0e:	f01d           	retw.n

00002a10 <aec_post_calc_FB>:
    2a10:	004136        	entry	a1, 32
    2a13:	2348           	l32i.n	a4, a3, 8
    2a15:	3368           	l32i.n	a6, a3, 12
    2a17:	150c           	movi.n	a5, 1
    2a19:	115540        	slli	a5, a5, 12
    2a1c:	00a2f2        	movi	a15, 0x200
    2a1f:	53b450        	max	a11, a4, a5
    2a22:	5346f0        	max	a4, a6, a15
    2a25:	43ab40        	min	a10, a11, a4
    2a28:	f60f41        	l32r	a4, 264 (bfa4 <airoha_divide_limit_1>)
    2a2b:	0004e0        	callx8	a4
    2a2e:	600364        	ae_lq32f.i	aeq0, a3, 24
    2a31:	4c0244        	ae_lp24.i	aep0, a2, 16
    2a34:	379aa4        	ae_truncp24a32x2	aep1, a10, a10
    2a37:	e207a1c24e 	{ l16si	a4, a2, 56; ae_mulafp24s.ll	aeq0, aep1, aep0 }
    2a3c:	f966a0225e 	{ l16si	a5, a2, 4; ae_movp48	aep2, aep1 }
    2a41:	fc2460b27e 	{ l16si	a7, a2, 22; ae_roundsq32asym	aeq0, aeq0 }
    2a46:	620364        	ae_sq32f.i	aeq0, a3, 24
    2a49:	18a547        	bge	a5, a4, 2a65 <aec_post_calc_FB+0x55>
    2a4c:	0a9242        	l16si	a4, a2, 20
    2a4f:	1d9252        	l16si	a5, a2, 58
    2a52:	060c           	movi.n	a6, 0
    2a54:	742b           	addi.n	a7, a4, 2
    2a56:	725650        	salt	a5, a6, a5
    2a59:	837450        	moveqz	a7, a4, a5
    2a5c:	031674        	wur.ae_sar	a7
    2a5f:	0b10a4        	ae_sllssp24s	aep2, aep1
    2a62:	000506        	j	2a7a <aec_post_calc_FB+0x6a>

00002a65 <aec_post_calc_FB+0x55>:
    2a65:	074d           	mov.n	a4, a7
    2a67:	0f27a6        	blti	a7, 2, 2a7a <aec_post_calc_FB+0x6a>
    2a6a:	944d           	ae_zext16	a4, a4
    2a6c:	f9668ff44e 	{ addi	a4, a4, -1; ae_movp48	aep2, aep1 }
    2a71:	058476        	loop	a4, 2a7a <aec_post_calc_FB+0x6a>
    2a74:	012174        	ae_mulfp24s.ll	aeq0, aep2, aep1
    2a77:	1b8d24        	ae_roundsp24q48asym	aep2, aeq0

00002a7a <aec_post_calc_FB+0x6a>:
    2a7a:	32c222        	addi	a2, a2, 50
    2a7d:	401204        	ae_lp16f.i	aep1, a2, 0
    2a80:	d82a7d037f 	{ ae_lq32f.i	aeq0, a3, 28; ae_maxp24s	aep1, aep2, aep1 }
    2a85:	011034        	ae_mulafp24s.ll	aeq0, aep1, aep0
    2a88:	060934        	ae_roundsq32asym	aeq0, aeq0
    2a8b:	620374        	ae_sq32f.i	aeq0, a3, 28
    2a8e:	f01d           	retw.n

00002a90 <subband_aec_mid_channel>:
    2a90:	006136        	entry	a1, 48
    2a93:	a3e8           	l32i.n	a14, a3, 40
    2a95:	fd24a1137e 	{ l16si	a7, a3, 34; ae_zeroq56	aeq1 }
    2a9a:	2159           	s32i.n	a5, a1, 8
    2a9c:	a398           	l32i.n	a9, a3, 40
    2a9e:	122352        	l32i	a5, a3, 72
    2aa1:	e222f2        	l32i	a15, a2, 0x388
    2aa4:	f3f690        	wur.ae_cbegin0	a9
    2aa7:	102392        	l32i	a9, a3, 64
    2aaa:	a077e0        	addx4	a7, a7, a14
    2aad:	a80c           	movi.n	a8, 10
    2aaf:	f3f770        	wur.ae_cend0	a7
    2ab2:	460c           	movi.n	a6, 4
    2ab4:	600344        	ae_lq32f.i	aeq0, a3, 16
    2ab7:	440504        	ae_lp16x2f.i	aep0, a5, 0
    2aba:	fccf72        	addi	a7, a15, -4
    2abd:	198876        	loop	a8, 2ada <subband_aec_mid_channel+0x4a>
    2ac0:	09001aa96f 	{ ae_lp16x2f.c	aep2, a9, a6; ae_mulzaafq32sp16s.hh	aeq2, aeq0, aep0, aeq0, aep0 }
    2ac5:	11006d851f 	{ ae_lp16x2f.iu	aep0, a5, 4; ae_mulzaafq32sp16s.ll	aeq3, aeq0, aep0, aeq0, aep0 }
    2aca:	1baf74        	ae_roundsp16q48asym	aep7, aeq2
    2acd:	1bbf14        	ae_roundsp16q48asym	aep1, aeq3
    2ad0:	f04a7e715f 	{ ae_selp24.hl	aep1, aep7, aep1; ae_mulssfp24s.hh.ll	aeq1, aep2, aep2 }
    2ad5:	e22473971f 	{ ae_sp16x2f.iu	aep1, a7, 4; ae_mulaafp24s.hh.ll	aeq1, aep1, aep1 }

00002ada <subband_aec_mid_channel+0x4a>:
    2ada:	9258           	l32i.n	a5, a2, 36
    2adc:	3511b4        	ae_sraiq56	aeq0, aeq1, 6
    2adf:	618304        	ae_lq56.i	aeq2, a3, 0
    2ae2:	f87214113f 	{ s32i.n	a3, a1, 4; ae_addq56	aeq0, aeq2, aeq0 }
    2ae7:	1155e0        	slli	a5, a5, 2
    2aea:	fc00fec5ff 	{ ae_cvtq48a32s	aeq3, a5; ae_satq48s	aeq0, aeq0 }
    2aef:	f87b21036e 	{ l16si	a6, a3, 32; ae_maxq56s	aeq0, aeq0, aeq3 }
    2af4:	630304        	ae_sq56s.i	aeq0, a3, 0
    2af7:	00d4d6        	bgez	a4, 2b08 <subband_aec_mid_channel+0x78>
    2afa:	368b04        	ae_trunca32q48	a11, aeq0
    2afd:	11a650        	slli	a10, a6, 11
    2b00:	f5d731        	l32r	a3, 25c (be9c <airoha_divide>)
    2b03:	0003e0        	callx8	a3
    2b06:	1138           	l32i.n	a3, a1, 4

00002b08 <subband_aec_mid_channel+0x78>:
    2b08:	1123c2        	l32i	a12, a3, 68
    2b0b:	e222e2        	l32i	a14, a2, 0x388
    2b0e:	132382        	l32i	a8, a3, 76
    2b11:	b358           	l32i.n	a5, a3, 44
    2b13:	102362        	l32i	a6, a3, 64
    2b16:	119372        	l16si	a7, a3, 34
    2b19:	360b34        	ae_cvtq48a32s	aeq0, a11
    2b1c:	3129           	s32i.n	a2, a1, 12
    2b1e:	a90c           	movi.n	a9, 10
    2b20:	4b0c           	movi.n	a11, 4
    2b22:	fcccc2        	addi	a12, a12, -4
    2b25:	fec8d2        	addi	a13, a8, -2
    2b28:	fccee2        	addi	a14, a14, -4
    2b2b:	fec532        	addi	a3, a5, -2
    2b2e:	448e14        	ae_lp16x2f.iu	aep0, a14, 4
    2b31:	fc24e406bf 	{ ae_sp16x2f.c	aep0, a6, a11; nop }
    2b36:	448c14        	ae_lp16x2f.iu	aep0, a12, 4
    2b39:	fe0413855f 	{ or	a8, a5, a5; ae_cvtq48p24s.h	aeq2, aep0 }
    2b3e:	0a4084        	ae_cvtq48p24s.l	aeq1, aep0
    2b41:	1217a6        	blti	a7, 1, 2b57 <subband_aec_mid_channel+0xc7>
    2b44:	440504        	ae_lp16x2f.i	aep0, a5, 0
    2b47:	0c8776        	loop	a7, 2b57 <subband_aec_mid_channel+0xc7>
    2b4a:	fc24da96bf 	{ ae_lp16x2f.c	aep1, a6, a11; nop }
    2b4f:	0581c4        	ae_mulssfp24s.hh.ll	aeq2, aep0, aep1
    2b52:	ee206d881f 	{ ae_lp16x2f.iu	aep0, a8, 4; ae_mulsafp24s.hl.lh	aeq1, aep0, aep1 }

00002b57 <subband_aec_mid_channel+0xc7>:
    2b57:	1baf04        	ae_roundsp16q48asym	aep0, aeq2
    2b5a:	f86bf28d1f 	{ ae_sp16f.l.iu	aep0, a13, 2; ae_roundsp16q48asym	aep1, aeq1 }
    2b5f:	d4e2729d1f 	{ ae_sp16f.l.iu	aep1, a13, 2; ae_mulfq32sp16s.l	aeq1, aeq0, aep0 }
    2b64:	0364d6        	bgez	a4, 2b9e <subband_aec_mid_channel+0x10e>
    2b67:	d5e63e9a4f 	{ ae_slaasq56s	aeq1, aeq1, a10; ae_mulfq32sp16s.l	aeq2, aeq0, aep1 }
    2b6c:	03fd           	mov.n	a15, a3
    2b6e:	f86fbeaa8f 	{ ae_slaasq56s	aeq2, aeq2, a10; ae_roundsp24q48asym	aep0, aeq1 }
    2b73:	f877d3855f 	{ or	a8, a5, a5; ae_roundsp24q48asym	aep1, aeq2 }
    2b78:	2217a6        	blti	a7, 1, 2b9e <subband_aec_mid_channel+0x10e>
    2b7b:	dc20ad150f 	{ ae_lp16x2f.i	aep1, a5, 0; ae_selp24.hl	aep0, aep0, aep1 }
    2b80:	1a8776        	loop	a7, 2b9e <subband_aec_mid_channel+0x10e>
    2b83:	fd241aa6bf 	{ ae_lp16x2f.c	aep2, a6, a11; ae_cvtq48p24s.h	aeq1, aep1 }
    2b88:	fe2c2d981f 	{ ae_lp16x2f.iu	aep1, a8, 4; ae_cvtq48p24s.l	aeq2, aep1 }
    2b8d:	050a04        	ae_mulaafp24s.hh.ll	aeq1, aep0, aep2
    2b90:	058254        	ae_mulasfp24s.hl.lh	aeq2, aep0, aep2
    2b93:	1b9f64        	ae_roundsp16q48asym	aep6, aeq1
    2b96:	fb73f2ef1f 	{ ae_sp16f.l.iu	aep6, a15, 2; ae_roundsp16q48asym	aep7, aeq2 }
    2b9b:	42ff14        	ae_sp16f.l.iu	aep7, a15, 2
    2b9e:	990b           	addi.n	a9, a9, -1
    2ba0:	f8a956        	bnez	a9, 2b2e <subband_aec_mid_channel+0x9e>
    2ba3:	fd24b0112e 	{ l32i	a2, a1, 4; ae_zeroq56	aeq1 }
    2ba8:	a30c           	movi.n	a3, 10
    2baa:	106262        	s32i	a6, a2, 64
    2bad:	fe24b1126e 	{ l32i	a6, a2, 68; ae_zeroq56	aeq2 }
    2bb2:	fc0c71322e 	{ l32i	a2, a2, 76; ae_movq56	aeq0, aeq1 }
    2bb7:	440604        	ae_lp16x2f.i	aep0, a6, 0
    2bba:	441204        	ae_lp16x2f.i	aep1, a2, 0
    2bbd:	0c8376        	loop	a3, 2bcd <subband_aec_mid_channel+0x13d>
    2bc0:	058104        	ae_mulaafp24s.hh.ll	aeq2, aep0, aep1
    2bc3:	ea202d921f 	{ ae_lp16x2f.iu	aep1, a2, 4; ae_mulasfp24s.hl.lh	aeq0, aep0, aep1 }
    2bc8:	e2006d861f 	{ ae_lp16x2f.iu	aep0, a6, 4; ae_mulaafp24s.hh.ll	aeq1, aep0, aep0 }

00002bcd <subband_aec_mid_channel+0x13d>:
    2bcd:	35a134        	ae_sraiq56	aeq2, aeq2, 4
    2bd0:	f877bb010f 	{ ae_sraiq56	aeq0, aeq0, 4; ae_roundsp24q48asym	aep0, aeq2 }
    2bd5:	f867fb114f 	{ ae_sraiq56	aeq1, aeq1, 4; ae_roundsp24q48asym	aep1, aeq0 }
    2bda:	fd2c7e011f 	{ ae_selp24.hl	aep0, aep0, aep1; ae_roundsq32asym	aeq1, aeq1 }
    2bdf:	f1028000af 	{ movi	a10, 0; ae_mulzaafp24s.hh.ll	aeq2, aep0, aep0 }
    2be4:	f53921        	l32r	a2, c8 (9cc <HIFI_sqrt>)
    2be7:	ff347f16ef 	{ ae_trunca32q48	a6, aeq1; ae_roundsq32asym	aeq3, aeq2 }
    2bec:	36bb04        	ae_trunca32q48	a11, aeq3
    2bef:	0002e0        	callx8	a2
    2bf2:	360b34        	ae_cvtq48a32s	aeq0, a11
    2bf5:	fc24fe8a0f 	{ ae_slaasq56s	aeq0, aeq0, a10; nop }
    2bfa:	fc2470113e 	{ l32i	a3, a1, 4; ae_roundsq32asym	aeq0, aeq0 }
    2bff:	368c04        	ae_trunca32q48	a12, aeq0
    2c02:	f59721        	l32r	a2, 260 (2750 <common_x_pow>)
    2c05:	03ad           	mov.n	a10, a3
    2c07:	06bd           	mov.n	a11, a6
    2c09:	0002e0        	callx8	a2
    2c0c:	ca8c           	beqz.n	a10, 2c1c <subband_aec_mid_channel+0x18c>
    2c0e:	1323a2        	l32i	a10, a3, 76
    2c11:	1123b2        	l32i	a11, a3, 68
    2c14:	f55121        	l32r	a2, 158 (d6fc <xt_memcpy>)
    2c17:	4c1c           	movi.n	a12, 20
    2c19:	0002e0        	callx8	a2

00002c1c <subband_aec_mid_channel+0x18c>:
    2c1c:	fc24a1337e 	{ l16si	a7, a3, 38; ae_zeroq56	aeq0 }
    2c21:	036d           	mov.n	a6, a3
    2c23:	119622        	l16si	a2, a6, 34
    2c26:	1417a6        	blti	a7, 1, 2c3e <subband_aec_mid_channel+0x1ae>
    2c29:	0b2632        	l32i	a3, a6, 44
    2c2c:	c02270        	sub	a2, a2, a7
    2c2f:	a02230        	addx4	a2, a2, a3
    2c32:	fcc222        	addi	a2, a2, -4
    2c35:	058776        	loop	a7, 2c3e <subband_aec_mid_channel+0x1ae>
    2c38:	448214        	ae_lp16x2f.iu	aep0, a2, 4
    2c3b:	050004        	ae_mulaafp24s.hh.ll	aeq0, aep0, aep0

00002c3e <subband_aec_mid_channel+0x1ae>:
    2c3e:	3500b4        	ae_sraiq56	aeq0, aeq0, 2
    2c41:	fc247036ae 	{ l32i	a10, a6, 12; ae_roundsq32asym	aeq0, aeq0 }
    2c46:	26b8           	l32i.n	a11, a6, 8
    2c48:	f58721        	l32r	a2, 264 (bfa4 <airoha_divide_limit_1>)
    2c4b:	368604        	ae_trunca32q48	a6, aeq0
    2c4e:	0002e0        	callx8	a2
    2c51:	11b8           	l32i.n	a11, a1, 4
    2c53:	3198           	l32i.n	a9, a1, 12
    2c55:	ffa022        	movi	a2, 255
    2c58:	240bf2        	l8ui	a15, a11, 36
    2c5b:	049932        	l16si	a3, a9, 8
    2c5e:	7fd222        	addmi	a2, a2, 0x7f00
    2c61:	3180a0        	srai	a8, a10, 16
    2c64:	c02280        	sub	a2, a2, a8
    2c67:	532230        	max	a2, a2, a3
    2c6a:	05ef17        	bbsi	a15, 1, 2c73 <subband_aec_mid_channel+0x1e3>
    2c6d:	105b22        	s16i	a2, a11, 32
    2c70:	000786        	j	2c92 <subband_aec_mid_channel+0x202>

00002c73 <subband_aec_mid_channel+0x1e3>:
    2c73:	039932        	l16si	a3, a9, 6
    2c76:	09ad           	mov.n	a10, a9
    2c78:	06cd           	mov.n	a12, a6
    2c7a:	822230        	mull	a2, a2, a3
    2c7d:	04dd           	mov.n	a13, a4
    2c7f:	40d222        	addmi	a2, a2, 0x4000
    2c82:	412f20        	srli	a2, a2, 15
    2c85:	105b22        	s16i	a2, a11, 32
    2c88:	f57821        	l32r	a2, 268 (27b8 <ref_gain_adapt>)
    2c8b:	0002e0        	callx8	a2
    2c8e:	3198           	l32i.n	a9, a1, 12
    2c90:	11b8           	l32i.n	a11, a1, 4
    2c92:	059922        	l16si	a2, a9, 10
    2c95:	069982        	l16si	a8, a9, 12
    2c98:	f575f1        	l32r	a15, 26c (f210 <immediate_num>)
    2c9b:	112200        	slli	a2, a2, 16
    2c9e:	49a267        	bge	a2, a6, 2ceb <subband_aec_mid_channel+0x25b>
    2ca1:	129b22        	l16si	a2, a11, 36
    2ca4:	230c           	movi.n	a3, 2
    2ca6:	11e800        	slli	a14, a8, 16
    2ca9:	202230        	or	a2, a2, a3
    2cac:	125b22        	s16i	a2, a11, 36
    2caf:	18cf22        	addi	a2, a15, 24
    2cb2:	08ae67        	bge	a14, a6, 2cbe <subband_aec_mid_channel+0x22e>
    2cb5:	400204        	ae_lp16f.i	aep0, a2, 0
    2cb8:	0817e6        	bgei	a7, 1, 2cc4 <subband_aec_mid_channel+0x234>
    2cbb:	000b06        	j	2ceb <subband_aec_mid_channel+0x25b>

00002cbe <subband_aec_mid_channel+0x22e>:
    2cbe:	400214        	ae_lp16f.i	aep0, a2, 2
    2cc1:	2617a6        	blti	a7, 1, 2ceb <subband_aec_mid_channel+0x25b>
    2cc4:	119b22        	l16si	a2, a11, 34
    2cc7:	bb38           	l32i.n	a3, a11, 44
    2cc9:	c02270        	sub	a2, a2, a7
    2ccc:	a02230        	addx4	a2, a2, a3
    2ccf:	441204        	ae_lp16x2f.i	aep1, a2, 0
    2cd2:	fec232        	addi	a3, a2, -2
    2cd5:	128776        	loop	a7, 2ceb <subband_aec_mid_channel+0x25b>
    2cd8:	011054        	ae_mulfp24s.hl	aeq0, aep1, aep0
    2cdb:	ea05ed921f 	{ ae_lp16x2f.iu	aep1, a2, 4; ae_mulfp24s.ll	aeq1, aep1, aep0 }
    2ce0:	1b8f24        	ae_roundsp16q48asym	aep2, aeq0
    2ce3:	fb6bf2a31f 	{ ae_sp16f.l.iu	aep2, a3, 2; ae_roundsp16q48asym	aep7, aeq1 }
    2ce8:	42f314        	ae_sp16f.l.iu	aep7, a3, 2

00002ceb <subband_aec_mid_channel+0x25b>:
    2ceb:	129b62        	l16si	a6, a11, 36
    2cee:	03d922        	addmi	a2, a9, 0x300
    2cf1:	21c8           	l32i.n	a12, a1, 8
    2cf3:	3ee607        	bbsi	a6, 0, 2d35 <subband_aec_mid_channel+0x2a5>
    2cf6:	5b6627        	bbci	a6, 2, 2d55 <subband_aec_mid_channel+0x2c5>
    2cf9:	03d932        	addmi	a3, a9, 0x300
    2cfc:	4e1322        	l16ui	a2, a3, 156
    2cff:	00f4d6        	bgez	a4, 2d12 <subband_aec_mid_channel+0x282>
    2d02:	2148           	l32i.n	a4, a1, 8
    2d04:	ffa552        	movi	a5, 0x5ff
    2d07:	071466        	bnei	a4, 1, 2d12 <subband_aec_mid_channel+0x282>
    2d0a:	0c3527        	bltu	a5, a2, 2d1a <subband_aec_mid_channel+0x28a>
    2d0d:	221b           	addi.n	a2, a2, 1
    2d0f:	4e5322        	s16i	a2, a3, 156

00002d12 <subband_aec_mid_channel+0x282>:
    2d12:	922d           	ae_zext16	a2, a2
    2d14:	00a632        	movi	a3, 0x600
    2d17:	093237        	bltu	a2, a3, 2d24 <subband_aec_mid_channel+0x294>
    2d1a:	962d           	ae_zext16	a2, a6
    2d1c:	230c           	movi.n	a3, 2
    2d1e:	202230        	or	a2, a2, a3
    2d21:	125b22        	s16i	a2, a11, 36
    2d24:	03d922        	addmi	a2, a9, 0x300
    2d27:	4b1222        	l16ui	a2, a2, 150
    2d2a:	f55331        	l32r	a3, 278 (2990 <aec_post_calc_FB_sb>)
    2d2d:	1c1266        	bnei	a2, 1, 2d4d <subband_aec_mid_channel+0x2bd>
    2d30:	032d           	mov.n	a2, a3
    2d32:	000686        	j	2d50 <subband_aec_mid_channel+0x2c0>

00002d35 <subband_aec_mid_channel+0x2a5>:
    2d35:	4b1222        	l16ui	a2, a2, 150
    2d38:	09ad           	mov.n	a10, a9
    2d3a:	f54d31        	l32r	a3, 270 (2850 <aec_post_calc_sb>)
    2d3d:	041266        	bnei	a2, 1, 2d45 <subband_aec_mid_channel+0x2b5>
    2d40:	032d           	mov.n	a2, a3
    2d42:	000286        	j	2d50 <subband_aec_mid_channel+0x2c0>

00002d45 <subband_aec_mid_channel+0x2b5>:
    2d45:	f54b21        	l32r	a2, 274 (28ec <aec_post_calc>)
    2d48:	0002e0        	callx8	a2
    2d4b:	f01d           	retw.n

00002d4d <subband_aec_mid_channel+0x2bd>:
    2d4d:	f54b21        	l32r	a2, 27c (2a10 <aec_post_calc_FB>)
    2d50:	09ad           	mov.n	a10, a9
    2d52:	0002e0        	callx8	a2
    2d55:	f01d           	retw.n

00002d57 <subband_aec_mid_channel+0x2c7>:
	...

00002d58 <dt_detect>:
    2d58:	004136        	entry	a1, 32
    2d5b:	0c9252        	l16si	a5, a2, 24
    2d5e:	179242        	l16si	a4, a2, 46
    2d61:	189262        	l16si	a6, a2, 48
    2d64:	115500        	slli	a5, a5, 16
    2d67:	19a537        	bge	a5, a3, 2d84 <dt_detect+0x2c>
    2d6a:	154c           	movi.n	a5, 65
    2d6c:	142657        	blt	a6, a5, 2d84 <dt_detect+0x2c>
    2d6f:	169252        	l16si	a5, a2, 44
    2d72:	0e9232        	l16si	a3, a2, 28
    2d75:	442b           	addi.n	a4, a4, 2
    2d77:	554b           	addi.n	a5, a5, 4
    2d79:	435530        	min	a5, a5, a3
    2d7c:	165252        	s16i	a5, a2, 44
    2d7f:	855d           	ae_sext16	a5, a5
    2d81:	000246        	j	2d8e <dt_detect+0x36>

00002d84 <dt_detect+0x2c>:
    2d84:	0e9232        	l16si	a3, a2, 28
    2d87:	050c           	movi.n	a5, 0
    2d89:	440b           	addi.n	a4, a4, -1
    2d8b:	165252        	s16i	a5, a2, 44
    2d8e:	534450        	max	a4, a4, a5
    2d91:	433430        	min	a3, a4, a3
    2d94:	175232        	s16i	a3, a2, 46
    2d97:	f01d           	retw.n

00002d99 <dt_detect+0x41>:
    2d99:	000000                                        ...

00002d9c <dt_detect_sb>:
    2d9c:	004136        	entry	a1, 32
    2d9f:	199362        	l16si	a6, a3, 50
    2da2:	1c9352        	l16si	a5, a3, 56
    2da5:	174c           	movi.n	a7, 65
    2da7:	116600        	slli	a6, a6, 16
    2daa:	1ca647        	bge	a6, a4, 2dca <dt_detect_sb+0x2e>
    2dad:	189242        	l16si	a4, a2, 48
    2db0:	1b9362        	l16si	a6, a3, 54
    2db3:	0e9282        	l16si	a8, a2, 28
    2db6:	102477        	blt	a4, a7, 2dca <dt_detect_sb+0x2e>
    2db9:	552b           	addi.n	a5, a5, 2
    2dbb:	464b           	addi.n	a4, a6, 4
    2dbd:	434480        	min	a4, a4, a8
    2dc0:	1b5342        	s16i	a4, a3, 54
    2dc3:	844d           	ae_sext16	a4, a4
    2dc5:	082d           	mov.n	a2, a8
    2dc7:	000246        	j	2dd4 <dt_detect_sb+0x38>

00002dca <dt_detect_sb+0x2e>:
    2dca:	0e9222        	l16si	a2, a2, 28
    2dcd:	040c           	movi.n	a4, 0
    2dcf:	550b           	addi.n	a5, a5, -1
    2dd1:	1b5342        	s16i	a4, a3, 54
    2dd4:	534540        	max	a4, a5, a4
    2dd7:	432420        	min	a2, a4, a2
    2dda:	1c5322        	s16i	a2, a3, 56
    2ddd:	f01d           	retw.n

00002ddf <dt_detect_sb+0x43>:
	...

00002de0 <dt_detect_FB>:
    2de0:	004136        	entry	a1, 32
    2de3:	1a9252        	l16si	a5, a2, 52
    2de6:	1c9242        	l16si	a4, a2, 56
    2de9:	189262        	l16si	a6, a2, 48
    2dec:	115500        	slli	a5, a5, 16
    2def:	19a537        	bge	a5, a3, 2e0c <dt_detect_FB+0x2c>
    2df2:	154c           	movi.n	a5, 65
    2df4:	142657        	blt	a6, a5, 2e0c <dt_detect_FB+0x2c>
    2df7:	1d9252        	l16si	a5, a2, 58
    2dfa:	1b9232        	l16si	a3, a2, 54
    2dfd:	442b           	addi.n	a4, a4, 2
    2dff:	554b           	addi.n	a5, a5, 4
    2e01:	435530        	min	a5, a5, a3
    2e04:	1d5252        	s16i	a5, a2, 58
    2e07:	855d           	ae_sext16	a5, a5
    2e09:	000246        	j	2e16 <dt_detect_FB+0x36>

00002e0c <dt_detect_FB+0x2c>:
    2e0c:	1b9232        	l16si	a3, a2, 54
    2e0f:	050c           	movi.n	a5, 0
    2e11:	440b           	addi.n	a4, a4, -1
    2e13:	1d5252        	s16i	a5, a2, 58
    2e16:	534450        	max	a4, a4, a5
    2e19:	433430        	min	a3, a4, a3
    2e1c:	1c5232        	s16i	a3, a2, 56
    2e1f:	f01d           	retw.n

00002e21 <dt_detect_FB+0x41>:
    2e21:	000000                                        ...

00002e24 <dt_detect_FB_sb>:
    2e24:	004136        	entry	a1, 32
    2e27:	199362        	l16si	a6, a3, 50
    2e2a:	1c9352        	l16si	a5, a3, 56
    2e2d:	174c           	movi.n	a7, 65
    2e2f:	116600        	slli	a6, a6, 16
    2e32:	1ca647        	bge	a6, a4, 2e52 <dt_detect_FB_sb+0x2e>
    2e35:	189242        	l16si	a4, a2, 48
    2e38:	1b9362        	l16si	a6, a3, 54
    2e3b:	1b9282        	l16si	a8, a2, 54
    2e3e:	102477        	blt	a4, a7, 2e52 <dt_detect_FB_sb+0x2e>
    2e41:	552b           	addi.n	a5, a5, 2
    2e43:	464b           	addi.n	a4, a6, 4
    2e45:	434480        	min	a4, a4, a8
    2e48:	1b5342        	s16i	a4, a3, 54
    2e4b:	844d           	ae_sext16	a4, a4
    2e4d:	082d           	mov.n	a2, a8
    2e4f:	000246        	j	2e5c <dt_detect_FB_sb+0x38>

00002e52 <dt_detect_FB_sb+0x2e>:
    2e52:	1b9222        	l16si	a2, a2, 54
    2e55:	040c           	movi.n	a4, 0
    2e57:	550b           	addi.n	a5, a5, -1
    2e59:	1b5342        	s16i	a4, a3, 54
    2e5c:	534540        	max	a4, a5, a4
    2e5f:	432420        	min	a2, a4, a2
    2e62:	1c5322        	s16i	a2, a3, 56
    2e65:	f01d           	retw.n

00002e67 <dt_detect_FB_sb+0x43>:
	...

00002e68 <aec_sub_post>:
    2e68:	004136        	entry	a1, 32
    2e6b:	859c           	beqz.n	a5, 2e87 <aec_sub_post+0x1f>
    2e6d:	d0a2b2        	movi	a11, 0x2d0
    2e70:	e0a152        	movi	a5, 0x1e0
    2e73:	30a262        	movi	a6, 0x230
    2e76:	80a282        	movi	a8, 0x280
    2e79:	20a3c2        	movi	a12, 0x320
    2e7c:	725a           	add.n	a7, a2, a5
    2e7e:	926a           	add.n	a9, a2, a6
    2e80:	a28a           	add.n	a10, a2, a8
    2e82:	b2ba           	add.n	a11, a2, a11
    2e84:	000506        	j	2e9c <aec_sub_post+0x34>

00002e87 <aec_sub_post+0x1f>:
    2e87:	a0a052        	movi	a5, 160
    2e8a:	f0a062        	movi	a6, 240
    2e8d:	40a182        	movi	a8, 0x140
    2e90:	50c272        	addi	a7, a2, 80
    2e93:	90a1c2        	movi	a12, 0x190
    2e96:	925a           	add.n	a9, a2, a5
    2e98:	a26a           	add.n	a10, a2, a6
    2e9a:	b28a           	add.n	a11, a2, a8
    2e9c:	03d252        	addmi	a5, a2, 0x300
    2e9f:	32fd           	ae_l16si.n	a15, a2, 2
    2ea1:	4d9552        	l16si	a5, a5, 154
    2ea4:	c2ca           	add.n	a12, a2, a12
    2ea6:	ffa0d2        	movi	a13, 255
    2ea9:	0daf57        	bge	a15, a5, 2eba <aec_sub_post+0x52>
    2eac:	7fddd2        	addmi	a13, a13, 0x7f00
    2eaf:	0d8d           	mov.n	a8, a13
    2eb1:	0d6d           	mov.n	a6, a13
    2eb3:	0d5d           	mov.n	a5, a13
    2eb5:	0d2d           	mov.n	a2, a13
    2eb7:	000386        	j	2ec9 <aec_sub_post+0x61>

00002eba <aec_sub_post+0x52>:
    2eba:	0f17d2        	l16ui	a13, a7, 30
    2ebd:	0f1982        	l16ui	a8, a9, 30
    2ec0:	0f1a62        	l16ui	a6, a10, 30
    2ec3:	0f1b52        	l16ui	a5, a11, 30
    2ec6:	0f1c22        	l16ui	a2, a12, 30
    2ec9:	1d57d2        	s16i	a13, a7, 58
    2ecc:	1d5982        	s16i	a8, a9, 58
    2ecf:	1d5a62        	s16i	a6, a10, 58
    2ed2:	1d5b52        	s16i	a5, a11, 58
    2ed5:	6ea0f2        	movi	a15, 110
    2ed8:	1d5c22        	s16i	a2, a12, 58
    2edb:	300dd4        	ae_cvtp24a16x2.ll	aep0, a13, a13
    2ede:	601304        	ae_lq32f.iu	aeq0, a3, 0
    2ee1:	088f76        	loop	a15, 2eed <aec_sub_post+0x85>
    2ee4:	030204        	ae_mulfq32sp16s.h	aeq0, aeq0, aep0
    2ee7:	624304        	ae_sq32f.iu	aeq0, a3, 0
    2eea:	601314        	ae_lq32f.iu	aeq0, a3, 4

00002eed <aec_sub_post+0x85>:
    2eed:	a73c           	movi.n	a7, 58
    2eef:	300884        	ae_cvtp24a16x2.ll	aep0, a8, a8
    2ef2:	088776        	loop	a7, 2efe <aec_sub_post+0x96>
    2ef5:	030204        	ae_mulfq32sp16s.h	aeq0, aeq0, aep0
    2ef8:	624304        	ae_sq32f.iu	aeq0, a3, 0
    2efb:	601314        	ae_lq32f.iu	aeq0, a3, 4
    2efe:	875c           	movi.n	a7, 88
    2f00:	300664        	ae_cvtp24a16x2.ll	aep0, a6, a6
    2f03:	f03d           	nop.n
    2f05:	088776        	loop	a7, 2f11 <aec_sub_post+0xa9>
    2f08:	030204        	ae_mulfq32sp16s.h	aeq0, aeq0, aep0
    2f0b:	624304        	ae_sq32f.iu	aeq0, a3, 0
    2f0e:	601314        	ae_lq32f.iu	aeq0, a3, 4
    2f11:	00a162        	movi	a6, 0x100
    2f14:	300554        	ae_cvtp24a16x2.ll	aep0, a5, a5
    2f17:	088676        	loop	a6, 2f23 <aec_sub_post+0xbb>
    2f1a:	030204        	ae_mulfq32sp16s.h	aeq0, aeq0, aep0
    2f1d:	624304        	ae_sq32f.iu	aeq0, a3, 0
    2f20:	601314        	ae_lq32f.iu	aeq0, a3, 4
    2f23:	1394a6        	blti	a4, 10, 2f3a <aec_sub_post+0xd2>
    2f26:	00a242        	movi	a4, 0x200
    2f29:	300224        	ae_cvtp24a16x2.ll	aep0, a2, a2
    2f2c:	f03d           	nop.n
    2f2e:	088476        	loop	a4, 2f3a <aec_sub_post+0xd2>
    2f31:	030204        	ae_mulfq32sp16s.h	aeq0, aeq0, aep0
    2f34:	624304        	ae_sq32f.iu	aeq0, a3, 0
    2f37:	601314        	ae_lq32f.iu	aeq0, a3, 4

00002f3a <aec_sub_post+0xd2>:
    2f3a:	f01d           	retw.n

00002f3c <subband_comfort_noise>:
    2f3c:	006136        	entry	a1, 48
    2f3f:	690c           	movi.n	a9, 6
    2f41:	07ed           	mov.n	a14, a7
    2f43:	fc248fc38e 	{ addi	a8, a3, -4; ae_zeroq56	aeq0 }
    2f48:	3139           	s32i.n	a3, a1, 12
    2f4a:	028976        	loop	a9, 2f50 <subband_comfort_noise+0x14>
    2f4d:	624814        	ae_sq32f.iu	aeq0, a8, 4

00002f50 <subband_comfort_noise+0x14>:
    2f50:	03d282        	addmi	a8, a2, 0x300
    2f53:	4c1882        	l16ui	a8, a8, 152
    2f56:	300554        	ae_cvtp24a16x2.ll	aep0, a5, a5
    2f59:	301884        	ae_cvtp24a16x2.ll	aep1, a8, a8
    2f5c:	ea05b0315e 	{ l32i	a5, a1, 12; ae_mulfp24s.ll	aeq0, aep1, aep0 }
    2f61:	f4c881        	l32r	a8, 284 (300c <mixed_main_noise>)
    2f64:	350094        	ae_slliq56	aeq0, aeq0, 2
    2f67:	fc00c0019f 	{ movi	a9, 1; ae_satq48s	aeq0, aeq0 }
    2f6c:	368704        	ae_trunca32q48	a7, aeq0
    2f6f:	02ad           	mov.n	a10, a2
    2f71:	05bd           	mov.n	a11, a5
    2f73:	04cd           	mov.n	a12, a4
    2f75:	07dd           	mov.n	a13, a7
    2f77:	06fd           	mov.n	a15, a6
    2f79:	043d           	mov.n	a3, a4
    2f7b:	0e4d           	mov.n	a4, a14
    2f7d:	0199           	s32i.n	a9, a1, 0
    2f7f:	0008e0        	callx8	a8
    2f82:	280c           	movi.n	a8, 2
    2f84:	0189           	s32i.n	a8, a1, 0
    2f86:	f4bf81        	l32r	a8, 284 (300c <mixed_main_noise>)
    2f89:	02ad           	mov.n	a10, a2
    2f8b:	05bd           	mov.n	a11, a5
    2f8d:	03cd           	mov.n	a12, a3
    2f8f:	07dd           	mov.n	a13, a7
    2f91:	04ed           	mov.n	a14, a4
    2f93:	06fd           	mov.n	a15, a6
    2f95:	0008e0        	callx8	a8
    2f98:	380c           	movi.n	a8, 3
    2f9a:	0189           	s32i.n	a8, a1, 0
    2f9c:	f4ba81        	l32r	a8, 284 (300c <mixed_main_noise>)
    2f9f:	02ad           	mov.n	a10, a2
    2fa1:	05bd           	mov.n	a11, a5
    2fa3:	03cd           	mov.n	a12, a3
    2fa5:	07dd           	mov.n	a13, a7
    2fa7:	04ed           	mov.n	a14, a4
    2fa9:	06fd           	mov.n	a15, a6
    2fab:	0008e0        	callx8	a8
    2fae:	05bd           	mov.n	a11, a5
    2fb0:	f4b551        	l32r	a5, 284 (300c <mixed_main_noise>)
    2fb3:	480c           	movi.n	a8, 4
    2fb5:	02ad           	mov.n	a10, a2
    2fb7:	03cd           	mov.n	a12, a3
    2fb9:	07dd           	mov.n	a13, a7
    2fbb:	04ed           	mov.n	a14, a4
    2fbd:	06fd           	mov.n	a15, a6
    2fbf:	0189           	s32i.n	a8, a1, 0
    2fc1:	0005e0        	callx8	a5
    2fc4:	efa082        	movi	a8, 239
    2fc7:	152687        	blt	a6, a8, 2fe0 <subband_comfort_noise+0xa4>
    2fca:	02ad           	mov.n	a10, a2
    2fcc:	31b8           	l32i.n	a11, a1, 12
    2fce:	f4ad21        	l32r	a2, 284 (300c <mixed_main_noise>)
    2fd1:	580c           	movi.n	a8, 5
    2fd3:	03cd           	mov.n	a12, a3
    2fd5:	07dd           	mov.n	a13, a7
    2fd7:	04ed           	mov.n	a14, a4
    2fd9:	06fd           	mov.n	a15, a6
    2fdb:	0189           	s32i.n	a8, a1, 0
    2fdd:	0002e0        	callx8	a2

00002fe0 <subband_comfort_noise+0xa4>:
    2fe0:	fc2480ee4f 	{ movi	a4, 238; ae_zeroq56	aeq0 }
    2fe5:	00a452        	movi	a5, 0x400
    2fe8:	724460        	salt	a4, a4, a6
    2feb:	00a2f2        	movi	a15, 0x200
    2fee:	1126f0        	slli	a2, a6, 1
    2ff1:	93f540        	movnez	a15, a5, a4
    2ff4:	c04f20        	sub	a4, a15, a2
    2ff7:	0d14a6        	blti	a4, 1, 3008 <subband_comfort_noise+0xcc>
    2ffa:	3138           	l32i.n	a3, a1, 12
    2ffc:	a02230        	addx4	a2, a2, a3
    2fff:	fcc222        	addi	a2, a2, -4
    3002:	028476        	loop	a4, 3008 <subband_comfort_noise+0xcc>
    3005:	624214        	ae_sq32f.iu	aeq0, a2, 4

00003008 <subband_comfort_noise+0xcc>:
    3008:	f01d           	retw.n

0000300a <subband_comfort_noise+0xce>:
	...

0000300c <mixed_main_noise>:
    300c:	006136        	entry	a1, 48
    300f:	c188           	l32i.n	a8, a1, 48
    3011:	3159           	s32i.n	a5, a1, 12
    3013:	eea052        	movi	a5, 238
    3016:	1938e6        	bgei	a8, 3, 3033 <mixed_main_noise+0x27>
    3019:	481826        	beqi	a8, 1, 3065 <mixed_main_noise+0x59>
    301c:	322866        	bnei	a8, 2, 3052 <mixed_main_noise+0x46>
    301f:	daa052        	movi	a5, 218
    3022:	6aa272        	movi	a7, 0x26a
    3025:	525a           	add.n	a5, a2, a5
    3027:	227a           	add.n	a2, a2, a7
    3029:	832560        	moveqz	a2, a5, a6
    302c:	475c           	movi.n	a7, 84
    302e:	753c           	movi.n	a5, 55
    3030:	0015c6        	j	308b <mixed_main_noise+0x7f>

00003033 <mixed_main_noise+0x27>:
    3033:	423826        	beqi	a8, 3, 3079 <mixed_main_noise+0x6d>
    3036:	184866        	bnei	a8, 4, 3052 <mixed_main_noise+0x46>
    3039:	7aa1e2        	movi	a14, 0x17a
    303c:	00a182        	movi	a8, 0x100
    303f:	725570        	salt	a5, a5, a7
    3042:	0aa3f2        	movi	a15, 0x30a
    3045:	937850        	movnez	a7, a8, a5
    3048:	92ea           	add.n	a9, a2, a14
    304a:	22fa           	add.n	a2, a2, a15
    304c:	80a052        	movi	a5, 128
    304f:	000306        	j	305f <mixed_main_noise+0x53>

00003052 <mixed_main_noise+0x46>:
    3052:	caa152        	movi	a5, 0x1ca
    3055:	5aa382        	movi	a8, 0x35a
    3058:	925a           	add.n	a9, a2, a5
    305a:	228a           	add.n	a2, a2, a8
    305c:	00a152        	movi	a5, 0x100
    305f:	832960        	moveqz	a2, a9, a6
    3062:	000946        	j	308b <mixed_main_noise+0x7f>

00003065 <mixed_main_noise+0x59>:
    3065:	8aa052        	movi	a5, 138
    3068:	1aa272        	movi	a7, 0x21a
    306b:	525a           	add.n	a5, a2, a5
    306d:	227a           	add.n	a2, a2, a7
    306f:	832560        	moveqz	a2, a5, a6
    3072:	773c           	movi.n	a7, 55
    3074:	350c           	movi.n	a5, 3
    3076:	000446        	j	308b <mixed_main_noise+0x7f>

00003079 <mixed_main_noise+0x6d>:
    3079:	2aa152        	movi	a5, 0x12a
    307c:	baa272        	movi	a7, 0x2ba
    307f:	525a           	add.n	a5, a2, a5
    3081:	227a           	add.n	a2, a2, a7
    3083:	832560        	moveqz	a2, a5, a6
    3086:	80a072        	movi	a7, 128
    3089:	455c           	movi.n	a5, 84
    308b:	422d           	ae_l16ui.n	a2, a2, 0
    308d:	ffa082        	movi	a8, 255
    3090:	7fd882        	addmi	a8, a8, 0x7f00
    3093:	c02820        	sub	a2, a8, a2
    3096:	301224        	ae_cvtp24a16x2.ll	aep1, a2, a2
    3099:	500134        	ae_lp24f.i	aep0, a1, 12
    309c:	ea0595f75f 	{ sub	a15, a7, a5; ae_mulfp24s.ll	aeq0, aep1, aep0 }
    30a1:	b02530        	addx8	a2, a5, a3
    30a4:	f863bd120f 	{ ae_lq32f.iu	aeq0, a2, 0; ae_roundsp16q48asym	aep0, aeq0 }
    30a9:	8f7d           	ae_sext16	a7, a15
    30ab:	271666        	bnei	a6, 1, 30d6 <mixed_main_noise+0xca>
    30ae:	4617a6        	blti	a7, 1, 30f8 <mixed_main_noise+0xec>
    30b1:	a03540        	addx4	a3, a5, a4
    30b4:	97fd           	ae_zext16	a15, a7
    30b6:	605304        	ae_lq32f.iu	aeq1, a3, 0
    30b9:	148f76        	loop	a15, 30d1 <mixed_main_noise+0xc5>
    30bc:	030054        	ae_mulafq32sp16s.l	aeq0, aeq1, aep0
    30bf:	624204        	ae_sq32f.iu	aeq0, a2, 0
    30c2:	601214        	ae_lq32f.iu	aeq0, a2, 4
    30c5:	030054        	ae_mulafq32sp16s.l	aeq0, aeq1, aep0
    30c8:	624204        	ae_sq32f.iu	aeq0, a2, 0
    30cb:	601214        	ae_lq32f.iu	aeq0, a2, 4
    30ce:	605314        	ae_lq32f.iu	aeq1, a3, 4

000030d1 <mixed_main_noise+0xc5>:
    30d1:	0008c6        	j	30f8 <mixed_main_noise+0xec>

000030d4 <mixed_main_noise+0xc8>:
	...

000030d6 <mixed_main_noise+0xca>:
    30d6:	1137f0        	slli	a3, a7, 1
    30d9:	833d           	ae_sext16	a3, a3
    30db:	1913a6        	blti	a3, 1, 30f8 <mixed_main_noise+0xec>
    30de:	1155f0        	slli	a5, a5, 1
    30e1:	936d           	ae_zext16	a6, a3
    30e3:	a03540        	addx4	a3, a5, a4
    30e6:	605304        	ae_lq32f.iu	aeq1, a3, 0
    30e9:	0b8676        	loop	a6, 30f8 <mixed_main_noise+0xec>
    30ec:	030054        	ae_mulafq32sp16s.l	aeq0, aeq1, aep0
    30ef:	624204        	ae_sq32f.iu	aeq0, a2, 0
    30f2:	601214        	ae_lq32f.iu	aeq0, a2, 4
    30f5:	605314        	ae_lq32f.iu	aeq1, a3, 4

000030f8 <mixed_main_noise+0xec>:
    30f8:	f01d           	retw.n

000030fa <mixed_main_noise+0xee>:
    30fa:	00000000                                 ......

00003100 <get_ECNR_SVN>:
    3100:	004136        	entry	a1, 32
    3103:	f46121        	l32r	a2, 288 (1513cd0 <_end+0x1504730>)
    3106:	f01d           	retw.n

00003108 <get_txnr_pitch_last>:
    3108:	004136        	entry	a1, 32
    310b:	f3f021        	l32r	a2, cc (f59c <p_ecnr_mem>)
    310e:	f4a032        	movi	a3, 244
    3111:	5ba242        	movi	a4, 0x25b
    3114:	0228           	l32i.n	a2, a2, 0
    3116:	63d332        	addmi	a3, a3, 0x6300
    3119:	1144a0        	slli	a4, a4, 6
    311c:	2cd252        	addmi	a5, a2, 0x2c00
    311f:	221552        	l16ui	a5, a5, 68
    3122:	323a           	add.n	a3, a2, a3
    3124:	224a           	add.n	a2, a2, a4
    3126:	fec5e2        	addi	a14, a5, -2
    3129:	8323e0        	moveqz	a2, a3, a14
    312c:	0228           	l32i.n	a2, a2, 0
    312e:	0f0c           	movi.n	a15, 0
    3130:	622f20        	saltu	a2, a15, a2
    3133:	f01d           	retw.n

00003135 <get_txnr_pitch_last+0x2d>:
    3135:	000000                                        ...

00003138 <emph_filter_N>:
    3138:	004136        	entry	a1, 32
    313b:	440404        	ae_lp16x2f.i	aep0, a4, 0
    313e:	3725a6        	blti	a5, 2, 3179 <emph_filter_N+0x41>
    3141:	651b           	addi.n	a6, a5, 1
    3143:	b36550        	movgez	a6, a5, a5
    3146:	215160        	srai	a5, a6, 1
    3149:	441304        	ae_lp16x2f.i	aep1, a3, 0
    314c:	fec232        	addi	a3, a2, -2
    314f:	fcc222        	addi	a2, a2, -4
    3152:	238576        	loop	a5, 3179 <emph_filter_N+0x41>
    3155:	44a214        	ae_lp16x2f.iu	aep2, a2, 4
    3158:	fc443e20cf 	{ ae_selp24.hh	aep3, aep2, aep0; ae_cvtq48p24s.h	aeq0, aep2 }
    315d:	0a4284        	ae_cvtq48p24s.l	aeq1, aep2
    3160:	011004        	ae_mulafp24s.hh	aeq0, aep1, aep0
    3163:	011a04        	ae_mulafp24s.hh	aeq1, aep1, aep2
    3166:	051004        	ae_mulaafp24s.hh.ll	aeq0, aep1, aep0
    3169:	051b04        	ae_mulaafp24s.hh.ll	aeq1, aep1, aep3
    316c:	1b8f04        	ae_roundsp16q48asym	aep0, aeq0
    316f:	f96bf2831f 	{ ae_sp16f.l.iu	aep0, a3, 2; ae_roundsp16q48asym	aep3, aeq1 }
    3174:	dc49b2b31f 	{ ae_sp16f.l.iu	aep3, a3, 2; ae_selp24.lh	aep0, aep2, aep2 }

00003179 <emph_filter_N+0x41>:
    3179:	460404        	ae_sp16x2f.i	aep0, a4, 0
    317c:	f01d           	retw.n

0000317e <emph_filter_N+0x46>:
	...

00003180 <deemph_filter_N>:
    3180:	004136        	entry	a1, 32
    3183:	600404        	ae_lq32f.i	aeq0, a4, 0
    3186:	604414        	ae_lq32f.i	aeq1, a4, 4
    3189:	2c15a6        	blti	a5, 1, 31b9 <deemph_filter_N+0x39>
    318c:	f438f1        	l32r	a15, 26c (f210 <immediate_num>)
    318f:	ff0c6d030f 	{ ae_lp16x2f.i	aep0, a3, 0; ae_movq56	aeq3, aeq1 }
    3194:	99002c120f 	{ ae_lp16f.i	aep1, a2, 0; ae_mulzssfq32sp16s.hh	aeq2, aeq0, aep0, aeq0, aep0 }
    3199:	30cf32        	addi	a3, a15, 48
    319c:	442304        	ae_lp16x2f.i	aep2, a3, 0
    319f:	168576        	loop	a5, 31b9 <deemph_filter_N+0x39>
    31a2:	fb81bf017f 	{ ae_movq56	aeq1, aeq0; ae_mulsfq32sp16s.l	aeq2, aeq3, aep0 }
    31a7:	f1462c921f 	{ ae_lp16f.iu	aep1, a2, 2; ae_mulssfp24s.hh.ll	aeq2, aep1, aep2 }
    31ac:	fc347f11ff 	{ ae_movq56	aeq3, aeq1; ae_roundsq32asym	aeq0, aeq2 }
    31b1:	1b8f34        	ae_roundsp16q48asym	aep3, aeq0
    31b4:	99003232ff 	{ ae_sp16f.l.i	aep3, a2, -2; ae_mulzssfq32sp16s.hh	aeq2, aeq0, aep0, aeq0, aep0 }

000031b9 <deemph_filter_N+0x39>:
    31b9:	620404        	ae_sq32f.i	aeq0, a4, 0
    31bc:	621414        	ae_sq32f.i	aeq1, a4, 4
    31bf:	f01d           	retw.n

000031c1 <deemph_filter_N+0x41>:
    31c1:	000000                                        ...

000031c4 <Voice_NB_RX_Prcs>:
    31c4:	004136        	entry	a1, 32
    31c7:	f3c131        	l32r	a3, cc (f59c <p_ecnr_mem>)
    31ca:	03a8           	l32i.n	a10, a3, 0
    31cc:	6dda42        	addmi	a4, a10, 0x6d00
    31cf:	741442        	l16ui	a4, a4, 232
    31d2:	848c           	beqz.n	a4, 31de <Voice_NB_RX_Prcs+0x1a>
    31d4:	f42e41        	l32r	a4, 28c (8664 <NB_RX_NR_frame_process>)
    31d7:	02ad           	mov.n	a10, a2
    31d9:	0004e0        	callx8	a4
    31dc:	03a8           	l32i.n	a10, a3, 0

000031de <Voice_NB_RX_Prcs+0x1a>:
    31de:	f42c31        	l32r	a3, 290 (9caa <two_mic_SWB_NR_proc+0x2da>)
    31e1:	2cda42        	addmi	a4, a10, 0x2c00
    31e4:	c53c           	movi.n	a5, 60
    31e6:	3a3a           	add.n	a3, a10, a3
    31e8:	233d           	ae_l16si.n	a3, a3, 0
    31ea:	255432        	s16i	a3, a4, 74
    31ed:	4f0432        	l8ui	a3, a4, 79
    31f0:	f8ca42        	addi	a4, a10, -8
    31f3:	236357        	bbci	a3, 5, 321a <Voice_NB_RX_Prcs+0x56>
    31f6:	fcc232        	addi	a3, a2, -4
    31f9:	058576        	loop	a5, 3202 <Voice_NB_RX_Prcs+0x3e>
    31fc:	448314        	ae_lp16x2f.iu	aep0, a3, 4
    31ff:	5e8414        	ae_sp24x2f.iu	aep0, a4, 8

00003202 <Voice_NB_RX_Prcs+0x3e>:
    3202:	a8a032        	movi	a3, 168
    3205:	f42341        	l32r	a4, 294 (c270 <real_split+0x50>)
    3208:	57d332        	addmi	a3, a3, 0x5700
    320b:	ba3a           	add.n	a11, a10, a3
    320d:	f42231        	l32r	a3, 298 (321c <biquad_2cascade_24bitTx>)
    3210:	ca4a           	add.n	a12, a10, a4
    3212:	78a0e2        	movi	a14, 120
    3215:	02dd           	mov.n	a13, a2
    3217:	0003e0        	callx8	a3

0000321a <Voice_NB_RX_Prcs+0x56>:
    321a:	f01d           	retw.n

0000321c <biquad_2cascade_24bitTx>:
    321c:	00a136        	entry	a1, 80
    321f:	542304        	ae_lp24x2.i	aep2, a3, 0
    3222:	541314        	ae_lp24x2.i	aep1, a3, 8
    3225:	540324        	ae_lp24x2.i	aep0, a3, 16
    3228:	6616a6        	blti	a6, 1, 3292 <biquad_2cascade_24bitTx+0x76>
    322b:	18c472        	addi	a7, a4, 24
    322e:	543414        	ae_lp24x2.i	aep3, a4, 8
    3231:	545404        	ae_lp24x2.i	aep5, a4, 0
    3234:	546444        	ae_lp24x2.i	aep6, a4, 32
    3237:	547434        	ae_lp24x2.i	aep7, a4, 24
    323a:	563154        	ae_sp24x2s.i	aep3, a1, 40
    323d:	565144        	ae_sp24x2s.i	aep5, a1, 32
    3240:	545424        	ae_lp24x2.i	aep5, a4, 16
    3243:	543454        	ae_lp24x2.i	aep3, a4, 40
    3246:	566134        	ae_sp24x2s.i	aep6, a1, 24
    3249:	567124        	ae_sp24x2s.i	aep7, a1, 16
    324c:	fec542        	addi	a4, a5, -2
    324f:	fcc222        	addi	a2, a2, -4
    3252:	4c4764        	ae_lp24.i	aep4, a7, 24
    3255:	398676        	loop	a6, 3292 <biquad_2cascade_24bitTx+0x76>
    3258:	547154        	ae_lp24x2.i	aep7, a1, 40
    325b:	f05eaee21f 	{ ae_lp24f.iu	aep6, a2, 4; ae_mulzaafp24s.hh.ll	aeq0, aep7, aep2 }
    3260:	dd59b0714f 	{ ae_lp24x2.i	aep7, a1, 32; ae_selp24.lh	aep2, aep6, aep2 }
    3265:	e25c30713f 	{ ae_lp24x2.i	aep7, a1, 24; ae_mulaafp24s.hh.ll	aeq0, aep7, aep2 }
    326a:	015184        	ae_mulsfp24s.hh	aeq0, aep5, aep1
    326d:	0551c4        	ae_mulssfp24s.hh.ll	aeq0, aep5, aep1
    3270:	f13ef0712f 	{ ae_lp24x2.i	aep7, a1, 16; ae_mulzaafp24s.hh.ll	aeq3, aep7, aep1 }
    3275:	1b8d64        	ae_roundsp24q48asym	aep6, aeq0
    3278:	1ae194        	ae_selp24.lh	aep1, aep6, aep1
    327b:	05f904        	ae_mulaafp24s.hh.ll	aeq3, aep7, aep1
    327e:	01b884        	ae_mulsfp24s.hh	aeq3, aep3, aep0
    3281:	05b8c4        	ae_mulssfp24s.hh.ll	aeq3, aep3, aep0
    3284:	1bbd64        	ae_roundsp24q48asym	aep6, aeq3
    3287:	f0d2be602f 	{ ae_selp24.lh	aep0, aep6, aep0; ae_mulzaafp24s.hh.ll	aeq0, aep4, aep6 }
    328c:	1b8f74        	ae_roundsp16q48asym	aep7, aeq0
    328f:	42f414        	ae_sp16f.l.iu	aep7, a4, 2

00003292 <biquad_2cascade_24bitTx+0x76>:
    3292:	562304        	ae_sp24x2s.i	aep2, a3, 0
    3295:	561314        	ae_sp24x2s.i	aep1, a3, 8
    3298:	560324        	ae_sp24x2s.i	aep0, a3, 16
    329b:	f01d           	retw.n

0000329d <biquad_2cascade_24bitTx+0x81>:
    329d:	000000                                        ...

000032a0 <Voice_WB_RX_Prcs>:
    32a0:	004136        	entry	a1, 32
    32a3:	f38a31        	l32r	a3, cc (f59c <p_ecnr_mem>)
    32a6:	03a8           	l32i.n	a10, a3, 0
    32a8:	6dda42        	addmi	a4, a10, 0x6d00
    32ab:	741442        	l16ui	a4, a4, 232
    32ae:	848c           	beqz.n	a4, 32ba <Voice_WB_RX_Prcs+0x1a>
    32b0:	f3fb41        	l32r	a4, 29c (84e0 <WB_RX_NR_frame_process>)
    32b3:	02ad           	mov.n	a10, a2
    32b5:	0004e0        	callx8	a4
    32b8:	03a8           	l32i.n	a10, a3, 0

000032ba <Voice_WB_RX_Prcs+0x1a>:
    32ba:	f3f531        	l32r	a3, 290 (9caa <two_mic_SWB_NR_proc+0x2da>)
    32bd:	2cda42        	addmi	a4, a10, 0x2c00
    32c0:	78a052        	movi	a5, 120
    32c3:	3a3a           	add.n	a3, a10, a3
    32c5:	233d           	ae_l16si.n	a3, a3, 0
    32c7:	255432        	s16i	a3, a4, 74
    32ca:	4f0432        	l8ui	a3, a4, 79
    32cd:	f8ca42        	addi	a4, a10, -8
    32d0:	236357        	bbci	a3, 5, 32f7 <Voice_WB_RX_Prcs+0x57>
    32d3:	fcc232        	addi	a3, a2, -4
    32d6:	058576        	loop	a5, 32df <Voice_WB_RX_Prcs+0x3f>
    32d9:	448314        	ae_lp16x2f.iu	aep0, a3, 4
    32dc:	5e8414        	ae_sp24x2f.iu	aep0, a4, 8

000032df <Voice_WB_RX_Prcs+0x3f>:
    32df:	a8a032        	movi	a3, 168
    32e2:	f3ec41        	l32r	a4, 294 (c270 <real_split+0x50>)
    32e5:	57d332        	addmi	a3, a3, 0x5700
    32e8:	ba3a           	add.n	a11, a10, a3
    32ea:	f3eb31        	l32r	a3, 298 (321c <biquad_2cascade_24bitTx>)
    32ed:	ca4a           	add.n	a12, a10, a4
    32ef:	f0a0e2        	movi	a14, 240
    32f2:	02dd           	mov.n	a13, a2
    32f4:	0003e0        	callx8	a3

000032f7 <Voice_WB_RX_Prcs+0x57>:
    32f7:	f01d           	retw.n

000032f9 <Voice_WB_RX_Prcs+0x59>:
    32f9:	000000                                        ...

000032fc <Voice_SWB_RX_Prcs>:
    32fc:	004136        	entry	a1, 32
    32ff:	f37331        	l32r	a3, cc (f59c <p_ecnr_mem>)
    3302:	03a8           	l32i.n	a10, a3, 0
    3304:	6dda42        	addmi	a4, a10, 0x6d00
    3307:	741442        	l16ui	a4, a4, 232
    330a:	848c           	beqz.n	a4, 3316 <Voice_SWB_RX_Prcs+0x1a>
    330c:	f3e541        	l32r	a4, 2a0 (8828 <SWB_RX_NR_frame_process>)
    330f:	02ad           	mov.n	a10, a2
    3311:	0004e0        	callx8	a4
    3314:	03a8           	l32i.n	a10, a3, 0

00003316 <Voice_SWB_RX_Prcs+0x1a>:
    3316:	f3de31        	l32r	a3, 290 (9caa <two_mic_SWB_NR_proc+0x2da>)
    3319:	2cda42        	addmi	a4, a10, 0x2c00
    331c:	f0a052        	movi	a5, 240
    331f:	3a3a           	add.n	a3, a10, a3
    3321:	233d           	ae_l16si.n	a3, a3, 0
    3323:	255432        	s16i	a3, a4, 74
    3326:	4f0432        	l8ui	a3, a4, 79
    3329:	f8ca42        	addi	a4, a10, -8
    332c:	236357        	bbci	a3, 5, 3353 <Voice_SWB_RX_Prcs+0x57>
    332f:	fcc232        	addi	a3, a2, -4
    3332:	058576        	loop	a5, 333b <Voice_SWB_RX_Prcs+0x3f>
    3335:	448314        	ae_lp16x2f.iu	aep0, a3, 4
    3338:	5e8414        	ae_sp24x2f.iu	aep0, a4, 8

0000333b <Voice_SWB_RX_Prcs+0x3f>:
    333b:	a8a032        	movi	a3, 168
    333e:	f3d541        	l32r	a4, 294 (c270 <real_split+0x50>)
    3341:	57d332        	addmi	a3, a3, 0x5700
    3344:	ba3a           	add.n	a11, a10, a3
    3346:	f3d431        	l32r	a3, 298 (321c <biquad_2cascade_24bitTx>)
    3349:	ca4a           	add.n	a12, a10, a4
    334b:	e0a1e2        	movi	a14, 0x1e0
    334e:	02dd           	mov.n	a13, a2
    3350:	0003e0        	callx8	a3

00003353 <Voice_SWB_RX_Prcs+0x57>:
    3353:	f01d           	retw.n

00003355 <Voice_SWB_RX_Prcs+0x59>:
    3355:	000000                                        ...

00003358 <EC_REF_GAIN_READBACK>:
    3358:	004136        	entry	a1, 32
    335b:	f35c31        	l32r	a3, cc (f59c <p_ecnr_mem>)
    335e:	040c           	movi.n	a4, 0
    3360:	0338           	l32i.n	a3, a3, 0
    3362:	6ad352        	addmi	a5, a3, 0x6a00
    3365:	6bd372        	addmi	a7, a3, 0x6b00
    3368:	6bd382        	addmi	a8, a3, 0x6b00
    336b:	6d1552        	l16ui	a5, a5, 218
    336e:	151762        	l16ui	a6, a7, 42
    3371:	3d1772        	l16ui	a7, a7, 122
    3374:	651882        	l16ui	a8, a8, 202
    3377:	625d           	ae_s16i.n	a5, a2, 0
    3379:	726d           	ae_s16i.n	a6, a2, 2
    337b:	025272        	s16i	a7, a2, 4
    337e:	2cd3f2        	addmi	a15, a3, 0x2c00
    3381:	035282        	s16i	a8, a2, 6
    3384:	221f82        	l16ui	a8, a15, 68
    3387:	050c           	movi.n	a5, 0
    3389:	060c           	movi.n	a6, 0
    338b:	070c           	movi.n	a7, 0
    338d:	112866        	bnei	a8, 2, 33a2 <EC_REF_GAIN_READBACK+0x4a>
    3390:	66d362        	addmi	a6, a3, 0x6600
    3393:	66d3f2        	addmi	a15, a3, 0x6600
    3396:	191642        	l16ui	a4, a6, 50
    3399:	b91652        	l16ui	a5, a6, 0x172
    339c:	411662        	l16ui	a6, a6, 130
    339f:	691f72        	l16ui	a7, a15, 210

000033a2 <EC_REF_GAIN_READBACK+0x4a>:
    33a2:	045242        	s16i	a4, a2, 8
    33a5:	055252        	s16i	a5, a2, 10
    33a8:	065262        	s16i	a6, a2, 12
    33ab:	075272        	s16i	a7, a2, 14
    33ae:	f01d           	retw.n

000033b0 <EC_PreLim_Coef_READBACK>:
    33b0:	004136        	entry	a1, 32
    33b3:	f34631        	l32r	a3, cc (f59c <p_ecnr_mem>)
    33b6:	455c           	movi.n	a5, 84
    33b8:	64d552        	addmi	a5, a5, 0x6400
    33bb:	0338           	l32i.n	a3, a3, 0
    33bd:	360c           	movi.n	a6, 3
    33bf:	024d           	mov.n	a4, a2
    33c1:	535a           	add.n	a5, a3, a5
    33c3:	078676        	loop	a6, 33ce <EC_PreLim_Coef_READBACK+0x1e>
    33c6:	556d           	ae_l16ui.n	a6, a5, 2
    33c8:	646d           	ae_s16i.n	a6, a4, 0
    33ca:	554b           	addi.n	a5, a5, 4
    33cc:	442b           	addi.n	a4, a4, 2

000033ce <EC_PreLim_Coef_READBACK+0x1e>:
    33ce:	aca052        	movi	a5, 172
    33d1:	64d552        	addmi	a5, a5, 0x6400
    33d4:	360c           	movi.n	a6, 3
    33d6:	426b           	addi.n	a4, a2, 6
    33d8:	535a           	add.n	a5, a3, a5
    33da:	078676        	loop	a6, 33e5 <EC_PreLim_Coef_READBACK+0x35>
    33dd:	556d           	ae_l16ui.n	a6, a5, 2
    33df:	646d           	ae_s16i.n	a6, a4, 0
    33e1:	554b           	addi.n	a5, a5, 4
    33e3:	442b           	addi.n	a4, a4, 2
    33e5:	c4a042        	movi	a4, 196
    33e8:	64d442        	addmi	a4, a4, 0x6400
    33eb:	350c           	movi.n	a5, 3
    33ed:	334a           	add.n	a3, a3, a4
    33ef:	22cb           	addi.n	a2, a2, 12
    33f1:	078576        	loop	a5, 33fc <EC_PreLim_Coef_READBACK+0x4c>
    33f4:	534d           	ae_l16ui.n	a4, a3, 2
    33f6:	624d           	ae_s16i.n	a4, a2, 0
    33f8:	334b           	addi.n	a3, a3, 4
    33fa:	222b           	addi.n	a2, a2, 2
    33fc:	f01d           	retw.n

000033fe <EC_PreLim_Coef_READBACK+0x4e>:
	...

00003400 <BAND5_PreLim_Coef_READBACK>:
    3400:	004136        	entry	a1, 32
    3403:	f33231        	l32r	a3, cc (f59c <p_ecnr_mem>)
    3406:	dca042        	movi	a4, 220
    3409:	64d442        	addmi	a4, a4, 0x6400
    340c:	0338           	l32i.n	a3, a3, 0
    340e:	350c           	movi.n	a5, 3
    3410:	334a           	add.n	a3, a3, a4
    3412:	078576        	loop	a5, 341d <BAND5_PreLim_Coef_READBACK+0x1d>
    3415:	534d           	ae_l16ui.n	a4, a3, 2
    3417:	624d           	ae_s16i.n	a4, a2, 0
    3419:	334b           	addi.n	a3, a3, 4
    341b:	222b           	addi.n	a2, a2, 2

0000341d <BAND5_PreLim_Coef_READBACK+0x1d>:
    341d:	f01d           	retw.n

0000341f <BAND5_PreLim_Coef_READBACK+0x1f>:
	...

00003420 <DaulMIC_power_Coef_READBACK>:
    3420:	004136        	entry	a1, 32
    3423:	f32a21        	l32r	a2, cc (f59c <p_ecnr_mem>)
    3426:	0228           	l32i.n	a2, a2, 0
    3428:	65d222        	addmi	a2, a2, 0x6500
    342b:	789222        	l16si	a2, a2, 240
    342e:	f01d           	retw.n

00003430 <BAND5_EC_REF_GAIN_READBACK>:
    3430:	004136        	entry	a1, 32
    3433:	f32631        	l32r	a3, cc (f59c <p_ecnr_mem>)
    3436:	0338           	l32i.n	a3, a3, 0
    3438:	6cd342        	addmi	a4, a3, 0x6c00
    343b:	0d1442        	l16ui	a4, a4, 26
    343e:	624d           	ae_s16i.n	a4, a2, 0
    3440:	2cd352        	addmi	a5, a3, 0x2c00
    3443:	221552        	l16ui	a5, a5, 68
    3446:	040c           	movi.n	a4, 0
    3448:	67d362        	addmi	a6, a3, 0x6700
    344b:	022566        	bnei	a5, 2, 3451 <BAND5_EC_REF_GAIN_READBACK+0x21>
    344e:	111642        	l16ui	a4, a6, 34

00003451 <BAND5_EC_REF_GAIN_READBACK+0x21>:
    3451:	6dd332        	addmi	a3, a3, 0x6d00
    3454:	551332        	l16ui	a3, a3, 170
    3457:	724d           	ae_s16i.n	a4, a2, 2
    3459:	025232        	s16i	a3, a2, 4
    345c:	f01d           	retw.n

0000345e <BAND5_EC_REF_GAIN_READBACK+0x2e>:
	...

00003460 <Voice_WB_TX_Prcs>:
    3460:	004136        	entry	a1, 32
    3463:	f31a71        	l32r	a7, cc (f59c <p_ecnr_mem>)
    3466:	fba092        	movi	a9, 251
    3469:	0c0c           	movi.n	a12, 0
    346b:	0778           	l32i.n	a7, a7, 0
    346d:	02ad           	mov.n	a10, a2
    346f:	03bd           	mov.n	a11, a3
    3471:	70d772        	addmi	a7, a7, 0x7000
    3474:	d60782        	l8ui	a8, a7, 214
    3477:	04dd           	mov.n	a13, a4
    3479:	05ed           	mov.n	a14, a5
    347b:	108890        	and	a8, a8, a9
    347e:	d64782        	s8i	a8, a7, 214
    3481:	f38871        	l32r	a7, 2a4 (348c <Voice_WB_TX_Common_Prcs>)
    3484:	06fd           	mov.n	a15, a6
    3486:	0007e0        	callx8	a7
    3489:	f01d           	retw.n

0000348b <Voice_WB_TX_Prcs+0x2b>:
	...

0000348c <Voice_WB_TX_Common_Prcs>:
    348c:	03a136        	entry	a1, 0x1d0
    348f:	f30ff1        	l32r	a15, cc (f59c <p_ecnr_mem>)
    3492:	246132        	s32i	a3, a1, 144
    3495:	090c           	movi.n	a9, 0
    3497:	0fd8           	l32i.n	a13, a15, 0
    3499:	2cdd32        	addmi	a3, a13, 0x2c00
    349c:	271332        	l16ui	a3, a3, 78
    349f:	018350        	slli	a8, a3, 27
    34a2:	31af80        	srai	a10, a8, 31
    34a5:	f38081        	l32r	a8, 2a8 (968c <two_mic_WB_NR_NSN_proc+0xb1c>)
    34a8:	0f04a7        	bnone	a4, a10, 34bb <Voice_WB_TX_Common_Prcs+0x2f>
    34ab:	8d8a           	add.n	a8, a13, a8
    34ad:	0888           	l32i.n	a8, a8, 0
    34af:	02d882        	addmi	a8, a8, 0x200
    34b2:	441892        	l16ui	a9, a8, 136
    34b5:	418e90        	srli	a8, a9, 14
    34b8:	000046        	j	34bd <Voice_WB_TX_Common_Prcs+0x31>

000034bb <Voice_WB_TX_Common_Prcs+0x2f>:
    34bb:	080c           	movi.n	a8, 0
    34bd:	10aa40        	and	a10, a10, a4
    34c0:	02e307        	bbsi	a3, 0, 34c6 <Voice_WB_TX_Common_Prcs+0x3a>
    34c3:	002106        	j	354b <Voice_WB_TX_Common_Prcs+0xbf>
    34c6:	081856        	bnez	a8, 354b <Voice_WB_TX_Common_Prcs+0xbf>
    34c9:	f37881        	l32r	a8, 2ac (c32c <real_split+0x10c>)
    34cc:	1761a2        	s32i	a10, a1, 92
    34cf:	2cdd42        	addmi	a4, a13, 0x2c00
    34d2:	ad8a           	add.n	a10, a13, a8
    34d4:	4acd           	ae_l16ui.n	a12, a10, 0
    34d6:	2cddb2        	addmi	a11, a13, 0x2c00
    34d9:	1e2432        	l32i	a3, a4, 120
    34dc:	1d2442        	l32i	a4, a4, 116
    34df:	242be2        	l32i	a14, a11, 144
    34e2:	89a5f2        	movi	a15, 0x589
    34e5:	118fd0        	slli	a8, a15, 3
    34e8:	1a6132        	s32i	a3, a1, 104
    34eb:	356142        	s32i	a4, a1, 212
    34ee:	3761e2        	s32i	a14, a1, 220
    34f1:	1861d2        	s32i	a13, a1, 96
    34f4:	1f6192        	s32i	a9, a1, 124
    34f7:	4f6172        	s32i	a7, a1, 0x13c
    34fa:	1e6162        	s32i	a6, a1, 120
    34fd:	196152        	s32i	a5, a1, 100
    3500:	05ec16        	beqz	a12, 3562 <Voice_WB_TX_Common_Prcs+0xd6>
    3503:	f36c31        	l32r	a3, 2b4 (6574 <TxRef_VAD_V2>)
    3506:	05bd           	mov.n	a11, a5
    3508:	086d           	mov.n	a6, a8
    350a:	0003e0        	callx8	a3
    350d:	f2ef31        	l32r	a3, cc (f59c <p_ecnr_mem>)
    3510:	1f2192        	l32i	a9, a1, 124
    3513:	1821d2        	l32i	a13, a1, 96
    3516:	0348           	l32i.n	a4, a3, 0
    3518:	2cd432        	addmi	a3, a4, 0x2c00
    351b:	241332        	l16ui	a3, a3, 72
    351e:	546a           	add.n	a5, a4, a6
    3520:	836d           	ae_sext16	a6, a3
    3522:	07ba16        	beqz	a10, 35a1 <Voice_WB_TX_Common_Prcs+0x115>
    3525:	837d           	ae_sext16	a7, a3
    3527:	186c           	movi.n	a8, -31
    3529:	02ad           	mov.n	a10, a2
    352b:	082787        	blt	a7, a8, 3537 <Voice_WB_TX_Common_Prcs+0xab>
    352e:	360b           	addi.n	a3, a6, -1
    3530:	ff7c           	movi.n	a15, -1
    3532:	4333f0        	min	a3, a3, a15
    3535:	653d           	ae_s16i.n	a3, a5, 0
    3537:	6add52        	addmi	a5, a13, 0x6a00
    353a:	549562        	l16si	a6, a5, 168
    353d:	ffa172        	movi	a7, 0x1ff
    3540:	6d2767        	blt	a7, a6, 35b1 <Voice_WB_TX_Common_Prcs+0x125>
    3543:	661b           	addi.n	a6, a6, 1
    3545:	545562        	s16i	a6, a5, 168
    3548:	001946        	j	35b1 <Voice_WB_TX_Common_Prcs+0x125>

0000354b <Voice_WB_TX_Common_Prcs+0xbf>:
    354b:	1acc           	bnez.n	a10, 3550 <Voice_WB_TX_Common_Prcs+0xc4>
    354d:	050046        	j	4952 <Voice_WB_TX_Common_Prcs+0x14c6>
    3550:	021826        	beqi	a8, 1, 3556 <Voice_WB_TX_Common_Prcs+0xca>
    3553:	009f06        	j	37d3 <Voice_WB_TX_Common_Prcs+0x347>
    3556:	f37721        	l32r	a2, 334 (103d4 <_end+0xe34>)
    3559:	2d2a           	add.n	a2, a13, a2
    355b:	424d           	ae_l16ui.n	a4, a2, 0
    355d:	0a2d           	mov.n	a2, a10
    355f:	009d46        	j	37d8 <Voice_WB_TX_Common_Prcs+0x34c>

00003562 <Voice_WB_TX_Common_Prcs+0xd6>:
    3562:	c32c           	movi.n	a3, 44
    3564:	2cd332        	addmi	a3, a3, 0x2c00
    3567:	640c           	movi.n	a4, 6
    3569:	3d3a           	add.n	a3, a13, a3
    356b:	058476        	loop	a4, 3574 <Voice_WB_TX_Common_Prcs+0xe8>
    356e:	334d           	ae_l16si.n	a4, a3, 2
    3570:	634d           	ae_s16i.n	a4, a3, 0
    3572:	332b           	addi.n	a3, a3, 2

00003574 <Voice_WB_TX_Common_Prcs+0xe8>:
    3574:	2cdd42        	addmi	a4, a13, 0x2c00
    3577:	259442        	l16si	a4, a4, 74
    357a:	f34d61        	l32r	a6, 2b0 (c2b4 <real_split+0x94>)
    357d:	2cdd72        	addmi	a7, a13, 0x2c00
    3580:	114490        	slli	a4, a4, 7
    3583:	634d           	ae_s16i.n	a4, a3, 0
    3585:	6d6a           	add.n	a6, a13, a6
    3587:	463d           	ae_l16ui.n	a3, a6, 0
    3589:	249762        	l16si	a6, a7, 72
    358c:	ffa3f2        	movi	a15, 0x3ff
    358f:	9033d0        	addx2	a3, a3, a13
    3592:	2cd332        	addmi	a3, a3, 0x2c00
    3595:	1693e2        	l16si	a14, a3, 44
    3598:	5d8a           	add.n	a5, a13, a8
    359a:	0d4d           	mov.n	a4, a13
    359c:	963d           	ae_zext16	a3, a6
    359e:	832fe7        	blt	a15, a14, 3525 <Voice_WB_TX_Common_Prcs+0x99>

000035a1 <Voice_WB_TX_Common_Prcs+0x115>:
    35a1:	837d           	ae_sext16	a7, a3
    35a3:	02ad           	mov.n	a10, a2
    35a5:	08c7e6        	bgei	a7, 32, 35b1 <Voice_WB_TX_Common_Prcs+0x125>
    35a8:	361b           	addi.n	a3, a6, 1
    35aa:	1f0c           	movi.n	a15, 1
    35ac:	5333f0        	max	a3, a3, a15
    35af:	653d           	ae_s16i.n	a3, a5, 0
    35b1:	08dd22        	addmi	a2, a13, 0x800
    35b4:	1c6122        	s32i	a2, a1, 112
    35b7:	172122        	l32i	a2, a1, 92
    35ba:	6edd52        	addmi	a5, a13, 0x6e00
    35bd:	6add82        	addmi	a8, a13, 0x6a00
    35c0:	0b0c           	movi.n	a11, 0
    35c2:	6bdd62        	addmi	a6, a13, 0x6b00
    35c5:	0aed           	mov.n	a14, a10
    35c7:	095532        	s16i	a3, a5, 18
    35ca:	3868b2        	s32i	a11, a8, 224
    35cd:	c6b9           	s32i.n	a11, a6, 48
    35cf:	6068b2        	s32i	a11, a8, 0x180
    35d2:	6bdd72        	addmi	a7, a13, 0x6b00
    35d5:	7468b2        	s32i	a11, a8, 0x1d0
    35d8:	6bddf2        	addmi	a15, a13, 0x6b00
    35db:	386182        	s32i	a8, a1, 224
    35de:	3968b2        	s32i	a11, a8, 228
    35e1:	d6b9           	s32i.n	a11, a6, 52
    35e3:	4e6172        	s32i	a7, a1, 0x138
    35e6:	2167b2        	s32i	a11, a7, 132
    35e9:	4d61f2        	s32i	a15, a1, 0x134
    35ec:	356fb2        	s32i	a11, a15, 212
    35ef:	0eb216        	beqz	a2, 36de <Voice_WB_TX_Common_Prcs+0x252>
    35f2:	f331f1        	l32r	a15, 2b8 (103dc <_end+0xe3c>)
    35f5:	6cdd62        	addmi	a6, a13, 0x6c00
    35f8:	6ddd22        	addmi	a2, a13, 0x6d00
    35fb:	1c66b2        	s32i	a11, a6, 112
    35fe:	42b9           	s32i.n	a11, a2, 16
    3600:	1862b2        	s32i	a11, a2, 96
    3603:	1d66b2        	s32i	a11, a6, 116
    3606:	3066b2        	s32i	a11, a6, 192
    3609:	3166b2        	s32i	a11, a6, 196
    360c:	fd249452bf 	{ s32i.n	a11, a2, 20; ae_zeroq56	aeq1 }
    3611:	5966b2        	s32i	a11, a6, 0x164
    3614:	54fa           	add.n	a5, a4, a15
    3616:	000582        	l8ui	a8, a5, 0
    3619:	fc0c72417e 	{ l32i	a7, a1, 144; ae_movq56	aeq0, aeq1 }
    361e:	78a0a2        	movi	a10, 120
    3621:	fec862        	addi	a6, a8, -2
    3624:	02e997        	bbsi	a9, 9, 362a <Voice_WB_TX_Common_Prcs+0x19e>
    3627:	002a86        	j	36d5 <Voice_WB_TX_Common_Prcs+0x249>
    362a:	0a7816        	beqz	a8, 36d5 <Voice_WB_TX_Common_Prcs+0x249>
    362d:	0e9d           	mov.n	a9, a14
    362f:	078d           	mov.n	a8, a7
    3631:	939760        	movnez	a9, a7, a6
    3634:	938e60        	movnez	a8, a14, a6
    3637:	fcc992        	addi	a9, a9, -4
    363a:	440804        	ae_lp16x2f.i	aep0, a8, 0
    363d:	098a76        	loop	a10, 364a <Voice_WB_TX_Common_Prcs+0x1be>
    3640:	e2006d991f 	{ ae_lp16x2f.iu	aep1, a9, 4; ae_mulaafp24s.hh.ll	aeq1, aep0, aep0 }
    3645:	e2242d881f 	{ ae_lp16x2f.iu	aep0, a8, 4; ae_mulaafp24s.hh.ll	aeq0, aep1, aep1 }

0000364a <Voice_WB_TX_Common_Prcs+0x1be>:
    364a:	4a4c           	movi.n	a10, 68
    364c:	355234        	ae_sraiq56	aeq1, aeq1, 8
    364f:	44daa2        	addmi	a10, a10, 0x4400
    3652:	fd2c588aaf 	{ ae_cvtp24a16x2.ll	aep0, a10, a10; ae_roundsq32asym	aeq1, aeq1 }
    3657:	f31a81        	l32r	a8, 2c0 (103cc <_end+0xe2c>)
    365a:	d4e37b020f 	{ ae_sraiq56	aeq0, aeq0, 8; ae_mulfq32sp16s.l	aeq1, aeq1, aep0 }
    365f:	fc2445fecf 	{ movi	a12, 0x5fe; ae_roundsq32asym	aeq0, aeq0 }
    3664:	d4e23a905f 	{ ae_slliq56	aeq1, aeq1, 1; ae_mulfq32sp16s.l	aeq0, aeq0, aep0 }
    3669:	f314b1        	l32r	a11, 2bc (7fbe0042 <_end+0x7fbd0aa2>)
    366c:	fd2c581bbf 	{ ae_cvtp24a16x2.lh	aep1, a11, a11; ae_roundsq32asym	aeq1, aeq1 }
    3671:	60b844        	ae_lq32f.xu	aeq2, a8, a4
    3674:	f31491        	l32r	a9, 2c4 (103d0 <_end+0xe30>)
    3677:	0e24fa801f 	{ ae_slliq56	aeq0, aeq0, 1; ae_mulzaafq32sp16s.lh	aeq1, aeq2, aep1, aeq1, aep1 }
    367c:	06c934        	ae_roundsq32asym	aeq3, aeq0
    367f:	fc2c7c494f 	{ ae_lq32f.xu	aeq2, a9, a4; ae_roundsq32asym	aeq0, aeq1 }
    3684:	0f26f9880f 	{ ae_sq32f.i	aeq0, a8, 0; ae_mulzaafq32sp16s.lh	aeq3, aeq2, aep1, aeq3, aep1 }
    3689:	08f8           	l32i.n	a15, a8, 0
    368b:	fd3c40002f 	{ movi	a2, 0; ae_roundsq32asym	aeq1, aeq3 }
    3690:	f0ccc0        	subx8	a12, a12, a12
    3693:	621904        	ae_sq32f.i	aeq1, a9, 0
    3696:	3b2fc7        	blt	a15, a12, 36d5 <Voice_WB_TX_Common_Prcs+0x249>
    3699:	f30ba1        	l32r	a10, 2c8 (103d6 <_end+0xe36>)
    369c:	1b0c           	movi.n	a11, 1
    369e:	a4aa           	add.n	a10, a4, a10
    36a0:	4aad           	ae_l16ui.n	a10, a10, 0
    36a2:	300aa4        	ae_cvtp24a16x2.ll	aep0, a10, a10
    36a5:	d4e34002af 	{ movi	a10, 2; ae_mulfq32sp16s.l	aeq1, aeq1, aep0 }
    36aa:	2cd472        	addmi	a7, a4, 0x2c00
    36ad:	355154        	ae_slliq56	aeq1, aeq1, 5
    36b0:	d6480000ff 	{ movi	a15, 0; ae_ltq56s	b0, aeq0, aeq1 }
    36b5:	70ddc2        	addmi	a12, a13, 0x7000
    36b8:	0d1c           	movi.n	a13, 16
    36ba:	d32b00        	movt	a2, a11, b0
    36bd:	429c           	beqz.n	a2, 36d5 <Voice_WB_TX_Common_Prcs+0x249>
    36bf:	2257a2        	s16i	a10, a7, 68
    36c2:	d60c62        	l8ui	a6, a12, 214
    36c5:	2066d0        	or	a6, a6, a13
    36c8:	d64c62        	s8i	a6, a12, 214
    36cb:	0045f2        	s8i	a15, a5, 0
    36ce:	08f9           	s32i.n	a15, a8, 0
    36d0:	09f9           	s32i.n	a15, a9, 0
    36d2:	000146        	j	36db <Voice_WB_TX_Common_Prcs+0x24f>

000036d5 <Voice_WB_TX_Common_Prcs+0x249>:
    36d5:	242152        	l32i	a5, a1, 144
    36d8:	83e560        	moveqz	a14, a5, a6
    36db:	172122        	l32i	a2, a1, 92
    36de:	f2fbf1        	l32r	a15, 2cc (c2b6 <real_split+0x96>)
    36e1:	833d           	ae_sext16	a3, a3
    36e3:	256132        	s32i	a3, a1, 148
    36e6:	34fa           	add.n	a3, a4, a15
    36e8:	6ca082        	movi	a8, 108
    36eb:	433d           	ae_l16ui.n	a3, a3, 0
    36ed:	1c2152        	l32i	a5, a1, 112
    36f0:	28d882        	addmi	a8, a8, 0x2800
    36f3:	448a           	add.n	a4, a4, a8
    36f5:	f29871        	l32r	a7, 158 (d6fc <xt_memcpy>)
    36f8:	05ad           	mov.n	a10, a5
    36fa:	04bd           	mov.n	a11, a4
    36fc:	03cd           	mov.n	a12, a3
    36fe:	1d61e2        	s32i	a14, a1, 116
    3701:	0007e0        	callx8	a7
    3704:	90a350        	addx2	a10, a3, a5
    3707:	192152        	l32i	a5, a1, 100
    370a:	f0a082        	movi	a8, 240
    370d:	c0c830        	sub	a12, a8, a3
    3710:	05bd           	mov.n	a11, a5
    3712:	1163f0        	slli	a6, a3, 1
    3715:	0007e0        	callx8	a7
    3718:	c06560        	sub	a6, a5, a6
    371b:	e0a182        	movi	a8, 0x1e0
    371e:	b68a           	add.n	a11, a6, a8
    3720:	04ad           	mov.n	a10, a4
    3722:	03cd           	mov.n	a12, a3
    3724:	0007e0        	callx8	a7
    3727:	f29731        	l32r	a3, 184 (d6e8 <xt_memset>)
    372a:	20c1a2        	addi	a10, a1, 32
    372d:	0b0c           	movi.n	a11, 0
    372f:	ec0c           	movi.n	a12, 14
    3731:	0003e0        	callx8	a3
    3734:	182192        	l32i	a9, a1, 96
    3737:	f2e651        	l32r	a5, 2d0 (c348 <real_split+0x128>)
    373a:	4fa642        	movi	a4, 0x64f
    373d:	65d932        	addmi	a3, a9, 0x6500
    3740:	060c           	movi.n	a6, 0
    3742:	02dd           	mov.n	a13, a2
    3744:	1144c0        	slli	a4, a4, 4
    3747:	765362        	s16i	a6, a3, 236
    374a:	4c6132        	s32i	a3, a1, 0x130
    374d:	074216        	beqz	a2, 37c5 <Voice_WB_TX_Common_Prcs+0x339>
    3750:	f25f31        	l32r	a3, cc (f59c <p_ecnr_mem>)
    3753:	78a062        	movi	a6, 120
    3756:	441d04        	ae_lp16x2f.i	aep1, a13, 0
    3759:	03a8           	l32i.n	a10, a3, 0
    375b:	3a5a           	add.n	a3, a10, a5
    375d:	233d           	ae_l16si.n	a3, a3, 0
    375f:	398334        	ae_movpa24x2	aep0, a3, a3
    3762:	203dd0        	or	a3, a13, a13
    3765:	188676        	loop	a6, 3781 <Voice_WB_TX_Common_Prcs+0x2f5>
    3768:	011054        	ae_mulfp24s.hl	aeq0, aep1, aep0
    376b:	011874        	ae_mulfp24s.ll	aeq1, aep1, aep0
    376e:	350214        	ae_slliq56	aeq0, aeq0, 8
    3771:	fb63fa924f 	{ ae_slliq56	aeq1, aeq1, 8; ae_roundsp16q48asym	aep7, aeq0 }
    3776:	f96bb2730f 	{ ae_sp16f.l.i	aep7, a3, 0; ae_roundsp16q48asym	aep2, aeq1 }
    377b:	422314        	ae_sp16f.l.i	aep2, a3, 2
    377e:	449314        	ae_lp16x2f.iu	aep1, a3, 4

00003781 <Voice_WB_TX_Common_Prcs+0x2f5>:
    3781:	fccd72        	addi	a7, a13, -4
    3784:	78a062        	movi	a6, 120
    3787:	f8ca32        	addi	a3, a10, -8
    378a:	208770        	or	a8, a7, a7
    378d:	058676        	loop	a6, 3796 <Voice_WB_TX_Common_Prcs+0x30a>
    3790:	448814        	ae_lp16x2f.iu	aep0, a8, 4
    3793:	5e8314        	ae_sp24x2f.iu	aep0, a3, 8
    3796:	5fa132        	movi	a3, 0x15f
    3799:	41a162        	movi	a6, 0x141
    379c:	1133a0        	slli	a3, a3, 6
    379f:	1166b0        	slli	a6, a6, 5
    37a2:	ba3a           	add.n	a11, a10, a3
    37a4:	f2bd31        	l32r	a3, 298 (321c <biquad_2cascade_24bitTx>)
    37a7:	ca6a           	add.n	a12, a10, a6
    37a9:	f0a0e2        	movi	a14, 240
    37ac:	0003e0        	callx8	a3
    37af:	1f2182        	l32i	a8, a1, 124
    37b2:	f24631        	l32r	a3, cc (f59c <p_ecnr_mem>)
    37b5:	c0a3f2        	movi	a15, 0x3c0
    37b8:	42e8c7        	bbsi	a8, 12, 37fe <Voice_WB_TX_Common_Prcs+0x372>
    37bb:	182192        	l32i	a9, a1, 96
    37be:	030c           	movi.n	a3, 0
    37c0:	02dd           	mov.n	a13, a2
    37c2:	002186        	j	384c <Voice_WB_TX_Common_Prcs+0x3c0>

000037c5 <Voice_WB_TX_Common_Prcs+0x339>:
    37c5:	1f2182        	l32i	a8, a1, 124
    37c8:	130c           	movi.n	a3, 1
    37ca:	113340        	slli	a3, a3, 12
    37cd:	103830        	and	a3, a8, a3
    37d0:	001e06        	j	384c <Voice_WB_TX_Common_Prcs+0x3c0>

000037d3 <Voice_WB_TX_Common_Prcs+0x347>:
    37d3:	140c           	movi.n	a4, 1
    37d5:	114450        	slli	a4, a4, 11
    37d8:	f0a052        	movi	a5, 240
    37db:	1f0c           	movi.n	a15, 1
    37dd:	300444        	ae_cvtp24a16x2.ll	aep0, a4, a4
    37e0:	fec632        	addi	a3, a6, -2
    37e3:	409204        	ae_lp16f.iu	aep1, a2, 0
    37e6:	114f30        	slli	a4, a15, 13
    37e9:	0e8576        	loop	a5, 37fb <Voice_WB_TX_Common_Prcs+0x36f>
    37ec:	000174        	ae_mulfs32p16s.ll	aeq0, aep0, aep1
    37ef:	360114        	ae_sllisq56s	aeq0, aeq0, 4
    37f2:	1b8f74        	ae_roundsp16q48asym	aep7, aeq0
    37f5:	42f314        	ae_sp16f.l.iu	aep7, a3, 2
    37f8:	409214        	ae_lp16f.iu	aep1, a2, 2

000037fb <Voice_WB_TX_Common_Prcs+0x36f>:
    37fb:	045986        	j	4965 <Voice_WB_TX_Common_Prcs+0x14d9>

000037fe <Voice_WB_TX_Common_Prcs+0x372>:
    37fe:	78a062        	movi	a6, 120
    3801:	03a8           	l32i.n	a10, a3, 0
    3803:	803af0        	add	a3, a10, a15
    3806:	f8ca82        	addi	a8, a10, -8
    3809:	058676        	loop	a6, 3812 <Voice_WB_TX_Common_Prcs+0x386>
    380c:	448714        	ae_lp16x2f.iu	aep0, a7, 4
    380f:	5e8814        	ae_sp24x2f.iu	aep0, a8, 8

00003812 <Voice_WB_TX_Common_Prcs+0x386>:
    3812:	d8a062        	movi	a6, 216
    3815:	57d662        	addmi	a6, a6, 0x5700
    3818:	f2afc1        	l32r	a12, 2d4 (e780 <nc_vad_lpf_coef>)
    381b:	f29f51        	l32r	a5, 298 (321c <biquad_2cascade_24bitTx>)
    381e:	ba6a           	add.n	a11, a10, a6
    3820:	f0a0e2        	movi	a14, 240
    3823:	03dd           	mov.n	a13, a3
    3825:	0005e0        	callx8	a5
    3828:	f22951        	l32r	a5, cc (f59c <p_ecnr_mem>)
    382b:	f2a9f1        	l32r	a15, 2d0 (c348 <real_split+0x128>)
    382e:	f2aa71        	l32r	a7, 2d8 (10588 <_end+0xfe8>)
    3831:	0568           	l32i.n	a6, a5, 0
    3833:	03bd           	mov.n	a11, a3
    3835:	86fa           	add.n	a8, a6, a15
    3837:	a67a           	add.n	a10, a6, a7
    3839:	48cd           	ae_l16ui.n	a12, a8, 0
    383b:	f2a861        	l32r	a6, 2dc (6690 <NC_VAD_V3>)
    383e:	0006e0        	callx8	a6
    3841:	182192        	l32i	a9, a1, 96
    3844:	1721d2        	l32i	a13, a1, 92
    3847:	1f2182        	l32i	a8, a1, 124
    384a:	130c           	movi.n	a3, 1

0000384c <Voice_WB_TX_Common_Prcs+0x3c0>:
    384c:	2d6132        	s32i	a3, a1, 180
    384f:	43a652        	movi	a5, 0x643
    3852:	78a032        	movi	a3, 120
    3855:	1155c0        	slli	a5, a5, 4
    3858:	6ad332        	addmi	a3, a3, 0x6a00
    385b:	c8a062        	movi	a6, 200
    385e:	871c           	movi.n	a7, 24
    3860:	68a0b2        	movi	a11, 104
    3863:	b8a0c2        	movi	a12, 184
    3866:	f95a           	add.n	a15, a9, a5
    3868:	6ad662        	addmi	a6, a6, 0x6a00
    386b:	393a           	add.n	a3, a9, a3
    386d:	1b61f2        	s32i	a15, a1, 108
    3870:	f28e21        	l32r	a2, 2a8 (968c <two_mic_WB_NR_NSN_proc+0xb1c>)
    3873:	6bd772        	addmi	a7, a7, 0x6b00
    3876:	6bdbb2        	addmi	a11, a11, 0x6b00
    3879:	6bdcc2        	addmi	a12, a12, 0x6b00
    387c:	f8a0e2        	movi	a14, 248
    387f:	a8a0f2        	movi	a15, 168
    3882:	596a           	add.n	a5, a9, a6
    3884:	697a           	add.n	a6, a9, a7
    3886:	79ba           	add.n	a7, a9, a11
    3888:	b9ca           	add.n	a11, a9, a12
    388a:	c94a           	add.n	a12, a9, a4
    388c:	6cdf42        	addmi	a4, a15, 0x6c00
    388f:	196132        	s32i	a3, a1, 100
    3892:	6cde32        	addmi	a3, a14, 0x6c00
    3895:	2521f2        	l32i	a15, a1, 148
    3898:	5061c2        	s32i	a12, a1, 0x140
    389b:	393a           	add.n	a3, a9, a3
    389d:	8c5c           	movi.n	a12, 88
    389f:	466152        	s32i	a5, a1, 0x118
    38a2:	050c           	movi.n	a5, 0
    38a4:	e92a           	add.n	a14, a9, a2
    38a6:	446132        	s32i	a3, a1, 0x110
    38a9:	6cdc32        	addmi	a3, a12, 0x6c00
    38ac:	3a61e2        	s32i	a14, a1, 232
    38af:	7255f0        	salt	a5, a5, a15
    38b2:	494a           	add.n	a4, a9, a4
    38b4:	393a           	add.n	a3, a9, a3
    38b6:	8e4c           	movi.n	a14, 72
    38b8:	31a3f2        	movi	a15, 0x331
    38bb:	476162        	s32i	a6, a1, 0x11c
    38be:	4961b2        	s32i	a11, a1, 0x124
    38c1:	436142        	s32i	a4, a1, 0x10c
    38c4:	114fb0        	slli	a4, a15, 5
    38c7:	426132        	s32i	a3, a1, 0x108
    38ca:	6dde32        	addmi	a3, a14, 0x6d00
    38cd:	260c           	movi.n	a6, 2
    38cf:	eb7c           	movi.n	a11, -2
    38d1:	93b6a0        	movnez	a11, a6, a10
    38d4:	294a           	add.n	a2, a9, a4
    38d6:	393a           	add.n	a3, a9, a3
    38d8:	67a642        	movi	a4, 0x667
    38db:	83b650        	moveqz	a11, a6, a5
    38de:	486172        	s32i	a7, a1, 0x120
    38e1:	074c           	movi.n	a7, 64
    38e3:	3d6132        	s32i	a3, a1, 244
    38e6:	1134c0        	slli	a3, a4, 4
    38e9:	9ba152        	movi	a5, 0x19b
    38ec:	8a0c           	movi.n	a10, 8
    38ee:	106870        	and	a6, a8, a7
    38f1:	5b61b2        	s32i	a11, a1, 0x16c
    38f4:	10b8a0        	and	a11, a8, a10
    38f7:	393a           	add.n	a3, a9, a3
    38f9:	1145a0        	slli	a4, a5, 6
    38fc:	3ba372        	movi	a7, 0x33b
    38ff:	a8a082        	movi	a8, 168
    3902:	516162        	s32i	a6, a1, 0x144
    3905:	694a           	add.n	a6, a9, a4
    3907:	64d842        	addmi	a4, a8, 0x6400
    390a:	646132        	s32i	a3, a1, 0x190
    390d:	1137b0        	slli	a3, a7, 5
    3910:	7ba6c2        	movi	a12, 0x67b
    3913:	a94a           	add.n	a10, a9, a4
    3915:	114cc0        	slli	a4, a12, 4
    3918:	6861b2        	s32i	a11, a1, 0x1a0
    391b:	656122        	s32i	a2, a1, 0x194
    391e:	393a           	add.n	a3, a9, a3
    3920:	93a1b2        	movi	a11, 0x193
    3923:	8fa622        	movi	a2, 0x68f
    3926:	e94a           	add.n	a14, a9, a4
    3928:	1142c0        	slli	a4, a2, 4
    392b:	626132        	s32i	a3, a1, 0x188
    392e:	113ba0        	slli	a3, a11, 6
    3931:	594a           	add.n	a5, a9, a4
    3933:	636162        	s32i	a6, a1, 0x18c
    3936:	393a           	add.n	a3, a9, a3
    3938:	28c162        	addi	a6, a1, 40
    393b:	85a6f2        	movi	a15, 0x685
    393e:	596132        	s32i	a3, a1, 0x164
    3941:	113fc0        	slli	a3, a15, 4
    3944:	406152        	s32i	a5, a1, 0x100
    3947:	6a6162        	s32i	a6, a1, 0x1a8
    394a:	2cc142        	addi	a4, a1, 44
    394d:	70d952        	addmi	a5, a9, 0x7000
    3950:	24c162        	addi	a6, a1, 36
    3953:	5a61a2        	s32i	a10, a1, 0x168
    3956:	2c61e2        	s32i	a14, a1, 176
    3959:	393a           	add.n	a3, a9, a3
    395b:	6bd972        	addmi	a7, a9, 0x6b00
    395e:	6bd9a2        	addmi	a10, a9, 0x6b00
    3961:	34c1b2        	addi	a11, a1, 52
    3964:	6dd9c2        	addmi	a12, a9, 0x6d00
    3967:	6cd9e2        	addmi	a14, a9, 0x6c00
    396a:	6cd9f2        	addmi	a15, a9, 0x6c00
    396d:	2f6142        	s32i	a4, a1, 188
    3970:	306152        	s32i	a5, a1, 192
    3973:	616162        	s32i	a6, a1, 0x184
    3976:	64d942        	addmi	a4, a9, 0x6400
    3979:	65d952        	addmi	a5, a9, 0x6500
    397c:	64d962        	addmi	a6, a9, 0x6400
    397f:	416132        	s32i	a3, a1, 0x104
    3982:	4a6172        	s32i	a7, a1, 0x128
    3985:	3161a2        	s32i	a10, a1, 196
    3988:	6661b2        	s32i	a11, a1, 0x198
    398b:	3461c2        	s32i	a12, a1, 208
    398e:	3361e2        	s32i	a14, a1, 204
    3991:	2a61f2        	s32i	a15, a1, 168
    3994:	6dd932        	addmi	a3, a9, 0x6d00
    3997:	66d972        	addmi	a7, a9, 0x6600
    399a:	66d9a2        	addmi	a10, a9, 0x6600
    399d:	67d9b2        	addmi	a11, a9, 0x6700
    39a0:	67d9c2        	addmi	a12, a9, 0x6700
    39a3:	48c1e2        	addi	a14, a1, 72
    39a6:	50c1f2        	addi	a15, a1, 80
    39a9:	3c6142        	s32i	a4, a1, 240
    39ac:	396152        	s32i	a5, a1, 228
    39af:	556162        	s32i	a6, a1, 0x154
    39b2:	69d942        	addmi	a4, a9, 0x6900
    39b5:	64d952        	addmi	a5, a9, 0x6400
    39b8:	30c162        	addi	a6, a1, 48
    39bb:	6bd982        	addmi	a8, a9, 0x6b00
    39be:	326132        	s32i	a3, a1, 200
    39c1:	606172        	s32i	a7, a1, 0x180
    39c4:	5f61a2        	s32i	a10, a1, 0x17c
    39c7:	4561b2        	s32i	a11, a1, 0x114
    39ca:	2861c2        	s32i	a12, a1, 160
    39cd:	5861e2        	s32i	a14, a1, 0x160
    39d0:	5761f2        	s32i	a15, a1, 0x15c
    39d3:	64d932        	addmi	a3, a9, 0x6400
    39d6:	65d972        	addmi	a7, a9, 0x6500
    39d9:	65d9a2        	addmi	a10, a9, 0x6500
    39dc:	65d9b2        	addmi	a11, a9, 0x6500
    39df:	66d9c2        	addmi	a12, a9, 0x6600
    39e2:	68d9e2        	addmi	a14, a9, 0x6800
    39e5:	68d9f2        	addmi	a15, a9, 0x6800
    39e8:	3e6142        	s32i	a4, a1, 248
    39eb:	536152        	s32i	a5, a1, 0x14c
    39ee:	526162        	s32i	a6, a1, 0x148
    39f1:	f1b661        	l32r	a6, cc (f59c <p_ecnr_mem>)
    39f4:	1c2152        	l32i	a5, a1, 112
    39f7:	1d2142        	l32i	a4, a1, 116
    39fa:	4b6182        	s32i	a8, a1, 0x12c
    39fd:	6cd982        	addmi	a8, a9, 0x6c00
    3a00:	566132        	s32i	a3, a1, 0x158
    3a03:	266172        	s32i	a7, a1, 152
    3a06:	3b61a2        	s32i	a10, a1, 236
    3a09:	2b61b2        	s32i	a11, a1, 172
    3a0c:	5461c2        	s32i	a12, a1, 0x150
    3a0f:	2e61e2        	s32i	a14, a1, 184
    3a12:	2761f2        	s32i	a15, a1, 156
    3a15:	38c172        	addi	a7, a1, 56
    3a18:	0a0c           	movi.n	a10, 0
    3a1a:	0b0c           	movi.n	a11, 0
    3a1c:	0c0c           	movi.n	a12, 0
    3a1e:	0e0c           	movi.n	a14, 0
    3a20:	0f0c           	movi.n	a15, 0
    3a22:	c91c           	movi.n	a9, 28
    3a24:	676172        	s32i	a7, a1, 0x19c
    3a27:	3f6132        	s32i	a3, a1, 252
    3a2a:	620c           	movi.n	a2, 6
    3a2c:	28d972        	addmi	a7, a9, 0x2800
    3a2f:	2961a2        	s32i	a10, a1, 164
    3a32:	2061b2        	s32i	a11, a1, 128
    3a35:	2161c2        	s32i	a12, a1, 132
    3a38:	2261e2        	s32i	a14, a1, 136
    3a3b:	2361f2        	s32i	a15, a1, 140
    3a3e:	3661d2        	s32i	a13, a1, 216
    3a41:	696182        	s32i	a8, a1, 0x1a4
    3a44:	00e546        	j	3ddd <Voice_WB_TX_Common_Prcs+0x951>

00003a47 <Voice_WB_TX_Common_Prcs+0x5bb>:
    3a47:	02d892        	addmi	a9, a8, 0x200
    3a4a:	6519b2        	l16ui	a11, a9, 202
    3a4d:	050c           	movi.n	a5, 0
    3a4f:	1bac           	beqz.n	a11, 3a74 <Voice_WB_TX_Common_Prcs+0x5e8>
    3a51:	ac28b2        	l32i	a11, a8, 0x2b0
    3a54:	ad2822        	l32i	a2, a8, 0x2b4
    3a57:	140c           	movi.n	a4, 1
    3a59:	17aab7        	bge	a10, a11, 3a74 <Voice_WB_TX_Common_Prcs+0x5e8>
    3a5c:	02d8a2        	addmi	a10, a8, 0x200
    3a5f:	649a82        	l16si	a8, a10, 200
    3a62:	022287        	blt	a2, a8, 3a68 <Voice_WB_TX_Common_Prcs+0x5dc>
    3a65:	00d9c6        	j	3dd0 <Voice_WB_TX_Common_Prcs+0x944>
    3a68:	655952        	s16i	a5, a9, 202
    3a6b:	000146        	j	3a74 <Voice_WB_TX_Common_Prcs+0x5e8>

00003a6e <Voice_WB_TX_Common_Prcs+0x5e2>:
    3a6e:	3c2122        	l32i	a2, a1, 240
    3a71:	281232        	l16ui	a3, a2, 80
    3a74:	552122        	l32i	a2, a1, 0x154
    3a77:	833d           	ae_sext16	a3, a3
    3a79:	262152        	l32i	a5, a1, 152
    3a7c:	229282        	l16si	a8, a2, 68
    3a7f:	3b21f2        	l32i	a15, a1, 236
    3a82:	2b2142        	l32i	a4, a1, 172
    3a85:	42a387        	bge	a3, a8, 3acb <Voice_WB_TX_Common_Prcs+0x63f>
    3a88:	0638           	l32i.n	a3, a6, 0
    3a8a:	1b2172        	l32i	a7, a1, 108
    3a8d:	5021b2        	l32i	a11, a1, 0x140
    3a90:	2cd332        	addmi	a3, a3, 0x2c00
    3a93:	252362        	l32i	a6, a3, 148
    3a96:	40c132        	addi	a3, a1, 64
    3a99:	f21f21        	l32r	a2, 318 (75d8 <cali_power>)
    3a9c:	07ad           	mov.n	a10, a7
    3a9e:	03cd           	mov.n	a12, a3
    3aa0:	0002e0        	callx8	a2
    3aa3:	0cd662        	addmi	a6, a6, 0xc00
    3aa6:	1796c2        	l16si	a12, a6, 46
    3aa9:	f21c21        	l32r	a2, 31c (740c <cali_module_short>)
    3aac:	07ad           	mov.n	a10, a7
    3aae:	03bd           	mov.n	a11, a3
    3ab0:	0002e0        	callx8	a2
    3ab3:	2b2142        	l32i	a4, a1, 172
    3ab6:	262122        	l32i	a2, a1, 152
    3ab9:	3b21f2        	l32i	a15, a1, 236
    3abc:	1b14a2        	l16ui	a10, a4, 54
    3abf:	1c1492        	l16ui	a9, a4, 56
    3ac2:	191282        	l16ui	a8, a2, 50
    3ac5:	1d1f32        	l16ui	a3, a15, 58
    3ac8:	000646        	j	3ae5 <Voice_WB_TX_Common_Prcs+0x659>

00003acb <Voice_WB_TX_Common_Prcs+0x63f>:
    3acb:	d87c           	movi.n	a8, -3
    3acd:	1b2172        	l32i	a7, a1, 108
    3ad0:	030c           	movi.n	a3, 0
    3ad2:	f48080        	extui	a8, a8, 0, 16
    3ad5:	195582        	s16i	a8, a5, 50
    3ad8:	090c           	movi.n	a9, 0
    3ada:	0a0c           	movi.n	a10, 0
    3adc:	1d5f32        	s16i	a3, a15, 58
    3adf:	1b5432        	s16i	a3, a4, 54
    3ae2:	1c5432        	s16i	a3, a4, 56
    3ae5:	542122        	l32i	a2, a1, 0x150
    3ae8:	0b2c           	movi.n	a11, 32
    3aea:	88dd           	ae_sext16	a13, a8
    3aec:	426d           	ae_l16ui.n	a6, a2, 0
    3aee:	838d           	ae_sext16	a8, a3
    3af0:	8aad           	ae_sext16	a10, a10
    3af2:	6366b0        	minu	a6, a6, a11
    3af5:	c0cb60        	sub	a12, a11, a6
    3af8:	899d           	ae_sext16	a9, a9
    3afa:	5c6182        	s32i	a8, a1, 0x170
    3afd:	828c90        	mull	a8, a12, a9
    3b00:	2821e2        	l32i	a14, a1, 160
    3b03:	8266a0        	mull	a6, a6, a10
    3b06:	222152        	l32i	a5, a1, 136
    3b09:	f86a           	add.n	a15, a8, a6
    3b0b:	10cf62        	addi	a6, a15, 16
    3b0e:	2c2ec2        	l32i	a12, a14, 176
    3b11:	2c21b2        	l32i	a11, a1, 176
    3b14:	f20331        	l32r	a3, 320 (7a18 <beam1_proc>)
    3b17:	55aa           	add.n	a5, a5, a10
    3b19:	5d61f2        	s32i	a15, a1, 0x174
    3b1c:	416560        	srli	a6, a6, 5
    3b1f:	0e0c           	movi.n	a14, 0
    3b21:	1f0c           	movi.n	a15, 1
    3b23:	07ad           	mov.n	a10, a7
    3b25:	226152        	s32i	a5, a1, 136
    3b28:	1c5462        	s16i	a6, a4, 56
    3b2b:	5e61d2        	s32i	a13, a1, 0x178
    3b2e:	0003e0        	callx8	a3
    3b31:	2e2122        	l32i	a2, a1, 184
    3b34:	1b94d2        	l16si	a13, a4, 54
    3b37:	4121b2        	l32i	a11, a1, 0x104
    3b3a:	1622c2        	l32i	a12, a2, 88
    3b3d:	0e0c           	movi.n	a14, 0
    3b3f:	0f0c           	movi.n	a15, 0
    3b41:	07ad           	mov.n	a10, a7
    3b43:	0003e0        	callx8	a3
    3b46:	272162        	l32i	a6, a1, 156
    3b49:	402152        	l32i	a5, a1, 0x100
    3b4c:	1c94d2        	l16si	a13, a4, 56
    3b4f:	3e26c2        	l32i	a12, a6, 248
    3b52:	0e0c           	movi.n	a14, 0
    3b54:	0f0c           	movi.n	a15, 0
    3b56:	07ad           	mov.n	a10, a7
    3b58:	05bd           	mov.n	a11, a5
    3b5a:	0003e0        	callx8	a3
    3b5d:	3e26c2        	l32i	a12, a6, 248
    3b60:	1c94d2        	l16si	a13, a4, 56
    3b63:	ae0c           	movi.n	a14, 10
    3b65:	0f0c           	movi.n	a15, 0
    3b67:	07ad           	mov.n	a10, a7
    3b69:	05bd           	mov.n	a11, a5
    3b6b:	0003e0        	callx8	a3
    3b6e:	3f21e2        	l32i	a14, a1, 252
    3b71:	152262        	l32i	a6, a2, 84
    3b74:	5f0c           	movi.n	a15, 5
    3b76:	1c1e82        	l16ui	a8, a14, 56
    3b79:	300884        	ae_cvtp24a16x2.ll	aep0, a8, a8
    3b7c:	fcc682        	addi	a8, a6, -4
    3b7f:	449814        	ae_lp16x2f.iu	aep1, a8, 4
    3b82:	178f76        	loop	a15, 3b9d <Voice_WB_TX_Common_Prcs+0x711>
    3b85:	011054        	ae_mulfp24s.hl	aeq0, aep1, aep0
    3b88:	ea05ed981f 	{ ae_lp16x2f.iu	aep1, a8, 4; ae_mulfp24s.ll	aeq1, aep1, aep0 }
    3b8d:	350094        	ae_slliq56	aeq0, aeq0, 2
    3b90:	f963ba906f 	{ ae_slliq56	aeq1, aeq1, 2; ae_roundsp16q48asym	aep2, aeq0 }
    3b95:	f96bf228ef 	{ ae_sp16f.l.i	aep2, a8, -4; ae_roundsp16q48asym	aep3, aeq1 }
    3b9a:	4238f4        	ae_sp16f.l.i	aep3, a8, -2

00003b9d <Voice_WB_TX_Common_Prcs+0x711>:
    3b9d:	2721d2        	l32i	a13, a1, 156
    3ba0:	3f21e2        	l32i	a14, a1, 252
    3ba3:	212152        	l32i	a5, a1, 132
    3ba6:	3d2d32        	l32i	a3, a13, 244
    3ba9:	5c2122        	l32i	a2, a1, 0x170
    3bac:	f1de41        	l32r	a4, 324 (7b90 <beam2_proc>)
    3baf:	fcc332        	addi	a3, a3, -4
    3bb2:	552a           	add.n	a5, a5, a2
    3bb4:	1d1e62        	l16ui	a6, a14, 58
    3bb7:	af0c           	movi.n	a15, 10
    3bb9:	216152        	s32i	a5, a1, 132
    3bbc:	300664        	ae_cvtp24a16x2.ll	aep0, a6, a6
    3bbf:	449314        	ae_lp16x2f.iu	aep1, a3, 4
    3bc2:	178f76        	loop	a15, 3bdd <Voice_WB_TX_Common_Prcs+0x751>
    3bc5:	011054        	ae_mulfp24s.hl	aeq0, aep1, aep0
    3bc8:	ea05ed931f 	{ ae_lp16x2f.iu	aep1, a3, 4; ae_mulfp24s.ll	aeq1, aep1, aep0 }
    3bcd:	350094        	ae_slliq56	aeq0, aeq0, 2
    3bd0:	f963ba906f 	{ ae_slliq56	aeq1, aeq1, 2; ae_roundsp16q48asym	aep2, aeq0 }
    3bd5:	f96bf223ef 	{ ae_sp16f.l.i	aep2, a3, -4; ae_roundsp16q48asym	aep3, aeq1 }
    3bda:	4233f4        	ae_sp16f.l.i	aep3, a3, -2
    3bdd:	f13b51        	l32r	a5, cc (f59c <p_ecnr_mem>)
    3be0:	282122        	l32i	a2, a1, 160
    3be3:	2621d2        	l32i	a13, a1, 152
    3be6:	0538           	l32i.n	a3, a5, 0
    3be8:	2cd362        	addmi	a6, a3, 0x2c00
    3beb:	252662        	l32i	a6, a6, 148
    3bee:	2cd332        	addmi	a3, a3, 0x2c00
    3bf1:	0e91f2        	l16si	a15, a1, 28
    3bf4:	0cd662        	addmi	a6, a6, 0xc00
    3bf7:	131662        	l16ui	a6, a6, 38
    3bfa:	1e0c           	movi.n	a14, 1
    3bfc:	2c21b2        	l32i	a11, a1, 176
    3bff:	551666        	bnei	a6, 1, 3c58 <Voice_WB_TX_Common_Prcs+0x7cc>
    3c02:	2f22a2        	l32i	a10, a2, 188
    3c05:	2c22b2        	l32i	a11, a2, 176
    3c08:	f15431        	l32r	a3, 158 (d6fc <xt_memcpy>)
    3c0b:	ac0c           	movi.n	a12, 10
    3c0d:	0003e0        	callx8	a3
    3c10:	0538           	l32i.n	a3, a5, 0
    3c12:	2621d2        	l32i	a13, a1, 152
    3c15:	1e0c           	movi.n	a14, 1
    3c17:	2cd332        	addmi	a3, a3, 0x2c00
    3c1a:	060c           	movi.n	a6, 0
    3c1c:	2c22c2        	l32i	a12, a2, 176
    3c1f:	2c2122        	l32i	a2, a1, 176
    3c22:	199dd2        	l16si	a13, a13, 50
    3c25:	249332        	l16si	a3, a3, 72
    3c28:	21e9           	s32i.n	a14, a1, 8
    3c2a:	1169           	s32i.n	a6, a1, 4
    3c2c:	1b2162        	l32i	a6, a1, 108
    3c2f:	0e91f2        	l16si	a15, a1, 28
    3c32:	8e1c           	movi.n	a14, 24
    3c34:	06ad           	mov.n	a10, a6
    3c36:	02bd           	mov.n	a11, a2
    3c38:	0139           	s32i.n	a3, a1, 0
    3c3a:	0004e0        	callx8	a4
    3c3d:	0538           	l32i.n	a3, a5, 0
    3c3f:	02ad           	mov.n	a10, a2
    3c41:	f1b921        	l32r	a2, 328 (6ba0 <main_err_alpha>)
    3c44:	2cd332        	addmi	a3, a3, 0x2c00
    3c47:	252332        	l32i	a3, a3, 148
    3c4a:	050c           	movi.n	a5, 0
    3c4c:	0cd332        	addmi	a3, a3, 0xc00
    3c4f:	1293b2        	l16si	a11, a3, 36
    3c52:	0002e0        	callx8	a2
    3c55:	000686        	j	3c73 <Voice_WB_TX_Common_Prcs+0x7e7>

00003c58 <Voice_WB_TX_Common_Prcs+0x7cc>:
    3c58:	1b2162        	l32i	a6, a1, 108
    3c5b:	2c22c2        	l32i	a12, a2, 176
    3c5e:	199dd2        	l16si	a13, a13, 50
    3c61:	249332        	l16si	a3, a3, 72
    3c64:	21e9           	s32i.n	a14, a1, 8
    3c66:	050c           	movi.n	a5, 0
    3c68:	8e1c           	movi.n	a14, 24
    3c6a:	06ad           	mov.n	a10, a6
    3c6c:	1159           	s32i.n	a5, a1, 4
    3c6e:	0139           	s32i.n	a3, a1, 0
    3c70:	0004e0        	callx8	a4
    3c73:	202132        	l32i	a3, a1, 128
    3c76:	5e2122        	l32i	a2, a1, 0x178
    3c79:	2321f2        	l32i	a15, a1, 140
    3c7c:	5d2172        	l32i	a7, a1, 0x174
    3c7f:	332a           	add.n	a3, a3, a2
    3c81:	2e21e2        	l32i	a14, a1, 184
    3c84:	2b2122        	l32i	a2, a1, 172
    3c87:	206132        	s32i	a3, a1, 128
    3c8a:	37fa           	add.n	a3, a7, a15
    3c8c:	370c           	movi.n	a7, 3
    3c8e:	ffa082        	movi	a8, 255
    3c91:	162ec2        	l32i	a12, a14, 88
    3c94:	1b92d2        	l16si	a13, a2, 54
    3c97:	2179           	s32i.n	a7, a1, 8
    3c99:	7fd872        	addmi	a7, a8, 0x7f00
    3c9c:	4121b2        	l32i	a11, a1, 0x104
    3c9f:	8e1c           	movi.n	a14, 24
    3ca1:	06ad           	mov.n	a10, a6
    3ca3:	07fd           	mov.n	a15, a7
    3ca5:	091c           	movi.n	a9, 16
    3ca7:	1159           	s32i.n	a5, a1, 4
    3ca9:	236132        	s32i	a3, a1, 140
    3cac:	0199           	s32i.n	a9, a1, 0
    3cae:	0004e0        	callx8	a4
    3cb1:	043d           	mov.n	a3, a4
    3cb3:	272142        	l32i	a4, a1, 156
    3cb6:	480c           	movi.n	a8, 4
    3cb8:	1c92d2        	l16si	a13, a2, 56
    3cbb:	3e24c2        	l32i	a12, a4, 248
    3cbe:	2189           	s32i.n	a8, a1, 8
    3cc0:	1159           	s32i.n	a5, a1, 4
    3cc2:	402152        	l32i	a5, a1, 0x100
    3cc5:	091c           	movi.n	a9, 16
    3cc7:	9e1c           	movi.n	a14, 25
    3cc9:	06ad           	mov.n	a10, a6
    3ccb:	05bd           	mov.n	a11, a5
    3ccd:	07fd           	mov.n	a15, a7
    3ccf:	0199           	s32i.n	a9, a1, 0
    3cd1:	0003e0        	callx8	a3
    3cd4:	3e24c2        	l32i	a12, a4, 248
    3cd7:	1c92d2        	l16si	a13, a2, 56
    3cda:	440c           	movi.n	a4, 4
    3cdc:	a80c           	movi.n	a8, 10
    3cde:	9e1c           	movi.n	a14, 25
    3ce0:	06ad           	mov.n	a10, a6
    3ce2:	05bd           	mov.n	a11, a5
    3ce4:	07fd           	mov.n	a15, a7
    3ce6:	091c           	movi.n	a9, 16
    3ce8:	2149           	s32i.n	a4, a1, 8
    3cea:	1189           	s32i.n	a8, a1, 4
    3cec:	0199           	s32i.n	a9, a1, 0
    3cee:	0003e0        	callx8	a3
    3cf1:	f18e21        	l32r	a2, 32c (7e90 <beam1_mid_band>)
    3cf4:	06ad           	mov.n	a10, a6
    3cf6:	0002e0        	callx8	a2
    3cf9:	3e2122        	l32i	a2, a1, 248
    3cfc:	5321e2        	l32i	a14, a1, 0x14c
    3cff:	0aa0f2        	movi	a15, 10
    3d02:	252232        	l32i	a3, a2, 148
    3d05:	1b1e62        	l16ui	a6, a14, 54
    3d08:	300664        	ae_cvtp24a16x2.ll	aep0, a6, a6
    3d0b:	fcc332        	addi	a3, a3, -4
    3d0e:	449314        	ae_lp16x2f.iu	aep1, a3, 4
    3d11:	178f76        	loop	a15, 3d2c <Voice_WB_TX_Common_Prcs+0x8a0>
    3d14:	011054        	ae_mulfp24s.hl	aeq0, aep1, aep0
    3d17:	ea05ed931f 	{ ae_lp16x2f.iu	aep1, a3, 4; ae_mulfp24s.ll	aeq1, aep1, aep0 }
    3d1c:	350094        	ae_slliq56	aeq0, aeq0, 2
    3d1f:	f963ba906f 	{ ae_slliq56	aeq1, aeq1, 2; ae_roundsp16q48asym	aep2, aeq0 }
    3d24:	f96bf223ef 	{ ae_sp16f.l.i	aep2, a3, -4; ae_roundsp16q48asym	aep3, aeq1 }
    3d29:	4233f4        	ae_sp16f.l.i	aep3, a3, -2

00003d2c <Voice_WB_TX_Common_Prcs+0x8a0>:
    3d2c:	1b21a2        	l32i	a10, a1, 108
    3d2f:	f18021        	l32r	a2, 330 (7fe0 <beam2_mid_band>)
    3d32:	0002e0        	callx8	a2
    3d35:	f0e551        	l32r	a5, cc (f59c <p_ecnr_mem>)
    3d38:	282122        	l32i	a2, a1, 160
    3d3b:	2e2142        	l32i	a4, a1, 184
    3d3e:	0538           	l32i.n	a3, a5, 0
    3d40:	3e2172        	l32i	a7, a1, 248
    3d43:	8f2c           	movi.n	a15, 40
    3d45:	2cd362        	addmi	a6, a3, 0x2c00
    3d48:	1c26e2        	l32i	a14, a6, 112
    3d4b:	6fdf62        	addmi	a6, a15, 0x6f00
    3d4e:	d36a           	add.n	a13, a3, a6
    3d50:	2c22a2        	l32i	a10, a2, 176
    3d53:	1424b2        	l32i	a11, a4, 80
    3d56:	2427c2        	l32i	a12, a7, 144
    3d59:	f16b31        	l32r	a3, 308 (6b18 <synth_3band>)
    3d5c:	0003e0        	callx8	a3
    3d5f:	05d8           	l32i.n	a13, a5, 0
    3d61:	a4a0f2        	movi	a15, 164
    3d64:	2e22a2        	l32i	a10, a2, 184
    3d67:	2cdd62        	addmi	a6, a13, 0x2c00
    3d6a:	6fdf22        	addmi	a2, a15, 0x6f00
    3d6d:	1624b2        	l32i	a11, a4, 88
    3d70:	2627c2        	l32i	a12, a7, 152
    3d73:	1b26e2        	l32i	a14, a6, 108
    3d76:	dd2a           	add.n	a13, a13, a2
    3d78:	0003e0        	callx8	a3
    3d7b:	0538           	l32i.n	a3, a5, 0
    3d7d:	272122        	l32i	a2, a1, 156
    3d80:	f8a0f2        	movi	a15, 248
    3d83:	2cd362        	addmi	a6, a3, 0x2c00
    3d86:	1c26a2        	l32i	a10, a6, 112
    3d89:	56df62        	addmi	a6, a15, 0x5600
    3d8c:	3c22b2        	l32i	a11, a2, 240
    3d8f:	1a21c2        	l32i	a12, a1, 104
    3d92:	2f21e2        	l32i	a14, a1, 188
    3d95:	f15d41        	l32r	a4, 30c (6d88 <tx_upsample_by2_N>)
    3d98:	d36a           	add.n	a13, a3, a6
    3d9a:	8f2c           	movi.n	a15, 40
    3d9c:	0004e0        	callx8	a4
    3d9f:	0538           	l32i.n	a3, a5, 0
    3da1:	8f1c           	movi.n	a15, 24
    3da3:	57df52        	addmi	a5, a15, 0x5700
    3da6:	2cd362        	addmi	a6, a3, 0x2c00
    3da9:	3e22b2        	l32i	a11, a2, 248
    3dac:	1b26a2        	l32i	a10, a6, 108
    3daf:	3521c2        	l32i	a12, a1, 212
    3db2:	5221e2        	l32i	a14, a1, 0x148
    3db5:	d35a           	add.n	a13, a3, a5
    3db7:	8f2c           	movi.n	a15, 40
    3db9:	0004e0        	callx8	a4
    3dbc:	1721d2        	l32i	a13, a1, 92
    3dbf:	1c2152        	l32i	a5, a1, 112
    3dc2:	1d2142        	l32i	a4, a1, 116
    3dc5:	c71c           	movi.n	a7, 28
    3dc7:	28d772        	addmi	a7, a7, 0x2800
    3dca:	53fd56        	bnez	a13, 430d <Voice_WB_TX_Common_Prcs+0xe81>
    3dcd:	018506        	j	43e5 <Voice_WB_TX_Common_Prcs+0xf59>

00003dd0 <Voice_WB_TX_Common_Prcs+0x944>:
    3dd0:	988d           	ae_zext16	a8, a8
    3dd2:	881b           	addi.n	a8, a8, 1
    3dd4:	655942        	s16i	a4, a9, 202
    3dd7:	645a82        	s16i	a8, a10, 200
    3dda:	ff2586        	j	3a74 <Voice_WB_TX_Common_Prcs+0x5e8>

00003ddd <Voice_WB_TX_Common_Prcs+0x951>:
    3ddd:	0638           	l32i.n	a3, a6, 0
    3ddf:	4f5c           	movi.n	a15, 84
    3de1:	6b6122        	s32i	a2, a1, 0x1ac
    3de4:	28df22        	addmi	a2, a15, 0x2800
    3de7:	c32a           	add.n	a12, a3, a2
    3de9:	f13d21        	l32r	a2, 2e0 (3138 <emph_filter_N>)
    3dec:	b37a           	add.n	a11, a3, a7
    3dee:	8d2c           	movi.n	a13, 40
    3df0:	04ad           	mov.n	a10, a4
    3df2:	0002e0        	callx8	a2
    3df5:	0638           	l32i.n	a3, a6, 0
    3df7:	0ba5f2        	movi	a15, 0x50b
    3dfa:	8d2c           	movi.n	a13, 40
    3dfc:	b37a           	add.n	a11, a3, a7
    3dfe:	047d           	mov.n	a7, a4
    3e00:	114fd0        	slli	a4, a15, 3
    3e03:	c34a           	add.n	a12, a3, a4
    3e05:	05ad           	mov.n	a10, a5
    3e07:	0002e0        	callx8	a2
    3e0a:	0638           	l32i.n	a3, a6, 0
    3e0c:	98a0f2        	movi	a15, 152
    3e0f:	054d           	mov.n	a4, a5
    3e11:	2cd382        	addmi	a8, a3, 0x2c00
    3e14:	56df52        	addmi	a5, a15, 0x5600
    3e17:	1528a2        	l32i	a10, a8, 84
    3e1a:	1628b2        	l32i	a11, a8, 88
    3e1d:	f13121        	l32r	a2, 2e4 (6ccc <tx_downsample_by2_N>)
    3e20:	d35a           	add.n	a13, a3, a5
    3e22:	20c1e2        	addi	a14, a1, 32
    3e25:	4f1c           	movi.n	a15, 20
    3e27:	07cd           	mov.n	a12, a7
    3e29:	1d6172        	s32i	a7, a1, 116
    3e2c:	0002e0        	callx8	a2
    3e2f:	0638           	l32i.n	a3, a6, 0
    3e31:	b8a052        	movi	a5, 184
    3e34:	56d552        	addmi	a5, a5, 0x5600
    3e37:	2cd382        	addmi	a8, a3, 0x2c00
    3e3a:	1928a2        	l32i	a10, a8, 100
    3e3d:	1a28b2        	l32i	a11, a8, 104
    3e40:	6a21e2        	l32i	a14, a1, 0x1a8
    3e43:	d35a           	add.n	a13, a3, a5
    3e45:	4f1c           	movi.n	a15, 20
    3e47:	04cd           	mov.n	a12, a4
    3e49:	1c6142        	s32i	a4, a1, 112
    3e4c:	0002e0        	callx8	a2
    3e4f:	0638           	l32i.n	a3, a6, 0
    3e51:	4a2152        	l32i	a5, a1, 0x128
    3e54:	4b2142        	l32i	a4, a1, 0x12c
    3e57:	822c           	movi.n	a2, 40
    3e59:	2cd392        	addmi	a9, a3, 0x2c00
    3e5c:	6ed222        	addmi	a2, a2, 0x6e00
    3e5f:	2b25d2        	l32i	a13, a5, 172
    3e62:	1724e2        	l32i	a14, a4, 92
    3e65:	1529a2        	l32i	a10, a9, 84
    3e68:	1429c2        	l32i	a12, a9, 80
    3e6b:	f11f71        	l32r	a7, 2e8 (675c <analy_3band>)
    3e6e:	b32a           	add.n	a11, a3, a2
    3e70:	0007e0        	callx8	a7
    3e73:	0638           	l32i.n	a3, a6, 0
    3e75:	312122        	l32i	a2, a1, 196
    3e78:	78a092        	movi	a9, 120
    3e7b:	2cd382        	addmi	a8, a3, 0x2c00
    3e7e:	fda4f2        	movi	a15, 0x4fd
    3e81:	57d992        	addmi	a9, a9, 0x5700
    3e84:	1428a2        	l32i	a10, a8, 80
    3e87:	118fd0        	slli	a8, a15, 3
    3e8a:	32d8           	l32i.n	a13, a2, 12
    3e8c:	b39a           	add.n	a11, a3, a9
    3e8e:	c38a           	add.n	a12, a3, a8
    3e90:	f10231        	l32r	a3, 298 (321c <biquad_2cascade_24bitTx>)
    3e93:	ae0c           	movi.n	a14, 10
    3e95:	0003e0        	callx8	a3
    3e98:	0638           	l32i.n	a3, a6, 0
    3e9a:	68a0f2        	movi	a15, 104
    3e9d:	1824e2        	l32i	a14, a4, 96
    3ea0:	2cd392        	addmi	a9, a3, 0x2c00
    3ea3:	024d           	mov.n	a4, a2
    3ea5:	6edf22        	addmi	a2, a15, 0x6e00
    3ea8:	2c25d2        	l32i	a13, a5, 176
    3eab:	1929a2        	l32i	a10, a9, 100
    3eae:	1429c2        	l32i	a12, a9, 80
    3eb1:	b32a           	add.n	a11, a3, a2
    3eb3:	0007e0        	callx8	a7
    3eb6:	0638           	l32i.n	a3, a6, 0
    3eb8:	4488           	l32i.n	a8, a4, 16
    3eba:	05a022        	movi	a2, 5
    3ebd:	2cd332        	addmi	a3, a3, 0x2c00
    3ec0:	142392        	l32i	a9, a3, 80
    3ec3:	fcc832        	addi	a3, a8, -4
    3ec6:	f8c982        	addi	a8, a9, -8
    3ec9:	088276        	loop	a2, 3ed5 <Voice_WB_TX_Common_Prcs+0xa49>
    3ecc:	5c8814        	ae_lp24x2f.iu	aep0, a8, 8
    3ecf:	090184        	ae_roundsp16asym	aep0, aep0
    3ed2:	468314        	ae_sp16x2f.iu	aep0, a3, 4

00003ed5 <Voice_WB_TX_Common_Prcs+0xa49>:
    3ed5:	192132        	l32i	a3, a1, 100
    3ed8:	252172        	l32i	a7, a1, 148
    3edb:	4621b2        	l32i	a11, a1, 0x118
    3ede:	f10321        	l32r	a2, 2ec (2498 <subband_aec_block>)
    3ee1:	ac0c           	movi.n	a12, 10
    3ee3:	1e0c           	movi.n	a14, 1
    3ee5:	03ad           	mov.n	a10, a3
    3ee7:	07dd           	mov.n	a13, a7
    3ee9:	0002e0        	callx8	a2
    3eec:	4821b2        	l32i	a11, a1, 0x120
    3eef:	ac0c           	movi.n	a12, 10
    3ef1:	3e0c           	movi.n	a14, 3
    3ef3:	03ad           	mov.n	a10, a3
    3ef5:	07dd           	mov.n	a13, a7
    3ef7:	0002e0        	callx8	a2
    3efa:	4921b2        	l32i	a11, a1, 0x124
    3efd:	4c1c           	movi.n	a12, 20
    3eff:	4e0c           	movi.n	a14, 4
    3f01:	03ad           	mov.n	a10, a3
    3f03:	07dd           	mov.n	a13, a7
    3f05:	0002e0        	callx8	a2
    3f08:	4721b2        	l32i	a11, a1, 0x11c
    3f0b:	f0f921        	l32r	a2, 2f0 (2a90 <subband_aec_mid_channel>)
    3f0e:	2d0c           	movi.n	a13, 2
    3f10:	03ad           	mov.n	a10, a3
    3f12:	07cd           	mov.n	a12, a7
    3f14:	0002e0        	callx8	a2
    3f17:	172122        	l32i	a2, a1, 92
    3f1a:	0638           	l32i.n	a3, a6, 0
    3f1c:	c71c           	movi.n	a7, 28
    3f1e:	13b216        	beqz	a2, 405d <Voice_WB_TX_Common_Prcs+0xbd1>
    3f21:	28d722        	addmi	a2, a7, 0x2800
    3f24:	362152        	l32i	a5, a1, 216
    3f27:	43a1f2        	movi	a15, 0x143
    3f2a:	b32a           	add.n	a11, a3, a2
    3f2c:	112fb0        	slli	a2, a15, 5
    3f2f:	c32a           	add.n	a12, a3, a2
    3f31:	f0eb21        	l32r	a2, 2e0 (3138 <emph_filter_N>)
    3f34:	8d2c           	movi.n	a13, 40
    3f36:	05ad           	mov.n	a10, a5
    3f38:	0002e0        	callx8	a2
    3f3b:	0638           	l32i.n	a3, a6, 0
    3f3d:	823c           	movi.n	a2, 56
    3f3f:	57d222        	addmi	a2, a2, 0x5700
    3f42:	2cd382        	addmi	a8, a3, 0x2c00
    3f45:	d32a           	add.n	a13, a3, a2
    3f47:	2128a2        	l32i	a10, a8, 132
    3f4a:	2228b2        	l32i	a11, a8, 136
    3f4d:	6621e2        	l32i	a14, a1, 0x198
    3f50:	f0e521        	l32r	a2, 2e4 (6ccc <tx_downsample_by2_N>)
    3f53:	4f1c           	movi.n	a15, 20
    3f55:	05cd           	mov.n	a12, a5
    3f57:	0002e0        	callx8	a2
    3f5a:	0638           	l32i.n	a3, a6, 0
    3f5c:	342122        	l32i	a2, a1, 208
    3f5f:	3321e2        	l32i	a14, a1, 204
    3f62:	e8a0f2        	movi	a15, 232
    3f65:	f2d8           	l32i.n	a13, a2, 60
    3f67:	2cd392        	addmi	a9, a3, 0x2c00
    3f6a:	6edf22        	addmi	a2, a15, 0x6e00
    3f6d:	b32a           	add.n	a11, a3, a2
    3f6f:	3b2ee2        	l32i	a14, a14, 236
    3f72:	2129a2        	l32i	a10, a9, 132
    3f75:	1429c2        	l32i	a12, a9, 80
    3f78:	f0dc21        	l32r	a2, 2e8 (675c <analy_3band>)
    3f7b:	0002e0        	callx8	a2
    3f7e:	002632        	l32i	a3, a6, 0
    3f81:	2a2122        	l32i	a2, a1, 168
    3f84:	252172        	l32i	a7, a1, 148
    3f87:	2cd332        	addmi	a3, a3, 0x2c00
    3f8a:	272282        	l32i	a8, a2, 156
    3f8d:	142392        	l32i	a9, a3, 80
    3f90:	05a0f2        	movi	a15, 5
    3f93:	fcc832        	addi	a3, a8, -4
    3f96:	f8c982        	addi	a8, a9, -8
    3f99:	088f76        	loop	a15, 3fa5 <Voice_WB_TX_Common_Prcs+0xb19>
    3f9c:	5c8814        	ae_lp24x2f.iu	aep0, a8, 8
    3f9f:	090184        	ae_roundsp16asym	aep0, aep0
    3fa2:	468314        	ae_sp16x2f.iu	aep0, a3, 4
    3fa5:	192152        	l32i	a5, a1, 100
    3fa8:	4221b2        	l32i	a11, a1, 0x108
    3fab:	f0d021        	l32r	a2, 2ec (2498 <subband_aec_block>)
    3fae:	ac0c           	movi.n	a12, 10
    3fb0:	1e0c           	movi.n	a14, 1
    3fb2:	05ad           	mov.n	a10, a5
    3fb4:	07dd           	mov.n	a13, a7
    3fb6:	0002e0        	callx8	a2
    3fb9:	4421b2        	l32i	a11, a1, 0x110
    3fbc:	ac0c           	movi.n	a12, 10
    3fbe:	3e0c           	movi.n	a14, 3
    3fc0:	05ad           	mov.n	a10, a5
    3fc2:	07dd           	mov.n	a13, a7
    3fc4:	0002e0        	callx8	a2
    3fc7:	0638           	l32i.n	a3, a6, 0
    3fc9:	f0caf1        	l32r	a15, 2f4 (103dd <_end+0xe3d>)
    3fcc:	07dd           	mov.n	a13, a7
    3fce:	3d21b2        	l32i	a11, a1, 244
    3fd1:	33fa           	add.n	a3, a3, a15
    3fd3:	000332        	l8ui	a3, a3, 0
    3fd6:	4c1c           	movi.n	a12, 20
    3fd8:	4e0c           	movi.n	a14, 4
    3fda:	638c           	beqz.n	a3, 3fe4 <Voice_WB_TX_Common_Prcs+0xb58>
    3fdc:	05ad           	mov.n	a10, a5
    3fde:	0002e0        	callx8	a2
    3fe1:	0003c6        	j	3ff4 <Voice_WB_TX_Common_Prcs+0xb68>

00003fe4 <Voice_WB_TX_Common_Prcs+0xb58>:
    3fe4:	322122        	l32i	a2, a1, 200
    3fe7:	f06731        	l32r	a3, 184 (d6e8 <xt_memset>)
    3fea:	0b0c           	movi.n	a11, 0
    3fec:	2522a2        	l32i	a10, a2, 148
    3fef:	4c1c           	movi.n	a12, 20
    3ff1:	0003e0        	callx8	a3
    3ff4:	2d2132        	l32i	a3, a1, 180
    3ff7:	f0c071        	l32r	a7, 2f8 (69b0 <gain_after_ec>)
    3ffa:	192152        	l32i	a5, a1, 100
    3ffd:	33ac           	beqz.n	a3, 4024 <Voice_WB_TX_Common_Prcs+0xb98>
    3fff:	0638           	l32i.n	a3, a6, 0
    4001:	f0be21        	l32r	a2, 2fc (1057c <_end+0xfdc>)
    4004:	f0bff1        	l32r	a15, 300 (103e0 <_end+0xe40>)
    4007:	ac0c           	movi.n	a12, 10
    4009:	832a           	add.n	a8, a3, a2
    400b:	08a8           	l32i.n	a10, a8, 0
    400d:	28b8           	l32i.n	a11, a8, 8
    400f:	f05281        	l32r	a8, 158 (d6fc <xt_memcpy>)
    4012:	33fa           	add.n	a3, a3, a15
    4014:	0008e0        	callx8	a8
    4017:	5b21c2        	l32i	a12, a1, 0x16c
    401a:	f0ba21        	l32r	a2, 304 (6800 <nc_lms_block>)
    401d:	05ad           	mov.n	a10, a5
    401f:	03bd           	mov.n	a11, a3
    4021:	0002e0        	callx8	a2
    4024:	4321b2        	l32i	a11, a1, 0x10c
    4027:	2521c2        	l32i	a12, a1, 148
    402a:	f0b121        	l32r	a2, 2f0 (2a90 <subband_aec_mid_channel>)
    402d:	2d0c           	movi.n	a13, 2
    402f:	05ad           	mov.n	a10, a5
    4031:	0002e0        	callx8	a2
    4034:	0638           	l32i.n	a3, a6, 0
    4036:	f0a651        	l32r	a5, 2d0 (c348 <real_split+0x128>)
    4039:	2a2122        	l32i	a2, a1, 168
    403c:	3421d2        	l32i	a13, a1, 208
    403f:	3221e2        	l32i	a14, a1, 200
    4042:	3321f2        	l32i	a15, a1, 204
    4045:	335a           	add.n	a3, a3, a5
    4047:	112db2        	l32i	a11, a13, 68
    404a:	252ec2        	l32i	a12, a14, 148
    404d:	3d2fd2        	l32i	a13, a15, 244
    4050:	2922a2        	l32i	a10, a2, 164
    4053:	23fd           	ae_l16si.n	a15, a3, 0
    4055:	0e0c           	movi.n	a14, 0
    4057:	0007e0        	callx8	a7
    405a:	4a2152        	l32i	a5, a1, 0x128
    405d:	692172        	l32i	a7, a1, 0x1a4
    4060:	54a8           	l32i.n	a10, a4, 20
    4062:	042d           	mov.n	a2, a4
    4064:	4b2142        	l32i	a4, a1, 0x12c
    4067:	2d25b2        	l32i	a11, a5, 180
    406a:	17c8           	l32i.n	a12, a7, 4
    406c:	1924d2        	l32i	a13, a4, 100
    406f:	f0a231        	l32r	a3, 2f8 (69b0 <gain_after_ec>)
    4072:	0e0c           	movi.n	a14, 0
    4074:	0f0c           	movi.n	a15, 0
    4076:	0003e0        	callx8	a3
    4079:	0638           	l32i.n	a3, a6, 0
    407b:	8f2c           	movi.n	a15, 40
    407d:	52a8           	l32i.n	a10, a2, 20
    407f:	2cd382        	addmi	a8, a3, 0x2c00
    4082:	221882        	l16ui	a8, a8, 68
    4085:	2cd3e2        	addmi	a14, a3, 0x2c00
    4088:	6fdf22        	addmi	a2, a15, 0x6f00
    408b:	022826        	beqi	a8, 2, 4091 <Voice_WB_TX_Common_Prcs+0xc05>
    408e:	0071c6        	j	4259 <Voice_WB_TX_Common_Prcs+0xdcd>
    4091:	c4a522        	movi	a2, 0x5c4
    4094:	242152        	l32i	a5, a1, 144
    4097:	c71c           	movi.n	a7, 28
    4099:	f02220        	subx8	a2, a2, a2
    409c:	28d772        	addmi	a7, a7, 0x2800
    409f:	c32a           	add.n	a12, a3, a2
    40a1:	f08f21        	l32r	a2, 2e0 (3138 <emph_filter_N>)
    40a4:	b37a           	add.n	a11, a3, a7
    40a6:	8d2c           	movi.n	a13, 40
    40a8:	05ad           	mov.n	a10, a5
    40aa:	0002e0        	callx8	a2
    40ad:	0638           	l32i.n	a3, a6, 0
    40af:	d8a0f2        	movi	a15, 216
    40b2:	6121e2        	l32i	a14, a1, 0x184
    40b5:	2cd382        	addmi	a8, a3, 0x2c00
    40b8:	1728a2        	l32i	a10, a8, 92
    40bb:	1828b2        	l32i	a11, a8, 96
    40be:	56df82        	addmi	a8, a15, 0x5600
    40c1:	f08821        	l32r	a2, 2e4 (6ccc <tx_downsample_by2_N>)
    40c4:	d38a           	add.n	a13, a3, a8
    40c6:	4f1c           	movi.n	a15, 20
    40c8:	05cd           	mov.n	a12, a5
    40ca:	0002e0        	callx8	a2
    40cd:	0638           	l32i.n	a3, a6, 0
    40cf:	a8a022        	movi	a2, 168
    40d2:	6ed222        	addmi	a2, a2, 0x6e00
    40d5:	67d3e2        	addmi	a14, a3, 0x6700
    40d8:	2cd392        	addmi	a9, a3, 0x2c00
    40db:	66d3b2        	addmi	a11, a3, 0x6600
    40de:	2d2bd2        	l32i	a13, a11, 180
    40e1:	b32a           	add.n	a11, a3, a2
    40e3:	1729a2        	l32i	a10, a9, 92
    40e6:	1429c2        	l32i	a12, a9, 80
    40e9:	292ee2        	l32i	a14, a14, 164
    40ec:	f07f21        	l32r	a2, 2e8 (675c <analy_3band>)
    40ef:	0002e0        	callx8	a2
    40f2:	0638           	l32i.n	a3, a6, 0
    40f4:	79a522        	movi	a2, 0x579
    40f7:	1122c0        	slli	a2, a2, 4
    40fa:	fda4f2        	movi	a15, 0x4fd
    40fd:	2cd382        	addmi	a8, a3, 0x2c00
    4100:	b32a           	add.n	a11, a3, a2
    4102:	66d392        	addmi	a9, a3, 0x6600
    4105:	112fd0        	slli	a2, a15, 3
    4108:	c32a           	add.n	a12, a3, a2
    410a:	1428a2        	l32i	a10, a8, 80
    410d:	1929d2        	l32i	a13, a9, 100
    4110:	f06231        	l32r	a3, 298 (321c <biquad_2cascade_24bitTx>)
    4113:	ae0c           	movi.n	a14, 10
    4115:	0003e0        	callx8	a3
    4118:	192132        	l32i	a3, a1, 100
    411b:	252142        	l32i	a4, a1, 148
    411e:	6521b2        	l32i	a11, a1, 0x194
    4121:	f07221        	l32r	a2, 2ec (2498 <subband_aec_block>)
    4124:	ac0c           	movi.n	a12, 10
    4126:	1e0c           	movi.n	a14, 1
    4128:	03ad           	mov.n	a10, a3
    412a:	04dd           	mov.n	a13, a4
    412c:	0002e0        	callx8	a2
    412f:	6421b2        	l32i	a11, a1, 0x190
    4132:	ac0c           	movi.n	a12, 10
    4134:	3e0c           	movi.n	a14, 3
    4136:	03ad           	mov.n	a10, a3
    4138:	04dd           	mov.n	a13, a4
    413a:	0002e0        	callx8	a2
    413d:	6321b2        	l32i	a11, a1, 0x18c
    4140:	4c1c           	movi.n	a12, 20
    4142:	4e0c           	movi.n	a14, 4
    4144:	03ad           	mov.n	a10, a3
    4146:	04dd           	mov.n	a13, a4
    4148:	0002e0        	callx8	a2
    414b:	6221b2        	l32i	a11, a1, 0x188
    414e:	f06821        	l32r	a2, 2f0 (2a90 <subband_aec_mid_channel>)
    4151:	2d0c           	movi.n	a13, 2
    4153:	03ad           	mov.n	a10, a3
    4155:	04cd           	mov.n	a12, a4
    4157:	0002e0        	callx8	a2
    415a:	602122        	l32i	a2, a1, 0x180
    415d:	5f2142        	l32i	a4, a1, 0x17c
    4160:	452132        	l32i	a3, a1, 0x114
    4163:	282152        	l32i	a5, a1, 160
    4166:	1b22a2        	l32i	a10, a2, 108
    4169:	33c8           	l32i.n	a12, a3, 12
    416b:	2f24b2        	l32i	a11, a4, 188
    416e:	2b25d2        	l32i	a13, a5, 172
    4171:	f06131        	l32r	a3, 2f8 (69b0 <gain_after_ec>)
    4174:	1e0c           	movi.n	a14, 1
    4176:	0f0c           	movi.n	a15, 0
    4178:	0003e0        	callx8	a3
    417b:	0638           	l32i.n	a3, a6, 0
    417d:	8f2c           	movi.n	a15, 40
    417f:	1b22a2        	l32i	a10, a2, 108
    4182:	2cd382        	addmi	a8, a3, 0x2c00
    4185:	4f0882        	l8ui	a8, a8, 79
    4188:	2cd392        	addmi	a9, a3, 0x2c00
    418b:	6fdf22        	addmi	a2, a15, 0x6f00
    418e:	026867        	bbci	a8, 6, 4194 <Voice_WB_TX_Common_Prcs+0xd08>
    4191:	004e06        	j	42cd <Voice_WB_TX_Common_Prcs+0xe41>
    4194:	1b2132        	l32i	a3, a1, 108
    4197:	f05e21        	l32r	a2, 310 (6fd0 <prelim_filter>)
    419a:	40c1b2        	addi	a11, a1, 64
    419d:	1cc1c2        	addi	a12, a1, 28
    41a0:	03ad           	mov.n	a10, a3
    41a2:	0002e0        	callx8	a2
    41a5:	5a21b2        	l32i	a11, a1, 0x168
    41a8:	5821d2        	l32i	a13, a1, 0x160
    41ab:	f05a21        	l32r	a2, 314 (72c8 <prelim_filter3>)
    41ae:	3c0c           	movi.n	a12, 3
    41b0:	03ad           	mov.n	a10, a3
    41b2:	0002e0        	callx8	a2
    41b5:	5921b2        	l32i	a11, a1, 0x164
    41b8:	5721d2        	l32i	a13, a1, 0x15c
    41bb:	4c0c           	movi.n	a12, 4
    41bd:	03ad           	mov.n	a10, a3
    41bf:	0002e0        	callx8	a2
    41c2:	562122        	l32i	a2, a1, 0x158
    41c5:	102182        	l32i	a8, a1, 64
    41c8:	360834        	ae_cvtq48a32s	aeq0, a8
    41cb:	421232        	l16ui	a3, a2, 132
    41ce:	300334        	ae_cvtp24a16x2.ll	aep0, a3, a3
    41d1:	10003121ae 	{ l32i	a10, a1, 72; ae_mulzaafq32sp16s.ll	aeq0, aeq0, aep0, aeq0, aep0 }
    41d6:	1421b2        	l32i	a11, a1, 80
    41d9:	f863feca7f 	{ ae_cvtq48a32s	aeq1, a10; ae_roundsp16q48asym	aep1, aeq0 }
    41de:	1001fecbff 	{ ae_cvtq48a32s	aeq3, a11; ae_mulzaafq32sp16s.ll	aeq1, aeq1, aep0, aeq1, aep0 }
    41e3:	1203b171fe 	{ l32i	a15, a1, 92; ae_mulzaafq32sp16s.ll	aeq0, aeq3, aep0, aeq3, aep0 }
    41e8:	fb6bbf1c5f 	{ ae_cvta32p24.l	a12, aep1; ae_roundsp16q48asym	aep6, aeq1 }
    41ed:	fb63ff6d5f 	{ ae_cvta32p24.l	a13, aep6; ae_roundsp16q48asym	aep7, aeq0 }
    41f2:	007ed4        	ae_cvta32p24.l	a14, aep7
    41f5:	1061c2        	s32i	a12, a1, 64
    41f8:	1261d2        	s32i	a13, a1, 72
    41fb:	1461e2        	s32i	a14, a1, 80
    41fe:	86cf16        	beqz	a15, 3a6e <Voice_WB_TX_Common_Prcs+0x5e2>
    4201:	3a2132        	l32i	a3, a1, 232
    4204:	3c2122        	l32i	a2, a1, 240
    4207:	150c           	movi.n	a5, 1
    4209:	0388           	l32i.n	a8, a3, 0
    420b:	281232        	l16ui	a3, a2, 80
    420e:	115510        	slli	a5, a5, 15
    4211:	a92892        	l32i	a9, a8, 0x2a4
    4214:	11a300        	slli	a10, a3, 16
    4217:	c4a2e2        	movi	a14, 0x2c4
    421a:	c0d590        	sub	a13, a5, a9
    421d:	360a34        	ae_cvtq48a32s	aeq0, a10
    4220:	6068e4        	ae_lq32f.x	aeq1, a8, a14
    4223:	300d94        	ae_cvtp24a16x2.ll	aep0, a13, a9
    4226:	0c013ab8fe 	{ l32i	a15, a8, 0x2ac; ae_mulzaafq32sp16s.lh	aeq0, aeq1, aep0, aeq0, aep0 }
    422b:	fc2473915e 	{ l32i	a5, a1, 228; ae_roundsq32asym	aeq0, aeq0 }
    4230:	368a04        	ae_trunca32q48	a10, aeq0
    4233:	b168a2        	s32i	a10, a8, 0x2c4
    4236:	02d892        	addmi	a9, a8, 0x200
    4239:	022fa7        	blt	a15, a10, 423f <Voice_WB_TX_Common_Prcs+0xdb3>
    423c:	fe01c6        	j	3a47 <Voice_WB_TX_Common_Prcs+0x5bb>
    423f:	5c9992        	l16si	a9, a9, 184
    4242:	1325b2        	l32i	a11, a5, 76
    4245:	120c           	movi.n	a2, 1
    4247:	119900        	slli	a9, a9, 16
    424a:	0229b7        	blt	a9, a11, 4250 <Voice_WB_TX_Common_Prcs+0xdc4>
    424d:	fdfd86        	j	3a47 <Voice_WB_TX_Common_Prcs+0x5bb>
    4250:	0122f0        	slli	a2, a2, 17
    4253:	b26822        	s32i	a2, a8, 0x2c8
    4256:	fe0686        	j	3a74 <Voice_WB_TX_Common_Prcs+0x5e8>

00004259 <Voice_WB_TX_Common_Prcs+0xdcd>:
    4259:	2d25b2        	l32i	a11, a5, 180
    425c:	d32a           	add.n	a13, a3, a2
    425e:	1924c2        	l32i	a12, a4, 100
    4261:	1c2ee2        	l32i	a14, a14, 112
    4264:	f02921        	l32r	a2, 308 (6b18 <synth_3band>)
    4267:	0002e0        	callx8	a2
    426a:	0638           	l32i.n	a3, a6, 0
    426c:	f8a0f2        	movi	a15, 248
    426f:	56df52        	addmi	a5, a15, 0x5600
    4272:	2cd362        	addmi	a6, a3, 0x2c00
    4275:	17b8           	l32i.n	a11, a7, 4
    4277:	1c26a2        	l32i	a10, a6, 112
    427a:	1a21c2        	l32i	a12, a1, 104
    427d:	2f21e2        	l32i	a14, a1, 188
    4280:	f02321        	l32r	a2, 30c (6d88 <tx_upsample_by2_N>)
    4283:	172142        	l32i	a4, a1, 92
    4286:	d35a           	add.n	a13, a3, a5
    4288:	8f2c           	movi.n	a15, 40
    428a:	0002e0        	callx8	a2
    428d:	04dd           	mov.n	a13, a4
    428f:	1c2152        	l32i	a5, a1, 112
    4292:	1d2142        	l32i	a4, a1, 116
    4295:	c71c           	movi.n	a7, 28
    4297:	28d772        	addmi	a7, a7, 0x2800
    429a:	06cd56        	bnez	a13, 430a <Voice_WB_TX_Common_Prcs+0xe7e>
    429d:	302132        	l32i	a3, a1, 192
    42a0:	ef8b61        	l32r	a6, cc (f59c <p_ecnr_mem>)
    42a3:	312122        	l32i	a2, a1, 196
    42a6:	d60332        	l8ui	a3, a3, 214
    42a9:	2921f2        	l32i	a15, a1, 164
    42ac:	0688           	l32i.n	a8, a6, 0
    42ae:	586317        	bbci	a3, 1, 430a <Voice_WB_TX_Common_Prcs+0xe7e>
    42b1:	52b8           	l32i.n	a11, a2, 20
    42b3:	ac0c           	movi.n	a12, 10
    42b5:	2cd832        	addmi	a3, a8, 0x2c00
    42b8:	202332        	l32i	a3, a3, 128
    42bb:	0d2d           	mov.n	a2, a13
    42bd:	a3fa           	add.n	a10, a3, a15
    42bf:	efa631        	l32r	a3, 158 (d6fc <xt_memcpy>)
    42c2:	0003e0        	callx8	a3
    42c5:	02dd           	mov.n	a13, a2
    42c7:	042256        	bnez	a2, 430d <Voice_WB_TX_Common_Prcs+0xe81>
    42ca:	0045c6        	j	43e5 <Voice_WB_TX_Common_Prcs+0xf59>

000042cd <Voice_WB_TX_Common_Prcs+0xe41>:
    42cd:	d32a           	add.n	a13, a3, a2
    42cf:	2f24b2        	l32i	a11, a4, 188
    42d2:	2b25c2        	l32i	a12, a5, 172
    42d5:	1c29e2        	l32i	a14, a9, 112
    42d8:	f00c21        	l32r	a2, 308 (6b18 <synth_3band>)
    42db:	0002e0        	callx8	a2
    42de:	0638           	l32i.n	a3, a6, 0
    42e0:	4521f2        	l32i	a15, a1, 0x114
    42e3:	f8a052        	movi	a5, 248
    42e6:	2cd382        	addmi	a8, a3, 0x2c00
    42e9:	3fb8           	l32i.n	a11, a15, 12
    42eb:	56d552        	addmi	a5, a5, 0x5600
    42ee:	1c28a2        	l32i	a10, a8, 112
    42f1:	1a21c2        	l32i	a12, a1, 104
    42f4:	2f21e2        	l32i	a14, a1, 188
    42f7:	f00521        	l32r	a2, 30c (6d88 <tx_upsample_by2_N>)
    42fa:	d35a           	add.n	a13, a3, a5
    42fc:	8f2c           	movi.n	a15, 40
    42fe:	0002e0        	callx8	a2
    4301:	1c2152        	l32i	a5, a1, 112
    4304:	1d2142        	l32i	a4, a1, 116
    4307:	1721d2        	l32i	a13, a1, 92
    430a:	0d7d16        	beqz	a13, 43e5 <Voice_WB_TX_Common_Prcs+0xf59>
    430d:	052d           	mov.n	a2, a5
    430f:	ef6f51        	l32r	a5, cc (f59c <p_ecnr_mem>)
    4312:	2a2132        	l32i	a3, a1, 168
    4315:	342162        	l32i	a6, a1, 208
    4318:	0598           	l32i.n	a9, a5, 0
    431a:	3321d2        	l32i	a13, a1, 204
    431d:	81a3f2        	movi	a15, 0x381
    4320:	2cd9e2        	addmi	a14, a9, 0x2c00
    4323:	2923a2        	l32i	a10, a3, 164
    4326:	1126b2        	l32i	a11, a6, 68
    4329:	3d2dc2        	l32i	a12, a13, 244
    432c:	116fb0        	slli	a6, a15, 5
    432f:	232ee2        	l32i	a14, a14, 140
    4332:	eff531        	l32r	a3, 308 (6b18 <synth_3band>)
    4335:	d96a           	add.n	a13, a9, a6
    4337:	074d           	mov.n	a4, a7
    4339:	0003e0        	callx8	a3
    433c:	302132        	l32i	a3, a1, 192
    433f:	0578           	l32i.n	a7, a5, 0
    4341:	d60332        	l8ui	a3, a3, 214
    4344:	2cd762        	addmi	a6, a7, 0x2c00
    4347:	292182        	l32i	a8, a1, 164
    434a:	2d6317        	bbci	a3, 1, 437b <Voice_WB_TX_Common_Prcs+0xeef>
    434d:	221662        	l16ui	a6, a6, 68
    4350:	073d           	mov.n	a3, a7
    4352:	2cd332        	addmi	a3, a3, 0x2c00
    4355:	222626        	beqi	a6, 2, 437b <Voice_WB_TX_Common_Prcs+0xeef>
    4358:	202332        	l32i	a3, a3, 128
    435b:	5121f2        	l32i	a15, a1, 0x144
    435e:	2a2152        	l32i	a5, a1, 168
    4361:	a38a           	add.n	a10, a3, a8
    4363:	6fcc           	bnez.n	a15, 436d <Voice_WB_TX_Common_Prcs+0xee1>
    4365:	312132        	l32i	a3, a1, 196
    4368:	53b8           	l32i.n	a11, a3, 20
    436a:	000086        	j	4370 <Voice_WB_TX_Common_Prcs+0xee4>

0000436d <Voice_WB_TX_Common_Prcs+0xee1>:
    436d:	2925b2        	l32i	a11, a5, 164
    4370:	ef7a31        	l32r	a3, 158 (d6fc <xt_memcpy>)
    4373:	ac0c           	movi.n	a12, 10
    4375:	0003e0        	callx8	a3
    4378:	ef5551        	l32r	a5, cc (f59c <p_ecnr_mem>)
    437b:	0538           	l32i.n	a3, a5, 0
    437d:	322162        	l32i	a6, a1, 200
    4380:	372172        	l32i	a7, a1, 220
    4383:	8f5c           	movi.n	a15, 88
    4385:	2526b2        	l32i	a11, a6, 148
    4388:	57df62        	addmi	a6, a15, 0x5700
    438b:	2cd3e2        	addmi	a14, a3, 0x2c00
    438e:	232ea2        	l32i	a10, a14, 140
    4391:	d36a           	add.n	a13, a3, a6
    4393:	6721e2        	l32i	a14, a1, 0x19c
    4396:	efdd31        	l32r	a3, 30c (6d88 <tx_upsample_by2_N>)
    4399:	8f2c           	movi.n	a15, 40
    439b:	07cd           	mov.n	a12, a7
    439d:	0003e0        	callx8	a3
    43a0:	0538           	l32i.n	a3, a5, 0
    43a2:	efe4d1        	l32r	a13, 334 (103d4 <_end+0xe34>)
    43a5:	6821e2        	l32i	a14, a1, 0x1a0
    43a8:	441704        	ae_lp16x2f.i	aep1, a7, 0
    43ab:	33da           	add.n	a3, a3, a13
    43ad:	233d           	ae_l16si.n	a3, a3, 0
    43af:	1721d2        	l32i	a13, a1, 92
    43b2:	4f1c           	movi.n	a15, 20
    43b4:	606030        	neg	a6, a3
    43b7:	8363e0        	moveqz	a6, a3, a14
    43ba:	073d           	mov.n	a3, a7
    43bc:	047d           	mov.n	a7, a4
    43be:	1d2142        	l32i	a4, a1, 116
    43c1:	1166c0        	slli	a6, a6, 4
    43c4:	398664        	ae_movpa24x2	aep0, a6, a6
    43c7:	025d           	mov.n	a5, a2
    43c9:	188f76        	loop	a15, 43e5 <Voice_WB_TX_Common_Prcs+0xf59>
    43cc:	011054        	ae_mulfp24s.hl	aeq0, aep1, aep0
    43cf:	011874        	ae_mulfp24s.ll	aeq1, aep1, aep0
    43d2:	350214        	ae_slliq56	aeq0, aeq0, 8
    43d5:	fb63fa924f 	{ ae_slliq56	aeq1, aeq1, 8; ae_roundsp16q48asym	aep7, aeq0 }
    43da:	f96bb2730f 	{ ae_sp16f.l.i	aep7, a3, 0; ae_roundsp16q48asym	aep2, aeq1 }
    43df:	422314        	ae_sp16f.l.i	aep2, a3, 2
    43e2:	449314        	ae_lp16x2f.iu	aep1, a3, 4

000043e5 <Voice_WB_TX_Common_Prcs+0xf59>:
    43e5:	242132        	l32i	a3, a1, 144
    43e8:	1a21a2        	l32i	a10, a1, 104
    43eb:	3521b2        	l32i	a11, a1, 212
    43ee:	362122        	l32i	a2, a1, 216
    43f1:	50c332        	addi	a3, a3, 80
    43f4:	3721c2        	l32i	a12, a1, 220
    43f7:	246132        	s32i	a3, a1, 144
    43fa:	50ca32        	addi	a3, a10, 80
    43fd:	6b21e2        	l32i	a14, a1, 0x1ac
    4400:	2921f2        	l32i	a15, a1, 164
    4403:	1a6132        	s32i	a3, a1, 104
    4406:	50cb32        	addi	a3, a11, 80
    4409:	356132        	s32i	a3, a1, 212
    440c:	50c222        	addi	a2, a2, 80
    440f:	50cc32        	addi	a3, a12, 80
    4412:	ef2e61        	l32r	a6, cc (f59c <p_ecnr_mem>)
    4415:	366122        	s32i	a2, a1, 216
    4418:	376132        	s32i	a3, a1, 220
    441b:	14cf32        	addi	a3, a15, 20
    441e:	2e0b           	addi.n	a2, a14, -1
    4420:	50c442        	addi	a4, a4, 80
    4423:	50c552        	addi	a5, a5, 80
    4426:	296132        	s32i	a3, a1, 164
    4429:	9b0256        	bnez	a2, 3ddd <Voice_WB_TX_Common_Prcs+0x951>
    442c:	182162        	l32i	a6, a1, 96
    442f:	120c           	movi.n	a2, 1
    4431:	871c           	movi.n	a7, 24
    4433:	d8a082        	movi	a8, 216
    4436:	b8a092        	movi	a9, 184
    4439:	98a0a2        	movi	a10, 152
    443c:	8b5c           	movi.n	a11, 88
    443e:	112220        	slli	a2, a2, 14
    4441:	57d772        	addmi	a7, a7, 0x5700
    4444:	56d882        	addmi	a8, a8, 0x5600
    4447:	56d992        	addmi	a9, a9, 0x5600
    444a:	56daa2        	addmi	a10, a10, 0x5600
    444d:	57dbb2        	addmi	a11, a11, 0x5700
    4450:	04cd16        	beqz	a13, 44a0 <Voice_WB_TX_Common_Prcs+0x1014>
    4453:	d138           	l32i.n	a3, a1, 52
    4455:	8c3c           	movi.n	a12, 56
    4457:	57dcc2        	addmi	a12, a12, 0x5700
    445a:	1e2237        	blt	a2, a3, 447c <Voice_WB_TX_Common_Prcs+0xff0>
    445d:	ef1b31        	l32r	a3, cc (f59c <p_ecnr_mem>)
    4460:	4f3c           	movi.n	a15, 52
    4462:	850c           	movi.n	a5, 8
    4464:	0348           	l32i.n	a4, a3, 0
    4466:	57df32        	addmi	a3, a15, 0x5700
    4469:	343a           	add.n	a3, a4, a3
    446b:	603c44        	ae_lq32f.xu	aeq0, a12, a4
    446e:	0a8576        	loop	a5, 447c <Voice_WB_TX_Common_Prcs+0xff0>
    4471:	350074        	ae_sraiq56	aeq0, aeq0, 1
    4474:	f867bd1c1f 	{ ae_lq32f.iu	aeq0, a12, 4; ae_roundsp24q48asym	aep0, aeq0 }
    4479:	528314        	ae_sp24f.l.iu	aep0, a3, 4
    447c:	e138           	l32i.n	a3, a1, 56
    447e:	ef1341        	l32r	a4, cc (f59c <p_ecnr_mem>)
    4481:	4f5c           	movi.n	a15, 84
    4483:	192237        	blt	a2, a3, 44a0 <Voice_WB_TX_Common_Prcs+0x1014>
    4486:	850c           	movi.n	a5, 8
    4488:	0448           	l32i.n	a4, a4, 0
    448a:	57df32        	addmi	a3, a15, 0x5700
    448d:	343a           	add.n	a3, a4, a3
    448f:	603b44        	ae_lq32f.xu	aeq0, a11, a4
    4492:	0a8576        	loop	a5, 44a0 <Voice_WB_TX_Common_Prcs+0x1014>
    4495:	350074        	ae_sraiq56	aeq0, aeq0, 1
    4498:	f867bd1b1f 	{ ae_lq32f.iu	aeq0, a11, 4; ae_roundsp24q48asym	aep0, aeq0 }
    449d:	528314        	ae_sp24f.l.iu	aep0, a3, 4
    44a0:	8138           	l32i.n	a3, a1, 32
    44a2:	ef0a41        	l32r	a4, cc (f59c <p_ecnr_mem>)
    44a5:	94a0f2        	movi	a15, 148
    44a8:	1b2237        	blt	a2, a3, 44c7 <Voice_WB_TX_Common_Prcs+0x103b>
    44ab:	850c           	movi.n	a5, 8
    44ad:	002442        	l32i	a4, a4, 0
    44b0:	56df32        	addmi	a3, a15, 0x5600
    44b3:	803430        	add	a3, a4, a3
    44b6:	603a44        	ae_lq32f.xu	aeq0, a10, a4
    44b9:	0a8576        	loop	a5, 44c7 <Voice_WB_TX_Common_Prcs+0x103b>
    44bc:	350074        	ae_sraiq56	aeq0, aeq0, 1
    44bf:	f867bd1a1f 	{ ae_lq32f.iu	aeq0, a10, 4; ae_roundsp24q48asym	aep0, aeq0 }
    44c4:	528314        	ae_sp24f.l.iu	aep0, a3, 4
    44c7:	b138           	l32i.n	a3, a1, 44
    44c9:	f8a0a2        	movi	a10, 248
    44cc:	56daa2        	addmi	a10, a10, 0x5600
    44cf:	202237        	blt	a2, a3, 44f3 <Voice_WB_TX_Common_Prcs+0x1067>
    44d2:	eefe31        	l32r	a3, cc (f59c <p_ecnr_mem>)
    44d5:	f4a0f2        	movi	a15, 244
    44d8:	850c           	movi.n	a5, 8
    44da:	0348           	l32i.n	a4, a3, 0
    44dc:	56df32        	addmi	a3, a15, 0x5600
    44df:	803430        	add	a3, a4, a3
    44e2:	603a44        	ae_lq32f.xu	aeq0, a10, a4
    44e5:	0a8576        	loop	a5, 44f3 <Voice_WB_TX_Common_Prcs+0x1067>
    44e8:	350074        	ae_sraiq56	aeq0, aeq0, 1
    44eb:	f867bd1a1f 	{ ae_lq32f.iu	aeq0, a10, 4; ae_roundsp24q48asym	aep0, aeq0 }
    44f0:	528314        	ae_sp24f.l.iu	aep0, a3, 4
    44f3:	eef631        	l32r	a3, cc (f59c <p_ecnr_mem>)
    44f6:	a148           	l32i.n	a4, a1, 40
    44f8:	b4a052        	movi	a5, 180
    44fb:	0338           	l32i.n	a3, a3, 0
    44fd:	172247        	blt	a2, a4, 4518 <Voice_WB_TX_Common_Prcs+0x108c>
    4500:	56d542        	addmi	a4, a5, 0x5600
    4503:	850c           	movi.n	a5, 8
    4505:	603934        	ae_lq32f.xu	aeq0, a9, a3
    4508:	434a           	add.n	a4, a3, a4
    450a:	0a8576        	loop	a5, 4518 <Voice_WB_TX_Common_Prcs+0x108c>
    450d:	350074        	ae_sraiq56	aeq0, aeq0, 1
    4510:	f867bd191f 	{ ae_lq32f.iu	aeq0, a9, 4; ae_roundsp24q48asym	aep0, aeq0 }
    4515:	528414        	ae_sp24f.l.iu	aep0, a4, 4
    4518:	2cd342        	addmi	a4, a3, 0x2c00
    451b:	221442        	l16ui	a4, a4, 68
    451e:	9158           	l32i.n	a5, a1, 36
    4520:	890c           	movi.n	a9, 8
    4522:	022426        	beqi	a4, 2, 4528 <Voice_WB_TX_Common_Prcs+0x109c>
    4525:	002d86        	j	45df <Voice_WB_TX_Common_Prcs+0x1153>
    4528:	182257        	blt	a2, a5, 4544 <Voice_WB_TX_Common_Prcs+0x10b8>
    452b:	d4a042        	movi	a4, 212
    452e:	56d442        	addmi	a4, a4, 0x5600
    4531:	603834        	ae_lq32f.xu	aeq0, a8, a3
    4534:	434a           	add.n	a4, a3, a4
    4536:	0a8976        	loop	a9, 4544 <Voice_WB_TX_Common_Prcs+0x10b8>
    4539:	350074        	ae_sraiq56	aeq0, aeq0, 1
    453c:	f867bd181f 	{ ae_lq32f.iu	aeq0, a8, 4; ae_roundsp24q48asym	aep0, aeq0 }
    4541:	528414        	ae_sp24f.l.iu	aep0, a4, 4
    4544:	c148           	l32i.n	a4, a1, 48
    4546:	451c           	movi.n	a5, 20
    4548:	57d582        	addmi	a8, a5, 0x5700
    454b:	142247        	blt	a2, a4, 4563 <Voice_WB_TX_Common_Prcs+0x10d7>
    454e:	840c           	movi.n	a4, 8
    4550:	603734        	ae_lq32f.xu	aeq0, a7, a3
    4553:	238a           	add.n	a2, a3, a8
    4555:	0a8476        	loop	a4, 4563 <Voice_WB_TX_Common_Prcs+0x10d7>
    4558:	350074        	ae_sraiq56	aeq0, aeq0, 1
    455b:	f867bd171f 	{ ae_lq32f.iu	aeq0, a7, 4; ae_roundsp24q48asym	aep0, aeq0 }
    4560:	528214        	ae_sp24f.l.iu	aep0, a2, 4
    4563:	64d622        	addmi	a2, a6, 0x6400
    4566:	1f9222        	l16si	a2, a2, 62
    4569:	2321f2        	l32i	a15, a1, 140
    456c:	65d642        	addmi	a4, a6, 0x6500
    456f:	220b           	addi.n	a2, a2, -1
    4571:	923d           	ae_zext16	a3, a2
    4573:	10cf22        	addi	a2, a15, 16
    4576:	4823f6        	bgeui	a3, 2, 45c2 <Voice_WB_TX_Common_Prcs+0x1136>
    4579:	209432        	l16si	a3, a4, 64
    457c:	4c2152        	l32i	a5, a1, 0x130
    457f:	66d642        	addmi	a4, a6, 0x6600
    4582:	3c23a6        	blti	a3, 2, 45c2 <Voice_WB_TX_Common_Prcs+0x1136>
    4585:	344d           	ae_l16si.n	a4, a4, 2
    4587:	769532        	l16si	a3, a5, 236
    458a:	1c0c           	movi.n	a12, 1
    458c:	1b0c           	movi.n	a11, 1
    458e:	d13430        	mul16s	a3, a4, a3
    4591:	116c10        	slli	a6, a12, 15
    4594:	2021d2        	l32i	a13, a1, 128
    4597:	2221e2        	l32i	a14, a1, 136
    459a:	636a           	add.n	a6, a3, a6
    459c:	905330        	addx2	a5, a3, a3
    459f:	114b00        	slli	a4, a11, 16
    45a2:	40d332        	addmi	a3, a3, 0x4000
    45a5:	2121f2        	l32i	a15, a1, 132
    45a8:	454a           	add.n	a4, a5, a4
    45aa:	213f30        	srai	a3, a3, 15
    45ad:	316060        	srai	a6, a6, 16
    45b0:	53da           	add.n	a5, a3, a13
    45b2:	36ea           	add.n	a3, a6, a14
    45b4:	314140        	srai	a4, a4, 17
    45b7:	226132        	s32i	a3, a1, 136
    45ba:	34fa           	add.n	a3, a4, a15
    45bc:	206152        	s32i	a5, a1, 128
    45bf:	216132        	s32i	a3, a1, 132

000045c2 <Voice_WB_TX_Common_Prcs+0x1136>:
    45c2:	212520        	srai	a2, a2, 5
    45c5:	236122        	s32i	a2, a1, 140
    45c8:	ef5c21        	l32r	a2, 338 (7868 <mag_calibration>)
    45cb:	1b21a2        	l32i	a10, a1, 108
    45ce:	0002e0        	callx8	a2
    45d1:	182162        	l32i	a6, a1, 96
    45d4:	030c           	movi.n	a3, 0
    45d6:	64d622        	addmi	a2, a6, 0x6400
    45d9:	1f6232        	s32i	a3, a2, 124
    45dc:	206232        	s32i	a3, a2, 128
    45df:	6ed622        	addmi	a2, a6, 0x6e00
    45e2:	071232        	l16ui	a3, a2, 14
    45e5:	1a6122        	s32i	a2, a1, 104
    45e8:	382152        	l32i	a5, a1, 224
    45eb:	094316        	beqz	a3, 4683 <Voice_WB_TX_Common_Prcs+0x11f7>
    45ee:	192142        	l32i	a4, a1, 100
    45f1:	ef5431        	l32r	a3, 344 (2d9c <dt_detect_sb>)
    45f4:	3825c2        	l32i	a12, a5, 224
    45f7:	4621b2        	l32i	a11, a1, 0x118
    45fa:	04ad           	mov.n	a10, a4
    45fc:	0003e0        	callx8	a3
    45ff:	3825c2        	l32i	a12, a5, 224
    4602:	4721b2        	l32i	a11, a1, 0x11c
    4605:	04ad           	mov.n	a10, a4
    4607:	0003e0        	callx8	a3
    460a:	4e2162        	l32i	a6, a1, 0x138
    460d:	4d2172        	l32i	a7, a1, 0x134
    4610:	4821b2        	l32i	a11, a1, 0x120
    4613:	202682        	l32i	a8, a6, 128
    4616:	342752        	l32i	a5, a7, 208
    4619:	04ad           	mov.n	a10, a4
    461b:	43c850        	min	a12, a8, a5
    461e:	0003e0        	callx8	a3
    4621:	202662        	l32i	a6, a6, 128
    4624:	342752        	l32i	a5, a7, 208
    4627:	4921b2        	l32i	a11, a1, 0x124
    462a:	04ad           	mov.n	a10, a4
    462c:	43c650        	min	a12, a6, a5
    462f:	0003e0        	callx8	a3
    4632:	172132        	l32i	a3, a1, 92
    4635:	182152        	l32i	a5, a1, 96
    4638:	ef4421        	l32r	a2, 348 (2e24 <dt_detect_FB_sb>)
    463b:	091316        	beqz	a3, 46d0 <Voice_WB_TX_Common_Prcs+0x1244>
    463e:	4221b2        	l32i	a11, a1, 0x108
    4641:	6cd532        	addmi	a3, a5, 0x6c00
    4644:	1c23c2        	l32i	a12, a3, 112
    4647:	04ad           	mov.n	a10, a4
    4649:	0002e0        	callx8	a2
    464c:	1c23c2        	l32i	a12, a3, 112
    464f:	4321b2        	l32i	a11, a1, 0x10c
    4652:	04ad           	mov.n	a10, a4
    4654:	0002e0        	callx8	a2
    4657:	6dd532        	addmi	a3, a5, 0x6d00
    465a:	6dd552        	addmi	a5, a5, 0x6d00
    465d:	4368           	l32i.n	a6, a3, 16
    465f:	182572        	l32i	a7, a5, 96
    4662:	4421b2        	l32i	a11, a1, 0x110
    4665:	04ad           	mov.n	a10, a4
    4667:	43c670        	min	a12, a6, a7
    466a:	0002e0        	callx8	a2
    466d:	4338           	l32i.n	a3, a3, 16
    466f:	182552        	l32i	a5, a5, 96
    4672:	3d21b2        	l32i	a11, a1, 244
    4675:	04ad           	mov.n	a10, a4
    4677:	43c350        	min	a12, a3, a5
    467a:	0002e0        	callx8	a2
    467d:	ee9361        	l32r	a6, cc (f59c <p_ecnr_mem>)
    4680:	002806        	j	4724 <Voice_WB_TX_Common_Prcs+0x1298>

00004683 <Voice_WB_TX_Common_Prcs+0x11f7>:
    4683:	9aa032        	movi	a3, 154
    4686:	bda622        	movi	a2, 0x6bd
    4689:	6ad332        	addmi	a3, a3, 0x6a00
    468c:	1122c0        	slli	a2, a2, 4
    468f:	602624        	ae_lq32f.x	aeq0, a6, a2
    4692:	410634        	ae_lp16f.x	aep0, a6, a3
    4695:	d4e23381fe 	{ l32i	a15, a1, 224; ae_mulfq32sp16s.l	aeq0, aeq0, aep0 }
    469a:	40c142        	addi	a4, a1, 64
    469d:	620404        	ae_sq32f.i	aeq0, a4, 0
    46a0:	382f32        	l32i	a3, a15, 224
    46a3:	102142        	l32i	a4, a1, 64
    46a6:	53b340        	max	a11, a3, a4
    46a9:	192142        	l32i	a4, a1, 100
    46ac:	ef2431        	l32r	a3, 33c (2d58 <dt_detect>)
    46af:	04ad           	mov.n	a10, a4
    46b1:	0003e0        	callx8	a3
    46b4:	172132        	l32i	a3, a1, 92
    46b7:	182122        	l32i	a2, a1, 96
    46ba:	04ad           	mov.n	a10, a4
    46bc:	039c           	beqz.n	a3, 46d0 <Voice_WB_TX_Common_Prcs+0x1244>
    46be:	6cd232        	addmi	a3, a2, 0x6c00
    46c1:	1c23b2        	l32i	a11, a3, 112
    46c4:	ef1f31        	l32r	a3, 340 (2de0 <dt_detect_FB>)
    46c7:	0003e0        	callx8	a3
    46ca:	ee8061        	l32r	a6, cc (f59c <p_ecnr_mem>)
    46cd:	0014c6        	j	4724 <Voice_WB_TX_Common_Prcs+0x1298>

000046d0 <Voice_WB_TX_Common_Prcs+0x1244>:
    46d0:	1a2122        	l32i	a2, a1, 104
    46d3:	ee7e61        	l32r	a6, cc (f59c <p_ecnr_mem>)
    46d6:	182152        	l32i	a5, a1, 96
    46d9:	071232        	l16ui	a3, a2, 14
    46dc:	0628           	l32i.n	a2, a6, 0
    46de:	6ad542        	addmi	a4, a5, 0x6a00
    46e1:	03f356        	bnez	a3, 4724 <Voice_WB_TX_Common_Prcs+0x1298>
    46e4:	2cd232        	addmi	a3, a2, 0x2c00
    46e7:	3d9442        	l16si	a4, a4, 122
    46ea:	249332        	l16si	a3, a3, 72
    46ed:	9aa072        	movi	a7, 154
    46f0:	d4a022        	movi	a2, 212
    46f3:	08a437        	bge	a4, a3, 46ff <Voice_WB_TX_Common_Prcs+0x1273>
    46f6:	ee8e31        	l32r	a3, 130 (7fff0000 <_end+0x7ffe0a60>)
    46f9:	360334        	ae_cvtq48a32s	aeq0, a3
    46fc:	000646        	j	4719 <Voice_WB_TX_Common_Prcs+0x128d>

000046ff <Voice_WB_TX_Common_Prcs+0x1273>:
    46ff:	6ad732        	addmi	a3, a7, 0x6a00
    4702:	6bd222        	addmi	a2, a2, 0x6b00
    4705:	602524        	ae_lq32f.x	aeq0, a5, a2
    4708:	410534        	ae_lp16f.x	aep0, a5, a3
    470b:	d4e200e4ff 	{ movi	a15, 228; ae_mulfq32sp16s.l	aeq0, aeq0, aep0 }
    4710:	6adf22        	addmi	a2, a15, 0x6a00
    4713:	606524        	ae_lq32f.x	aeq1, a5, a2
    4716:	0110c4        	ae_maxq56s	aeq0, aeq0, aeq1
    4719:	f86383553f 	{ movi	a3, 0x355; ae_roundsp16q48asym	aep0, aeq0 }
    471e:	1133b0        	slli	a3, a3, 5
    4721:	430534        	ae_sp16f.l.x	aep0, a5, a3
    4724:	0648           	l32i.n	a4, a6, 0
    4726:	d3a7f2        	movi	a15, 0x7d3
    4729:	85a322        	movi	a2, 0x385
    472c:	2cd432        	addmi	a3, a4, 0x2c00
    472f:	221352        	l16ui	a5, a3, 68
    4732:	113fd0        	slli	a3, a15, 3
    4735:	1162b0        	slli	a6, a2, 5
    4738:	4b2566        	bnei	a5, 2, 4787 <Voice_WB_TX_Common_Prcs+0x12fb>
    473b:	2cd452        	addmi	a5, a4, 0x2c00
    473e:	182162        	l32i	a6, a1, 96
    4741:	252552        	l32i	a5, a5, 148
    4744:	202122        	l32i	a2, a1, 128
    4747:	2121d2        	l32i	a13, a1, 132
    474a:	2221e2        	l32i	a14, a1, 136
    474d:	2321f2        	l32i	a15, a1, 140
    4750:	752d           	ae_s16i.n	a2, a5, 2
    4752:	65d662        	addmi	a6, a6, 0x6500
    4755:	0255d2        	s16i	a13, a5, 4
    4758:	0355e2        	s16i	a14, a5, 6
    475b:	0455f2        	s16i	a15, a5, 8
    475e:	209662        	l16si	a6, a6, 64
    4761:	2cd472        	addmi	a7, a4, 0x2c00
    4764:	065562        	s16i	a6, a5, 12
    4767:	4f0752        	l8ui	a5, a7, 79
    476a:	2cd482        	addmi	a8, a4, 0x2c00
    476d:	1e21a2        	l32i	a10, a1, 120
    4770:	2ce567        	bbsi	a5, 6, 47a0 <Voice_WB_TX_Common_Prcs+0x1314>
    4773:	2cd462        	addmi	a6, a4, 0x2c00
    4776:	e43a           	add.n	a14, a4, a3
    4778:	1d26a2        	l32i	a10, a6, 116
    477b:	1e26b2        	l32i	a11, a6, 120
    477e:	2426c2        	l32i	a12, a6, 144
    4781:	eef241        	l32r	a4, 34c (8878 <two_mic_WB_NR_proc>)
    4784:	0003c6        	j	4797 <Voice_WB_TX_Common_Prcs+0x130b>

00004787 <Voice_WB_TX_Common_Prcs+0x12fb>:
    4787:	2cd472        	addmi	a7, a4, 0x2c00
    478a:	e43a           	add.n	a14, a4, a3
    478c:	a46a           	add.n	a10, a4, a6
    478e:	1e27b2        	l32i	a11, a7, 120
    4791:	2427c2        	l32i	a12, a7, 144
    4794:	eeef41        	l32r	a4, 350 (8530 <WB_NR_frame_process>)
    4797:	1e21d2        	l32i	a13, a1, 120
    479a:	0004e0        	callx8	a4
    479d:	0002c6        	j	47ac <Voice_WB_TX_Common_Prcs+0x1320>

000047a0 <Voice_WB_TX_Common_Prcs+0x1314>:
    47a0:	1e28b2        	l32i	a11, a8, 120
    47a3:	ee6d41        	l32r	a4, 158 (d6fc <xt_memcpy>)
    47a6:	f0a0c2        	movi	a12, 240
    47a9:	0004e0        	callx8	a4
    47ac:	172142        	l32i	a4, a1, 92
    47af:	182162        	l32i	a6, a1, 96
    47b2:	c71c           	movi.n	a7, 28
    47b4:	28d772        	addmi	a7, a7, 0x2800
    47b7:	04f416        	beqz	a4, 480a <Voice_WB_TX_Common_Prcs+0x137e>
    47ba:	1a2122        	l32i	a2, a1, 104
    47bd:	ee4381        	l32r	a8, cc (f59c <p_ecnr_mem>)
    47c0:	6ad652        	addmi	a5, a6, 0x6a00
    47c3:	071242        	l16ui	a4, a2, 14
    47c6:	0828           	l32i.n	a2, a8, 0
    47c8:	9aa092        	movi	a9, 154
    47cb:	b4fc           	bnez.n	a4, 480a <Voice_WB_TX_Common_Prcs+0x137e>
    47cd:	3d9552        	l16si	a5, a5, 122
    47d0:	2cd242        	addmi	a4, a2, 0x2c00
    47d3:	249442        	l16si	a4, a4, 72
    47d6:	d4a022        	movi	a2, 212
    47d9:	6ad982        	addmi	a8, a9, 0x6a00
    47dc:	08a547        	bge	a5, a4, 47e8 <Voice_WB_TX_Common_Prcs+0x135c>
    47df:	ee5441        	l32r	a4, 130 (7fff0000 <_end+0x7ffe0a60>)
    47e2:	360434        	ae_cvtq48a32s	aeq0, a4
    47e5:	000586        	j	47ff <Voice_WB_TX_Common_Prcs+0x1373>

000047e8 <Voice_WB_TX_Common_Prcs+0x135c>:
    47e8:	6bd222        	addmi	a2, a2, 0x6b00
    47eb:	602624        	ae_lq32f.x	aeq0, a6, a2
    47ee:	410684        	ae_lp16f.x	aep0, a6, a8
    47f1:	d4e200e4ff 	{ movi	a15, 228; ae_mulfq32sp16s.l	aeq0, aeq0, aep0 }
    47f6:	6adf22        	addmi	a2, a15, 0x6a00
    47f9:	606624        	ae_lq32f.x	aeq1, a6, a2
    47fc:	0110c4        	ae_maxq56s	aeq0, aeq0, aeq1
    47ff:	f86383554f 	{ movi	a4, 0x355; ae_roundsp16q48asym	aep0, aeq0 }
    4804:	1144b0        	slli	a4, a4, 5
    4807:	430644        	ae_sp16f.l.x	aep0, a6, a4
    480a:	ee3061        	l32r	a6, cc (f59c <p_ecnr_mem>)
    480d:	7fa552        	movi	a5, 0x57f
    4810:	1155c0        	slli	a5, a5, 4
    4813:	0648           	l32i.n	a4, a6, 0
    4815:	a45a           	add.n	a10, a4, a5
    4817:	b43a           	add.n	a11, a4, a3
    4819:	eece41        	l32r	a4, 354 (6bdc <AVC_prcs>)
    481c:	0004e0        	callx8	a4
    481f:	0658           	l32i.n	a5, a6, 0
    4821:	eecd41        	l32r	a4, 358 (10a2e <_end+0x148e>)
    4824:	454a           	add.n	a4, a5, a4
    4826:	246d           	ae_l16si.n	a6, a4, 0
    4828:	0a4d           	mov.n	a4, a10
    482a:	112400        	slli	a2, a4, 16
    482d:	d68c           	beqz.n	a6, 483e <Voice_WB_TX_Common_Prcs+0x13b2>
    482f:	214120        	srai	a4, a2, 1
    4832:	ffa022        	movi	a2, 255
    4835:	d24460        	quos	a4, a4, a6
    4838:	7fd222        	addmi	a2, a2, 0x7f00
    483b:	434420        	min	a4, a4, a2
    483e:	1a2122        	l32i	a2, a1, 104
    4841:	ee2261        	l32r	a6, cc (f59c <p_ecnr_mem>)
    4844:	1921a2        	l32i	a10, a1, 100
    4847:	071222        	l16ui	a2, a2, 14
    484a:	1e21b2        	l32i	a11, a1, 120
    484d:	c53a           	add.n	a12, a5, a3
    484f:	92cc           	bnez.n	a2, 485c <Voice_WB_TX_Common_Prcs+0x13d0>
    4851:	eec221        	l32r	a2, 35c (6c58 <aec_post_prcs>)
    4854:	f0a0d2        	movi	a13, 240
    4857:	0002e0        	callx8	a2
    485a:	0658           	l32i.n	a5, a6, 0
    485c:	64a022        	movi	a2, 100
    485f:	28d222        	addmi	a2, a2, 0x2800
    4862:	c52a           	add.n	a12, a5, a2
    4864:	eebf21        	l32r	a2, 360 (3180 <deemph_filter_N>)
    4867:	1e21a2        	l32i	a10, a1, 120
    486a:	b57a           	add.n	a11, a5, a7
    486c:	f0a0d2        	movi	a13, 240
    486f:	0002e0        	callx8	a2
    4872:	172132        	l32i	a3, a1, 92
    4875:	0628           	l32i.n	a2, a6, 0
    4877:	1f2152        	l32i	a5, a1, 124
    487a:	0cc316        	beqz	a3, 494a <Voice_WB_TX_Common_Prcs+0x14be>
    487d:	2cd232        	addmi	a3, a2, 0x2c00
    4880:	02e597        	bbsi	a5, 9, 4886 <Voice_WB_TX_Common_Prcs+0x13fa>
    4883:	0030c6        	j	494a <Voice_WB_TX_Common_Prcs+0x14be>
    4886:	221332        	l16ui	a3, a3, 68
    4889:	392172        	l32i	a7, a1, 228
    488c:	1821f2        	l32i	a15, a1, 96
    488f:	022326        	beqi	a3, 2, 4895 <Voice_WB_TX_Common_Prcs+0x1409>
    4892:	002d06        	j	494a <Voice_WB_TX_Common_Prcs+0x14be>
    4895:	1fa552        	movi	a5, 0x51f
    4898:	1327b2        	l32i	a11, a7, 76
    489b:	65df32        	addmi	a3, a15, 0x6500
    489e:	1423a2        	l32i	a10, a3, 80
    48a1:	0825b7        	blt	a5, a11, 48ad <Voice_WB_TX_Common_Prcs+0x1421>
    48a4:	20a532        	movi	a3, 0x520
    48a7:	02aa37        	bge	a10, a3, 48ad <Voice_WB_TX_Common_Prcs+0x1421>
    48aa:	002706        	j	494a <Voice_WB_TX_Common_Prcs+0x14be>
    48ad:	ee6b21        	l32r	a2, 25c (be9c <airoha_divide>)
    48b0:	0002e0        	callx8	a2
    48b3:	0628           	l32i.n	a2, a6, 0
    48b5:	ee8431        	l32r	a3, 2c8 (103d6 <_end+0xe36>)
    48b8:	360b34        	ae_cvtq48a32s	aeq0, a11
    48bb:	f8ca52        	addi	a5, a10, -8
    48be:	323a           	add.n	a3, a2, a3
    48c0:	233d           	ae_l16si.n	a3, a3, 0
    48c2:	fc24fe850f 	{ ae_slaasq56s	aeq0, aeq0, a5; nop }
    48c7:	1d0c           	movi.n	a13, 1
    48c9:	113380        	slli	a3, a3, 8
    48cc:	f867e2033f 	{ ae_movpa24x2	aep0, a3, a3; ae_roundsp24q48asym	aep1, aeq0 }
    48d1:	113d10        	slli	a3, a13, 15
    48d4:	ea05bec37f 	{ ae_cvtq48a32s	aeq1, a3; ae_mulfp24s.ll	aeq0, aep1, aep0 }
    48d9:	0e0c           	movi.n	a14, 0
    48db:	d6480001ff 	{ movi	a15, 1; ae_ltq56s	b0, aeq0, aeq1 }
    48e0:	030c           	movi.n	a3, 0
    48e2:	150c           	movi.n	a5, 1
    48e4:	d22056ef0f 	{ movt	a14, a15, b0; ae_ltp24s	b0:b1, aep0, aep1 }
    48e9:	9ecc           	bnez.n	a14, 48f6 <Voice_WB_TX_Common_Prcs+0x146a>
    48eb:	355054        	ae_slliq56	aeq1, aeq1, 1
    48ee:	d64416350f 	{ movt	a3, a5, b0; ae_ltq56s	b0, aeq1, aeq0 }
    48f3:	09d316        	beqz	a3, 4994 <Voice_WB_TX_Common_Prcs+0x1508>
    48f6:	ee9b31        	l32r	a3, 364 (103da <_end+0xe3a>)
    48f9:	ee9b51        	l32r	a5, 368 (103d8 <_end+0xe38>)
    48fc:	d22073a17e 	{ l32i	a7, a1, 232; ae_ltp24s	b0:b1, aep0, aep1 }
    4901:	323a           	add.n	a3, a2, a3
    4903:	625a           	add.n	a6, a2, a5
    4905:	235d           	ae_l16si.n	a5, a3, 0
    4907:	266d           	ae_l16si.n	a6, a6, 0
    4909:	302192        	l32i	a9, a1, 192
    490c:	2cd282        	addmi	a8, a2, 0x2c00
    490f:	33a657        	bge	a6, a5, 4946 <Voice_WB_TX_Common_Prcs+0x14ba>
    4912:	050c           	movi.n	a5, 0
    4914:	0768           	l32i.n	a6, a7, 0
    4916:	225852        	s16i	a5, a8, 68
    4919:	d60932        	l8ui	a3, a9, 214
    491c:	ee6781        	l32r	a8, 2b8 (103dc <_end+0xe3c>)
    491f:	efa072        	movi	a7, 239
    4922:	103370        	and	a3, a3, a7
    4925:	0e0c           	movi.n	a14, 0
    4927:	1f0c           	movi.n	a15, 1
    4929:	d64932        	s8i	a3, a9, 214
    492c:	328a           	add.n	a3, a2, a8
    492e:	1d0c           	movi.n	a13, 1
    4930:	02d662        	addmi	a6, a6, 0x200
    4933:	d3ef00        	movt	a14, a15, b0
    4936:	0043d2        	s8i	a13, a3, 0
    4939:	655652        	s16i	a5, a6, 202
    493c:	ae8c           	beqz.n	a14, 494a <Voice_WB_TX_Common_Prcs+0x14be>
    493e:	250c           	movi.n	a5, 2
    4940:	004352        	s8i	a5, a3, 0
    4943:	0000c6        	j	494a <Voice_WB_TX_Common_Prcs+0x14be>

00004946 <Voice_WB_TX_Common_Prcs+0x14ba>:
    4946:	551b           	addi.n	a5, a5, 1
    4948:	635d           	ae_s16i.n	a5, a3, 0
    494a:	4f2172        	l32i	a7, a1, 0x13c
    494d:	02dd           	mov.n	a13, a2
    494f:	000486        	j	4965 <Voice_WB_TX_Common_Prcs+0x14d9>

00004952 <Voice_WB_TX_Common_Prcs+0x14c6>:
    4952:	140c           	movi.n	a4, 1
    4954:	f0a032        	movi	a3, 240
    4957:	114430        	slli	a4, a4, 13
    495a:	078376        	loop	a3, 4965 <Voice_WB_TX_Common_Prcs+0x14d9>
    495d:	223d           	ae_l16si.n	a3, a2, 0
    495f:	663d           	ae_s16i.n	a3, a6, 0
    4961:	222b           	addi.n	a2, a2, 2
    4963:	662b           	addi.n	a6, a6, 2

00004965 <Voice_WB_TX_Common_Prcs+0x14d9>:
    4965:	70dd22        	addmi	a2, a13, 0x7000
    4968:	2cdd32        	addmi	a3, a13, 0x2c00
    496b:	699222        	l16si	a2, a2, 210
    496e:	221332        	l16ui	a3, a3, 68
    4971:	2cdd52        	addmi	a5, a13, 0x2c00
    4974:	f8c222        	addi	a2, a2, -8
    4977:	1122b0        	slli	a2, a2, 5
    497a:	072366        	bnei	a3, 2, 4985 <Voice_WB_TX_Common_Prcs+0x14f9>
    497d:	252532        	l32i	a3, a5, 148
    4980:	079332        	l16si	a3, a3, 14
    4983:	232a           	add.n	a2, a3, a2

00004985 <Voice_WB_TX_Common_Prcs+0x14f9>:
    4985:	6add32        	addmi	a3, a13, 0x6a00
    4988:	3c9332        	l16si	a3, a3, 120
    498b:	772d           	ae_s16i.n	a2, a7, 2
    498d:	025742        	s16i	a4, a7, 4
    4990:	673d           	ae_s16i.n	a3, a7, 0
    4992:	f01d           	retw.n

00004994 <Voice_WB_TX_Common_Prcs+0x1508>:
    4994:	030c           	movi.n	a3, 0
    4996:	150c           	movi.n	a5, 1
    4998:	d33500        	movt	a3, a5, b0
    499b:	fab316        	beqz	a3, 494a <Voice_WB_TX_Common_Prcs+0x14be>
    499e:	349304        	ae_movap24s.l	a3, aep1
    49a1:	348504        	ae_movap24s.l	a5, aep0
    49a4:	ee7061        	l32r	a6, 364 (103da <_end+0xe3a>)
    49a7:	1133f0        	slli	a3, a3, 1
    49aa:	9ca357        	bge	a3, a5, 494a <Voice_WB_TX_Common_Prcs+0x14be>
    49ad:	050c           	movi.n	a5, 0
    49af:	326a           	add.n	a3, a2, a6
    49b1:	ffe4c6        	j	4948 <Voice_WB_TX_Common_Prcs+0x14bc>

000049b4 <Voice_WB_TX_Inear_Prcs_V2>:
    49b4:	004136        	entry	a1, 32
    49b7:	ee3b81        	l32r	a8, 2a4 (348c <Voice_WB_TX_Common_Prcs>)
    49ba:	02ad           	mov.n	a10, a2
    49bc:	03bd           	mov.n	a11, a3
    49be:	04cd           	mov.n	a12, a4
    49c0:	05dd           	mov.n	a13, a5
    49c2:	06ed           	mov.n	a14, a6
    49c4:	07fd           	mov.n	a15, a7
    49c6:	0008e0        	callx8	a8
    49c9:	f01d           	retw.n

000049cb <Voice_WB_TX_Inear_Prcs_V2+0x17>:
	...

000049cc <IE_EC_REF_GAIN_READBACK>:
    49cc:	004136        	entry	a1, 32
    49cf:	edbf31        	l32r	a3, cc (f59c <p_ecnr_mem>)
    49d2:	0338           	l32i.n	a3, a3, 0
    49d4:	6cd342        	addmi	a4, a3, 0x6c00
    49d7:	351442        	l16ui	a4, a4, 106
    49da:	6cd3e2        	addmi	a14, a3, 0x6c00
    49dd:	624d           	ae_s16i.n	a4, a2, 0
    49df:	5d1e42        	l16ui	a4, a14, 186
    49e2:	6dd3f2        	addmi	a15, a3, 0x6d00
    49e5:	6dd332        	addmi	a3, a3, 0x6d00
    49e8:	724d           	ae_s16i.n	a4, a2, 2
    49ea:	051f42        	l16ui	a4, a15, 10
    49ed:	2d1332        	l16ui	a3, a3, 90
    49f0:	025242        	s16i	a4, a2, 4
    49f3:	035232        	s16i	a3, a2, 6
    49f6:	f01d           	retw.n

000049f8 <Voice_SWB_TX_Prcs>:
    49f8:	004136        	entry	a1, 32
    49fb:	edb471        	l32r	a7, cc (f59c <p_ecnr_mem>)
    49fe:	fba092        	movi	a9, 251
    4a01:	0c0c           	movi.n	a12, 0
    4a03:	0778           	l32i.n	a7, a7, 0
    4a05:	02ad           	mov.n	a10, a2
    4a07:	03bd           	mov.n	a11, a3
    4a09:	70d772        	addmi	a7, a7, 0x7000
    4a0c:	d60782        	l8ui	a8, a7, 214
    4a0f:	04dd           	mov.n	a13, a4
    4a11:	05ed           	mov.n	a14, a5
    4a13:	108890        	and	a8, a8, a9
    4a16:	d64782        	s8i	a8, a7, 214
    4a19:	ee5471        	l32r	a7, 36c (4a24 <Voice_SWB_TX_Common_Prcs>)
    4a1c:	06fd           	mov.n	a15, a6
    4a1e:	0007e0        	callx8	a7
    4a21:	f01d           	retw.n

00004a23 <Voice_SWB_TX_Prcs+0x2b>:
	...

00004a24 <Voice_SWB_TX_Common_Prcs>:
    4a24:	04a136        	entry	a1, 0x250
    4a27:	eda9f1        	l32r	a15, cc (f59c <p_ecnr_mem>)
    4a2a:	306132        	s32i	a3, a1, 192
    4a2d:	ee1e31        	l32r	a3, 2a8 (968c <two_mic_WB_NR_NSN_proc+0xb1c>)
    4a30:	0fe8           	l32i.n	a14, a15, 0
    4a32:	0b0c           	movi.n	a11, 0
    4a34:	2cde82        	addmi	a8, a14, 0x2c00
    4a37:	2718a2        	l16ui	a10, a8, 78
    4a3a:	ce3a           	add.n	a12, a14, a3
    4a3c:	018a50        	slli	a8, a10, 27
    4a3f:	319f80        	srai	a9, a8, 31
    4a42:	100497        	bnone	a4, a9, 4a56 <Voice_SWB_TX_Common_Prcs+0x32>
    4a45:	0c88           	l32i.n	a8, a12, 0
    4a47:	02d882        	addmi	a8, a8, 0x200
    4a4a:	441882        	l16ui	a8, a8, 136
    4a4d:	286182        	s32i	a8, a1, 160
    4a50:	418e80        	srli	a8, a8, 14
    4a53:	000106        	j	4a5b <Voice_SWB_TX_Common_Prcs+0x37>

00004a56 <Voice_SWB_TX_Common_Prcs+0x32>:
    4a56:	2861b2        	s32i	a11, a1, 160
    4a59:	080c           	movi.n	a8, 0
    4a5b:	104940        	and	a4, a9, a4
    4a5e:	02ea07        	bbsi	a10, 0, 4a64 <Voice_SWB_TX_Common_Prcs+0x40>
    4a61:	0058c6        	j	4bc8 <Voice_SWB_TX_Common_Prcs+0x1a4>
    4a64:	160856        	bnez	a8, 4bc8 <Voice_SWB_TX_Common_Prcs+0x1a4>
    4a67:	ee4291        	l32r	a9, 370 (10a24 <_end+0x1484>)
    4a6a:	ee42b1        	l32r	a11, 374 (10a20 <_end+0x1480>)
    4a6d:	ee4281        	l32r	a8, 378 (10a28 <_end+0x1488>)
    4a70:	276162        	s32i	a6, a1, 156
    4a73:	98a062        	movi	a6, 152
    4a76:	246152        	s32i	a5, a1, 144
    4a79:	4ed652        	addmi	a5, a6, 0x4e00
    4a7c:	060c           	movi.n	a6, 0
    4a7e:	6bde32        	addmi	a3, a14, 0x6b00
    4a81:	6bdec2        	addmi	a12, a14, 0x6b00
    4a84:	6bded2        	addmi	a13, a14, 0x6b00
    4a87:	6cdef2        	addmi	a15, a14, 0x6c00
    4a8a:	c369           	s32i.n	a6, a3, 48
    4a8c:	d369           	s32i.n	a6, a3, 52
    4a8e:	3e8a           	add.n	a3, a14, a8
    4a90:	beba           	add.n	a11, a14, a11
    4a92:	9e9a           	add.n	a9, a14, a9
    4a94:	666172        	s32i	a7, a1, 0x198
    4a97:	6ade72        	addmi	a7, a14, 0x6a00
    4a9a:	206c62        	s32i	a6, a12, 128
    4a9d:	6561c2        	s32i	a12, a1, 0x194
    4aa0:	216c62        	s32i	a6, a12, 132
    4aa3:	09c8           	l32i.n	a12, a9, 0
    4aa5:	346d62        	s32i	a6, a13, 208
    4aa8:	6461d2        	s32i	a13, a1, 0x190
    4aab:	356d62        	s32i	a6, a13, 212
    4aae:	0bd8           	l32i.n	a13, a11, 0
    4ab0:	8f69           	s32i.n	a6, a15, 32
    4ab2:	6361f2        	s32i	a15, a1, 0x18c
    4ab5:	9f69           	s32i.n	a6, a15, 36
    4ab7:	03f8           	l32i.n	a15, a3, 0
    4ab9:	3e5a           	add.n	a3, a14, a5
    4abb:	386762        	s32i	a6, a7, 224
    4abe:	4c6172        	s32i	a7, a1, 0x130
    4ac1:	396762        	s32i	a6, a7, 228
    4ac4:	2561c2        	s32i	a12, a1, 148
    4ac7:	4561d2        	s32i	a13, a1, 0x114
    4aca:	4b61f2        	s32i	a15, a1, 0x12c
    4acd:	266132        	s32i	a3, a1, 152
    4ad0:	226142        	s32i	a4, a1, 136
    4ad3:	110416        	beqz	a4, 4be7 <Voice_SWB_TX_Common_Prcs+0x1c3>
    4ad6:	edf8d1        	l32r	a13, 2b8 (103dc <_end+0xe3c>)
    4ad9:	6cde72        	addmi	a7, a14, 0x6c00
    4adc:	1c6762        	s32i	a6, a7, 112
    4adf:	6dde42        	addmi	a4, a14, 0x6d00
    4ae2:	7eda           	add.n	a7, a14, a13
    4ae4:	4469           	s32i.n	a6, a4, 16
    4ae6:	186462        	s32i	a6, a4, 96
    4ae9:	000792        	l8ui	a9, a7, 0
    4aec:	282142        	l32i	a4, a1, 160
    4aef:	6cde82        	addmi	a8, a14, 0x6c00
    4af2:	6ddec2        	addmi	a12, a14, 0x6d00
    4af5:	6c6862        	s32i	a6, a8, 0x1b0
    4af8:	1d6862        	s32i	a6, a8, 116
    4afb:	306862        	s32i	a6, a8, 192
    4afe:	316862        	s32i	a6, a8, 196
    4b01:	fd248fe98e 	{ addi	a8, a9, -2; ae_zeroq56	aeq1 }
    4b06:	fc0c545c6f 	{ s32i.n	a6, a12, 20; ae_movq56	aeq0, aeq1 }
    4b0b:	196c62        	s32i	a6, a12, 100
    4b0e:	2d6c62        	s32i	a6, a12, 180
    4b11:	02e497        	bbsi	a4, 9, 4b17 <Voice_SWB_TX_Common_Prcs+0xf3>
    4b14:	003246        	j	4be1 <Voice_SWB_TX_Common_Prcs+0x1bd>
    4b17:	0c6916        	beqz	a9, 4be1 <Voice_SWB_TX_Common_Prcs+0x1bd>
    4b1a:	302142        	l32i	a4, a1, 192
    4b1d:	02ad           	mov.n	a10, a2
    4b1f:	f0a0b2        	movi	a11, 240
    4b22:	049d           	mov.n	a9, a4
    4b24:	93a480        	movnez	a10, a4, a8
    4b27:	939280        	movnez	a9, a2, a8
    4b2a:	fccaa2        	addi	a10, a10, -4
    4b2d:	440904        	ae_lp16x2f.i	aep0, a9, 0
    4b30:	098b76        	loop	a11, 4b3d <Voice_SWB_TX_Common_Prcs+0x119>
    4b33:	e2006d9a1f 	{ ae_lp16x2f.iu	aep1, a10, 4; ae_mulaafp24s.hh.ll	aeq1, aep0, aep0 }
    4b38:	e2242d891f 	{ ae_lp16x2f.iu	aep0, a9, 4; ae_mulaafp24s.hh.ll	aeq0, aep1, aep1 }

00004b3d <Voice_SWB_TX_Common_Prcs+0x119>:
    4b3d:	4b4c           	movi.n	a11, 68
    4b3f:	355274        	ae_sraiq56	aeq1, aeq1, 9
    4b42:	44dbb2        	addmi	a11, a11, 0x4400
    4b45:	fd2c588bbf 	{ ae_cvtp24a16x2.ll	aep0, a11, a11; ae_roundsq32asym	aeq1, aeq1 }
    4b4a:	eddd91        	l32r	a9, 2c0 (103cc <_end+0xe2c>)
    4b4d:	d4e37b021f 	{ ae_sraiq56	aeq0, aeq0, 9; ae_mulfq32sp16s.l	aeq1, aeq1, aep0 }
    4b52:	fc2445fedf 	{ movi	a13, 0x5fe; ae_roundsq32asym	aeq0, aeq0 }
    4b57:	d4e23a905f 	{ ae_slliq56	aeq1, aeq1, 1; ae_mulfq32sp16s.l	aeq0, aeq0, aep0 }
    4b5c:	edd8c1        	l32r	a12, 2bc (7fbe0042 <_end+0x7fbd0aa2>)
    4b5f:	fd2c581ccf 	{ ae_cvtp24a16x2.lh	aep1, a12, a12; ae_roundsq32asym	aeq1, aeq1 }
    4b64:	60b9e4        	ae_lq32f.xu	aeq2, a9, a14
    4b67:	edd7a1        	l32r	a10, 2c4 (103d0 <_end+0xe30>)
    4b6a:	0e24fa801f 	{ ae_slliq56	aeq0, aeq0, 1; ae_mulzaafq32sp16s.lh	aeq1, aeq2, aep1, aeq1, aep1 }
    4b6f:	06c934        	ae_roundsq32asym	aeq3, aeq0
    4b72:	fc2c7c4aef 	{ ae_lq32f.xu	aeq2, a10, a14; ae_roundsq32asym	aeq0, aeq1 }
    4b77:	0f26f9890f 	{ ae_sq32f.i	aeq0, a9, 0; ae_mulzaafq32sp16s.lh	aeq3, aeq2, aep1, aeq3, aep1 }
    4b7c:	09f8           	l32i.n	a15, a9, 0
    4b7e:	fd3c40003f 	{ movi	a3, 0; ae_roundsq32asym	aeq1, aeq3 }
    4b83:	f0ddd0        	subx8	a13, a13, a13
    4b86:	621a04        	ae_sq32f.i	aeq1, a10, 0
    4b89:	542fd7        	blt	a15, a13, 4be1 <Voice_SWB_TX_Common_Prcs+0x1bd>
    4b8c:	edcfb1        	l32r	a11, 2c8 (103d6 <_end+0xe36>)
    4b8f:	1c0c           	movi.n	a12, 1
    4b91:	beba           	add.n	a11, a14, a11
    4b93:	4bbd           	ae_l16ui.n	a11, a11, 0
    4b95:	300bb4        	ae_cvtp24a16x2.ll	aep0, a11, a11
    4b98:	d4e34000df 	{ movi	a13, 0; ae_mulfq32sp16s.l	aeq1, aeq1, aep0 }
    4b9d:	70de42        	addmi	a4, a14, 0x7000
    4ba0:	355154        	ae_slliq56	aeq1, aeq1, 5
    4ba3:	d64800105f 	{ movi	a5, 16; ae_ltq56s	b0, aeq0, aeq1 }
    4ba8:	2b0c           	movi.n	a11, 2
    4baa:	d33c00        	movt	a3, a12, b0
    4bad:	03bc           	beqz.n	a3, 4be1 <Voice_SWB_TX_Common_Prcs+0x1bd>
    4baf:	d604f2        	l8ui	a15, a4, 214
    4bb2:	0047d2        	s8i	a13, a7, 0
    4bb5:	2cde82        	addmi	a8, a14, 0x2c00
    4bb8:	207f50        	or	a7, a15, a5
    4bbb:	2258b2        	s16i	a11, a8, 68
    4bbe:	09d9           	s32i.n	a13, a9, 0
    4bc0:	0ad9           	s32i.n	a13, a10, 0
    4bc2:	d64472        	s8i	a7, a4, 214
    4bc5:	000786        	j	4be7 <Voice_SWB_TX_Common_Prcs+0x1c3>

00004bc8 <Voice_SWB_TX_Common_Prcs+0x1a4>:
    4bc8:	14cc           	bnez.n	a4, 4bcd <Voice_SWB_TX_Common_Prcs+0x1a9>
    4bca:	063046        	j	648f <Voice_SWB_TX_Common_Prcs+0x1a6b>
    4bcd:	021826        	beqi	a8, 1, 4bd3 <Voice_SWB_TX_Common_Prcs+0x1af>
    4bd0:	058906        	j	61f8 <Voice_SWB_TX_Common_Prcs+0x17d4>
    4bd3:	edd821        	l32r	a2, 334 (103d4 <_end+0xe34>)
    4bd6:	043d           	mov.n	a3, a4
    4bd8:	2e2a           	add.n	a2, a14, a2
    4bda:	424d           	ae_l16ui.n	a4, a2, 0
    4bdc:	032d           	mov.n	a2, a3
    4bde:	0586c6        	j	61fd <Voice_SWB_TX_Common_Prcs+0x17d9>

00004be1 <Voice_SWB_TX_Common_Prcs+0x1bd>:
    4be1:	302142        	l32i	a4, a1, 192
    4be4:	832480        	moveqz	a2, a4, a8
    4be7:	ed6751        	l32r	a5, 184 (d6e8 <xt_memset>)
    4bea:	40c1a2        	addi	a10, a1, 64
    4bed:	0b0c           	movi.n	a11, 0
    4bef:	ec0c           	movi.n	a12, 14
    4bf1:	0e4d           	mov.n	a4, a14
    4bf3:	0005e0        	callx8	a5
    4bf6:	20c1a2        	addi	a10, a1, 32
    4bf9:	0b0c           	movi.n	a11, 0
    4bfb:	ec0c           	movi.n	a12, 14
    4bfd:	0005e0        	callx8	a5
    4c00:	ed3331        	l32r	a3, cc (f59c <p_ecnr_mem>)
    4c03:	edde71        	l32r	a7, 37c (10a2c <_end+0x148c>)
    4c06:	65d4e2        	addmi	a14, a4, 0x6500
    4c09:	0388           	l32i.n	a8, a3, 0
    4c0b:	765e62        	s16i	a6, a14, 236
    4c0e:	6ca0f2        	movi	a15, 108
    4c11:	787a           	add.n	a7, a8, a7
    4c13:	277d           	ae_l16si.n	a7, a7, 0
    4c15:	262132        	l32i	a3, a1, 152
    4c18:	28df62        	addmi	a6, a15, 0x2800
    4c1b:	686a           	add.n	a6, a8, a6
    4c1d:	ed4e51        	l32r	a5, 158 (d6fc <xt_memcpy>)
    4c20:	03ad           	mov.n	a10, a3
    4c22:	06bd           	mov.n	a11, a6
    4c24:	07cd           	mov.n	a12, a7
    4c26:	236142        	s32i	a4, a1, 140
    4c29:	6261e2        	s32i	a14, a1, 0x188
    4c2c:	0005e0        	callx8	a5
    4c2f:	90a730        	addx2	a10, a7, a3
    4c32:	242132        	l32i	a3, a1, 144
    4c35:	e0a182        	movi	a8, 0x1e0
    4c38:	c0c870        	sub	a12, a8, a7
    4c3b:	03bd           	mov.n	a11, a3
    4c3d:	1147f0        	slli	a4, a7, 1
    4c40:	0005e0        	callx8	a5
    4c43:	c04340        	sub	a4, a3, a4
    4c46:	c0a3f2        	movi	a15, 0x3c0
    4c49:	b4fa           	add.n	a11, a4, a15
    4c4b:	06ad           	mov.n	a10, a6
    4c4d:	07cd           	mov.n	a12, a7
    4c4f:	0005e0        	callx8	a5
    4c52:	222162        	l32i	a6, a1, 136
    4c55:	ed9e51        	l32r	a5, 2d0 (c348 <real_split+0x128>)
    4c58:	ed1d31        	l32r	a3, cc (f59c <p_ecnr_mem>)
    4c5b:	0fe616        	beqz	a6, 4d5d <Voice_SWB_TX_Common_Prcs+0x339>
    4c5e:	f0a042        	movi	a4, 240
    4c61:	441604        	ae_lp16x2f.i	aep1, a6, 0
    4c64:	03a8           	l32i.n	a10, a3, 0
    4c66:	805a50        	add	a5, a10, a5
    4c69:	255d           	ae_l16si.n	a5, a5, 0
    4c6b:	398554        	ae_movpa24x2	aep0, a5, a5
    4c6e:	205660        	or	a5, a6, a6
    4c71:	188476        	loop	a4, 4c8d <Voice_SWB_TX_Common_Prcs+0x269>
    4c74:	011054        	ae_mulfp24s.hl	aeq0, aep1, aep0
    4c77:	011874        	ae_mulfp24s.ll	aeq1, aep1, aep0
    4c7a:	350214        	ae_slliq56	aeq0, aeq0, 8
    4c7d:	fb63fa924f 	{ ae_slliq56	aeq1, aeq1, 8; ae_roundsp16q48asym	aep7, aeq0 }
    4c82:	f96bb2750f 	{ ae_sp16f.l.i	aep7, a5, 0; ae_roundsp16q48asym	aep2, aeq1 }
    4c87:	422514        	ae_sp16f.l.i	aep2, a5, 2
    4c8a:	449514        	ae_lp16x2f.iu	aep1, a5, 4

00004c8d <Voice_SWB_TX_Common_Prcs+0x269>:
    4c8d:	222152        	l32i	a5, a1, 136
    4c90:	f0a042        	movi	a4, 240
    4c93:	f8ca62        	addi	a6, a10, -8
    4c96:	fcc552        	addi	a5, a5, -4
    4c99:	058476        	loop	a4, 4ca2 <Voice_SWB_TX_Common_Prcs+0x27e>
    4c9c:	448514        	ae_lp16x2f.iu	aep0, a5, 4
    4c9f:	5e8614        	ae_sp24x2f.iu	aep0, a6, 8
    4ca2:	41a152        	movi	a5, 0x141
    4ca5:	1155b0        	slli	a5, a5, 5
    4ca8:	5fa142        	movi	a4, 0x15f
    4cab:	ca5a           	add.n	a12, a10, a5
    4cad:	222152        	l32i	a5, a1, 136
    4cb0:	1144a0        	slli	a4, a4, 6
    4cb3:	ba4a           	add.n	a11, a10, a4
    4cb5:	ed7841        	l32r	a4, 298 (321c <biquad_2cascade_24bitTx>)
    4cb8:	e0a1e2        	movi	a14, 0x1e0
    4cbb:	05dd           	mov.n	a13, a5
    4cbd:	0004e0        	callx8	a4
    4cc0:	ed0331        	l32r	a3, cc (f59c <p_ecnr_mem>)
    4cc3:	43a162        	movi	a6, 0x143
    4cc6:	c71c           	movi.n	a7, 28
    4cc8:	0348           	l32i.n	a4, a3, 0
    4cca:	1166b0        	slli	a6, a6, 5
    4ccd:	28d772        	addmi	a7, a7, 0x2800
    4cd0:	b47a           	add.n	a11, a4, a7
    4cd2:	c46a           	add.n	a12, a4, a6
    4cd4:	ed8341        	l32r	a4, 2e0 (3138 <emph_filter_N>)
    4cd7:	e0a1d2        	movi	a13, 0x1e0
    4cda:	05ad           	mov.n	a10, a5
    4cdc:	0004e0        	callx8	a4
    4cdf:	0348           	l32i.n	a4, a3, 0
    4ce1:	eda8d1        	l32r	a13, 384 (10a18 <_end+0x1478>)
    4ce4:	eda9f1        	l32r	a15, 388 (10a1c <_end+0x147c>)
    4ce7:	eda681        	l32r	a8, 380 (107d8 <_end+0x1238>)
    4cea:	64da           	add.n	a6, a4, a13
    4cec:	74fa           	add.n	a7, a4, a15
    4cee:	d48a           	add.n	a13, a4, a8
    4cf0:	06a8           	l32i.n	a10, a6, 0
    4cf2:	07b8           	l32i.n	a11, a7, 0
    4cf4:	ed7c41        	l32r	a4, 2e4 (6ccc <tx_downsample_by2_N>)
    4cf7:	34c1e2        	addi	a14, a1, 52
    4cfa:	f0a0f2        	movi	a15, 240
    4cfd:	05cd           	mov.n	a12, a5
    4cff:	0004e0        	callx8	a4
    4d02:	282142        	l32i	a4, a1, 160
    4d05:	ecf131        	l32r	a3, cc (f59c <p_ecnr_mem>)
    4d08:	ed9ff1        	l32r	a15, 384 (10a18 <_end+0x1478>)
    4d0b:	4e64c7        	bbci	a4, 12, 4d5d <Voice_SWB_TX_Common_Prcs+0x339>
    4d0e:	c0a342        	movi	a4, 0x3c0
    4d11:	03a8           	l32i.n	a10, a3, 0
    4d13:	78a082        	movi	a8, 120
    4d16:	5afa           	add.n	a5, a10, a15
    4d18:	0578           	l32i.n	a7, a5, 0
    4d1a:	5a4a           	add.n	a5, a10, a4
    4d1c:	f8ca62        	addi	a6, a10, -8
    4d1f:	fcc772        	addi	a7, a7, -4
    4d22:	058876        	loop	a8, 4d2b <Voice_SWB_TX_Common_Prcs+0x307>
    4d25:	448714        	ae_lp16x2f.iu	aep0, a7, 4
    4d28:	5e8614        	ae_sp24x2f.iu	aep0, a6, 8
    4d2b:	d8a042        	movi	a4, 216
    4d2e:	57d442        	addmi	a4, a4, 0x5700
    4d31:	ba4a           	add.n	a11, a10, a4
    4d33:	ed68c1        	l32r	a12, 2d4 (e780 <nc_vad_lpf_coef>)
    4d36:	ed5841        	l32r	a4, 298 (321c <biquad_2cascade_24bitTx>)
    4d39:	f0a0e2        	movi	a14, 240
    4d3c:	05dd           	mov.n	a13, a5
    4d3e:	0004e0        	callx8	a4
    4d41:	ece231        	l32r	a3, cc (f59c <p_ecnr_mem>)
    4d44:	ed6371        	l32r	a7, 2d0 (c348 <real_split+0x128>)
    4d47:	ed6461        	l32r	a6, 2d8 (10588 <_end+0xfe8>)
    4d4a:	0348           	l32i.n	a4, a3, 0
    4d4c:	05bd           	mov.n	a11, a5
    4d4e:	747a           	add.n	a7, a4, a7
    4d50:	a46a           	add.n	a10, a4, a6
    4d52:	47cd           	ae_l16ui.n	a12, a7, 0
    4d54:	ed6241        	l32r	a4, 2dc (6690 <NC_VAD_V3>)
    4d57:	0004e0        	callx8	a4
    4d5a:	2461a2        	s32i	a10, a1, 144

00004d5d <Voice_SWB_TX_Common_Prcs+0x339>:
    4d5d:	ecdb31        	l32r	a3, cc (f59c <p_ecnr_mem>)
    4d60:	0ba552        	movi	a5, 0x50b
    4d63:	1155d0        	slli	a5, a5, 3
    4d66:	0348           	l32i.n	a4, a3, 0
    4d68:	c61c           	movi.n	a6, 28
    4d6a:	28d662        	addmi	a6, a6, 0x2800
    4d6d:	c45a           	add.n	a12, a4, a5
    4d6f:	262152        	l32i	a5, a1, 152
    4d72:	b46a           	add.n	a11, a4, a6
    4d74:	ed5b41        	l32r	a4, 2e0 (3138 <emph_filter_N>)
    4d77:	e0a1d2        	movi	a13, 0x1e0
    4d7a:	05ad           	mov.n	a10, a5
    4d7c:	0004e0        	callx8	a4
    4d7f:	0348           	l32i.n	a4, a3, 0
    4d81:	ed8381        	l32r	a8, 390 (10a14 <_end+0x1474>)
    4d84:	ed8271        	l32r	a7, 38c (10a10 <_end+0x1470>)
    4d87:	ed8391        	l32r	a9, 394 (107b8 <_end+0x1218>)
    4d8a:	848a           	add.n	a8, a4, a8
    4d8c:	647a           	add.n	a6, a4, a7
    4d8e:	d49a           	add.n	a13, a4, a9
    4d90:	06a8           	l32i.n	a10, a6, 0
    4d92:	08b8           	l32i.n	a11, a8, 0
    4d94:	ed5441        	l32r	a4, 2e4 (6ccc <tx_downsample_by2_N>)
    4d97:	28c1e2        	addi	a14, a1, 40
    4d9a:	f0a0f2        	movi	a15, 240
    4d9d:	05cd           	mov.n	a12, a5
    4d9f:	0004e0        	callx8	a4
    4da2:	0348           	l32i.n	a4, a3, 0
    4da4:	ed4261        	l32r	a6, 2ac (c32c <real_split+0x10c>)
    4da7:	89a5f2        	movi	a15, 0x589
    4daa:	426122        	s32i	a2, a1, 0x108
    4dad:	a46a           	add.n	a10, a4, a6
    4daf:	4a8d           	ae_l16ui.n	a8, a10, 0
    4db1:	116fd0        	slli	a6, a15, 3
    4db4:	247a           	add.n	a2, a4, a7
    4db6:	060816        	beqz	a8, 4e1a <Voice_SWB_TX_Common_Prcs+0x3f6>
    4db9:	02b8           	l32i.n	a11, a2, 0
    4dbb:	ed3e41        	l32r	a4, 2b4 (6574 <TxRef_VAD_V2>)
    4dbe:	0004e0        	callx8	a4
    4dc1:	ecc231        	l32r	a3, cc (f59c <p_ecnr_mem>)
    4dc4:	2321c2        	l32i	a12, a1, 140
    4dc7:	2421d2        	l32i	a13, a1, 144
    4dca:	0348           	l32i.n	a4, a3, 0
    4dcc:	ed3731        	l32r	a3, 2a8 (968c <two_mic_WB_NR_NSN_proc+0xb1c>)
    4dcf:	78a052        	movi	a5, 120
    4dd2:	2cd482        	addmi	a8, a4, 0x2c00
    4dd5:	241882        	l16ui	a8, a8, 72
    4dd8:	c8a0e2        	movi	a14, 200
    4ddb:	8f1c           	movi.n	a15, 24
    4ddd:	646a           	add.n	a6, a4, a6
    4ddf:	889d           	ae_sext16	a9, a8
    4de1:	6ad552        	addmi	a5, a5, 0x6a00
    4de4:	6adee2        	addmi	a14, a14, 0x6a00
    4de7:	6bdff2        	addmi	a15, a15, 0x6b00
    4dea:	086a16        	beqz	a10, 4e74 <Voice_SWB_TX_Common_Prcs+0x450>
    4ded:	88ad           	ae_sext16	a10, a8
    4def:	1b6c           	movi.n	a11, -31
    4df1:	082ab7        	blt	a10, a11, 4dfd <Voice_SWB_TX_Common_Prcs+0x3d9>
    4df4:	890b           	addi.n	a8, a9, -1
    4df6:	fb7c           	movi.n	a11, -1
    4df8:	4388b0        	min	a8, a8, a11
    4dfb:	668d           	ae_s16i.n	a8, a6, 0
    4dfd:	6adc62        	addmi	a6, a12, 0x6a00
    4e00:	549692        	l16si	a9, a6, 168
    4e03:	ed6221        	l32r	a2, 38c (10a10 <_end+0x1470>)
    4e06:	43a6b2        	movi	a11, 0x643
    4e09:	ffa1a2        	movi	a10, 0x1ff
    4e0c:	11bbc0        	slli	a11, a11, 4
    4e0f:	782a97        	blt	a10, a9, 4e8b <Voice_SWB_TX_Common_Prcs+0x467>
    4e12:	991b           	addi.n	a9, a9, 1
    4e14:	545692        	s16i	a9, a6, 168
    4e17:	001c06        	j	4e8b <Voice_SWB_TX_Common_Prcs+0x467>

00004e1a <Voice_SWB_TX_Common_Prcs+0x3f6>:
    4e1a:	c82c           	movi.n	a8, 44
    4e1c:	2cd882        	addmi	a8, a8, 0x2c00
    4e1f:	690c           	movi.n	a9, 6
    4e21:	848a           	add.n	a8, a4, a8
    4e23:	058976        	loop	a9, 4e2c <Voice_SWB_TX_Common_Prcs+0x408>
    4e26:	389d           	ae_l16si.n	a9, a8, 2
    4e28:	689d           	ae_s16i.n	a9, a8, 0
    4e2a:	882b           	addi.n	a8, a8, 2

00004e2c <Voice_SWB_TX_Common_Prcs+0x408>:
    4e2c:	2cd492        	addmi	a9, a4, 0x2c00
    4e2f:	259992        	l16si	a9, a9, 74
    4e32:	ed1fa1        	l32r	a10, 2b0 (c2b4 <real_split+0x94>)
    4e35:	2cd4b2        	addmi	a11, a4, 0x2c00
    4e38:	119990        	slli	a9, a9, 7
    4e3b:	689d           	ae_s16i.n	a9, a8, 0
    4e3d:	a4aa           	add.n	a10, a4, a10
    4e3f:	4a8d           	ae_l16ui.n	a8, a10, 0
    4e41:	249b92        	l16si	a9, a11, 72
    4e44:	2321c2        	l32i	a12, a1, 140
    4e47:	908840        	addx2	a8, a8, a4
    4e4a:	2cd882        	addmi	a8, a8, 0x2c00
    4e4d:	169822        	l16si	a2, a8, 44
    4e50:	ed1631        	l32r	a3, 2a8 (968c <two_mic_WB_NR_NSN_proc+0xb1c>)
    4e53:	2421d2        	l32i	a13, a1, 144
    4e56:	78a052        	movi	a5, 120
    4e59:	c8a0e2        	movi	a14, 200
    4e5c:	8f1c           	movi.n	a15, 24
    4e5e:	ffa372        	movi	a7, 0x3ff
    4e61:	646a           	add.n	a6, a4, a6
    4e63:	998d           	ae_zext16	a8, a9
    4e65:	6ad552        	addmi	a5, a5, 0x6a00
    4e68:	6adee2        	addmi	a14, a14, 0x6a00
    4e6b:	6bdff2        	addmi	a15, a15, 0x6b00
    4e6e:	02a727        	bge	a7, a2, 4e74 <Voice_SWB_TX_Common_Prcs+0x450>
    4e71:	ffde06        	j	4ded <Voice_SWB_TX_Common_Prcs+0x3c9>

00004e74 <Voice_SWB_TX_Common_Prcs+0x450>:
    4e74:	ed4621        	l32r	a2, 38c (10a10 <_end+0x1470>)
    4e77:	43a6b2        	movi	a11, 0x643
    4e7a:	88ad           	ae_sext16	a10, a8
    4e7c:	11bbc0        	slli	a11, a11, 4
    4e7f:	08cae6        	bgei	a10, 32, 4e8b <Voice_SWB_TX_Common_Prcs+0x467>
    4e82:	891b           	addi.n	a8, a9, 1
    4e84:	1a0c           	movi.n	a10, 1
    4e86:	5388a0        	max	a8, a8, a10
    4e89:	668d           	ae_s16i.n	a8, a6, 0
    4e8b:	6edc62        	addmi	a6, a12, 0x6e00
    4e8e:	095682        	s16i	a8, a6, 18
    4e91:	888d           	ae_sext16	a8, a8
    4e93:	090c           	movi.n	a9, 0
    4e95:	ea7c           	movi.n	a10, -2
    4e97:	270c           	movi.n	a7, 2
    4e99:	729980        	salt	a9, a9, a8
    4e9c:	83a790        	moveqz	a10, a7, a9
    4e9f:	93a7d0        	movnez	a10, a7, a13
    4ea2:	ed3891        	l32r	a9, 384 (10a18 <_end+0x1478>)
    4ea5:	356182        	s32i	a8, a1, 212
    4ea8:	ed3a81        	l32r	a8, 390 (10a14 <_end+0x1474>)
    4eab:	7761a2        	s32i	a10, a1, 0x1dc
    4eae:	ed36a1        	l32r	a10, 388 (10a1c <_end+0x147c>)
    4eb1:	742a           	add.n	a7, a4, a2
    4eb3:	dcba           	add.n	a13, a12, a11
    4eb5:	2cea           	add.n	a2, a12, a14
    4eb7:	848a           	add.n	a8, a4, a8
    4eb9:	949a           	add.n	a9, a4, a9
    4ebb:	44aa           	add.n	a4, a4, a10
    4ebd:	68a0a2        	movi	a10, 104
    4ec0:	5261d2        	s32i	a13, a1, 0x148
    4ec3:	5c6122        	s32i	a2, a1, 0x170
    4ec6:	6bda22        	addmi	a2, a10, 0x6b00
    4ec9:	b8a0d2        	movi	a13, 184
    4ecc:	6cfa           	add.n	a6, a12, a15
    4ece:	bc2a           	add.n	a11, a12, a2
    4ed0:	6bdd22        	addmi	a2, a13, 0x6b00
    4ed3:	8f0c           	movi.n	a15, 8
    4ed5:	ec2a           	add.n	a14, a12, a2
    4ed7:	6cdf22        	addmi	a2, a15, 0x6c00
    4eda:	5d6162        	s32i	a6, a1, 0x174
    4edd:	2c2a           	add.n	a2, a12, a2
    4edf:	4fa662        	movi	a6, 0x64f
    4ee2:	5f61e2        	s32i	a14, a1, 0x17c
    4ee5:	606122        	s32i	a2, a1, 0x180
    4ee8:	1126c0        	slli	a2, a6, 4
    4eeb:	2821e2        	l32i	a14, a1, 160
    4eee:	ac2a           	add.n	a10, a12, a2
    4ef0:	6761a2        	s32i	a10, a1, 0x19c
    4ef3:	0448           	l32i.n	a4, a4, 0
    4ef5:	820c           	movi.n	a2, 8
    4ef7:	a8a0a2        	movi	a10, 168
    4efa:	5e61b2        	s32i	a11, a1, 0x178
    4efd:	bc3a           	add.n	a11, a12, a3
    4eff:	103e20        	and	a3, a14, a2
    4f02:	496142        	s32i	a4, a1, 0x124
    4f05:	6cda42        	addmi	a4, a10, 0x6c00
    4f08:	896132        	s32i	a3, a1, 0x224
    4f0b:	4c4a           	add.n	a4, a12, a4
    4f0d:	834c           	movi.n	a3, 72
    4f0f:	4e61b2        	s32i	a11, a1, 0x138
    4f12:	0d4c           	movi.n	a13, 64
    4f14:	0728           	l32i.n	a2, a7, 0
    4f16:	08b8           	l32i.n	a11, a8, 0
    4f18:	0978           	l32i.n	a7, a9, 0
    4f1a:	5a6142        	s32i	a4, a1, 0x168
    4f1d:	6dd342        	addmi	a4, a3, 0x6d00
    4f20:	f8a082        	movi	a8, 248
    4f23:	10fed0        	and	a15, a14, a13
    4f26:	4a6172        	s32i	a7, a1, 0x128
    4f29:	6cd872        	addmi	a7, a8, 0x6c00
    4f2c:	4c4a           	add.n	a4, a12, a4
    4f2e:	8d5c           	movi.n	a13, 88
    4f30:	180c           	movi.n	a8, 1
    4f32:	9c7a           	add.n	a9, a12, a7
    4f34:	6cdd72        	addmi	a7, a13, 0x6c00
    4f37:	536142        	s32i	a4, a1, 0x14c
    4f3a:	114840        	slli	a4, a8, 12
    4f3d:	98a062        	movi	a6, 152
    4f40:	104e40        	and	a4, a14, a4
    4f43:	6861f2        	s32i	a15, a1, 0x1a0
    4f46:	fc7a           	add.n	a15, a12, a7
    4f48:	6dd672        	addmi	a7, a6, 0x6d00
    4f4b:	67a6d2        	movi	a13, 0x667
    4f4e:	5b6192        	s32i	a9, a1, 0x16c
    4f51:	7c7a           	add.n	a7, a12, a7
    4f53:	866142        	s32i	a4, a1, 0x218
    4f56:	114dc0        	slli	a4, a13, 4
    4f59:	31a392        	movi	a9, 0x331
    4f5c:	546172        	s32i	a7, a1, 0x150
    4f5f:	1179b0        	slli	a7, a9, 5
    4f62:	4c4a           	add.n	a4, a12, a4
    4f64:	9ba1e2        	movi	a14, 0x19b
    4f67:	71a632        	movi	a3, 0x671
    4f6a:	ac7a           	add.n	a10, a12, a7
    4f6c:	117ea0        	slli	a7, a14, 6
    4f6f:	836142        	s32i	a4, a1, 0x20c
    4f72:	1143c0        	slli	a4, a3, 4
    4f75:	3ba362        	movi	a6, 0x33b
    4f78:	5961f2        	s32i	a15, a1, 0x164
    4f7b:	fc7a           	add.n	a15, a12, a7
    4f7d:	1176b0        	slli	a7, a6, 5
    4f80:	4c4a           	add.n	a4, a12, a4
    4f82:	a8a082        	movi	a8, 168
    4f85:	816142        	s32i	a4, a1, 0x204
    4f88:	64d842        	addmi	a4, a8, 0x6400
    4f8b:	7c7a           	add.n	a7, a12, a7
    4f8d:	93a192        	movi	a9, 0x193
    4f90:	806172        	s32i	a7, a1, 0x200
    4f93:	1179a0        	slli	a7, a9, 6
    4f96:	4c4a           	add.n	a4, a12, a4
    4f98:	d8a0d2        	movi	a13, 216
    4f9b:	7ba6e2        	movi	a14, 0x67b
    4f9e:	8461a2        	s32i	a10, a1, 0x210
    4fa1:	ac7a           	add.n	a10, a12, a7
    4fa3:	766142        	s32i	a4, a1, 0x1d8
    4fa6:	64dd42        	addmi	a4, a13, 0x6400
    4fa9:	117ec0        	slli	a7, a14, 4
    4fac:	8fa662        	movi	a6, 0x68f
    4faf:	8261f2        	s32i	a15, a1, 0x208
    4fb2:	fc7a           	add.n	a15, a12, a7
    4fb4:	1176c0        	slli	a7, a6, 4
    4fb7:	4c4a           	add.n	a4, a12, a4
    4fb9:	48c182        	addi	a8, a1, 72
    4fbc:	6cdc62        	addmi	a6, a12, 0x6c00
    4fbf:	85a632        	movi	a3, 0x685
    4fc2:	7561a2        	s32i	a10, a1, 0x1d4
    4fc5:	746142        	s32i	a4, a1, 0x1d0
    4fc8:	1143c0        	slli	a4, a3, 4
    4fcb:	3961f2        	s32i	a15, a1, 228
    4fce:	7c7a           	add.n	a7, a12, a7
    4fd0:	8a6182        	s32i	a8, a1, 0x228
    4fd3:	6bdc92        	addmi	a9, a12, 0x6b00
    4fd6:	6bdca2        	addmi	a10, a12, 0x6b00
    4fd9:	6bdcd2        	addmi	a13, a12, 0x6b00
    4fdc:	54c1e2        	addi	a14, a1, 84
    4fdf:	6ddcf2        	addmi	a15, a12, 0x6d00
    4fe2:	346162        	s32i	a6, a1, 208
    4fe5:	6ddc82        	addmi	a8, a12, 0x6d00
    4fe8:	44c162        	addi	a6, a1, 68
    4feb:	4c4a           	add.n	a4, a12, a4
    4fed:	576172        	s32i	a7, a1, 0x15c
    4ff0:	476192        	s32i	a9, a1, 0x11c
    4ff3:	4661a2        	s32i	a10, a1, 0x118
    4ff6:	3161d2        	s32i	a13, a1, 196
    4ff9:	8561e2        	s32i	a14, a1, 0x214
    4ffc:	4461f2        	s32i	a15, a1, 0x110
    4fff:	6ddc72        	addmi	a7, a12, 0x6d00
    5002:	406182        	s32i	a8, a1, 0x100
    5005:	6cdc92        	addmi	a9, a12, 0x6c00
    5008:	6cdca2        	addmi	a10, a12, 0x6c00
    500b:	70dcd2        	addmi	a13, a12, 0x7000
    500e:	4cc1e2        	addi	a14, a1, 76
    5011:	2cc1f2        	addi	a15, a1, 44
    5014:	7e6162        	s32i	a6, a1, 0x1f8
    5017:	66dc82        	addmi	a8, a12, 0x6600
    501a:	78c162        	addi	a6, a1, 120
    501d:	586142        	s32i	a4, a1, 0x160
    5020:	416172        	s32i	a7, a1, 0x104
    5023:	616192        	s32i	a9, a1, 0x184
    5026:	2f61a2        	s32i	a10, a1, 188
    5029:	3f61d2        	s32i	a13, a1, 252
    502c:	3d61e2        	s32i	a14, a1, 244
    502f:	3c61f2        	s32i	a15, a1, 240
    5032:	66dc72        	addmi	a7, a12, 0x6600
    5035:	7c6182        	s32i	a8, a1, 0x1f0
    5038:	67dc92        	addmi	a9, a12, 0x6700
    503b:	67dca2        	addmi	a10, a12, 0x6700
    503e:	67dcd2        	addmi	a13, a12, 0x6700
    5041:	6adce2        	addmi	a14, a12, 0x6a00
    5044:	68c1f2        	addi	a15, a1, 104
    5047:	70c142        	addi	a4, a1, 112
    504a:	706162        	s32i	a6, a1, 0x1c0
    504d:	64dc82        	addmi	a8, a12, 0x6400
    5050:	66dc62        	addmi	a6, a12, 0x6600
    5053:	7d6172        	s32i	a7, a1, 0x1f4
    5056:	7b6192        	s32i	a9, a1, 0x1ec
    5059:	2e61a2        	s32i	a10, a1, 184
    505c:	3b61d2        	s32i	a13, a1, 236
    505f:	7361e2        	s32i	a14, a1, 0x1cc
    5062:	7261f2        	s32i	a15, a1, 0x1c8
    5065:	716142        	s32i	a4, a1, 0x1c4
    5068:	64dc72        	addmi	a7, a12, 0x6400
    506b:	516182        	s32i	a8, a1, 0x144
    506e:	65dc92        	addmi	a9, a12, 0x6500
    5071:	64dca2        	addmi	a10, a12, 0x6400
    5074:	65dcd2        	addmi	a13, a12, 0x6500
    5077:	65dce2        	addmi	a14, a12, 0x6500
    507a:	65dcf2        	addmi	a15, a12, 0x6500
    507d:	66dc42        	addmi	a4, a12, 0x6600
    5080:	6d6162        	s32i	a6, a1, 0x1b4
    5083:	68dc82        	addmi	a8, a12, 0x6800
    5086:	58c162        	addi	a6, a1, 88
    5089:	6cdc32        	addmi	a3, a12, 0x6c00
    508c:	6f6172        	s32i	a7, a1, 0x1bc
    508f:	4d6192        	s32i	a9, a1, 0x134
    5092:	6e61a2        	s32i	a10, a1, 0x1b8
    5095:	3261d2        	s32i	a13, a1, 200
    5098:	5061e2        	s32i	a14, a1, 0x140
    509b:	3861f2        	s32i	a15, a1, 224
    509e:	4f6142        	s32i	a4, a1, 0x13c
    50a1:	66dc72        	addmi	a7, a12, 0x6600
    50a4:	3a6182        	s32i	a8, a1, 232
    50a7:	68dc92        	addmi	a9, a12, 0x6800
    50aa:	69dcd2        	addmi	a13, a12, 0x6900
    50ad:	64dce2        	addmi	a14, a12, 0x6400
    50b0:	50c1f2        	addi	a15, a1, 80
    50b3:	30c142        	addi	a4, a1, 48
    50b6:	886162        	s32i	a6, a1, 0x220
    50b9:	883c           	movi.n	a8, 56
    50bb:	422162        	l32i	a6, a1, 0x108
    50be:	5c5a           	add.n	a5, a12, a5
    50c0:	436132        	s32i	a3, a1, 0x10c
    50c3:	24c132        	addi	a3, a1, 36
    50c6:	6c6172        	s32i	a7, a1, 0x1b0
    50c9:	336192        	s32i	a9, a1, 204
    50cc:	5661a2        	s32i	a10, a1, 0x158
    50cf:	5561d2        	s32i	a13, a1, 0x154
    50d2:	6b61e2        	s32i	a14, a1, 0x1ac
    50d5:	6a61f2        	s32i	a15, a1, 0x1a8
    50d8:	696142        	s32i	a4, a1, 0x1a4
    50db:	38c172        	addi	a7, a1, 56
    50de:	57d842        	addmi	a4, a8, 0x5700
    50e1:	090c           	movi.n	a9, 0
    50e3:	0a0c           	movi.n	a10, 0
    50e5:	0c0c           	movi.n	a12, 0
    50e7:	0d0c           	movi.n	a13, 0
    50e9:	0e0c           	movi.n	a14, 0
    50eb:	0f0c           	movi.n	a15, 0
    50ed:	7f6132        	s32i	a3, a1, 0x1fc
    50f0:	630c           	movi.n	a3, 6
    50f2:	876172        	s32i	a7, a1, 0x21c
    50f5:	376142        	s32i	a4, a1, 220
    50f8:	366192        	s32i	a9, a1, 216
    50fb:	2961a2        	s32i	a10, a1, 164
    50fe:	2a61c2        	s32i	a12, a1, 168
    5101:	2b61d2        	s32i	a13, a1, 172
    5104:	2c61e2        	s32i	a14, a1, 176
    5107:	2d61f2        	s32i	a15, a1, 180
    510a:	486152        	s32i	a5, a1, 0x120
    510d:	8b6132        	s32i	a3, a1, 0x22c
    5110:	ebef31        	l32r	a3, cc (f59c <p_ecnr_mem>)
    5113:	eca241        	l32r	a4, 39c (109f8 <_end+0x1458>)
    5116:	eca0f1        	l32r	a15, 398 (107f8 <_end+0x1258>)
    5119:	0378           	l32i.n	a7, a3, 0
    511b:	8c2c           	movi.n	a12, 40
    511d:	3e61f2        	s32i	a15, a1, 248
    5120:	774a           	add.n	a7, a7, a4
    5122:	07a8           	l32i.n	a10, a7, 0
    5124:	ec0d71        	l32r	a7, 158 (d6fc <xt_memcpy>)
    5127:	2461b2        	s32i	a11, a1, 144
    512a:	0007e0        	callx8	a7
    512d:	0378           	l32i.n	a7, a3, 0
    512f:	c81c           	movi.n	a8, 28
    5131:	445c           	movi.n	a4, 84
    5133:	28d882        	addmi	a8, a8, 0x2800
    5136:	28d442        	addmi	a4, a4, 0x2800
    5139:	b78a           	add.n	a11, a7, a8
    513b:	c74a           	add.n	a12, a7, a4
    513d:	ec6871        	l32r	a7, 2e0 (3138 <emph_filter_N>)
    5140:	0d5c           	movi.n	a13, 80
    5142:	06ad           	mov.n	a10, a6
    5144:	0007e0        	callx8	a7
    5147:	0378           	l32i.n	a7, a3, 0
    5149:	ec9551        	l32r	a5, 3a0 (109e0 <_end+0x1440>)
    514c:	ec9641        	l32r	a4, 3a4 (10778 <_end+0x11d8>)
    514f:	ec6531        	l32r	a3, 2e4 (6ccc <tx_downsample_by2_N>)
    5152:	875a           	add.n	a8, a7, a5
    5154:	08a8           	l32i.n	a10, a8, 0
    5156:	48b8           	l32i.n	a11, a8, 16
    5158:	d74a           	add.n	a13, a7, a4
    515a:	20c1e2        	addi	a14, a1, 32
    515d:	8f2c           	movi.n	a15, 40
    515f:	06cd           	mov.n	a12, a6
    5161:	426162        	s32i	a6, a1, 0x108
    5164:	0003e0        	callx8	a3
    5167:	ebd941        	l32r	a4, cc (f59c <p_ecnr_mem>)
    516a:	98a062        	movi	a6, 152
    516d:	56d662        	addmi	a6, a6, 0x5600
    5170:	0478           	l32i.n	a7, a4, 0
    5172:	40c1e2        	addi	a14, a1, 64
    5175:	4f1c           	movi.n	a15, 20
    5177:	2cd782        	addmi	a8, a7, 0x2c00
    517a:	975a           	add.n	a9, a7, a5
    517c:	1528a2        	l32i	a10, a8, 84
    517f:	1628b2        	l32i	a11, a8, 88
    5182:	09c8           	l32i.n	a12, a9, 0
    5184:	d76a           	add.n	a13, a7, a6
    5186:	0003e0        	callx8	a3
    5189:	ebd041        	l32r	a4, cc (f59c <p_ecnr_mem>)
    518c:	b8a062        	movi	a6, 184
    518f:	56d662        	addmi	a6, a6, 0x5600
    5192:	0478           	l32i.n	a7, a4, 0
    5194:	8a21e2        	l32i	a14, a1, 0x228
    5197:	4f1c           	movi.n	a15, 20
    5199:	2cd782        	addmi	a8, a7, 0x2c00
    519c:	1928a2        	l32i	a10, a8, 100
    519f:	1a28b2        	l32i	a11, a8, 104
    51a2:	d76a           	add.n	a13, a7, a6
    51a4:	02cd           	mov.n	a12, a2
    51a6:	266122        	s32i	a2, a1, 152
    51a9:	0003e0        	callx8	a3
    51ac:	ebc831        	l32r	a3, cc (f59c <p_ecnr_mem>)
    51af:	472122        	l32i	a2, a1, 0x11c
    51b2:	462162        	l32i	a6, a1, 0x118
    51b5:	0378           	l32i.n	a7, a3, 0
    51b7:	852c           	movi.n	a5, 40
    51b9:	6ed552        	addmi	a5, a5, 0x6e00
    51bc:	2cd792        	addmi	a9, a7, 0x2c00
    51bf:	2b22d2        	l32i	a13, a2, 172
    51c2:	1726e2        	l32i	a14, a6, 92
    51c5:	1529a2        	l32i	a10, a9, 84
    51c8:	1429c2        	l32i	a12, a9, 80
    51cb:	ec4741        	l32r	a4, 2e8 (675c <analy_3band>)
    51ce:	b75a           	add.n	a11, a7, a5
    51d0:	0004e0        	callx8	a4
    51d3:	0378           	l32i.n	a7, a3, 0
    51d5:	312152        	l32i	a5, a1, 196
    51d8:	78a092        	movi	a9, 120
    51db:	2cd782        	addmi	a8, a7, 0x2c00
    51de:	fda4f2        	movi	a15, 0x4fd
    51e1:	57d992        	addmi	a9, a9, 0x5700
    51e4:	1428a2        	l32i	a10, a8, 80
    51e7:	118fd0        	slli	a8, a15, 3
    51ea:	35d8           	l32i.n	a13, a5, 12
    51ec:	b79a           	add.n	a11, a7, a9
    51ee:	c78a           	add.n	a12, a7, a8
    51f0:	ec2a71        	l32r	a7, 298 (321c <biquad_2cascade_24bitTx>)
    51f3:	ae0c           	movi.n	a14, 10
    51f5:	0007e0        	callx8	a7
    51f8:	0378           	l32i.n	a7, a3, 0
    51fa:	68a0f2        	movi	a15, 104
    51fd:	2c22d2        	l32i	a13, a2, 176
    5200:	2cd792        	addmi	a9, a7, 0x2c00
    5203:	6edf22        	addmi	a2, a15, 0x6e00
    5206:	1826e2        	l32i	a14, a6, 96
    5209:	1929a2        	l32i	a10, a9, 100
    520c:	1429c2        	l32i	a12, a9, 80
    520f:	b72a           	add.n	a11, a7, a2
    5211:	0004e0        	callx8	a4
    5214:	0378           	l32i.n	a7, a3, 0
    5216:	4588           	l32i.n	a8, a5, 16
    5218:	520c           	movi.n	a2, 5
    521a:	2cd772        	addmi	a7, a7, 0x2c00
    521d:	142792        	l32i	a9, a7, 80
    5220:	fcc872        	addi	a7, a8, -4
    5223:	f8c982        	addi	a8, a9, -8
    5226:	088276        	loop	a2, 5232 <Voice_SWB_TX_Common_Prcs+0x80e>
    5229:	5c8814        	ae_lp24x2f.iu	aep0, a8, 8
    522c:	090184        	ae_roundsp16asym	aep0, aep0
    522f:	468714        	ae_sp16x2f.iu	aep0, a7, 4

00005232 <Voice_SWB_TX_Common_Prcs+0x80e>:
    5232:	482152        	l32i	a5, a1, 0x120
    5235:	352162        	l32i	a6, a1, 212
    5238:	5c21b2        	l32i	a11, a1, 0x170
    523b:	ec2c41        	l32r	a4, 2ec (2498 <subband_aec_block>)
    523e:	ac0c           	movi.n	a12, 10
    5240:	1e0c           	movi.n	a14, 1
    5242:	05ad           	mov.n	a10, a5
    5244:	06dd           	mov.n	a13, a6
    5246:	0004e0        	callx8	a4
    5249:	5e21b2        	l32i	a11, a1, 0x178
    524c:	ac0c           	movi.n	a12, 10
    524e:	3e0c           	movi.n	a14, 3
    5250:	05ad           	mov.n	a10, a5
    5252:	06dd           	mov.n	a13, a6
    5254:	0004e0        	callx8	a4
    5257:	5f21b2        	l32i	a11, a1, 0x17c
    525a:	4c1c           	movi.n	a12, 20
    525c:	4e0c           	movi.n	a14, 4
    525e:	05ad           	mov.n	a10, a5
    5260:	06dd           	mov.n	a13, a6
    5262:	0004e0        	callx8	a4
    5265:	6021b2        	l32i	a11, a1, 0x180
    5268:	8c2c           	movi.n	a12, 40
    526a:	5e0c           	movi.n	a14, 5
    526c:	05ad           	mov.n	a10, a5
    526e:	06dd           	mov.n	a13, a6
    5270:	0004e0        	callx8	a4
    5273:	5d21b2        	l32i	a11, a1, 0x174
    5276:	ec1e21        	l32r	a2, 2f0 (2a90 <subband_aec_mid_channel>)
    5279:	2d0c           	movi.n	a13, 2
    527b:	05ad           	mov.n	a10, a5
    527d:	06cd           	mov.n	a12, a6
    527f:	0002e0        	callx8	a2
    5282:	222122        	l32i	a2, a1, 136
    5285:	eb9131        	l32r	a3, cc (f59c <p_ecnr_mem>)
    5288:	ec4861        	l32r	a6, 3a8 (109fc <_end+0x145c>)
    528b:	15f216        	beqz	a2, 53ee <Voice_SWB_TX_Common_Prcs+0x9ca>
    528e:	4921b2        	l32i	a11, a1, 0x124
    5291:	0378           	l32i.n	a7, a3, 0
    5293:	8c2c           	movi.n	a12, 40
    5295:	823c           	movi.n	a2, 56
    5297:	776a           	add.n	a7, a7, a6
    5299:	07a8           	l32i.n	a10, a7, 0
    529b:	ebaf71        	l32r	a7, 158 (d6fc <xt_memcpy>)
    529e:	0007e0        	callx8	a7
    52a1:	0378           	l32i.n	a7, a3, 0
    52a3:	57d222        	addmi	a2, a2, 0x5700
    52a6:	4a21c2        	l32i	a12, a1, 0x128
    52a9:	2cd782        	addmi	a8, a7, 0x2c00
    52ac:	d72a           	add.n	a13, a7, a2
    52ae:	2128a2        	l32i	a10, a8, 132
    52b1:	2228b2        	l32i	a11, a8, 136
    52b4:	8521e2        	l32i	a14, a1, 0x214
    52b7:	ec0b71        	l32r	a7, 2e4 (6ccc <tx_downsample_by2_N>)
    52ba:	4f1c           	movi.n	a15, 20
    52bc:	0007e0        	callx8	a7
    52bf:	0378           	l32i.n	a7, a3, 0
    52c1:	442122        	l32i	a2, a1, 0x110
    52c4:	4321e2        	l32i	a14, a1, 0x10c
    52c7:	e8a0f2        	movi	a15, 232
    52ca:	f2d8           	l32i.n	a13, a2, 60
    52cc:	2cd792        	addmi	a9, a7, 0x2c00
    52cf:	6edf22        	addmi	a2, a15, 0x6e00
    52d2:	b72a           	add.n	a11, a7, a2
    52d4:	3b2ee2        	l32i	a14, a14, 236
    52d7:	2129a2        	l32i	a10, a9, 132
    52da:	1429c2        	l32i	a12, a9, 80
    52dd:	ec0221        	l32r	a2, 2e8 (675c <analy_3band>)
    52e0:	0002e0        	callx8	a2
    52e3:	0378           	l32i.n	a7, a3, 0
    52e5:	342122        	l32i	a2, a1, 208
    52e8:	5f0c           	movi.n	a15, 5
    52ea:	2cd772        	addmi	a7, a7, 0x2c00
    52ed:	272282        	l32i	a8, a2, 156
    52f0:	142792        	l32i	a9, a7, 80
    52f3:	fcc872        	addi	a7, a8, -4
    52f6:	f8c982        	addi	a8, a9, -8
    52f9:	088f76        	loop	a15, 5305 <Voice_SWB_TX_Common_Prcs+0x8e1>
    52fc:	5c8814        	ae_lp24x2f.iu	aep0, a8, 8
    52ff:	090184        	ae_roundsp16asym	aep0, aep0
    5302:	468714        	ae_sp16x2f.iu	aep0, a7, 4
    5305:	352162        	l32i	a6, a1, 212
    5308:	5921b2        	l32i	a11, a1, 0x164
    530b:	ac0c           	movi.n	a12, 10
    530d:	1e0c           	movi.n	a14, 1
    530f:	05ad           	mov.n	a10, a5
    5311:	06dd           	mov.n	a13, a6
    5313:	0004e0        	callx8	a4
    5316:	5b21b2        	l32i	a11, a1, 0x16c
    5319:	ac0c           	movi.n	a12, 10
    531b:	3e0c           	movi.n	a14, 3
    531d:	05ad           	mov.n	a10, a5
    531f:	06dd           	mov.n	a13, a6
    5321:	0004e0        	callx8	a4
    5324:	eb6a21        	l32r	a2, cc (f59c <p_ecnr_mem>)
    5327:	ebf3f1        	l32r	a15, 2f4 (103dd <_end+0xe3d>)
    532a:	5321b2        	l32i	a11, a1, 0x14c
    532d:	0278           	l32i.n	a7, a2, 0
    532f:	4c1c           	movi.n	a12, 20
    5331:	4e0c           	movi.n	a14, 4
    5333:	77fa           	add.n	a7, a7, a15
    5335:	000772        	l8ui	a7, a7, 0
    5338:	05ad           	mov.n	a10, a5
    533a:	06dd           	mov.n	a13, a6
    533c:	279c           	beqz.n	a7, 5352 <Voice_SWB_TX_Common_Prcs+0x92e>
    533e:	0004e0        	callx8	a4
    5341:	5421b2        	l32i	a11, a1, 0x150
    5344:	8c2c           	movi.n	a12, 40
    5346:	5e0c           	movi.n	a14, 5
    5348:	05ad           	mov.n	a10, a5
    534a:	06dd           	mov.n	a13, a6
    534c:	0004e0        	callx8	a4
    534f:	000706        	j	536f <Voice_SWB_TX_Common_Prcs+0x94b>

00005352 <Voice_SWB_TX_Common_Prcs+0x92e>:
    5352:	412122        	l32i	a2, a1, 0x104
    5355:	eb8b71        	l32r	a7, 184 (d6e8 <xt_memset>)
    5358:	0b0c           	movi.n	a11, 0
    535a:	2522a2        	l32i	a10, a2, 148
    535d:	4c1c           	movi.n	a12, 20
    535f:	0007e0        	callx8	a7
    5362:	402122        	l32i	a2, a1, 0x100
    5365:	0b0c           	movi.n	a11, 0
    5367:	8c2c           	movi.n	a12, 40
    5369:	3922a2        	l32i	a10, a2, 228
    536c:	0007e0        	callx8	a7
    536f:	862122        	l32i	a2, a1, 0x218
    5372:	eb5631        	l32r	a3, cc (f59c <p_ecnr_mem>)
    5375:	ebe1e1        	l32r	a14, 2fc (1057c <_end+0xfdc>)
    5378:	32ac           	beqz.n	a2, 539f <Voice_SWB_TX_Common_Prcs+0x97b>
    537a:	ebe1f1        	l32r	a15, 300 (103e0 <_end+0xe40>)
    537d:	0378           	l32i.n	a7, a3, 0
    537f:	ac0c           	movi.n	a12, 10
    5381:	87ea           	add.n	a8, a7, a14
    5383:	08a8           	l32i.n	a10, a8, 0
    5385:	28b8           	l32i.n	a11, a8, 8
    5387:	eb7481        	l32r	a8, 158 (d6fc <xt_memcpy>)
    538a:	77fa           	add.n	a7, a7, a15
    538c:	0008e0        	callx8	a8
    538f:	7721c2        	l32i	a12, a1, 0x1dc
    5392:	ebdc21        	l32r	a2, 304 (6800 <nc_lms_block>)
    5395:	05ad           	mov.n	a10, a5
    5397:	07bd           	mov.n	a11, a7
    5399:	352162        	l32i	a6, a1, 212
    539c:	0002e0        	callx8	a2
    539f:	5a21b2        	l32i	a11, a1, 0x168
    53a2:	ebd321        	l32r	a2, 2f0 (2a90 <subband_aec_mid_channel>)
    53a5:	2d0c           	movi.n	a13, 2
    53a7:	05ad           	mov.n	a10, a5
    53a9:	06cd           	mov.n	a12, a6
    53ab:	0002e0        	callx8	a2
    53ae:	eb4731        	l32r	a3, cc (f59c <p_ecnr_mem>)
    53b1:	ebc751        	l32r	a5, 2d0 (c348 <real_split+0x128>)
    53b4:	342122        	l32i	a2, a1, 208
    53b7:	0378           	l32i.n	a7, a3, 0
    53b9:	4421d2        	l32i	a13, a1, 0x110
    53bc:	4121e2        	l32i	a14, a1, 0x104
    53bf:	4321f2        	l32i	a15, a1, 0x10c
    53c2:	775a           	add.n	a7, a7, a5
    53c4:	2922a2        	l32i	a10, a2, 164
    53c7:	112db2        	l32i	a11, a13, 68
    53ca:	252ec2        	l32i	a12, a14, 148
    53cd:	3d2fd2        	l32i	a13, a15, 244
    53d0:	27fd           	ae_l16si.n	a15, a7, 0
    53d2:	ebc921        	l32r	a2, 2f8 (69b0 <gain_after_ec>)
    53d5:	0e0c           	movi.n	a14, 0
    53d7:	0002e0        	callx8	a2
    53da:	0378           	l32i.n	a7, a3, 0
    53dc:	402122        	l32i	a2, a1, 0x100
    53df:	0b0c           	movi.n	a11, 0
    53e1:	775a           	add.n	a7, a7, a5
    53e3:	3922a2        	l32i	a10, a2, 228
    53e6:	27cd           	ae_l16si.n	a12, a7, 0
    53e8:	ebf121        	l32r	a2, 3ac (6e48 <gain_after_ec_ch5>)
    53eb:	0002e0        	callx8	a2
    53ee:	312122        	l32i	a2, a1, 196
    53f1:	4721d2        	l32i	a13, a1, 0x11c
    53f4:	6121e2        	l32i	a14, a1, 0x184
    53f7:	4621f2        	l32i	a15, a1, 0x118
    53fa:	52a8           	l32i.n	a10, a2, 20
    53fc:	2d2db2        	l32i	a11, a13, 180
    53ff:	1ec8           	l32i.n	a12, a14, 4
    5401:	192fd2        	l32i	a13, a15, 100
    5404:	ebbd21        	l32r	a2, 2f8 (69b0 <gain_after_ec>)
    5407:	0e0c           	movi.n	a14, 0
    5409:	0f0c           	movi.n	a15, 0
    540b:	0002e0        	callx8	a2
    540e:	2f2122        	l32i	a2, a1, 188
    5411:	eb2ed1        	l32r	a13, cc (f59c <p_ecnr_mem>)
    5414:	eaa4e2        	movi	a14, 0x4ea
    5417:	152282        	l32i	a8, a2, 84
    541a:	0d78           	l32i.n	a7, a13, 0
    541c:	b02ee0        	addx8	a2, a14, a14
    541f:	4f1c           	movi.n	a15, 20
    5421:	fec892        	addi	a9, a8, -2
    5424:	441804        	ae_lp16x2f.i	aep1, a8, 0
    5427:	410724        	ae_lp16f.x	aep0, a7, a2
    542a:	178f76        	loop	a15, 5445 <Voice_SWB_TX_Common_Prcs+0xa21>
    542d:	010144        	ae_mulfp24s.hh	aeq0, aep0, aep1
    5430:	ea21ed981f 	{ ae_lp16x2f.iu	aep1, a8, 4; ae_mulfp24s.ll	aeq1, aep0, aep1 }
    5435:	350114        	ae_slliq56	aeq0, aeq0, 4
    5438:	f9e3ba914f 	{ ae_slliq56	aeq1, aeq1, 4; ae_roundsp16q48sym	aep2, aeq0 }
    543d:	fbebf2a91f 	{ ae_sp16f.l.iu	aep2, a9, 2; ae_roundsp16q48sym	aep7, aeq1 }
    5442:	42f914        	ae_sp16f.l.iu	aep7, a9, 2

00005445 <Voice_SWB_TX_Common_Prcs+0xa21>:
    5445:	2cd782        	addmi	a8, a7, 0x2c00
    5448:	221882        	l16ui	a8, a8, 68
    544b:	312122        	l32i	a2, a1, 196
    544e:	4721d2        	l32i	a13, a1, 0x11c
    5451:	022826        	beqi	a8, 2, 5457 <Voice_SWB_TX_Common_Prcs+0xa33>
    5454:	009986        	j	56be <Voice_SWB_TX_Common_Prcs+0xc9a>
    5457:	c81c           	movi.n	a8, 28
    5459:	c4a522        	movi	a2, 0x5c4
    545c:	302152        	l32i	a5, a1, 192
    545f:	28d882        	addmi	a8, a8, 0x2800
    5462:	f02220        	subx8	a2, a2, a2
    5465:	b78a           	add.n	a11, a7, a8
    5467:	c72a           	add.n	a12, a7, a2
    5469:	eb9d71        	l32r	a7, 2e0 (3138 <emph_filter_N>)
    546c:	0d5c           	movi.n	a13, 80
    546e:	05ad           	mov.n	a10, a5
    5470:	0007e0        	callx8	a7
    5473:	eb1621        	l32r	a2, cc (f59c <p_ecnr_mem>)
    5476:	ebce41        	l32r	a4, 3b0 (109e4 <_end+0x1444>)
    5479:	ebcef1        	l32r	a15, 3b4 (10798 <_end+0x11f8>)
    547c:	0278           	l32i.n	a7, a2, 0
    547e:	7f21e2        	l32i	a14, a1, 0x1fc
    5481:	eb9831        	l32r	a3, 2e4 (6ccc <tx_downsample_by2_N>)
    5484:	874a           	add.n	a8, a7, a4
    5486:	08a8           	l32i.n	a10, a8, 0
    5488:	48b8           	l32i.n	a11, a8, 16
    548a:	d7fa           	add.n	a13, a7, a15
    548c:	05cd           	mov.n	a12, a5
    548e:	8f2c           	movi.n	a15, 40
    5490:	482152        	l32i	a5, a1, 0x120
    5493:	0003e0        	callx8	a3
    5496:	eb0d21        	l32r	a2, cc (f59c <p_ecnr_mem>)
    5499:	d8a0f2        	movi	a15, 216
    549c:	7e21e2        	l32i	a14, a1, 0x1f8
    549f:	0278           	l32i.n	a7, a2, 0
    54a1:	2cd782        	addmi	a8, a7, 0x2c00
    54a4:	974a           	add.n	a9, a7, a4
    54a6:	1728a2        	l32i	a10, a8, 92
    54a9:	1828b2        	l32i	a11, a8, 96
    54ac:	56df82        	addmi	a8, a15, 0x5600
    54af:	09c8           	l32i.n	a12, a9, 0
    54b1:	d78a           	add.n	a13, a7, a8
    54b3:	4f1c           	movi.n	a15, 20
    54b5:	0003e0        	callx8	a3
    54b8:	eb0531        	l32r	a3, cc (f59c <p_ecnr_mem>)
    54bb:	a8a022        	movi	a2, 168
    54be:	6ed222        	addmi	a2, a2, 0x6e00
    54c1:	0378           	l32i.n	a7, a3, 0
    54c3:	67d7e2        	addmi	a14, a7, 0x6700
    54c6:	2cd792        	addmi	a9, a7, 0x2c00
    54c9:	66d7b2        	addmi	a11, a7, 0x6600
    54cc:	2d2bd2        	l32i	a13, a11, 180
    54cf:	b72a           	add.n	a11, a7, a2
    54d1:	1729a2        	l32i	a10, a9, 92
    54d4:	1429c2        	l32i	a12, a9, 80
    54d7:	292ee2        	l32i	a14, a14, 164
    54da:	eb8321        	l32r	a2, 2e8 (675c <analy_3band>)
    54dd:	0002e0        	callx8	a2
    54e0:	0378           	l32i.n	a7, a3, 0
    54e2:	79a522        	movi	a2, 0x579
    54e5:	1122c0        	slli	a2, a2, 4
    54e8:	fda4f2        	movi	a15, 0x4fd
    54eb:	2cd782        	addmi	a8, a7, 0x2c00
    54ee:	b72a           	add.n	a11, a7, a2
    54f0:	66d792        	addmi	a9, a7, 0x6600
    54f3:	112fd0        	slli	a2, a15, 3
    54f6:	c72a           	add.n	a12, a7, a2
    54f8:	1428a2        	l32i	a10, a8, 80
    54fb:	1929d2        	l32i	a13, a9, 100
    54fe:	eb6671        	l32r	a7, 298 (321c <biquad_2cascade_24bitTx>)
    5501:	ae0c           	movi.n	a14, 10
    5503:	0007e0        	callx8	a7
    5506:	352142        	l32i	a4, a1, 212
    5509:	8421b2        	l32i	a11, a1, 0x210
    550c:	eb7821        	l32r	a2, 2ec (2498 <subband_aec_block>)
    550f:	ac0c           	movi.n	a12, 10
    5511:	1e0c           	movi.n	a14, 1
    5513:	05ad           	mov.n	a10, a5
    5515:	04dd           	mov.n	a13, a4
    5517:	0002e0        	callx8	a2
    551a:	8321b2        	l32i	a11, a1, 0x20c
    551d:	ac0c           	movi.n	a12, 10
    551f:	3e0c           	movi.n	a14, 3
    5521:	05ad           	mov.n	a10, a5
    5523:	04dd           	mov.n	a13, a4
    5525:	0002e0        	callx8	a2
    5528:	8221b2        	l32i	a11, a1, 0x208
    552b:	4c1c           	movi.n	a12, 20
    552d:	4e0c           	movi.n	a14, 4
    552f:	05ad           	mov.n	a10, a5
    5531:	04dd           	mov.n	a13, a4
    5533:	0002e0        	callx8	a2
    5536:	8121b2        	l32i	a11, a1, 0x204
    5539:	8c2c           	movi.n	a12, 40
    553b:	5e0c           	movi.n	a14, 5
    553d:	05ad           	mov.n	a10, a5
    553f:	04dd           	mov.n	a13, a4
    5541:	0002e0        	callx8	a2
    5544:	8021b2        	l32i	a11, a1, 0x200
    5547:	eb6a21        	l32r	a2, 2f0 (2a90 <subband_aec_mid_channel>)
    554a:	2d0c           	movi.n	a13, 2
    554c:	05ad           	mov.n	a10, a5
    554e:	04cd           	mov.n	a12, a4
    5550:	0002e0        	callx8	a2
    5553:	7d2122        	l32i	a2, a1, 0x1f4
    5556:	7c2142        	l32i	a4, a1, 0x1f0
    5559:	7b2152        	l32i	a5, a1, 0x1ec
    555c:	2e2162        	l32i	a6, a1, 184
    555f:	1b22a2        	l32i	a10, a2, 108
    5562:	2f24b2        	l32i	a11, a4, 188
    5565:	35c8           	l32i.n	a12, a5, 12
    5567:	2b26d2        	l32i	a13, a6, 172
    556a:	eb6371        	l32r	a7, 2f8 (69b0 <gain_after_ec>)
    556d:	1e0c           	movi.n	a14, 1
    556f:	0f0c           	movi.n	a15, 0
    5571:	0007e0        	callx8	a7
    5574:	3b2172        	l32i	a7, a1, 236
    5577:	1b0c           	movi.n	a11, 1
    5579:	0c0c           	movi.n	a12, 0
    557b:	1727a2        	l32i	a10, a7, 92
    557e:	eb8b71        	l32r	a7, 3ac (6e48 <gain_after_ec_ch5>)
    5581:	0007e0        	callx8	a7
    5584:	0378           	l32i.n	a7, a3, 0
    5586:	8f2c           	movi.n	a15, 40
    5588:	1b22a2        	l32i	a10, a2, 108
    558b:	2cd782        	addmi	a8, a7, 0x2c00
    558e:	4f0882        	l8ui	a8, a8, 79
    5591:	2cd732        	addmi	a3, a7, 0x2c00
    5594:	6fdf22        	addmi	a2, a15, 0x6f00
    5597:	026867        	bbci	a8, 6, 559d <Voice_SWB_TX_Common_Prcs+0xb79>
    559a:	007946        	j	5783 <Voice_SWB_TX_Common_Prcs+0xd5f>
    559d:	2f2122        	l32i	a2, a1, 188
    55a0:	732132        	l32i	a3, a1, 0x1cc
    55a3:	eb85f1        	l32r	a15, 3b8 (10858 <_end+0x12b8>)
    55a6:	2cd782        	addmi	a8, a7, 0x2c00
    55a9:	1522a2        	l32i	a10, a2, 84
    55ac:	1a23b2        	l32i	a11, a3, 104
    55af:	1428c2        	l32i	a12, a8, 80
    55b2:	eb8241        	l32r	a4, 3bc (6ed8 <downsample_by4>)
    55b5:	d7fa           	add.n	a13, a7, a15
    55b7:	0004e0        	callx8	a4
    55ba:	eac421        	l32r	a2, cc (f59c <p_ecnr_mem>)
    55bd:	3b21e2        	l32i	a14, a1, 236
    55c0:	eb80f1        	l32r	a15, 3c0 (10870 <_end+0x12d0>)
    55c3:	0278           	l32i.n	a7, a2, 0
    55c5:	172ea2        	l32i	a10, a14, 92
    55c8:	1b23b2        	l32i	a11, a3, 108
    55cb:	2cd782        	addmi	a8, a7, 0x2c00
    55ce:	1428c2        	l32i	a12, a8, 80
    55d1:	d7fa           	add.n	a13, a7, a15
    55d3:	0004e0        	callx8	a4
    55d6:	522152        	l32i	a5, a1, 0x148
    55d9:	eb4d21        	l32r	a2, 310 (6fd0 <prelim_filter>)
    55dc:	60c1b2        	addi	a11, a1, 96
    55df:	1cc1c2        	addi	a12, a1, 28
    55e2:	05ad           	mov.n	a10, a5
    55e4:	0002e0        	callx8	a2
    55e7:	7621b2        	l32i	a11, a1, 0x1d8
    55ea:	7221d2        	l32i	a13, a1, 0x1c8
    55ed:	eb4921        	l32r	a2, 314 (72c8 <prelim_filter3>)
    55f0:	3c0c           	movi.n	a12, 3
    55f2:	05ad           	mov.n	a10, a5
    55f4:	0002e0        	callx8	a2
    55f7:	7521b2        	l32i	a11, a1, 0x1d4
    55fa:	7121d2        	l32i	a13, a1, 0x1c4
    55fd:	4c0c           	movi.n	a12, 4
    55ff:	05ad           	mov.n	a10, a5
    5601:	0002e0        	callx8	a2
    5604:	7421b2        	l32i	a11, a1, 0x1d0
    5607:	7021d2        	l32i	a13, a1, 0x1c0
    560a:	5c0c           	movi.n	a12, 5
    560c:	05ad           	mov.n	a10, a5
    560e:	0002e0        	callx8	a2
    5611:	6f2122        	l32i	a2, a1, 0x1bc
    5614:	182182        	l32i	a8, a1, 96
    5617:	360834        	ae_cvtq48a32s	aeq0, a8
    561a:	421272        	l16ui	a7, a2, 132
    561d:	300774        	ae_cvtp24a16x2.ll	aep0, a7, a7
    5620:	100031a16e 	{ l32i	a6, a1, 104; ae_mulzaafq32sp16s.ll	aeq0, aeq0, aep0, aeq0, aep0 }
    5625:	1c2192        	l32i	a9, a1, 112
    5628:	f863f1e1ae 	{ l32i	a10, a1, 120; ae_roundsp16q48asym	aep1, aeq0 }
    562d:	364634        	ae_cvtq48a32s	aeq1, a6
    5630:	1001fec9bf 	{ ae_cvtq48a32s	aeq2, a9; ae_mulzaafq32sp16s.ll	aeq1, aeq1, aep0, aeq1, aep0 }
    5635:	13023ecaff 	{ ae_cvtq48a32s	aeq3, a10; ae_mulzaafq32sp16s.ll	aeq2, aeq2, aep0, aeq2, aep0 }
    563a:	1203b221fe 	{ l32i	a15, a1, 136; ae_mulzaafq32sp16s.ll	aeq0, aeq3, aep0, aeq3, aep0 }
    563f:	f96bbf1b5f 	{ ae_cvta32p24.l	a11, aep1; ae_roundsp16q48asym	aep2, aeq1 }
    5644:	fb73bf2c5f 	{ ae_cvta32p24.l	a12, aep2; ae_roundsp16q48asym	aep6, aeq2 }
    5649:	fb63ff6d5f 	{ ae_cvta32p24.l	a13, aep6; ae_roundsp16q48asym	aep7, aeq0 }
    564e:	007ed4        	ae_cvta32p24.l	a14, aep7
    5651:	1861b2        	s32i	a11, a1, 96
    5654:	1a61c2        	s32i	a12, a1, 104
    5657:	1c61d2        	s32i	a13, a1, 112
    565a:	1e61e2        	s32i	a14, a1, 120
    565d:	1aff16        	beqz	a15, 5810 <Voice_SWB_TX_Common_Prcs+0xdec>
    5660:	4e2142        	l32i	a4, a1, 0x138
    5663:	512122        	l32i	a2, a1, 0x144
    5666:	1c0c           	movi.n	a12, 1
    5668:	0488           	l32i.n	a8, a4, 0
    566a:	281272        	l16ui	a7, a2, 80
    566d:	114c10        	slli	a4, a12, 15
    5670:	a92892        	l32i	a9, a8, 0x2a4
    5673:	11a700        	slli	a10, a7, 16
    5676:	c4a2e2        	movi	a14, 0x2c4
    5679:	c0d490        	sub	a13, a4, a9
    567c:	6068e4        	ae_lq32f.x	aeq1, a8, a14
    567f:	360a34        	ae_cvtq48a32s	aeq0, a10
    5682:	300d94        	ae_cvtp24a16x2.ll	aep0, a13, a9
    5685:	0c013ab8fe 	{ l32i	a15, a8, 0x2ac; ae_mulzaafq32sp16s.lh	aeq0, aeq1, aep0, aeq0, aep0 }
    568a:	2e21e2        	l32i	a14, a1, 184
    568d:	fc2474f16e 	{ l32i	a6, a1, 0x13c; ae_roundsq32asym	aeq0, aeq0 }
    5692:	368a04        	ae_trunca32q48	a10, aeq0
    5695:	b168a2        	s32i	a10, a8, 0x2c4
    5698:	4d2142        	l32i	a4, a1, 0x134
    569b:	022fa7        	blt	a15, a10, 56a1 <Voice_SWB_TX_Common_Prcs+0xc7d>
    569e:	0051c6        	j	57e9 <Voice_SWB_TX_Common_Prcs+0xdc5>
    56a1:	02d892        	addmi	a9, a8, 0x200
    56a4:	5c9992        	l16si	a9, a9, 184
    56a7:	1324b2        	l32i	a11, a4, 76
    56aa:	130c           	movi.n	a3, 1
    56ac:	119900        	slli	a9, a9, 16
    56af:	0229b7        	blt	a9, a11, 56b5 <Voice_SWB_TX_Common_Prcs+0xc91>
    56b2:	004cc6        	j	57e9 <Voice_SWB_TX_Common_Prcs+0xdc5>
    56b5:	0133f0        	slli	a3, a3, 17
    56b8:	b26832        	s32i	a3, a8, 0x2c8
    56bb:	005746        	j	581c <Voice_SWB_TX_Common_Prcs+0xdf8>

000056be <Voice_SWB_TX_Common_Prcs+0xc9a>:
    56be:	4621e2        	l32i	a14, a1, 0x118
    56c1:	8f2c           	movi.n	a15, 40
    56c3:	52a8           	l32i.n	a10, a2, 20
    56c5:	2cd742        	addmi	a4, a7, 0x2c00
    56c8:	6fdf22        	addmi	a2, a15, 0x6f00
    56cb:	2d2db2        	l32i	a11, a13, 180
    56ce:	192ec2        	l32i	a12, a14, 100
    56d1:	d72a           	add.n	a13, a7, a2
    56d3:	1c24e2        	l32i	a14, a4, 112
    56d6:	eb0c21        	l32r	a2, 308 (6b18 <synth_3band>)
    56d9:	0002e0        	callx8	a2
    56dc:	3f2142        	l32i	a4, a1, 252
    56df:	ea7b21        	l32r	a2, cc (f59c <p_ecnr_mem>)
    56e2:	3121e2        	l32i	a14, a1, 196
    56e5:	d60442        	l8ui	a4, a4, 214
    56e8:	3621f2        	l32i	a15, a1, 216
    56eb:	0238           	l32i.n	a3, a2, 0
    56ed:	116417        	bbci	a4, 1, 5702 <Voice_SWB_TX_Common_Prcs+0xcde>
    56f0:	5eb8           	l32i.n	a11, a14, 20
    56f2:	ac0c           	movi.n	a12, 10
    56f4:	2cd342        	addmi	a4, a3, 0x2c00
    56f7:	202442        	l32i	a4, a4, 128
    56fa:	a4fa           	add.n	a10, a4, a15
    56fc:	ea9741        	l32r	a4, 158 (d6fc <xt_memcpy>)
    56ff:	0004e0        	callx8	a4
    5702:	ea7231        	l32r	a3, cc (f59c <p_ecnr_mem>)
    5705:	eb3051        	l32r	a5, 3c8 (109dc <_end+0x143c>)
    5708:	612122        	l32i	a2, a1, 0x184
    570b:	0348           	l32i.n	a4, a3, 0
    570d:	eb2ff1        	l32r	a15, 3cc (1096c <_end+0x13cc>)
    5710:	12a8           	l32i.n	a10, a2, 4
    5712:	745a           	add.n	a7, a4, a5
    5714:	c4fa           	add.n	a12, a4, a15
    5716:	07e8           	l32i.n	a14, a7, 0
    5718:	eb2e41        	l32r	a4, 3d0 (6f10 <hb_buf_delay>)
    571b:	4b1c           	movi.n	a11, 20
    571d:	cd1c           	movi.n	a13, 28
    571f:	0004e0        	callx8	a4
    5722:	0348           	l32i.n	a4, a3, 0
    5724:	85a062        	movi	a6, 133
    5727:	f8a052        	movi	a5, 248
    572a:	116670        	slli	a6, a6, 9
    572d:	2cd472        	addmi	a7, a4, 0x2c00
    5730:	846a           	add.n	a8, a4, a6
    5732:	56d552        	addmi	a5, a5, 0x5600
    5735:	d45a           	add.n	a13, a4, a5
    5737:	12b8           	l32i.n	a11, a2, 4
    5739:	1c27a2        	l32i	a10, a7, 112
    573c:	08c8           	l32i.n	a12, a8, 0
    573e:	3d21e2        	l32i	a14, a1, 244
    5741:	eaf251        	l32r	a5, 30c (6d88 <tx_upsample_by2_N>)
    5744:	8f2c           	movi.n	a15, 40
    5746:	0005e0        	callx8	a5
    5749:	0348           	l32i.n	a4, a3, 0
    574b:	eb1f71        	l32r	a7, 3c8 (109dc <_end+0x143c>)
    574e:	2f2122        	l32i	a2, a1, 188
    5751:	eb20f1        	l32r	a15, 3d4 (10888 <_end+0x12e8>)
    5754:	747a           	add.n	a7, a4, a7
    5756:	1522a2        	l32i	a10, a2, 84
    5759:	c4fa           	add.n	a12, a4, a15
    575b:	07e8           	l32i.n	a14, a7, 0
    575d:	eb1c41        	l32r	a4, 3d0 (6f10 <hb_buf_delay>)
    5760:	8b2c           	movi.n	a11, 40
    5762:	9d3c           	movi.n	a13, 57
    5764:	0004e0        	callx8	a4
    5767:	0348           	l32i.n	a4, a3, 0
    5769:	eb0bf1        	l32r	a15, 398 (107f8 <_end+0x1258>)
    576c:	1522b2        	l32i	a11, a2, 84
    576f:	746a           	add.n	a7, a4, a6
    5771:	07a8           	l32i.n	a10, a7, 0
    5773:	2521c2        	l32i	a12, a1, 148
    5776:	3c21e2        	l32i	a14, a1, 240
    5779:	d4fa           	add.n	a13, a4, a15
    577b:	0f5c           	movi.n	a15, 80
    577d:	0005e0        	callx8	a5
    5780:	013b06        	j	5c70 <Voice_SWB_TX_Common_Prcs+0x124c>

00005783 <Voice_SWB_TX_Common_Prcs+0xd5f>:
    5783:	d72a           	add.n	a13, a7, a2
    5785:	2f24b2        	l32i	a11, a4, 188
    5788:	2b26c2        	l32i	a12, a6, 172
    578b:	1c23e2        	l32i	a14, a3, 112
    578e:	eade21        	l32r	a2, 308 (6b18 <synth_3band>)
    5791:	0002e0        	callx8	a2
    5794:	ea4e21        	l32r	a2, cc (f59c <p_ecnr_mem>)
    5797:	85a032        	movi	a3, 133
    579a:	f8a042        	movi	a4, 248
    579d:	0278           	l32i.n	a7, a2, 0
    579f:	113370        	slli	a3, a3, 9
    57a2:	56d442        	addmi	a4, a4, 0x5600
    57a5:	2cd782        	addmi	a8, a7, 0x2c00
    57a8:	973a           	add.n	a9, a7, a3
    57aa:	d74a           	add.n	a13, a7, a4
    57ac:	35b8           	l32i.n	a11, a5, 12
    57ae:	1c28a2        	l32i	a10, a8, 112
    57b1:	09c8           	l32i.n	a12, a9, 0
    57b3:	3d21e2        	l32i	a14, a1, 244
    57b6:	ead541        	l32r	a4, 30c (6d88 <tx_upsample_by2_N>)
    57b9:	8f2c           	movi.n	a15, 40
    57bb:	0004e0        	callx8	a4
    57be:	0278           	l32i.n	a7, a2, 0
    57c0:	3b21e2        	l32i	a14, a1, 236
    57c3:	eaf5f1        	l32r	a15, 398 (107f8 <_end+0x1258>)
    57c6:	873a           	add.n	a8, a7, a3
    57c8:	172eb2        	l32i	a11, a14, 92
    57cb:	08a8           	l32i.n	a10, a8, 0
    57cd:	2521c2        	l32i	a12, a1, 148
    57d0:	3c21e2        	l32i	a14, a1, 240
    57d3:	d7fa           	add.n	a13, a7, a15
    57d5:	0f5c           	movi.n	a15, 80
    57d7:	0004e0        	callx8	a4
    57da:	262122        	l32i	a2, a1, 152
    57dd:	2421b2        	l32i	a11, a1, 144
    57e0:	222182        	l32i	a8, a1, 136
    57e3:	495856        	bnez	a8, 5c7c <Voice_SWB_TX_Common_Prcs+0x1258>
    57e6:	016106        	j	5d6e <Voice_SWB_TX_Common_Prcs+0x134a>

000057e9 <Voice_SWB_TX_Common_Prcs+0xdc5>:
    57e9:	02d892        	addmi	a9, a8, 0x200
    57ec:	6519b2        	l16ui	a11, a9, 202
    57ef:	9bac           	beqz.n	a11, 581c <Voice_SWB_TX_Common_Prcs+0xdf8>
    57f1:	ac28b2        	l32i	a11, a8, 0x2b0
    57f4:	ad2822        	l32i	a2, a8, 0x2b4
    57f7:	130c           	movi.n	a3, 1
    57f9:	1faab7        	bge	a10, a11, 581c <Voice_SWB_TX_Common_Prcs+0xdf8>
    57fc:	02d8a2        	addmi	a10, a8, 0x200
    57ff:	649a82        	l16si	a8, a10, 200
    5802:	040c           	movi.n	a4, 0
    5804:	022287        	blt	a2, a8, 580a <Voice_SWB_TX_Common_Prcs+0xde6>
    5807:	016f06        	j	5dc7 <Voice_SWB_TX_Common_Prcs+0x13a3>
    580a:	655942        	s16i	a4, a9, 202
    580d:	0002c6        	j	581c <Voice_SWB_TX_Common_Prcs+0xdf8>

00005810 <Voice_SWB_TX_Common_Prcs+0xdec>:
    5810:	512122        	l32i	a2, a1, 0x144
    5813:	2e21e2        	l32i	a14, a1, 184
    5816:	4f2162        	l32i	a6, a1, 0x13c
    5819:	281272        	l16ui	a7, a2, 80
    581c:	6e2132        	l32i	a3, a1, 0x1b8
    581f:	877d           	ae_sext16	a7, a7
    5821:	322142        	l32i	a4, a1, 200
    5824:	229382        	l16si	a8, a3, 68
    5827:	5021f2        	l32i	a15, a1, 0x140
    582a:	382122        	l32i	a2, a1, 224
    582d:	49a787        	bge	a7, a8, 587a <Voice_SWB_TX_Common_Prcs+0xe56>
    5830:	ea2731        	l32r	a3, cc (f59c <p_ecnr_mem>)
    5833:	6721b2        	l32i	a11, a1, 0x19c
    5836:	05ad           	mov.n	a10, a5
    5838:	0378           	l32i.n	a7, a3, 0
    583a:	eab731        	l32r	a3, 318 (75d8 <cali_power>)
    583d:	0e2d           	mov.n	a2, a14
    583f:	2cd772        	addmi	a7, a7, 0x2c00
    5842:	252742        	l32i	a4, a7, 148
    5845:	60c172        	addi	a7, a1, 96
    5848:	07cd           	mov.n	a12, a7
    584a:	0003e0        	callx8	a3
    584d:	0cd442        	addmi	a4, a4, 0xc00
    5850:	1794c2        	l16si	a12, a4, 46
    5853:	eab231        	l32r	a3, 31c (740c <cali_module_short>)
    5856:	05ad           	mov.n	a10, a5
    5858:	07bd           	mov.n	a11, a7
    585a:	0003e0        	callx8	a3
    585d:	02ed           	mov.n	a14, a2
    585f:	382122        	l32i	a2, a1, 224
    5862:	322132        	l32i	a3, a1, 200
    5865:	5021f2        	l32i	a15, a1, 0x140
    5868:	1b1272        	l16ui	a7, a2, 54
    586b:	1c12b2        	l16ui	a11, a2, 56
    586e:	0e16a2        	l16ui	a10, a6, 28
    5871:	191392        	l16ui	a9, a3, 50
    5874:	1d1f82        	l16ui	a8, a15, 58
    5877:	0006c6        	j	5896 <Voice_SWB_TX_Common_Prcs+0xe72>

0000587a <Voice_SWB_TX_Common_Prcs+0xe56>:
    587a:	d97c           	movi.n	a9, -3
    587c:	080c           	movi.n	a8, 0
    587e:	f49090        	extui	a9, a9, 0, 16
    5881:	195492        	s16i	a9, a4, 50
    5884:	0a0c           	movi.n	a10, 0
    5886:	0b0c           	movi.n	a11, 0
    5888:	070c           	movi.n	a7, 0
    588a:	1d5f82        	s16i	a8, a15, 58
    588d:	1b5282        	s16i	a8, a2, 54
    5890:	1c5282        	s16i	a8, a2, 56
    5893:	0e5682        	s16i	a8, a6, 28
    5896:	6d2142        	l32i	a4, a1, 0x1b4
    5899:	6c21d2        	l32i	a13, a1, 0x1b0
    589c:	2a21f2        	l32i	a15, a1, 168
    589f:	444d           	ae_l16ui.n	a4, a4, 0
    58a1:	0d1dc2        	l16ui	a12, a13, 26
    58a4:	0d2c           	movi.n	a13, 32
    58a6:	888d           	ae_sext16	a8, a8
    58a8:	063d           	mov.n	a3, a6
    58aa:	056d           	mov.n	a6, a5
    58ac:	5f8a           	add.n	a5, a15, a8
    58ae:	63fcd0        	minu	a15, a12, a13
    58b1:	6344d0        	minu	a4, a4, a13
    58b4:	8bbd           	ae_sext16	a11, a11
    58b6:	2a6152        	s32i	a5, a1, 168
    58b9:	8aad           	ae_sext16	a10, a10
    58bb:	c0cdf0        	sub	a12, a13, a15
    58be:	c05d40        	sub	a5, a13, a4
    58c1:	87dd           	ae_sext16	a13, a7
    58c3:	82aca0        	mull	a10, a12, a10
    58c6:	828fb0        	mull	a8, a15, a11
    58c9:	2c2ec2        	l32i	a12, a14, 176
    58cc:	82b5b0        	mull	a11, a5, a11
    58cf:	8244d0        	mull	a4, a4, a13
    58d2:	2c21e2        	l32i	a14, a1, 176
    58d5:	4b4a           	add.n	a4, a11, a4
    58d7:	8a8a           	add.n	a8, a10, a8
    58d9:	54ea           	add.n	a5, a4, a14
    58db:	10c442        	addi	a4, a4, 16
    58de:	414540        	srli	a4, a4, 5
    58e1:	10c8f2        	addi	a15, a8, 16
    58e4:	3921b2        	l32i	a11, a1, 228
    58e7:	ea8e71        	l32r	a7, 320 (7a18 <beam1_proc>)
    58ea:	7861d2        	s32i	a13, a1, 0x1e0
    58ed:	89dd           	ae_sext16	a13, a9
    58ef:	1c5242        	s16i	a4, a2, 56
    58f2:	4145f0        	srli	a4, a15, 5
    58f5:	0e0c           	movi.n	a14, 0
    58f7:	1f0c           	movi.n	a15, 1
    58f9:	06ad           	mov.n	a10, a6
    58fb:	0e5342        	s16i	a4, a3, 28
    58fe:	2c6152        	s32i	a5, a1, 176
    5901:	7a6182        	s32i	a8, a1, 0x1e8
    5904:	023d           	mov.n	a3, a2
    5906:	7961d2        	s32i	a13, a1, 0x1e4
    5909:	0007e0        	callx8	a7
    590c:	3a2142        	l32i	a4, a1, 232
    590f:	1b92d2        	l16si	a13, a2, 54
    5912:	5821b2        	l32i	a11, a1, 0x160
    5915:	1624c2        	l32i	a12, a4, 88
    5918:	0e0c           	movi.n	a14, 0
    591a:	0f0c           	movi.n	a15, 0
    591c:	06ad           	mov.n	a10, a6
    591e:	0007e0        	callx8	a7
    5921:	332152        	l32i	a5, a1, 204
    5924:	1c92d2        	l16si	a13, a2, 56
    5927:	572122        	l32i	a2, a1, 0x15c
    592a:	3e25c2        	l32i	a12, a5, 248
    592d:	0e0c           	movi.n	a14, 0
    592f:	0f0c           	movi.n	a15, 0
    5931:	06ad           	mov.n	a10, a6
    5933:	02bd           	mov.n	a11, a2
    5935:	0007e0        	callx8	a7
    5938:	3e25c2        	l32i	a12, a5, 248
    593b:	1c93d2        	l16si	a13, a3, 56
    593e:	ae0c           	movi.n	a14, 10
    5940:	0f0c           	movi.n	a15, 0
    5942:	06ad           	mov.n	a10, a6
    5944:	02bd           	mov.n	a11, a2
    5946:	0007e0        	callx8	a7
    5949:	562122        	l32i	a2, a1, 0x158
    594c:	152442        	l32i	a4, a4, 84
    594f:	5f0c           	movi.n	a15, 5
    5951:	1c1282        	l16ui	a8, a2, 56
    5954:	300884        	ae_cvtp24a16x2.ll	aep0, a8, a8
    5957:	fcc482        	addi	a8, a4, -4
    595a:	449814        	ae_lp16x2f.iu	aep1, a8, 4
    595d:	178f76        	loop	a15, 5978 <Voice_SWB_TX_Common_Prcs+0xf54>
    5960:	011054        	ae_mulfp24s.hl	aeq0, aep1, aep0
    5963:	ea05ed981f 	{ ae_lp16x2f.iu	aep1, a8, 4; ae_mulfp24s.ll	aeq1, aep1, aep0 }
    5968:	350094        	ae_slliq56	aeq0, aeq0, 2
    596b:	f963fa906f 	{ ae_slliq56	aeq1, aeq1, 2; ae_roundsp16q48asym	aep3, aeq0 }
    5970:	f96bb238ef 	{ ae_sp16f.l.i	aep3, a8, -4; ae_roundsp16q48asym	aep2, aeq1 }
    5975:	4228f4        	ae_sp16f.l.i	aep2, a8, -2

00005978 <Voice_SWB_TX_Common_Prcs+0xf54>:
    5978:	3321c2        	l32i	a12, a1, 204
    597b:	5621e2        	l32i	a14, a1, 0x158
    597e:	2b2142        	l32i	a4, a1, 172
    5981:	782122        	l32i	a2, a1, 0x1e0
    5984:	3d2cd2        	l32i	a13, a12, 244
    5987:	1d1e72        	l16ui	a7, a14, 58
    598a:	ea6651        	l32r	a5, 324 (7b90 <beam2_proc>)
    598d:	442a           	add.n	a4, a4, a2
    598f:	300774        	ae_cvtp24a16x2.ll	aep0, a7, a7
    5992:	fccd72        	addi	a7, a13, -4
    5995:	af0c           	movi.n	a15, 10
    5997:	449714        	ae_lp16x2f.iu	aep1, a7, 4
    599a:	2b6142        	s32i	a4, a1, 172
    599d:	178f76        	loop	a15, 59b8 <Voice_SWB_TX_Common_Prcs+0xf94>
    59a0:	011054        	ae_mulfp24s.hl	aeq0, aep1, aep0
    59a3:	ea05ed971f 	{ ae_lp16x2f.iu	aep1, a7, 4; ae_mulfp24s.ll	aeq1, aep1, aep0 }
    59a8:	350094        	ae_slliq56	aeq0, aeq0, 2
    59ab:	f963ba906f 	{ ae_slliq56	aeq1, aeq1, 2; ae_roundsp16q48asym	aep2, aeq0 }
    59b0:	f96bf227ef 	{ ae_sp16f.l.i	aep2, a7, -4; ae_roundsp16q48asym	aep3, aeq1 }
    59b5:	4237f4        	ae_sp16f.l.i	aep3, a7, -2
    59b8:	e9c521        	l32r	a2, cc (f59c <p_ecnr_mem>)
    59bb:	3221d2        	l32i	a13, a1, 200
    59be:	0278           	l32i.n	a7, a2, 0
    59c0:	2e2122        	l32i	a2, a1, 184
    59c3:	2cd742        	addmi	a4, a7, 0x2c00
    59c6:	252442        	l32i	a4, a4, 148
    59c9:	2cd732        	addmi	a3, a7, 0x2c00
    59cc:	0e91f2        	l16si	a15, a1, 28
    59cf:	0cd442        	addmi	a4, a4, 0xc00
    59d2:	131442        	l16ui	a4, a4, 38
    59d5:	1e0c           	movi.n	a14, 1
    59d7:	3921b2        	l32i	a11, a1, 228
    59da:	531466        	bnei	a4, 1, 5a31 <Voice_SWB_TX_Common_Prcs+0x100d>
    59dd:	2f22a2        	l32i	a10, a2, 188
    59e0:	2c22b2        	l32i	a11, a2, 176
    59e3:	e9dd41        	l32r	a4, 158 (d6fc <xt_memcpy>)
    59e6:	ac0c           	movi.n	a12, 10
    59e8:	0004e0        	callx8	a4
    59eb:	e9b831        	l32r	a3, cc (f59c <p_ecnr_mem>)
    59ee:	3221d2        	l32i	a13, a1, 200
    59f1:	2c22c2        	l32i	a12, a2, 176
    59f4:	0348           	l32i.n	a4, a3, 0
    59f6:	392122        	l32i	a2, a1, 228
    59f9:	199dd2        	l16si	a13, a13, 50
    59fc:	2cd442        	addmi	a4, a4, 0x2c00
    59ff:	0e91f2        	l16si	a15, a1, 28
    5a02:	1e0c           	movi.n	a14, 1
    5a04:	249442        	l16si	a4, a4, 72
    5a07:	21e9           	s32i.n	a14, a1, 8
    5a09:	070c           	movi.n	a7, 0
    5a0b:	8e1c           	movi.n	a14, 24
    5a0d:	06ad           	mov.n	a10, a6
    5a0f:	02bd           	mov.n	a11, a2
    5a11:	1179           	s32i.n	a7, a1, 4
    5a13:	0149           	s32i.n	a4, a1, 0
    5a15:	0005e0        	callx8	a5
    5a18:	0348           	l32i.n	a4, a3, 0
    5a1a:	02ad           	mov.n	a10, a2
    5a1c:	ea4321        	l32r	a2, 328 (6ba0 <main_err_alpha>)
    5a1f:	2cd442        	addmi	a4, a4, 0x2c00
    5a22:	252442        	l32i	a4, a4, 148
    5a25:	0cd442        	addmi	a4, a4, 0xc00
    5a28:	1294b2        	l16si	a11, a4, 36
    5a2b:	0002e0        	callx8	a2
    5a2e:	0005c6        	j	5a49 <Voice_SWB_TX_Common_Prcs+0x1025>

00005a31 <Voice_SWB_TX_Common_Prcs+0x100d>:
    5a31:	2c22c2        	l32i	a12, a2, 176
    5a34:	199dd2        	l16si	a13, a13, 50
    5a37:	249342        	l16si	a4, a3, 72
    5a3a:	21e9           	s32i.n	a14, a1, 8
    5a3c:	070c           	movi.n	a7, 0
    5a3e:	8e1c           	movi.n	a14, 24
    5a40:	06ad           	mov.n	a10, a6
    5a42:	1179           	s32i.n	a7, a1, 4
    5a44:	0149           	s32i.n	a4, a1, 0
    5a46:	0005e0        	callx8	a5
    5a49:	292142        	l32i	a4, a1, 164
    5a4c:	792122        	l32i	a2, a1, 0x1e4
    5a4f:	3a21d2        	l32i	a13, a1, 232
    5a52:	382132        	l32i	a3, a1, 224
    5a55:	2d21e2        	l32i	a14, a1, 180
    5a58:	7a21f2        	l32i	a15, a1, 0x1e8
    5a5b:	442a           	add.n	a4, a4, a2
    5a5d:	296142        	s32i	a4, a1, 164
    5a60:	4fea           	add.n	a4, a15, a14
    5a62:	ffa0f2        	movi	a15, 255
    5a65:	162dc2        	l32i	a12, a13, 88
    5a68:	1b93d2        	l16si	a13, a3, 54
    5a6b:	5821b2        	l32i	a11, a1, 0x160
    5a6e:	380c           	movi.n	a8, 3
    5a70:	8e1c           	movi.n	a14, 24
    5a72:	06ad           	mov.n	a10, a6
    5a74:	7fdff2        	addmi	a15, a15, 0x7f00
    5a77:	091c           	movi.n	a9, 16
    5a79:	2189           	s32i.n	a8, a1, 8
    5a7b:	1179           	s32i.n	a7, a1, 4
    5a7d:	2d6142        	s32i	a4, a1, 180
    5a80:	0199           	s32i.n	a9, a1, 0
    5a82:	0005e0        	callx8	a5
    5a85:	064d           	mov.n	a4, a6
    5a87:	332162        	l32i	a6, a1, 204
    5a8a:	420c           	movi.n	a2, 4
    5a8c:	1c93d2        	l16si	a13, a3, 56
    5a8f:	3e26c2        	l32i	a12, a6, 248
    5a92:	2129           	s32i.n	a2, a1, 8
    5a94:	572122        	l32i	a2, a1, 0x15c
    5a97:	ffa0f2        	movi	a15, 255
    5a9a:	058d           	mov.n	a8, a5
    5a9c:	9e1c           	movi.n	a14, 25
    5a9e:	04ad           	mov.n	a10, a4
    5aa0:	02bd           	mov.n	a11, a2
    5aa2:	7fdff2        	addmi	a15, a15, 0x7f00
    5aa5:	091c           	movi.n	a9, 16
    5aa7:	1179           	s32i.n	a7, a1, 4
    5aa9:	0199           	s32i.n	a9, a1, 0
    5aab:	051c           	movi.n	a5, 16
    5aad:	087d           	mov.n	a7, a8
    5aaf:	0008e0        	callx8	a8
    5ab2:	4e0c           	movi.n	a14, 4
    5ab4:	af0c           	movi.n	a15, 10
    5ab6:	3e26c2        	l32i	a12, a6, 248
    5ab9:	1c93d2        	l16si	a13, a3, 56
    5abc:	21e9           	s32i.n	a14, a1, 8
    5abe:	11f9           	s32i.n	a15, a1, 4
    5ac0:	ffa0f2        	movi	a15, 255
    5ac3:	9e1c           	movi.n	a14, 25
    5ac5:	04ad           	mov.n	a10, a4
    5ac7:	02bd           	mov.n	a11, a2
    5ac9:	7fdff2        	addmi	a15, a15, 0x7f00
    5acc:	046d           	mov.n	a6, a4
    5ace:	0159           	s32i.n	a5, a1, 0
    5ad0:	0007e0        	callx8	a7
    5ad3:	ea1621        	l32r	a2, 32c (7e90 <beam1_mid_band>)
    5ad6:	04ad           	mov.n	a10, a4
    5ad8:	0002e0        	callx8	a2
    5adb:	552122        	l32i	a2, a1, 0x154
    5ade:	6b21e2        	l32i	a14, a1, 0x1ac
    5ae1:	af0c           	movi.n	a15, 10
    5ae3:	252242        	l32i	a4, a2, 148
    5ae6:	1b1e72        	l16ui	a7, a14, 54
    5ae9:	300774        	ae_cvtp24a16x2.ll	aep0, a7, a7
    5aec:	fcc472        	addi	a7, a4, -4
    5aef:	449714        	ae_lp16x2f.iu	aep1, a7, 4
    5af2:	178f76        	loop	a15, 5b0d <Voice_SWB_TX_Common_Prcs+0x10e9>
    5af5:	011054        	ae_mulfp24s.hl	aeq0, aep1, aep0
    5af8:	ea05ed971f 	{ ae_lp16x2f.iu	aep1, a7, 4; ae_mulfp24s.ll	aeq1, aep1, aep0 }
    5afd:	350094        	ae_slliq56	aeq0, aeq0, 2
    5b00:	f963ba906f 	{ ae_slliq56	aeq1, aeq1, 2; ae_roundsp16q48asym	aep2, aeq0 }
    5b05:	f96bf227ef 	{ ae_sp16f.l.i	aep2, a7, -4; ae_roundsp16q48asym	aep3, aeq1 }
    5b0a:	4237f4        	ae_sp16f.l.i	aep3, a7, -2

00005b0d <Voice_SWB_TX_Common_Prcs+0x10e9>:
    5b0d:	ea0821        	l32r	a2, 330 (7fe0 <beam2_mid_band>)
    5b10:	06ad           	mov.n	a10, a6
    5b12:	0002e0        	callx8	a2
    5b15:	e96d31        	l32r	a3, cc (f59c <p_ecnr_mem>)
    5b18:	ea2bf1        	l32r	a15, 3c4 (10a08 <_end+0x1468>)
    5b1b:	2f2122        	l32i	a2, a1, 188
    5b1e:	0348           	l32i.n	a4, a3, 0
    5b20:	8c2c           	movi.n	a12, 40
    5b22:	1522b2        	l32i	a11, a2, 84
    5b25:	44fa           	add.n	a4, a4, a15
    5b27:	04a8           	l32i.n	a10, a4, 0
    5b29:	e98b41        	l32r	a4, 158 (d6fc <xt_memcpy>)
    5b2c:	0004e0        	callx8	a4
    5b2f:	0348           	l32i.n	a4, a3, 0
    5b31:	2e2152        	l32i	a5, a1, 184
    5b34:	3a2162        	l32i	a6, a1, 232
    5b37:	552122        	l32i	a2, a1, 0x154
    5b3a:	2cd472        	addmi	a7, a4, 0x2c00
    5b3d:	8f2c           	movi.n	a15, 40
    5b3f:	1c27e2        	l32i	a14, a7, 112
    5b42:	6fdf72        	addmi	a7, a15, 0x6f00
    5b45:	d47a           	add.n	a13, a4, a7
    5b47:	2c25a2        	l32i	a10, a5, 176
    5b4a:	1426b2        	l32i	a11, a6, 80
    5b4d:	2422c2        	l32i	a12, a2, 144
    5b50:	e9ee41        	l32r	a4, 308 (6b18 <synth_3band>)
    5b53:	0004e0        	callx8	a4
    5b56:	03d8           	l32i.n	a13, a3, 0
    5b58:	a4a0f2        	movi	a15, 164
    5b5b:	2622c2        	l32i	a12, a2, 152
    5b5e:	2cdd72        	addmi	a7, a13, 0x2c00
    5b61:	6fdf22        	addmi	a2, a15, 0x6f00
    5b64:	2e25a2        	l32i	a10, a5, 184
    5b67:	1626b2        	l32i	a11, a6, 88
    5b6a:	1b27e2        	l32i	a14, a7, 108
    5b6d:	dd2a           	add.n	a13, a13, a2
    5b6f:	0004e0        	callx8	a4
    5b72:	0348           	l32i.n	a4, a3, 0
    5b74:	ea1521        	l32r	a2, 3c8 (109dc <_end+0x143c>)
    5b77:	332162        	l32i	a6, a1, 204
    5b7a:	ea14f1        	l32r	a15, 3cc (1096c <_end+0x13cc>)
    5b7d:	742a           	add.n	a7, a4, a2
    5b7f:	3c26a2        	l32i	a10, a6, 240
    5b82:	07e8           	l32i.n	a14, a7, 0
    5b84:	ea1321        	l32r	a2, 3d0 (6f10 <hb_buf_delay>)
    5b87:	c4fa           	add.n	a12, a4, a15
    5b89:	4b1c           	movi.n	a11, 20
    5b8b:	cd1c           	movi.n	a13, 28
    5b8d:	0002e0        	callx8	a2
    5b90:	0348           	l32i.n	a4, a3, 0
    5b92:	85a052        	movi	a5, 133
    5b95:	115570        	slli	a5, a5, 9
    5b98:	f8a0f2        	movi	a15, 248
    5b9b:	845a           	add.n	a8, a4, a5
    5b9d:	56df52        	addmi	a5, a15, 0x5600
    5ba0:	2cd472        	addmi	a7, a4, 0x2c00
    5ba3:	d45a           	add.n	a13, a4, a5
    5ba5:	3c26b2        	l32i	a11, a6, 240
    5ba8:	1c27a2        	l32i	a10, a7, 112
    5bab:	08c8           	l32i.n	a12, a8, 0
    5bad:	3d21e2        	l32i	a14, a1, 244
    5bb0:	e9d741        	l32r	a4, 30c (6d88 <tx_upsample_by2_N>)
    5bb3:	8f2c           	movi.n	a15, 40
    5bb5:	0004e0        	callx8	a4
    5bb8:	0348           	l32i.n	a4, a3, 0
    5bba:	ea0351        	l32r	a5, 3c8 (109dc <_end+0x143c>)
    5bbd:	2f2122        	l32i	a2, a1, 188
    5bc0:	ea05f1        	l32r	a15, 3d4 (10888 <_end+0x12e8>)
    5bc3:	745a           	add.n	a7, a4, a5
    5bc5:	1522a2        	l32i	a10, a2, 84
    5bc8:	07e8           	l32i.n	a14, a7, 0
    5bca:	ea0151        	l32r	a5, 3d0 (6f10 <hb_buf_delay>)
    5bcd:	c4fa           	add.n	a12, a4, a15
    5bcf:	8b2c           	movi.n	a11, 40
    5bd1:	9d3c           	movi.n	a13, 57
    5bd3:	0005e0        	callx8	a5
    5bd6:	0348           	l32i.n	a4, a3, 0
    5bd8:	85a0e2        	movi	a14, 133
    5bdb:	1522b2        	l32i	a11, a2, 84
    5bde:	112e70        	slli	a2, a14, 9
    5be1:	e9edf1        	l32r	a15, 398 (107f8 <_end+0x1258>)
    5be4:	742a           	add.n	a7, a4, a2
    5be6:	07a8           	l32i.n	a10, a7, 0
    5be8:	2521c2        	l32i	a12, a1, 148
    5beb:	3c21e2        	l32i	a14, a1, 240
    5bee:	e9c721        	l32r	a2, 30c (6d88 <tx_upsample_by2_N>)
    5bf1:	d4fa           	add.n	a13, a4, a15
    5bf3:	0f5c           	movi.n	a15, 80
    5bf5:	0002e0        	callx8	a2
    5bf8:	0348           	l32i.n	a4, a3, 0
    5bfa:	e9f321        	l32r	a2, 3c8 (109dc <_end+0x143c>)
    5bfd:	e9f6f1        	l32r	a15, 3d8 (109a4 <_end+0x1404>)
    5c00:	3e26a2        	l32i	a10, a6, 248
    5c03:	742a           	add.n	a7, a4, a2
    5c05:	07e8           	l32i.n	a14, a7, 0
    5c07:	c4fa           	add.n	a12, a4, a15
    5c09:	4b1c           	movi.n	a11, 20
    5c0b:	cd1c           	movi.n	a13, 28
    5c0d:	0005e0        	callx8	a5
    5c10:	0348           	l32i.n	a4, a3, 0
    5c12:	e9f221        	l32r	a2, 3dc (10a04 <_end+0x1464>)
    5c15:	851c           	movi.n	a5, 24
    5c17:	2cd472        	addmi	a7, a4, 0x2c00
    5c1a:	842a           	add.n	a8, a4, a2
    5c1c:	57d552        	addmi	a5, a5, 0x5700
    5c1f:	d45a           	add.n	a13, a4, a5
    5c21:	3e26b2        	l32i	a11, a6, 248
    5c24:	1b27a2        	l32i	a10, a7, 108
    5c27:	08c8           	l32i.n	a12, a8, 0
    5c29:	6a21e2        	l32i	a14, a1, 0x1a8
    5c2c:	e9b841        	l32r	a4, 30c (6d88 <tx_upsample_by2_N>)
    5c2f:	8f2c           	movi.n	a15, 40
    5c31:	0004e0        	callx8	a4
    5c34:	0348           	l32i.n	a4, a3, 0
    5c36:	e9e361        	l32r	a6, 3c4 (10a08 <_end+0x1468>)
    5c39:	e9e351        	l32r	a5, 3c8 (109dc <_end+0x143c>)
    5c3c:	e9e9f1        	l32r	a15, 3e0 (108fa <_end+0x135a>)
    5c3f:	746a           	add.n	a7, a4, a6
    5c41:	845a           	add.n	a8, a4, a5
    5c43:	c4fa           	add.n	a12, a4, a15
    5c45:	07a8           	l32i.n	a10, a7, 0
    5c47:	08e8           	l32i.n	a14, a8, 0
    5c49:	e9e141        	l32r	a4, 3d0 (6f10 <hb_buf_delay>)
    5c4c:	8b2c           	movi.n	a11, 40
    5c4e:	9d3c           	movi.n	a13, 57
    5c50:	0004e0        	callx8	a4
    5c53:	0348           	l32i.n	a4, a3, 0
    5c55:	e9e351        	l32r	a5, 3e4 (10818 <_end+0x1278>)
    5c58:	4521c2        	l32i	a12, a1, 0x114
    5c5b:	742a           	add.n	a7, a4, a2
    5c5d:	846a           	add.n	a8, a4, a6
    5c5f:	07a8           	l32i.n	a10, a7, 0
    5c61:	08b8           	l32i.n	a11, a8, 0
    5c63:	6921e2        	l32i	a14, a1, 0x1a4
    5c66:	e9a921        	l32r	a2, 30c (6d88 <tx_upsample_by2_N>)
    5c69:	d45a           	add.n	a13, a4, a5
    5c6b:	0f5c           	movi.n	a15, 80
    5c6d:	0002e0        	callx8	a2

00005c70 <Voice_SWB_TX_Common_Prcs+0x124c>:
    5c70:	222182        	l32i	a8, a1, 136
    5c73:	262122        	l32i	a2, a1, 152
    5c76:	2421b2        	l32i	a11, a1, 144
    5c79:	0f1816        	beqz	a8, 5d6e <Voice_SWB_TX_Common_Prcs+0x134a>
    5c7c:	e914c1        	l32r	a12, cc (f59c <p_ecnr_mem>)
    5c7f:	342122        	l32i	a2, a1, 208
    5c82:	4421d2        	l32i	a13, a1, 0x110
    5c85:	0c48           	l32i.n	a4, a12, 0
    5c87:	4321e2        	l32i	a14, a1, 0x10c
    5c8a:	81a3f2        	movi	a15, 0x381
    5c8d:	2922a2        	l32i	a10, a2, 164
    5c90:	2cd472        	addmi	a7, a4, 0x2c00
    5c93:	112fb0        	slli	a2, a15, 5
    5c96:	112db2        	l32i	a11, a13, 68
    5c99:	3d2ec2        	l32i	a12, a14, 244
    5c9c:	d42a           	add.n	a13, a4, a2
    5c9e:	2327e2        	l32i	a14, a7, 140
    5ca1:	e99921        	l32r	a2, 308 (6b18 <synth_3band>)
    5ca4:	0002e0        	callx8	a2
    5ca7:	3f2142        	l32i	a4, a1, 252
    5caa:	865c           	movi.n	a6, 88
    5cac:	57d662        	addmi	a6, a6, 0x5700
    5caf:	d60442        	l8ui	a4, a4, 214
    5cb2:	e90621        	l32r	a2, cc (f59c <p_ecnr_mem>)
    5cb5:	306417        	bbci	a4, 1, 5ce9 <Voice_SWB_TX_Common_Prcs+0x12c5>
    5cb8:	0278           	l32i.n	a7, a2, 0
    5cba:	6821f2        	l32i	a15, a1, 0x1a0
    5cbd:	2cd742        	addmi	a4, a7, 0x2c00
    5cc0:	221442        	l16ui	a4, a4, 68
    5cc3:	2cd722        	addmi	a2, a7, 0x2c00
    5cc6:	342132        	l32i	a3, a1, 208
    5cc9:	1c2426        	beqi	a4, 2, 5ce9 <Voice_SWB_TX_Common_Prcs+0x12c5>
    5ccc:	202242        	l32i	a4, a2, 128
    5ccf:	362122        	l32i	a2, a1, 216
    5cd2:	312152        	l32i	a5, a1, 196
    5cd5:	a42a           	add.n	a10, a4, a2
    5cd7:	3fcc           	bnez.n	a15, 5cde <Voice_SWB_TX_Common_Prcs+0x12ba>
    5cd9:	55b8           	l32i.n	a11, a5, 20
    5cdb:	000086        	j	5ce1 <Voice_SWB_TX_Common_Prcs+0x12bd>

00005cde <Voice_SWB_TX_Common_Prcs+0x12ba>:
    5cde:	2923b2        	l32i	a11, a3, 164
    5ce1:	e91d41        	l32r	a4, 158 (d6fc <xt_memcpy>)
    5ce4:	ac0c           	movi.n	a12, 10
    5ce6:	0004e0        	callx8	a4
    5ce9:	e8f831        	l32r	a3, cc (f59c <p_ecnr_mem>)
    5cec:	e9bf51        	l32r	a5, 3e8 (10a0c <_end+0x146c>)
    5cef:	412122        	l32i	a2, a1, 0x104
    5cf2:	0348           	l32i.n	a4, a3, 0
    5cf4:	8821e2        	l32i	a14, a1, 0x220
    5cf7:	2522b2        	l32i	a11, a2, 148
    5cfa:	2cd472        	addmi	a7, a4, 0x2c00
    5cfd:	845a           	add.n	a8, a4, a5
    5cff:	d46a           	add.n	a13, a4, a6
    5d01:	2327a2        	l32i	a10, a7, 140
    5d04:	08c8           	l32i.n	a12, a8, 0
    5d06:	e98161        	l32r	a6, 30c (6d88 <tx_upsample_by2_N>)
    5d09:	8f2c           	movi.n	a15, 40
    5d0b:	0006e0        	callx8	a6
    5d0e:	0348           	l32i.n	a4, a3, 0
    5d10:	402122        	l32i	a2, a1, 0x100
    5d13:	e9b6f1        	l32r	a15, 3ec (10838 <_end+0x1298>)
    5d16:	745a           	add.n	a7, a4, a5
    5d18:	4b2152        	l32i	a5, a1, 0x12c
    5d1b:	3922b2        	l32i	a11, a2, 228
    5d1e:	07a8           	l32i.n	a10, a7, 0
    5d20:	8721e2        	l32i	a14, a1, 0x21c
    5d23:	d4fa           	add.n	a13, a4, a15
    5d25:	0f5c           	movi.n	a15, 80
    5d27:	05cd           	mov.n	a12, a5
    5d29:	0006e0        	callx8	a6
    5d2c:	0348           	l32i.n	a4, a3, 0
    5d2e:	e98121        	l32r	a2, 334 (103d4 <_end+0xe34>)
    5d31:	892182        	l32i	a8, a1, 0x224
    5d34:	2421b2        	l32i	a11, a1, 144
    5d37:	442a           	add.n	a4, a4, a2
    5d39:	244d           	ae_l16si.n	a4, a4, 0
    5d3b:	262122        	l32i	a2, a1, 152
    5d3e:	8f2c           	movi.n	a15, 40
    5d40:	607040        	neg	a7, a4
    5d43:	837480        	moveqz	a7, a4, a8
    5d46:	222182        	l32i	a8, a1, 136
    5d49:	1147c0        	slli	a4, a7, 4
    5d4c:	441504        	ae_lp16x2f.i	aep1, a5, 0
    5d4f:	398444        	ae_movpa24x2	aep0, a4, a4
    5d52:	188f76        	loop	a15, 5d6e <Voice_SWB_TX_Common_Prcs+0x134a>
    5d55:	011054        	ae_mulfp24s.hl	aeq0, aep1, aep0
    5d58:	011874        	ae_mulfp24s.ll	aeq1, aep1, aep0
    5d5b:	350214        	ae_slliq56	aeq0, aeq0, 8
    5d5e:	fb63fa924f 	{ ae_slliq56	aeq1, aeq1, 8; ae_roundsp16q48asym	aep7, aeq0 }
    5d63:	f96bb2750f 	{ ae_sp16f.l.i	aep7, a5, 0; ae_roundsp16q48asym	aep2, aeq1 }
    5d68:	422514        	ae_sp16f.l.i	aep2, a5, 2
    5d6b:	449514        	ae_lp16x2f.iu	aep1, a5, 4

00005d6e <Voice_SWB_TX_Common_Prcs+0x134a>:
    5d6e:	302152        	l32i	a5, a1, 192
    5d71:	252192        	l32i	a9, a1, 148
    5d74:	a0a032        	movi	a3, 160
    5d77:	4521a2        	l32i	a10, a1, 0x114
    5d7a:	4a2142        	l32i	a4, a1, 0x128
    5d7d:	553a           	add.n	a5, a5, a3
    5d7f:	4b21d2        	l32i	a13, a1, 0x12c
    5d82:	306152        	s32i	a5, a1, 192
    5d85:	593a           	add.n	a5, a9, a3
    5d87:	4921c2        	l32i	a12, a1, 0x124
    5d8a:	422162        	l32i	a6, a1, 0x108
    5d8d:	256152        	s32i	a5, a1, 148
    5d90:	5a3a           	add.n	a5, a10, a3
    5d92:	8b21e2        	l32i	a14, a1, 0x22c
    5d95:	3621f2        	l32i	a15, a1, 216
    5d98:	456152        	s32i	a5, a1, 0x114
    5d9b:	50c442        	addi	a4, a4, 80
    5d9e:	5d3a           	add.n	a5, a13, a3
    5da0:	4a6142        	s32i	a4, a1, 0x128
    5da3:	50cc42        	addi	a4, a12, 80
    5da6:	4b6152        	s32i	a5, a1, 0x12c
    5da9:	482152        	l32i	a5, a1, 0x120
    5dac:	663a           	add.n	a6, a6, a3
    5dae:	496142        	s32i	a4, a1, 0x124
    5db1:	14cf42        	addi	a4, a15, 20
    5db4:	3e0b           	addi.n	a3, a14, -1
    5db6:	50c222        	addi	a2, a2, 80
    5db9:	50cbb2        	addi	a11, a11, 80
    5dbc:	366142        	s32i	a4, a1, 216
    5dbf:	138c           	beqz.n	a3, 5dc4 <Voice_SWB_TX_Common_Prcs+0x13a0>
    5dc1:	fcd206        	j	510d <Voice_SWB_TX_Common_Prcs+0x6e9>
    5dc4:	000306        	j	5dd4 <Voice_SWB_TX_Common_Prcs+0x13b0>

00005dc7 <Voice_SWB_TX_Common_Prcs+0x13a3>:
    5dc7:	988d           	ae_zext16	a8, a8
    5dc9:	881b           	addi.n	a8, a8, 1
    5dcb:	655932        	s16i	a3, a9, 202
    5dce:	645a82        	s16i	a8, a10, 200
    5dd1:	fe91c6        	j	581c <Voice_SWB_TX_Common_Prcs+0xdf8>

00005dd4 <Voice_SWB_TX_Common_Prcs+0x13b0>:
    5dd4:	232192        	l32i	a9, a1, 140
    5dd7:	e96fa1        	l32r	a10, 394 (107b8 <_end+0x1218>)
    5dda:	e984d1        	l32r	a13, 3ec (10838 <_end+0x1298>)
    5ddd:	120c           	movi.n	a2, 1
    5ddf:	b8a0b2        	movi	a11, 184
    5de2:	98a0c2        	movi	a12, 152
    5de5:	112220        	slli	a2, a2, 14
    5de8:	56dbb2        	addmi	a11, a11, 0x5600
    5deb:	56dcc2        	addmi	a12, a12, 0x5600
    5dee:	0a9816        	beqz	a8, 5e9b <Voice_SWB_TX_Common_Prcs+0x1477>
    5df1:	152142        	l32i	a4, a1, 84
    5df4:	058d           	mov.n	a8, a5
    5df6:	e8b531        	l32r	a3, cc (f59c <p_ecnr_mem>)
    5df9:	262247        	blt	a2, a4, 5e23 <Voice_SWB_TX_Common_Prcs+0x13ff>
    5dfc:	372152        	l32i	a5, a1, 220
    5dff:	443c           	movi.n	a4, 52
    5e01:	0368           	l32i.n	a6, a3, 0
    5e03:	57d442        	addmi	a4, a4, 0x5700
    5e06:	08a072        	movi	a7, 8
    5e09:	603564        	ae_lq32f.xu	aeq0, a5, a6
    5e0c:	376152        	s32i	a5, a1, 220
    5e0f:	372152        	l32i	a5, a1, 220
    5e12:	804640        	add	a4, a6, a4
    5e15:	0a8776        	loop	a7, 5e23 <Voice_SWB_TX_Common_Prcs+0x13ff>
    5e18:	350074        	ae_sraiq56	aeq0, aeq0, 1
    5e1b:	f867bd151f 	{ ae_lq32f.iu	aeq0, a5, 4; ae_roundsp24q48asym	aep0, aeq0 }
    5e20:	528414        	ae_sp24f.l.iu	aep0, a4, 4

00005e23 <Voice_SWB_TX_Common_Prcs+0x13ff>:
    5e23:	162142        	l32i	a4, a1, 88
    5e26:	855c           	movi.n	a5, 88
    5e28:	57d552        	addmi	a5, a5, 0x5700
    5e2b:	202247        	blt	a2, a4, 5e4f <Voice_SWB_TX_Common_Prcs+0x142b>
    5e2e:	e8a731        	l32r	a3, cc (f59c <p_ecnr_mem>)
    5e31:	445c           	movi.n	a4, 84
    5e33:	57d442        	addmi	a4, a4, 0x5700
    5e36:	0368           	l32i.n	a6, a3, 0
    5e38:	08a072        	movi	a7, 8
    5e3b:	804640        	add	a4, a6, a4
    5e3e:	603564        	ae_lq32f.xu	aeq0, a5, a6
    5e41:	0a8776        	loop	a7, 5e4f <Voice_SWB_TX_Common_Prcs+0x142b>
    5e44:	350074        	ae_sraiq56	aeq0, aeq0, 1
    5e47:	f867bd151f 	{ ae_lq32f.iu	aeq0, a5, 4; ae_roundsp24q48asym	aep0, aeq0 }
    5e4c:	528414        	ae_sp24f.l.iu	aep0, a4, 4
    5e4f:	d148           	l32i.n	a4, a1, 52
    5e51:	085d           	mov.n	a5, a8
    5e53:	e89e31        	l32r	a3, cc (f59c <p_ecnr_mem>)
    5e56:	1d2247        	blt	a2, a4, 5e77 <Voice_SWB_TX_Common_Prcs+0x1453>
    5e59:	e94941        	l32r	a4, 380 (107d8 <_end+0x1238>)
    5e5c:	e96561        	l32r	a6, 3f0 (107d4 <_end+0x1234>)
    5e5f:	0378           	l32i.n	a7, a3, 0
    5e61:	880c           	movi.n	a8, 8
    5e63:	806760        	add	a6, a7, a6
    5e66:	603474        	ae_lq32f.xu	aeq0, a4, a7
    5e69:	0a8876        	loop	a8, 5e77 <Voice_SWB_TX_Common_Prcs+0x1453>
    5e6c:	350074        	ae_sraiq56	aeq0, aeq0, 1
    5e6f:	f867bd141f 	{ ae_lq32f.iu	aeq0, a4, 4; ae_roundsp24q48asym	aep0, aeq0 }
    5e74:	528614        	ae_sp24f.l.iu	aep0, a6, 4
    5e77:	e148           	l32i.n	a4, a1, 56
    5e79:	e89431        	l32r	a3, cc (f59c <p_ecnr_mem>)
    5e7c:	e95e81        	l32r	a8, 3f4 (10834 <_end+0x1294>)
    5e7f:	182247        	blt	a2, a4, 5e9b <Voice_SWB_TX_Common_Prcs+0x1477>
    5e82:	870c           	movi.n	a7, 8
    5e84:	002362        	l32i	a6, a3, 0
    5e87:	804680        	add	a4, a6, a8
    5e8a:	603d64        	ae_lq32f.xu	aeq0, a13, a6
    5e8d:	0a8776        	loop	a7, 5e9b <Voice_SWB_TX_Common_Prcs+0x1477>
    5e90:	350074        	ae_sraiq56	aeq0, aeq0, 1
    5e93:	f867bd1d1f 	{ ae_lq32f.iu	aeq0, a13, 4; ae_roundsp24q48asym	aep0, aeq0 }
    5e98:	528414        	ae_sp24f.l.iu	aep0, a4, 4
    5e9b:	102142        	l32i	a4, a1, 64
    5e9e:	e94181        	l32r	a8, 3a4 (10778 <_end+0x11d8>)
    5ea1:	e88a31        	l32r	a3, cc (f59c <p_ecnr_mem>)
    5ea4:	1c2247        	blt	a2, a4, 5ec4 <Voice_SWB_TX_Common_Prcs+0x14a0>
    5ea7:	94a042        	movi	a4, 148
    5eaa:	56d442        	addmi	a4, a4, 0x5600
    5ead:	0368           	l32i.n	a6, a3, 0
    5eaf:	870c           	movi.n	a7, 8
    5eb1:	464a           	add.n	a4, a6, a4
    5eb3:	603c64        	ae_lq32f.xu	aeq0, a12, a6
    5eb6:	0a8776        	loop	a7, 5ec4 <Voice_SWB_TX_Common_Prcs+0x14a0>
    5eb9:	350074        	ae_sraiq56	aeq0, aeq0, 1
    5ebc:	f867bd1c1f 	{ ae_lq32f.iu	aeq0, a12, 4; ae_roundsp24q48asym	aep0, aeq0 }
    5ec1:	528414        	ae_sp24f.l.iu	aep0, a4, 4
    5ec4:	132142        	l32i	a4, a1, 76
    5ec7:	f8a0c2        	movi	a12, 248
    5eca:	56dcc2        	addmi	a12, a12, 0x5600
    5ecd:	1f2247        	blt	a2, a4, 5ef0 <Voice_SWB_TX_Common_Prcs+0x14cc>
    5ed0:	e87f31        	l32r	a3, cc (f59c <p_ecnr_mem>)
    5ed3:	f4a042        	movi	a4, 244
    5ed6:	56d442        	addmi	a4, a4, 0x5600
    5ed9:	0368           	l32i.n	a6, a3, 0
    5edb:	870c           	movi.n	a7, 8
    5edd:	464a           	add.n	a4, a6, a4
    5edf:	603c64        	ae_lq32f.xu	aeq0, a12, a6
    5ee2:	0a8776        	loop	a7, 5ef0 <Voice_SWB_TX_Common_Prcs+0x14cc>
    5ee5:	350074        	ae_sraiq56	aeq0, aeq0, 1
    5ee8:	f867bd1c1f 	{ ae_lq32f.iu	aeq0, a12, 4; ae_roundsp24q48asym	aep0, aeq0 }
    5eed:	528414        	ae_sp24f.l.iu	aep0, a4, 4
    5ef0:	122142        	l32i	a4, a1, 72
    5ef3:	e87631        	l32r	a3, cc (f59c <p_ecnr_mem>)
    5ef6:	b4a062        	movi	a6, 180
    5ef9:	1a2247        	blt	a2, a4, 5f17 <Voice_SWB_TX_Common_Prcs+0x14f3>
    5efc:	56d642        	addmi	a4, a6, 0x5600
    5eff:	0368           	l32i.n	a6, a3, 0
    5f01:	870c           	movi.n	a7, 8
    5f03:	804640        	add	a4, a6, a4
    5f06:	603b64        	ae_lq32f.xu	aeq0, a11, a6
    5f09:	0a8776        	loop	a7, 5f17 <Voice_SWB_TX_Common_Prcs+0x14f3>
    5f0c:	350074        	ae_sraiq56	aeq0, aeq0, 1
    5f0f:	f867bd1b1f 	{ ae_lq32f.iu	aeq0, a11, 4; ae_roundsp24q48asym	aep0, aeq0 }
    5f14:	528414        	ae_sp24f.l.iu	aep0, a4, 4
    5f17:	8148           	l32i.n	a4, a1, 32
    5f19:	e86c31        	l32r	a3, cc (f59c <p_ecnr_mem>)
    5f1c:	e937b1        	l32r	a11, 3f8 (10774 <_end+0x11d4>)
    5f1f:	182247        	blt	a2, a4, 5f3b <Voice_SWB_TX_Common_Prcs+0x1517>
    5f22:	870c           	movi.n	a7, 8
    5f24:	002362        	l32i	a6, a3, 0
    5f27:	8046b0        	add	a4, a6, a11
    5f2a:	603864        	ae_lq32f.xu	aeq0, a8, a6
    5f2d:	0a8776        	loop	a7, 5f3b <Voice_SWB_TX_Common_Prcs+0x1517>
    5f30:	350074        	ae_sraiq56	aeq0, aeq0, 1
    5f33:	f867bd181f 	{ ae_lq32f.iu	aeq0, a8, 4; ae_roundsp24q48asym	aep0, aeq0 }
    5f38:	528414        	ae_sp24f.l.iu	aep0, a4, 4
    5f3b:	b148           	l32i.n	a4, a1, 44
    5f3d:	e86331        	l32r	a3, cc (f59c <p_ecnr_mem>)
    5f40:	3e2182        	l32i	a8, a1, 248
    5f43:	202247        	blt	a2, a4, 5f67 <Voice_SWB_TX_Common_Prcs+0x1543>
    5f46:	e92d41        	l32r	a4, 3fc (107f4 <_end+0x1254>)
    5f49:	0368           	l32i.n	a6, a3, 0
    5f4b:	870c           	movi.n	a7, 8
    5f4d:	603864        	ae_lq32f.xu	aeq0, a8, a6
    5f50:	3e6182        	s32i	a8, a1, 248
    5f53:	804640        	add	a4, a6, a4
    5f56:	3e2162        	l32i	a6, a1, 248
    5f59:	0a8776        	loop	a7, 5f67 <Voice_SWB_TX_Common_Prcs+0x1543>
    5f5c:	350074        	ae_sraiq56	aeq0, aeq0, 1
    5f5f:	f867bd161f 	{ ae_lq32f.iu	aeq0, a6, 4; ae_roundsp24q48asym	aep0, aeq0 }
    5f64:	528414        	ae_sp24f.l.iu	aep0, a4, 4
    5f67:	e85931        	l32r	a3, cc (f59c <p_ecnr_mem>)
    5f6a:	a168           	l32i.n	a6, a1, 40
    5f6c:	e92581        	l32r	a8, 400 (107b4 <_end+0x1214>)
    5f6f:	0348           	l32i.n	a4, a3, 0
    5f71:	162267        	blt	a2, a6, 5f8b <Voice_SWB_TX_Common_Prcs+0x1567>
    5f74:	08a072        	movi	a7, 8
    5f77:	603a44        	ae_lq32f.xu	aeq0, a10, a4
    5f7a:	806480        	add	a6, a4, a8
    5f7d:	0a8776        	loop	a7, 5f8b <Voice_SWB_TX_Common_Prcs+0x1567>
    5f80:	350074        	ae_sraiq56	aeq0, aeq0, 1
    5f83:	f867bd1a1f 	{ ae_lq32f.iu	aeq0, a10, 4; ae_roundsp24q48asym	aep0, aeq0 }
    5f88:	528614        	ae_sp24f.l.iu	aep0, a6, 4
    5f8b:	2cd462        	addmi	a6, a4, 0x2c00
    5f8e:	221662        	l16ui	a6, a6, 68
    5f91:	112132        	l32i	a3, a1, 68
    5f94:	d8a082        	movi	a8, 216
    5f97:	022626        	beqi	a6, 2, 5f9d <Voice_SWB_TX_Common_Prcs+0x1579>
    5f9a:	004386        	j	60ac <Voice_SWB_TX_Common_Prcs+0x1688>
    5f9d:	56d882        	addmi	a8, a8, 0x5600
    5fa0:	1b2237        	blt	a2, a3, 5fbf <Voice_SWB_TX_Common_Prcs+0x159b>
    5fa3:	d4a062        	movi	a6, 212
    5fa6:	56d662        	addmi	a6, a6, 0x5600
    5fa9:	870c           	movi.n	a7, 8
    5fab:	603844        	ae_lq32f.xu	aeq0, a8, a4
    5fae:	806460        	add	a6, a4, a6
    5fb1:	0a8776        	loop	a7, 5fbf <Voice_SWB_TX_Common_Prcs+0x159b>
    5fb4:	350074        	ae_sraiq56	aeq0, aeq0, 1
    5fb7:	f867bd181f 	{ ae_lq32f.iu	aeq0, a8, 4; ae_roundsp24q48asym	aep0, aeq0 }
    5fbc:	528614        	ae_sp24f.l.iu	aep0, a6, 4
    5fbf:	142162        	l32i	a6, a1, 80
    5fc2:	881c           	movi.n	a8, 24
    5fc4:	57d882        	addmi	a8, a8, 0x5700
    5fc7:	192267        	blt	a2, a6, 5fe4 <Voice_SWB_TX_Common_Prcs+0x15c0>
    5fca:	461c           	movi.n	a6, 20
    5fcc:	57d662        	addmi	a6, a6, 0x5700
    5fcf:	870c           	movi.n	a7, 8
    5fd1:	603844        	ae_lq32f.xu	aeq0, a8, a4
    5fd4:	646a           	add.n	a6, a4, a6
    5fd6:	0a8776        	loop	a7, 5fe4 <Voice_SWB_TX_Common_Prcs+0x15c0>
    5fd9:	350074        	ae_sraiq56	aeq0, aeq0, 1
    5fdc:	f867bd181f 	{ ae_lq32f.iu	aeq0, a8, 4; ae_roundsp24q48asym	aep0, aeq0 }
    5fe1:	528614        	ae_sp24f.l.iu	aep0, a6, 4
    5fe4:	9168           	l32i.n	a6, a1, 36
    5fe6:	e8f381        	l32r	a8, 3b4 (10798 <_end+0x11f8>)
    5fe9:	e90631        	l32r	a3, 404 (10794 <_end+0x11f4>)
    5fec:	142267        	blt	a2, a6, 6004 <Voice_SWB_TX_Common_Prcs+0x15e0>
    5fef:	870c           	movi.n	a7, 8
    5ff1:	603844        	ae_lq32f.xu	aeq0, a8, a4
    5ff4:	643a           	add.n	a6, a4, a3
    5ff6:	0a8776        	loop	a7, 6004 <Voice_SWB_TX_Common_Prcs+0x15e0>
    5ff9:	350074        	ae_sraiq56	aeq0, aeq0, 1
    5ffc:	f867bd181f 	{ ae_lq32f.iu	aeq0, a8, 4; ae_roundsp24q48asym	aep0, aeq0 }
    6001:	528614        	ae_sp24f.l.iu	aep0, a6, 4
    6004:	c168           	l32i.n	a6, a1, 48
    6006:	e8f771        	l32r	a7, 3e4 (10818 <_end+0x1278>)
    6009:	e8ff31        	l32r	a3, 408 (10814 <_end+0x1274>)
    600c:	142267        	blt	a2, a6, 6024 <Voice_SWB_TX_Common_Prcs+0x1600>
    600f:	860c           	movi.n	a6, 8
    6011:	603744        	ae_lq32f.xu	aeq0, a7, a4
    6014:	243a           	add.n	a2, a4, a3
    6016:	0a8676        	loop	a6, 6024 <Voice_SWB_TX_Common_Prcs+0x1600>
    6019:	350074        	ae_sraiq56	aeq0, aeq0, 1
    601c:	f867bd171f 	{ ae_lq32f.iu	aeq0, a7, 4; ae_roundsp24q48asym	aep0, aeq0 }
    6021:	528214        	ae_sp24f.l.iu	aep0, a2, 4
    6024:	64d922        	addmi	a2, a9, 0x6400
    6027:	1f9242        	l16si	a4, a2, 62
    602a:	2c21e2        	l32i	a14, a1, 176
    602d:	2d21f2        	l32i	a15, a1, 180
    6030:	440b           	addi.n	a4, a4, -1
    6032:	946d           	ae_zext16	a6, a4
    6034:	10ce22        	addi	a2, a14, 16
    6037:	10cf42        	addi	a4, a15, 16
    603a:	4b26f6        	bgeui	a6, 2, 6089 <Voice_SWB_TX_Common_Prcs+0x1665>
    603d:	65d962        	addmi	a6, a9, 0x6500
    6040:	209662        	l16si	a6, a6, 64
    6043:	622132        	l32i	a3, a1, 0x188
    6046:	66d972        	addmi	a7, a9, 0x6600
    6049:	3c26a6        	blti	a6, 2, 6089 <Voice_SWB_TX_Common_Prcs+0x1665>
    604c:	377d           	ae_l16si.n	a7, a7, 2
    604e:	769362        	l16si	a6, a3, 236
    6051:	1c0c           	movi.n	a12, 1
    6053:	1b0c           	movi.n	a11, 1
    6055:	d16760        	mul16s	a6, a7, a6
    6058:	119c10        	slli	a9, a12, 15
    605b:	2921d2        	l32i	a13, a1, 164
    605e:	2b21e2        	l32i	a14, a1, 172
    6061:	969a           	add.n	a9, a6, a9
    6063:	908660        	addx2	a8, a6, a6
    6066:	117b00        	slli	a7, a11, 16
    6069:	40d662        	addmi	a6, a6, 0x4000
    606c:	2a21f2        	l32i	a15, a1, 168
    606f:	787a           	add.n	a7, a8, a7
    6071:	216f60        	srai	a6, a6, 15
    6074:	319090        	srai	a9, a9, 16
    6077:	86da           	add.n	a8, a6, a13
    6079:	69ea           	add.n	a6, a9, a14
    607b:	317170        	srai	a7, a7, 17
    607e:	2b6162        	s32i	a6, a1, 172
    6081:	67fa           	add.n	a6, a7, a15
    6083:	296182        	s32i	a8, a1, 164
    6086:	2a6162        	s32i	a6, a1, 168

00006089 <Voice_SWB_TX_Common_Prcs+0x1665>:
    6089:	212520        	srai	a2, a2, 5
    608c:	2c6122        	s32i	a2, a1, 176
    608f:	e8aa21        	l32r	a2, 338 (7868 <mag_calibration>)
    6092:	5221a2        	l32i	a10, a1, 0x148
    6095:	21f540        	srai	a15, a4, 5
    6098:	2d61f2        	s32i	a15, a1, 180
    609b:	0002e0        	callx8	a2
    609e:	232192        	l32i	a9, a1, 140
    60a1:	040c           	movi.n	a4, 0
    60a3:	64d922        	addmi	a2, a9, 0x6400
    60a6:	1f6242        	s32i	a4, a2, 124
    60a9:	206242        	s32i	a4, a2, 128
    60ac:	6ed922        	addmi	a2, a9, 0x6e00
    60af:	071242        	l16ui	a4, a2, 14
    60b2:	256122        	s32i	a2, a1, 148
    60b5:	4c2122        	l32i	a2, a1, 0x130
    60b8:	0bd416        	beqz	a4, 6179 <Voice_SWB_TX_Common_Prcs+0x1755>
    60bb:	e8a231        	l32r	a3, 344 (2d9c <dt_detect_sb>)
    60be:	5c21b2        	l32i	a11, a1, 0x170
    60c1:	3822c2        	l32i	a12, a2, 224
    60c4:	05ad           	mov.n	a10, a5
    60c6:	0003e0        	callx8	a3
    60c9:	3822c2        	l32i	a12, a2, 224
    60cc:	5d21b2        	l32i	a11, a1, 0x174
    60cf:	05ad           	mov.n	a10, a5
    60d1:	0003e0        	callx8	a3
    60d4:	652122        	l32i	a2, a1, 0x194
    60d7:	642142        	l32i	a4, a1, 0x190
    60da:	5e21b2        	l32i	a11, a1, 0x178
    60dd:	202262        	l32i	a6, a2, 128
    60e0:	342472        	l32i	a7, a4, 208
    60e3:	05ad           	mov.n	a10, a5
    60e5:	43c670        	min	a12, a6, a7
    60e8:	0003e0        	callx8	a3
    60eb:	202262        	l32i	a6, a2, 128
    60ee:	342472        	l32i	a7, a4, 208
    60f1:	5f21b2        	l32i	a11, a1, 0x17c
    60f4:	05ad           	mov.n	a10, a5
    60f6:	43c670        	min	a12, a6, a7
    60f9:	0003e0        	callx8	a3
    60fc:	6321f2        	l32i	a15, a1, 0x18c
    60ff:	202262        	l32i	a6, a2, 128
    6102:	342472        	l32i	a7, a4, 208
    6105:	8f88           	l32i.n	a8, a15, 32
    6107:	6021b2        	l32i	a11, a1, 0x180
    610a:	436670        	min	a6, a6, a7
    610d:	43c860        	min	a12, a8, a6
    6110:	05ad           	mov.n	a10, a5
    6112:	0003e0        	callx8	a3
    6115:	222122        	l32i	a2, a1, 136
    6118:	e88c41        	l32r	a4, 348 (2e24 <dt_detect_FB_sb>)
    611b:	5921b2        	l32i	a11, a1, 0x164
    611e:	0a1216        	beqz	a2, 61c3 <Voice_SWB_TX_Common_Prcs+0x179f>
    6121:	232122        	l32i	a2, a1, 140
    6124:	05ad           	mov.n	a10, a5
    6126:	6cd262        	addmi	a6, a2, 0x6c00
    6129:	1c26c2        	l32i	a12, a6, 112
    612c:	0004e0        	callx8	a4
    612f:	1c26c2        	l32i	a12, a6, 112
    6132:	5a21b2        	l32i	a11, a1, 0x168
    6135:	05ad           	mov.n	a10, a5
    6137:	0004e0        	callx8	a4
    613a:	6dd262        	addmi	a6, a2, 0x6d00
    613d:	4688           	l32i.n	a8, a6, 16
    613f:	182692        	l32i	a9, a6, 96
    6142:	5b21b2        	l32i	a11, a1, 0x16c
    6145:	05ad           	mov.n	a10, a5
    6147:	43c890        	min	a12, a8, a9
    614a:	0004e0        	callx8	a4
    614d:	4688           	l32i.n	a8, a6, 16
    614f:	182692        	l32i	a9, a6, 96
    6152:	5321b2        	l32i	a11, a1, 0x14c
    6155:	05ad           	mov.n	a10, a5
    6157:	43c890        	min	a12, a8, a9
    615a:	0004e0        	callx8	a4
    615d:	6dd282        	addmi	a8, a2, 0x6d00
    6160:	4668           	l32i.n	a6, a6, 16
    6162:	182872        	l32i	a7, a8, 96
    6165:	2c2882        	l32i	a8, a8, 176
    6168:	5421b2        	l32i	a11, a1, 0x150
    616b:	436670        	min	a6, a6, a7
    616e:	43c860        	min	a12, a8, a6
    6171:	05ad           	mov.n	a10, a5
    6173:	0004e0        	callx8	a4
    6176:	0010c6        	j	61bd <Voice_SWB_TX_Common_Prcs+0x1799>

00006179 <Voice_SWB_TX_Common_Prcs+0x1755>:
    6179:	9aa042        	movi	a4, 154
    617c:	bda622        	movi	a2, 0x6bd
    617f:	6ad442        	addmi	a4, a4, 0x6a00
    6182:	1122c0        	slli	a2, a2, 4
    6185:	410944        	ae_lp16f.x	aep0, a9, a4
    6188:	602924        	ae_lq32f.x	aeq0, a9, a2
    618b:	d4e234c1ee 	{ l32i	a14, a1, 0x130; ae_mulfq32sp16s.l	aeq0, aeq0, aep0 }
    6190:	60c162        	addi	a6, a1, 96
    6193:	620604        	ae_sq32f.i	aeq0, a6, 0
    6196:	382ef2        	l32i	a15, a14, 224
    6199:	182162        	l32i	a6, a1, 96
    619c:	e86841        	l32r	a4, 33c (2d58 <dt_detect>)
    619f:	05ad           	mov.n	a10, a5
    61a1:	53bf60        	max	a11, a15, a6
    61a4:	0004e0        	callx8	a4
    61a7:	222122        	l32i	a2, a1, 136
    61aa:	232132        	l32i	a3, a1, 140
    61ad:	05ad           	mov.n	a10, a5
    61af:	029c           	beqz.n	a2, 61c3 <Voice_SWB_TX_Common_Prcs+0x179f>
    61b1:	6cd342        	addmi	a4, a3, 0x6c00
    61b4:	1c24b2        	l32i	a11, a4, 112
    61b7:	e86241        	l32r	a4, 340 (2de0 <dt_detect_FB>)
    61ba:	0004e0        	callx8	a4
    61bd:	2721d2        	l32i	a13, a1, 156
    61c0:	002046        	j	6245 <Voice_SWB_TX_Common_Prcs+0x1821>

000061c3 <Voice_SWB_TX_Common_Prcs+0x179f>:
    61c3:	252122        	l32i	a2, a1, 148
    61c6:	2721d2        	l32i	a13, a1, 156
    61c9:	e7c031        	l32r	a3, cc (f59c <p_ecnr_mem>)
    61cc:	071242        	l16ui	a4, a2, 14
    61cf:	232122        	l32i	a2, a1, 140
    61d2:	0368           	l32i.n	a6, a3, 0
    61d4:	06d456        	bnez	a4, 6245 <Voice_SWB_TX_Common_Prcs+0x1821>
    61d7:	9aa072        	movi	a7, 154
    61da:	2cd642        	addmi	a4, a6, 0x2c00
    61dd:	6ad262        	addmi	a6, a2, 0x6a00
    61e0:	3d9662        	l16si	a6, a6, 122
    61e3:	249442        	l16si	a4, a4, 72
    61e6:	d4a082        	movi	a8, 212
    61e9:	6ad732        	addmi	a3, a7, 0x6a00
    61ec:	33a647        	bge	a6, a4, 6223 <Voice_SWB_TX_Common_Prcs+0x17ff>
    61ef:	e7d041        	l32r	a4, 130 (7fff0000 <_end+0x7ffe0a60>)
    61f2:	360434        	ae_cvtq48a32s	aeq0, a4
    61f5:	001046        	j	623a <Voice_SWB_TX_Common_Prcs+0x1816>

000061f8 <Voice_SWB_TX_Common_Prcs+0x17d4>:
    61f8:	140c           	movi.n	a4, 1
    61fa:	114450        	slli	a4, a4, 11
    61fd:	e0a152        	movi	a5, 0x1e0
    6200:	1f0c           	movi.n	a15, 1
    6202:	300444        	ae_cvtp24a16x2.ll	aep0, a4, a4
    6205:	fec632        	addi	a3, a6, -2
    6208:	409204        	ae_lp16f.iu	aep1, a2, 0
    620b:	114f30        	slli	a4, a15, 13
    620e:	0e8576        	loop	a5, 6220 <Voice_SWB_TX_Common_Prcs+0x17fc>
    6211:	000174        	ae_mulfs32p16s.ll	aeq0, aep0, aep1
    6214:	360114        	ae_sllisq56s	aeq0, aeq0, 4
    6217:	1b8f74        	ae_roundsp16q48asym	aep7, aeq0
    621a:	42f314        	ae_sp16f.l.iu	aep7, a3, 2
    621d:	409214        	ae_lp16f.iu	aep1, a2, 2

00006220 <Voice_SWB_TX_Common_Prcs+0x17fc>:
    6220:	009f86        	j	64a2 <Voice_SWB_TX_Common_Prcs+0x1a7e>

00006223 <Voice_SWB_TX_Common_Prcs+0x17ff>:
    6223:	6bd862        	addmi	a6, a8, 0x6b00
    6226:	602264        	ae_lq32f.x	aeq0, a2, a6
    6229:	410234        	ae_lp16f.x	aep0, a2, a3
    622c:	d4e200e4ff 	{ movi	a15, 228; ae_mulfq32sp16s.l	aeq0, aeq0, aep0 }
    6231:	6adf42        	addmi	a4, a15, 0x6a00
    6234:	606244        	ae_lq32f.x	aeq1, a2, a4
    6237:	0110c4        	ae_maxq56s	aeq0, aeq0, aeq1
    623a:	f86383554f 	{ movi	a4, 0x355; ae_roundsp16q48asym	aep0, aeq0 }
    623f:	1144b0        	slli	a4, a4, 5
    6242:	430244        	ae_sp16f.l.x	aep0, a2, a4
    6245:	e7a121        	l32r	a2, cc (f59c <p_ecnr_mem>)
    6248:	d3a7f2        	movi	a15, 0x7d3
    624b:	e84931        	l32r	a3, 370 (10a24 <_end+0x1484>)
    624e:	0248           	l32i.n	a4, a2, 0
    6250:	e84a91        	l32r	a9, 378 (10a28 <_end+0x1488>)
    6253:	2321a2        	l32i	a10, a1, 140
    6256:	2cd462        	addmi	a6, a4, 0x2c00
    6259:	221672        	l16ui	a7, a6, 68
    625c:	116fd0        	slli	a6, a15, 3
    625f:	85a382        	movi	a8, 0x385
    6262:	572766        	bnei	a7, 2, 62bd <Voice_SWB_TX_Common_Prcs+0x1899>
    6265:	2cd472        	addmi	a7, a4, 0x2c00
    6268:	252772        	l32i	a7, a7, 148
    626b:	292122        	l32i	a2, a1, 164
    626e:	2a21b2        	l32i	a11, a1, 168
    6271:	2b21c2        	l32i	a12, a1, 172
    6274:	2c21e2        	l32i	a14, a1, 176
    6277:	2d21f2        	l32i	a15, a1, 180
    627a:	772d           	ae_s16i.n	a2, a7, 2
    627c:	65da82        	addmi	a8, a10, 0x6500
    627f:	0257b2        	s16i	a11, a7, 4
    6282:	0357c2        	s16i	a12, a7, 6
    6285:	0457e2        	s16i	a14, a7, 8
    6288:	0557f2        	s16i	a15, a7, 10
    628b:	209882        	l16si	a8, a8, 64
    628e:	2cd492        	addmi	a9, a4, 0x2c00
    6291:	065782        	s16i	a8, a7, 12
    6294:	4f0972        	l8ui	a7, a9, 79
    6297:	e83621        	l32r	a2, 370 (10a24 <_end+0x1484>)
    629a:	e0a1c2        	movi	a12, 0x1e0
    629d:	34e767        	bbsi	a7, 6, 62d5 <Voice_SWB_TX_Common_Prcs+0x18b1>
    62a0:	e83521        	l32r	a2, 374 (10a20 <_end+0x1480>)
    62a3:	e833e1        	l32r	a14, 370 (10a24 <_end+0x1484>)
    62a6:	e834f1        	l32r	a15, 378 (10a28 <_end+0x1488>)
    62a9:	742a           	add.n	a7, a4, a2
    62ab:	84ea           	add.n	a8, a4, a14
    62ad:	94fa           	add.n	a9, a4, a15
    62af:	e46a           	add.n	a14, a4, a6
    62b1:	07a8           	l32i.n	a10, a7, 0
    62b3:	08b8           	l32i.n	a11, a8, 0
    62b5:	09c8           	l32i.n	a12, a9, 0
    62b7:	e85541        	l32r	a4, 40c (99d0 <two_mic_SWB_NR_proc>)
    62ba:	000446        	j	62cf <Voice_SWB_TX_Common_Prcs+0x18ab>

000062bd <Voice_SWB_TX_Common_Prcs+0x1899>:
    62bd:	743a           	add.n	a7, a4, a3
    62bf:	1188b0        	slli	a8, a8, 5
    62c2:	949a           	add.n	a9, a4, a9
    62c4:	e46a           	add.n	a14, a4, a6
    62c6:	a48a           	add.n	a10, a4, a8
    62c8:	07b8           	l32i.n	a11, a7, 0
    62ca:	09c8           	l32i.n	a12, a9, 0
    62cc:	e85141        	l32r	a4, 410 (86f4 <SWB_NR_frame_process>)
    62cf:	0004e0        	callx8	a4
    62d2:	0002c6        	j	62e1 <Voice_SWB_TX_Common_Prcs+0x18bd>

000062d5 <Voice_SWB_TX_Common_Prcs+0x18b1>:
    62d5:	0dad           	mov.n	a10, a13
    62d7:	442a           	add.n	a4, a4, a2
    62d9:	04b8           	l32i.n	a11, a4, 0
    62db:	e79f21        	l32r	a2, 158 (d6fc <xt_memcpy>)
    62de:	0002e0        	callx8	a2
    62e1:	222142        	l32i	a4, a1, 136
    62e4:	232122        	l32i	a2, a1, 140
    62e7:	252132        	l32i	a3, a1, 148
    62ea:	04d416        	beqz	a4, 633b <Voice_SWB_TX_Common_Prcs+0x1917>
    62ed:	e77781        	l32r	a8, cc (f59c <p_ecnr_mem>)
    62f0:	071342        	l16ui	a4, a3, 14
    62f3:	6ad272        	addmi	a7, a2, 0x6a00
    62f6:	0838           	l32i.n	a3, a8, 0
    62f8:	03f456        	bnez	a4, 633b <Voice_SWB_TX_Common_Prcs+0x1917>
    62fb:	3d9772        	l16si	a7, a7, 122
    62fe:	2cd342        	addmi	a4, a3, 0x2c00
    6301:	249442        	l16si	a4, a4, 72
    6304:	9aa092        	movi	a9, 154
    6307:	d4a0a2        	movi	a10, 212
    630a:	08a747        	bge	a7, a4, 6316 <Voice_SWB_TX_Common_Prcs+0x18f2>
    630d:	e78841        	l32r	a4, 130 (7fff0000 <_end+0x7ffe0a60>)
    6310:	360434        	ae_cvtq48a32s	aeq0, a4
    6313:	000646        	j	6330 <Voice_SWB_TX_Common_Prcs+0x190c>

00006316 <Voice_SWB_TX_Common_Prcs+0x18f2>:
    6316:	6ad942        	addmi	a4, a9, 0x6a00
    6319:	6bda72        	addmi	a7, a10, 0x6b00
    631c:	602274        	ae_lq32f.x	aeq0, a2, a7
    631f:	410244        	ae_lp16f.x	aep0, a2, a4
    6322:	d4e200e4ff 	{ movi	a15, 228; ae_mulfq32sp16s.l	aeq0, aeq0, aep0 }
    6327:	6adf42        	addmi	a4, a15, 0x6a00
    632a:	606244        	ae_lq32f.x	aeq1, a2, a4
    632d:	0110c4        	ae_maxq56s	aeq0, aeq0, aeq1
    6330:	f86383554f 	{ movi	a4, 0x355; ae_roundsp16q48asym	aep0, aeq0 }
    6335:	1144b0        	slli	a4, a4, 5
    6338:	430244        	ae_sp16f.l.x	aep0, a2, a4
    633b:	e76421        	l32r	a2, cc (f59c <p_ecnr_mem>)
    633e:	7fa572        	movi	a7, 0x57f
    6341:	1177c0        	slli	a7, a7, 4
    6344:	0248           	l32i.n	a4, a2, 0
    6346:	a47a           	add.n	a10, a4, a7
    6348:	b46a           	add.n	a11, a4, a6
    634a:	e80241        	l32r	a4, 354 (6bdc <AVC_prcs>)
    634d:	0004e0        	callx8	a4
    6350:	0278           	l32i.n	a7, a2, 0
    6352:	e80141        	l32r	a4, 358 (10a2e <_end+0x148e>)
    6355:	474a           	add.n	a4, a7, a4
    6357:	248d           	ae_l16si.n	a8, a4, 0
    6359:	0a4d           	mov.n	a4, a10
    635b:	112400        	slli	a2, a4, 16
    635e:	d88c           	beqz.n	a8, 636f <Voice_SWB_TX_Common_Prcs+0x194b>
    6360:	214120        	srai	a4, a2, 1
    6363:	ffa022        	movi	a2, 255
    6366:	d24480        	quos	a4, a4, a8
    6369:	7fd222        	addmi	a2, a2, 0x7f00
    636c:	434420        	min	a4, a4, a2
    636f:	252122        	l32i	a2, a1, 148
    6372:	2721b2        	l32i	a11, a1, 156
    6375:	c76a           	add.n	a12, a7, a6
    6377:	071222        	l16ui	a2, a2, 14
    637a:	e0a1d2        	movi	a13, 0x1e0
    637d:	05ad           	mov.n	a10, a5
    637f:	92cc           	bnez.n	a2, 638c <Voice_SWB_TX_Common_Prcs+0x1968>
    6381:	e7f621        	l32r	a2, 35c (6c58 <aec_post_prcs>)
    6384:	0002e0        	callx8	a2
    6387:	e75121        	l32r	a2, cc (f59c <p_ecnr_mem>)
    638a:	0278           	l32i.n	a7, a2, 0
    638c:	64a022        	movi	a2, 100
    638f:	c51c           	movi.n	a5, 28
    6391:	28d222        	addmi	a2, a2, 0x2800
    6394:	28d552        	addmi	a5, a5, 0x2800
    6397:	c72a           	add.n	a12, a7, a2
    6399:	e7f121        	l32r	a2, 360 (3180 <deemph_filter_N>)
    639c:	2721a2        	l32i	a10, a1, 156
    639f:	b75a           	add.n	a11, a7, a5
    63a1:	e0a1d2        	movi	a13, 0x1e0
    63a4:	0002e0        	callx8	a2
    63a7:	e74921        	l32r	a2, cc (f59c <p_ecnr_mem>)
    63aa:	222152        	l32i	a5, a1, 136
    63ad:	282132        	l32i	a3, a1, 160
    63b0:	0228           	l32i.n	a2, a2, 0
    63b2:	0d1516        	beqz	a5, 6487 <Voice_SWB_TX_Common_Prcs+0x1a63>
    63b5:	02e397        	bbsi	a3, 9, 63bb <Voice_SWB_TX_Common_Prcs+0x1997>
    63b8:	0032c6        	j	6487 <Voice_SWB_TX_Common_Prcs+0x1a63>
    63bb:	2cd252        	addmi	a5, a2, 0x2c00
    63be:	221552        	l16ui	a5, a5, 68
    63c1:	4d2132        	l32i	a3, a1, 0x134
    63c4:	2321f2        	l32i	a15, a1, 140
    63c7:	022526        	beqi	a5, 2, 63cd <Voice_SWB_TX_Common_Prcs+0x19a9>
    63ca:	002e46        	j	6487 <Voice_SWB_TX_Common_Prcs+0x1a63>
    63cd:	1fa562        	movi	a6, 0x51f
    63d0:	1323b2        	l32i	a11, a3, 76
    63d3:	65df52        	addmi	a5, a15, 0x6500
    63d6:	1425a2        	l32i	a10, a5, 80
    63d9:	0826b7        	blt	a6, a11, 63e5 <Voice_SWB_TX_Common_Prcs+0x19c1>
    63dc:	20a552        	movi	a5, 0x520
    63df:	02aa57        	bge	a10, a5, 63e5 <Voice_SWB_TX_Common_Prcs+0x19c1>
    63e2:	002846        	j	6487 <Voice_SWB_TX_Common_Prcs+0x1a63>
    63e5:	e79d21        	l32r	a2, 25c (be9c <airoha_divide>)
    63e8:	0002e0        	callx8	a2
    63eb:	e73821        	l32r	a2, cc (f59c <p_ecnr_mem>)
    63ee:	e7b631        	l32r	a3, 2c8 (103d6 <_end+0xe36>)
    63f1:	360b34        	ae_cvtq48a32s	aeq0, a11
    63f4:	0228           	l32i.n	a2, a2, 0
    63f6:	f8ca52        	addi	a5, a10, -8
    63f9:	fc24fe850f 	{ ae_slaasq56s	aeq0, aeq0, a5; nop }
    63fe:	323a           	add.n	a3, a2, a3
    6400:	233d           	ae_l16si.n	a3, a3, 0
    6402:	1d0c           	movi.n	a13, 1
    6404:	0e0c           	movi.n	a14, 0
    6406:	113380        	slli	a3, a3, 8
    6409:	f867e2033f 	{ ae_movpa24x2	aep0, a3, a3; ae_roundsp24q48asym	aep1, aeq0 }
    640e:	113d10        	slli	a3, a13, 15
    6411:	ea05bec37f 	{ ae_cvtq48a32s	aeq1, a3; ae_mulfp24s.ll	aeq0, aep1, aep0 }
    6416:	1f0c           	movi.n	a15, 1
    6418:	d64800003f 	{ movi	a3, 0; ae_ltq56s	b0, aeq0, aeq1 }
    641d:	150c           	movi.n	a5, 1
    641f:	355054        	ae_slliq56	aeq1, aeq1, 1
    6422:	d22056ef0f 	{ movt	a14, a15, b0; ae_ltp24s	b0:b1, aep0, aep1 }
    6427:	8ecc           	bnez.n	a14, 6433 <Voice_SWB_TX_Common_Prcs+0x1a0f>
    6429:	060c           	movi.n	a6, 0
    642b:	d64496350f 	{ movt	a3, a5, b0; ae_ltq56s	b2, aeq1, aeq0 }
    6430:	09d316        	beqz	a3, 64d1 <Voice_SWB_TX_Common_Prcs+0x1aad>
    6433:	e7cc31        	l32r	a3, 364 (103da <_end+0xe3a>)
    6436:	e7cc51        	l32r	a5, 368 (103d8 <_end+0xe38>)
    6439:	d22074e17e 	{ l32i	a7, a1, 0x138; ae_ltp24s	b0:b1, aep0, aep1 }
    643e:	323a           	add.n	a3, a2, a3
    6440:	625a           	add.n	a6, a2, a5
    6442:	235d           	ae_l16si.n	a5, a3, 0
    6444:	266d           	ae_l16si.n	a6, a6, 0
    6446:	3f2192        	l32i	a9, a1, 252
    6449:	2cd282        	addmi	a8, a2, 0x2c00
    644c:	33a657        	bge	a6, a5, 6483 <Voice_SWB_TX_Common_Prcs+0x1a5f>
    644f:	050c           	movi.n	a5, 0
    6451:	0768           	l32i.n	a6, a7, 0
    6453:	225852        	s16i	a5, a8, 68
    6456:	d60932        	l8ui	a3, a9, 214
    6459:	e79781        	l32r	a8, 2b8 (103dc <_end+0xe3c>)
    645c:	efa072        	movi	a7, 239
    645f:	103370        	and	a3, a3, a7
    6462:	0e0c           	movi.n	a14, 0
    6464:	1f0c           	movi.n	a15, 1
    6466:	d64932        	s8i	a3, a9, 214
    6469:	328a           	add.n	a3, a2, a8
    646b:	1d0c           	movi.n	a13, 1
    646d:	02d662        	addmi	a6, a6, 0x200
    6470:	d3ef00        	movt	a14, a15, b0
    6473:	0043d2        	s8i	a13, a3, 0
    6476:	655652        	s16i	a5, a6, 202
    6479:	ae8c           	beqz.n	a14, 6487 <Voice_SWB_TX_Common_Prcs+0x1a63>
    647b:	250c           	movi.n	a5, 2
    647d:	004352        	s8i	a5, a3, 0
    6480:	0000c6        	j	6487 <Voice_SWB_TX_Common_Prcs+0x1a63>

00006483 <Voice_SWB_TX_Common_Prcs+0x1a5f>:
    6483:	551b           	addi.n	a5, a5, 1
    6485:	635d           	ae_s16i.n	a5, a3, 0
    6487:	662172        	l32i	a7, a1, 0x198
    648a:	02ed           	mov.n	a14, a2
    648c:	000486        	j	64a2 <Voice_SWB_TX_Common_Prcs+0x1a7e>

0000648f <Voice_SWB_TX_Common_Prcs+0x1a6b>:
    648f:	140c           	movi.n	a4, 1
    6491:	e0a132        	movi	a3, 0x1e0
    6494:	114430        	slli	a4, a4, 13
    6497:	078376        	loop	a3, 64a2 <Voice_SWB_TX_Common_Prcs+0x1a7e>
    649a:	223d           	ae_l16si.n	a3, a2, 0
    649c:	663d           	ae_s16i.n	a3, a6, 0
    649e:	222b           	addi.n	a2, a2, 2
    64a0:	662b           	addi.n	a6, a6, 2

000064a2 <Voice_SWB_TX_Common_Prcs+0x1a7e>:
    64a2:	70de22        	addmi	a2, a14, 0x7000
    64a5:	2cde32        	addmi	a3, a14, 0x2c00
    64a8:	699222        	l16si	a2, a2, 210
    64ab:	221332        	l16ui	a3, a3, 68
    64ae:	2cde52        	addmi	a5, a14, 0x2c00
    64b1:	f8c222        	addi	a2, a2, -8
    64b4:	1122b0        	slli	a2, a2, 5
    64b7:	072366        	bnei	a3, 2, 64c2 <Voice_SWB_TX_Common_Prcs+0x1a9e>
    64ba:	252532        	l32i	a3, a5, 148
    64bd:	079332        	l16si	a3, a3, 14
    64c0:	232a           	add.n	a2, a3, a2

000064c2 <Voice_SWB_TX_Common_Prcs+0x1a9e>:
    64c2:	6ade32        	addmi	a3, a14, 0x6a00
    64c5:	3c9332        	l16si	a3, a3, 120
    64c8:	772d           	ae_s16i.n	a2, a7, 2
    64ca:	025742        	s16i	a4, a7, 4
    64cd:	673d           	ae_s16i.n	a3, a7, 0
    64cf:	f01d           	retw.n

000064d1 <Voice_SWB_TX_Common_Prcs+0x1aad>:
    64d1:	150c           	movi.n	a5, 1
    64d3:	d36520        	movt	a6, a5, b2
    64d6:	fad616        	beqz	a6, 6487 <Voice_SWB_TX_Common_Prcs+0x1a63>
    64d9:	349304        	ae_movap24s.l	a3, aep1
    64dc:	348504        	ae_movap24s.l	a5, aep0
    64df:	e7a161        	l32r	a6, 364 (103da <_end+0xe3a>)
    64e2:	1133f0        	slli	a3, a3, 1
    64e5:	9ea357        	bge	a3, a5, 6487 <Voice_SWB_TX_Common_Prcs+0x1a63>
    64e8:	050c           	movi.n	a5, 0
    64ea:	326a           	add.n	a3, a2, a6
    64ec:	ffe546        	j	6485 <Voice_SWB_TX_Common_Prcs+0x1a61>

000064ef <Voice_SWB_TX_Common_Prcs+0x1acb>:
	...

000064f0 <Voice_SWB_TX_Inear_Prcs_V2>:
    64f0:	004136        	entry	a1, 32
    64f3:	e79e81        	l32r	a8, 36c (4a24 <Voice_SWB_TX_Common_Prcs>)
    64f6:	02ad           	mov.n	a10, a2
    64f8:	03bd           	mov.n	a11, a3
    64fa:	04cd           	mov.n	a12, a4
    64fc:	05dd           	mov.n	a13, a5
    64fe:	06ed           	mov.n	a14, a6
    6500:	07fd           	mov.n	a15, a7
    6502:	0008e0        	callx8	a8
    6505:	f01d           	retw.n

00006507 <Voice_SWB_TX_Inear_Prcs_V2+0x17>:
	...

00006508 <dummy_EC_extNR_func>:
    6508:	004136        	entry	a1, 32
    650b:	e6f021        	l32r	a2, cc (f59c <p_ecnr_mem>)
    650e:	0228           	l32i.n	a2, a2, 0
    6510:	f01d           	retw.n

00006512 <dummy_EC_extNR_func+0xa>:
	...

00006514 <Assign_EC_RXNR_scratch_memory>:
    6514:	004136        	entry	a1, 32
    6517:	e6ed31        	l32r	a3, cc (f59c <p_ecnr_mem>)
    651a:	0329           	s32i.n	a2, a3, 0
    651c:	f01d           	retw.n

0000651e <Assign_EC_RXNR_scratch_memory+0xa>:
	...

00006520 <EQ_update>:
    6520:	006136        	entry	a1, 48
    6523:	e6ea71        	l32r	a7, cc (f59c <p_ecnr_mem>)
    6526:	e78c81        	l32r	a8, 358 (10a2e <_end+0x148e>)
    6529:	00a142        	movi	a4, 0x100
    652c:	0778           	l32i.n	a7, a7, 0
    652e:	80a052        	movi	a5, 128
    6531:	930b           	addi.n	a9, a3, -1
    6533:	b78a           	add.n	a11, a7, a8
    6535:	935490        	movnez	a5, a4, a9
    6538:	4b4d           	ae_l16ui.n	a4, a11, 0
    653a:	e7b6c1        	l32r	a12, 414 (40004000 <_end+0x3fff4a60>)
    653d:	e7b6f1        	l32r	a15, 418 (b9f4 <WB_NR_IE_frame_process+0x8bc>)
    6540:	84dd           	ae_sext16	a13, a4
    6542:	064c           	movi.n	a6, 64
    6544:	93cd40        	movnez	a12, a13, a4
    6547:	224b           	addi.n	a2, a2, 4
    6549:	936530        	movnez	a6, a5, a3
    654c:	37fa           	add.n	a3, a7, a15
    654e:	31c9           	s32i.n	a12, a1, 12
    6550:	fcc222        	addi	a2, a2, -4
    6553:	fcc332        	addi	a3, a3, -4
    6556:	440134        	ae_lp16x2f.i	aep0, a1, 12
    6559:	158676        	loop	a6, 6572 <EQ_update+0x52>
    655c:	401214        	ae_lp16f.i	aep1, a2, 2
    655f:	f006aca22f 	{ ae_lp16f.iu	aep2, a2, 4; ae_mulzaafp24s.hh.ll	aeq0, aep1, aep0 }
    6564:	042804        	ae_mulzaafp24s.hh.ll	aeq1, aep2, aep0
    6567:	1b8f14        	ae_roundsp16q48asym	aep1, aeq0
    656a:	fb6bf2932f 	{ ae_sp16f.l.iu	aep1, a3, 4; ae_roundsp16q48asym	aep7, aeq1 }
    656f:	427314        	ae_sp16f.l.i	aep7, a3, 2

00006572 <EQ_update+0x52>:
    6572:	f01d           	retw.n

00006574 <TxRef_VAD_V2>:
    6574:	006136        	entry	a1, 48
    6577:	f0a052        	movi	a5, 240
    657a:	024d           	mov.n	a4, a2
    657c:	020c           	movi.n	a2, 0
    657e:	088576        	loop	a5, 658a <TxRef_VAD_V2+0x16>
    6581:	235d           	ae_l16si.n	a5, a3, 0
    6583:	332b           	addi.n	a3, a3, 2
    6585:	605150        	abs	a5, a5
    6588:	252a           	add.n	a2, a5, a2

0000658a <TxRef_VAD_V2+0x16>:
    658a:	f57c           	movi.n	a5, -1
    658c:	015510        	slli	a5, a5, 31
    658f:	02bc           	beqz.n	a2, 65c3 <TxRef_VAD_V2+0x4f>
    6591:	40e230        	nsa	a3, a2
    6594:	401300        	ssl	a3
    6597:	761c           	movi.n	a6, 23
    6599:	a1a200        	sll	a10, a2
    659c:	e71b21        	l32r	a2, 208 (a24 <Log2_norm>)
    659f:	c0b630        	sub	a11, a6, a3
    65a2:	0002e0        	callx8	a2
    65a5:	d1a422        	movi	a2, 0x4d1
    65a8:	1122c0        	slli	a2, a2, 4
    65ab:	b26a20        	mulsh	a6, a10, a2
    65ae:	822a20        	mull	a2, a10, a2
    65b1:	d1a432        	movi	a3, 0x4d1
    65b4:	1133f0        	slli	a3, a3, 1
    65b7:	f25a           	add.n	a15, a2, a5
    65b9:	363a           	add.n	a3, a6, a3
    65bb:	622f20        	saltu	a2, a15, a2
    65be:	223a           	add.n	a2, a2, a3
    65c0:	000046        	j	65c5 <TxRef_VAD_V2+0x51>

000065c3 <TxRef_VAD_V2+0x4f>:
    65c3:	020c           	movi.n	a2, 0
    65c5:	029472        	l16si	a7, a4, 4
    65c8:	190432        	l8ui	a3, a4, 25
    65cb:	f60c           	movi.n	a6, 15
    65cd:	532270        	max	a2, a2, a7
    65d0:	083367        	bltu	a3, a6, 65dc <TxRef_VAD_V2+0x68>
    65d3:	031462        	l16ui	a6, a4, 6
    65d6:	041432        	l16ui	a3, a4, 8
    65d9:	000b46        	j	660a <TxRef_VAD_V2+0x96>

000065dc <TxRef_VAD_V2+0x68>:
    65dc:	731b           	addi.n	a7, a3, 1
    65de:	c0c630        	sub	a12, a6, a3
    65e1:	0314d2        	l16ui	a13, a4, 6
    65e4:	051482        	l16ui	a8, a4, 10
    65e7:	0414e2        	l16ui	a14, a4, 8
    65ea:	0614f2        	l16ui	a15, a4, 12
    65ed:	300d84        	ae_cvtp24a16x2.ll	aep0, a13, a8
    65f0:	3017c4        	ae_cvtp24a16x2.ll	aep1, a7, a12
    65f3:	f00798aeff 	{ ae_cvtp24a16x2.ll	aep2, a14, a15; ae_mulzaap24s.hh.ll	aeq0, aep1, aep0 }
    65f8:	041a24        	ae_mulzaap24s.hh.ll	aeq1, aep1, aep2
    65fb:	350134        	ae_sraiq56	aeq0, aeq0, 4
    65fe:	355134        	ae_sraiq56	aeq1, aeq1, 4
    6601:	368604        	ae_trunca32q48	a6, aeq0
    6604:	369304        	ae_trunca32q48	a3, aeq1
    6607:	194472        	s8i	a7, a4, 25
    660a:	866d           	ae_sext16	a6, a6
    660c:	833d           	ae_sext16	a3, a3
    660e:	117600        	slli	a7, a6, 16
    6611:	306650        	xor	a6, a6, a5
    6614:	11f300        	slli	a15, a3, 16
    6617:	303350        	xor	a3, a3, a5
    661a:	c06670        	sub	a6, a6, a7
    661d:	c033f0        	sub	a3, a3, a15
    6620:	2169           	s32i.n	a6, a1, 8
    6622:	3139           	s32i.n	a3, a1, 12
    6624:	318b           	addi.n	a3, a1, 8
    6626:	44a8           	l32i.n	a10, a4, 16
    6628:	e6ca61        	l32r	a6, 150 (6f48 <siir_safr>)
    662b:	02bd           	mov.n	a11, a2
    662d:	03cd           	mov.n	a12, a3
    662f:	0006e0        	callx8	a6
    6632:	059472        	l16si	a7, a4, 10
    6635:	069482        	l16si	a8, a4, 12
    6638:	44a9           	s32i.n	a10, a4, 16
    663a:	119700        	slli	a9, a7, 16
    663d:	307750        	xor	a7, a7, a5
    6640:	30f850        	xor	a15, a8, a5
    6643:	118800        	slli	a8, a8, 16
    6646:	54a8           	l32i.n	a10, a4, 20
    6648:	c07790        	sub	a7, a7, a9
    664b:	c05f80        	sub	a5, a15, a8
    664e:	02bd           	mov.n	a11, a2
    6650:	03cd           	mov.n	a12, a3
    6652:	2179           	s32i.n	a7, a1, 8
    6654:	3159           	s32i.n	a5, a1, 12
    6656:	0006e0        	callx8	a6
    6659:	4428           	l32i.n	a2, a4, 16
    665b:	243d           	ae_l16si.n	a3, a4, 0
    665d:	54a9           	s32i.n	a10, a4, 20
    665f:	180472        	l8ui	a7, a4, 24
    6662:	223a           	add.n	a2, a2, a3
    6664:	09a2a7        	bge	a2, a10, 6671 <TxRef_VAD_V2+0xfd>
    6667:	120c           	movi.n	a2, 1
    6669:	030c           	movi.n	a3, 0
    666b:	184422        	s8i	a2, a4, 24
    666e:	000606        	j	668a <TxRef_VAD_V2+0x116>

00006671 <TxRef_VAD_V2+0xfd>:
    6671:	0d9432        	l16si	a3, a4, 26
    6674:	072d           	mov.n	a2, a7
    6676:	0e1766        	bnei	a7, 1, 6688 <TxRef_VAD_V2+0x114>
    6679:	345d           	ae_l16si.n	a5, a4, 2
    667b:	09a537        	bge	a5, a3, 6688 <TxRef_VAD_V2+0x114>
    667e:	020c           	movi.n	a2, 0
    6680:	184422        	s8i	a2, a4, 24
    6683:	0d5422        	s16i	a2, a4, 26
    6686:	f01d           	retw.n

00006688 <TxRef_VAD_V2+0x114>:
    6688:	331b           	addi.n	a3, a3, 1
    668a:	0d5432        	s16i	a3, a4, 26
    668d:	f01d           	retw.n

0000668f <TxRef_VAD_V2+0x11b>:
	...

00006690 <NC_VAD_V3>:
    6690:	006136        	entry	a1, 48
    6693:	fc2493522f 	{ or	a5, a2, a2; ae_zeroq56	aeq0 }
    6698:	226d           	ae_l16si.n	a6, a2, 0
    669a:	f97c           	movi.n	a9, -1
    669c:	012910        	slli	a2, a9, 31
    669f:	317f60        	srai	a7, a6, 31
    66a2:	f58060        	extui	a8, a6, 16, 16
    66a5:	117700        	slli	a7, a7, 16
    66a8:	116600        	slli	a6, a6, 16
    66ab:	778a           	add.n	a7, a7, a8
    66ad:	73a620        	maxu	a10, a6, a2
    66b0:	a36270        	movltz	a6, a2, a7
    66b3:	971b           	addi.n	a9, a7, 1
    66b5:	fc7c           	movi.n	a12, -1
    66b7:	836a90        	moveqz	a6, a10, a9
    66ba:	fb7c           	movi.n	a11, -1
    66bc:	4191c0        	srli	a9, a12, 1
    66bf:	35dd           	ae_l16si.n	a13, a5, 2
    66c1:	5377b0        	max	a7, a7, a11
    66c4:	09fd           	mov.n	a15, a9
    66c6:	c22240        	quou	a2, a2, a4
    66c9:	fe0c           	movi.n	a14, 15
    66cb:	f0a0a2        	movi	a10, 240
    66ce:	a3f670        	movltz	a15, a6, a7
    66d1:	634690        	minu	a4, a6, a9
    66d4:	364234        	ae_cvtq48a32s	aeq1, a2
    66d7:	c02ed0        	sub	a2, a14, a13
    66da:	400304        	ae_lp16f.i	aep0, a3, 0
    66dd:	934f70        	movnez	a4, a15, a7
    66e0:	0f8a76        	loop	a10, 66f3 <NC_VAD_V3+0x63>
    66e3:	d5e32c831f 	{ ae_lp16f.iu	aep0, a3, 2; ae_mulfq32sp16s.l	aeq2, aeq1, aep0 }
    66e8:	fc24fea28f 	{ ae_slaasq56s	aeq2, aeq2, a2; nop }
    66ed:	069a64        	ae_absq56	aeq2, aeq2
    66f0:	010ac4        	ae_addq56	aeq0, aeq0, aeq2

000066f3 <NC_VAD_V3+0x63>:
    66f3:	e74a21        	l32r	a2, 41c (7f800080 <_end+0x7f7f0ae0>)
    66f6:	fc2454212f 	{ s32i.n	a2, a1, 8; ae_roundsq32asym	aeq0, aeq0 }
    66fb:	368204        	ae_trunca32q48	a2, aeq0
    66fe:	e74831        	l32r	a3, 420 (78000800 <_end+0x77ff1260>)
    6701:	3139           	s32i.n	a3, a1, 12
    6703:	318b           	addi.n	a3, a1, 8
    6705:	15a8           	l32i.n	a10, a5, 4
    6707:	e69261        	l32r	a6, 150 (6f48 <siir_safr>)
    670a:	02bd           	mov.n	a11, a2
    670c:	03cd           	mov.n	a12, a3
    670e:	0006e0        	callx8	a6
    6711:	15a9           	s32i.n	a10, a5, 4
    6713:	25a8           	l32i.n	a10, a5, 8
    6715:	e74371        	l32r	a7, 424 (17fff <_end+0x8a5f>)
    6718:	e74481        	l32r	a8, 428 (7c000400 <_end+0x7bff0e60>)
    671b:	02bd           	mov.n	a11, a2
    671d:	03cd           	mov.n	a12, a3
    671f:	2179           	s32i.n	a7, a1, 8
    6721:	3189           	s32i.n	a8, a1, 12
    6723:	0006e0        	callx8	a6
    6726:	1528           	l32i.n	a2, a5, 4
    6728:	25a9           	s32i.n	a10, a5, 8
    672a:	0e0572        	l8ui	a7, a5, 14
    672d:	c02a20        	sub	a2, a10, a2
    6730:	09a427        	bge	a4, a2, 673d <NC_VAD_V3+0xad>
    6733:	120c           	movi.n	a2, 1
    6735:	030c           	movi.n	a3, 0
    6737:	0e4522        	s8i	a2, a5, 14
    673a:	000586        	j	6754 <NC_VAD_V3+0xc4>

0000673d <NC_VAD_V3+0xad>:
    673d:	061532        	l16ui	a3, a5, 12
    6740:	072d           	mov.n	a2, a7
    6742:	0c1766        	bnei	a7, 1, 6752 <NC_VAD_V3+0xc2>
    6745:	0963b6        	bltui	a3, 6, 6752 <NC_VAD_V3+0xc2>
    6748:	020c           	movi.n	a2, 0
    674a:	0e4522        	s8i	a2, a5, 14
    674d:	065522        	s16i	a2, a5, 12
    6750:	f01d           	retw.n

00006752 <NC_VAD_V3+0xc2>:
    6752:	331b           	addi.n	a3, a3, 1
    6754:	065532        	s16i	a3, a5, 12
    6757:	f01d           	retw.n

00006759 <NC_VAD_V3+0xc9>:
    6759:	000000                                        ...

0000675c <analy_3band>:
    675c:	004136        	entry	a1, 32
    675f:	e733b1        	l32r	a11, 42c (f440 <sb_g10>)
    6762:	e733c1        	l32r	a12, 430 (f480 <sb_h2ir>)
    6765:	a34b           	addi.n	a10, a3, 4
    6767:	f3f6a0        	wur.ae_cbegin0	a10
    676a:	03a8           	l32i.n	a10, a3, 0
    676c:	40c3f2        	addi	a15, a3, 64
    676f:	a70c           	movi.n	a7, 10
    6771:	480c           	movi.n	a8, 4
    6773:	790c           	movi.n	a9, 7
    6775:	f3f7f0        	wur.ae_cend0	a15
    6778:	fe248fc44e 	{ addi	a4, a4, -4; ae_zeroq56	aeq2 }
    677d:	fec552        	addi	a5, a5, -2
    6780:	fec662        	addi	a6, a6, -2
    6783:	fccbb2        	addi	a11, a11, -4
    6786:	fcccc2        	addi	a12, a12, -4
    6789:	fcc222        	addi	a2, a2, -4

0000678c <analy_3band+0x30>:
    678c:	448214        	ae_lp16x2f.iu	aep0, a2, 4
    678f:	fc14640a8f 	{ ae_sp16x2f.c	aep0, a10, a8; ae_movq56	aeq0, aeq2 }
    6794:	0bdd           	mov.n	a13, a11
    6796:	0ced           	mov.n	a14, a12
    6798:	fc24da8a8f 	{ ae_lp16x2f.c	aep0, a10, a8; nop }
    679d:	449d14        	ae_lp16x2f.iu	aep1, a13, 4
    67a0:	ea05edfe1f 	{ ae_lp16x2f.iu	aep7, a14, 4; ae_mulfp24s.ll	aeq1, aep1, aep0 }
    67a5:	01f874        	ae_mulfp24s.ll	aeq3, aep7, aep0
    67a8:	278976        	loop	a9, 67d3 <analy_3band+0x77>
    67ab:	fc24da8a8f 	{ ae_lp16x2f.c	aep0, a10, a8; nop }
    67b0:	449d14        	ae_lp16x2f.iu	aep1, a13, 4
    67b3:	e2062dae1f 	{ ae_lp16x2f.iu	aep2, a14, 4; ae_mulafp24s.hh	aeq0, aep1, aep0 }
    67b8:	e207daea8f 	{ ae_lp16x2f.c	aep6, a10, a8; ae_mulafp24s.ll	aeq1, aep1, aep0 }
    67bd:	e30a2dbd1f 	{ ae_lp16x2f.iu	aep3, a13, 4; ae_mulafp24s.hh	aeq2, aep2, aep0 }
    67c2:	e30bedfe1f 	{ ae_lp16x2f.iu	aep7, a14, 4; ae_mulafp24s.ll	aeq3, aep2, aep0 }
    67c7:	013604        	ae_mulafp24s.hh	aeq0, aep3, aep6
    67ca:	013e34        	ae_mulafp24s.ll	aeq1, aep3, aep6
    67cd:	01f604        	ae_mulafp24s.hh	aeq2, aep7, aep6
    67d0:	01fe34        	ae_mulafp24s.ll	aeq3, aep7, aep6

000067d3 <analy_3band+0x77>:
    67d3:	f87bcff77e 	{ addi	a7, a7, -1; ae_roundsp16q48asym	aep1, aeq3 }
    67d8:	fb6a32961f 	{ ae_sp16f.l.iu	aep1, a6, 2; ae_addq56	aeq3, aeq1, aeq0 }
    67dd:	f92afb30df 	{ ae_sraiq56	aeq3, aeq3, 1; ae_subq56	aeq1, aeq1, aeq0 }
    67e2:	f873bb101f 	{ ae_sraiq56	aeq0, aeq1, 1; ae_roundsp16q48asym	aep0, aeq2 }
    67e7:	fb7fb2861f 	{ ae_sp16f.l.iu	aep0, a6, 2; ae_roundsp24q48asym	aep6, aeq3 }
    67ec:	fb63f4e41f 	{ ae_sp24f.l.iu	aep6, a4, 4; ae_roundsp16q48asym	aep7, aeq0 }
    67f1:	fe24b2f51f 	{ ae_sp16f.l.iu	aep7, a5, 2; ae_zeroq56	aeq2 }
    67f6:	f92756        	bnez	a7, 678c <analy_3band+0x30>
    67f9:	03a9           	s32i.n	a10, a3, 0
    67fb:	f01d           	retw.n

000067fd <analy_3band+0xa1>:
    67fd:	000000                                        ...

00006800 <nc_lms_block>:
    6800:	004136        	entry	a1, 32
    6803:	fd2481088f 	{ movi	a8, 0x108; ae_zeroq56	aeq1 }
    6808:	e22292        	l32i	a9, a2, 0x388
    680b:	682372        	l32i	a7, a3, 0x1a0
    680e:	838a           	add.n	a8, a3, a8
    6810:	88a152        	movi	a5, 0x188
    6813:	f3f680        	wur.ae_cbegin0	a8
    6816:	662382        	l32i	a8, a3, 0x198
    6819:	e35a           	add.n	a14, a3, a5
    681b:	6223f2        	l32i	a15, a3, 0x188
    681e:	5a0c           	movi.n	a10, 5
    6820:	460c           	movi.n	a6, 4
    6822:	f3f7e0        	wur.ae_cend0	a14
    6825:	360f34        	ae_cvtq48a32s	aeq0, a15
    6828:	440704        	ae_lp16x2f.i	aep0, a7, 0
    682b:	fcc992        	addi	a9, a9, -4
    682e:	198a76        	loop	a10, 684b <nc_lms_block+0x4b>
    6831:	09001aa86f 	{ ae_lp16x2f.c	aep2, a8, a6; ae_mulzaafq32sp16s.hh	aeq2, aeq0, aep0, aeq0, aep0 }
    6836:	11006d871f 	{ ae_lp16x2f.iu	aep0, a7, 4; ae_mulzaafq32sp16s.ll	aeq3, aeq0, aep0, aeq0, aep0 }
    683b:	1baf74        	ae_roundsp16q48asym	aep7, aeq2
    683e:	1bbf14        	ae_roundsp16q48asym	aep1, aeq3
    6841:	f04a7e715f 	{ ae_selp24.hl	aep1, aep7, aep1; ae_mulssfp24s.hh.ll	aeq1, aep2, aep2 }
    6846:	e22473991f 	{ ae_sp16x2f.iu	aep1, a9, 4; ae_mulaafp24s.hh.ll	aeq1, aep1, aep1 }

0000684b <nc_lms_block+0x4b>:
    684b:	351234        	ae_sraiq56	aeq0, aeq1, 8
    684e:	618304        	ae_lq56.i	aeq2, a3, 0
    6851:	f87230926e 	{ l32i	a6, a2, 36; ae_addq56	aeq0, aeq2, aeq0 }
    6856:	fc00fec6ff 	{ ae_cvtq48a32s	aeq3, a6; ae_satq48s	aeq0, aeq0 }
    685b:	f87b2c936e 	{ l16si	a6, a3, 0x192; ae_maxq56s	aeq0, aeq0, aeq3 }
    6860:	630304        	ae_sq56s.i	aeq0, a3, 0
    6863:	0214d6        	bgez	a4, 6888 <nc_lms_block+0x88>
    6866:	ffa072        	movi	a7, 255
    6869:	082677        	blt	a6, a7, 6875 <nc_lms_block+0x75>
    686c:	c89362        	l16si	a6, a3, 0x190
    686f:	11a600        	slli	a10, a6, 16
    6872:	000246        	j	687f <nc_lms_block+0x7f>

00006875 <nc_lms_block+0x75>:
    6875:	da4c           	movi.n	a10, 77
    6877:	661b           	addi.n	a6, a6, 1
    6879:	11aa00        	slli	a10, a10, 16
    687c:	c95362        	s16i	a6, a3, 0x192
    687f:	368b04        	ae_trunca32q48	a11, aeq0
    6882:	e67661        	l32r	a6, 25c (be9c <airoha_divide>)
    6885:	0006e0        	callx8	a6
    6888:	e222c2        	l32i	a12, a2, 0x388
    688b:	6723d2        	l32i	a13, a3, 0x19c
    688e:	6923e2        	l32i	a14, a3, 0x1a4
    6891:	662322        	l32i	a2, a3, 0x198
    6894:	360b34        	ae_cvtq48a32s	aeq0, a11
    6897:	feccb2        	addi	a11, a12, -2
    689a:	fecdc2        	addi	a12, a13, -2
    689d:	634b           	addi.n	a6, a3, 4
    689f:	a70c           	movi.n	a7, 10
    68a1:	02a082        	movi	a8, 2
    68a4:	40a092        	movi	a9, 64
    68a7:	feced2        	addi	a13, a14, -2
    68aa:	408b14        	ae_lp16f.iu	aep0, a11, 2
    68ad:	fc24e2828f 	{ ae_sp16f.l.c	aep0, a2, a8; nop }
    68b2:	408c14        	ae_lp16f.iu	aep0, a12, 2
    68b5:	fd0c13e66f 	{ or	a14, a6, a6; ae_cvtq48p24s.l	aeq1, aep0 }
    68ba:	508e14        	ae_lp24f.iu	aep0, a14, 4
    68bd:	098976        	loop	a9, 68ca <nc_lms_block+0xca>
    68c0:	fc24d9128f 	{ ae_lp16f.c	aep1, a2, a8; nop }
    68c5:	ee21ee8e1f 	{ ae_lp24f.iu	aep0, a14, 4; ae_mulsfp24s.ll	aeq1, aep0, aep1 }

000068ca <nc_lms_block+0xca>:
    68ca:	f86b93e66f 	{ or	a14, a6, a6; ae_roundsp16q48asym	aep0, aeq1 }
    68cf:	d4e2728d1f 	{ ae_sp16f.l.iu	aep0, a13, 2; ae_mulfq32sp16s.l	aeq1, aeq0, aep0 }
    68d4:	0204d6        	bgez	a4, 68f8 <nc_lms_block+0xf8>
    68d7:	fc24fe9a4f 	{ ae_slaasq56s	aeq1, aeq1, a10; nop }
    68dc:	f86fae9e1f 	{ ae_lp24f.iu	aep1, a14, 4; ae_roundsp24q48asym	aep0, aeq1 }
    68e1:	f03d           	nop.n
    68e3:	f03d           	nop.n
    68e5:	0f8976        	loop	a9, 68f8 <nc_lms_block+0xf8>
    68e8:	fd2c19728f 	{ ae_lp16f.c	aep7, a2, a8; ae_cvtq48p24s.l	aeq1, aep1 }
    68ed:	e2e3ee9e1f 	{ ae_lp24f.iu	aep1, a14, 4; ae_mulafp24s.ll	aeq1, aep0, aep7 }
    68f2:	1b9d24        	ae_roundsp24q48asym	aep2, aeq1
    68f5:	522ef4        	ae_sp24f.l.i	aep2, a14, -4

000068f8 <nc_lms_block+0xf8>:
    68f8:	770b           	addi.n	a7, a7, -1
    68fa:	fac756        	bnez	a7, 68aa <nc_lms_block+0xaa>
    68fd:	fc24b693ae 	{ l32i	a10, a3, 0x1a4; ae_zeroq56	aeq0 }
    6902:	fd047673be 	{ l32i	a11, a3, 0x19c; ae_movq56	aeq1, aeq0 }
    6907:	580c           	movi.n	a8, 5
    6909:	666322        	s32i	a2, a3, 0x198
    690c:	08c362        	addi	a6, a3, 8
    690f:	fccb22        	addi	a2, a11, -4
    6912:	fcca72        	addi	a7, a10, -4
    6915:	0a8876        	loop	a8, 6923 <nc_lms_block+0x123>
    6918:	448214        	ae_lp16x2f.iu	aep0, a2, 4
    691b:	e2002d971f 	{ ae_lp16x2f.iu	aep1, a7, 4; ae_mulaafp24s.hh.ll	aeq0, aep0, aep0 }
    6920:	051904        	ae_mulaafp24s.hh.ll	aeq1, aep1, aep1

00006923 <nc_lms_block+0x123>:
    6923:	359134        	ae_sraiq56	aeq2, aeq1, 4
    6926:	f9aac0002f 	{ movi	a2, 0; ae_subq56	aeq1, aeq1, aeq2 }
    692b:	d64800017f 	{ movi	a7, 1; ae_ltq56s	b0, aeq0, aeq1 }
    6930:	0aa0c2        	movi	a12, 10
    6933:	d32700        	movt	a2, a7, b0
    6936:	428c           	beqz.n	a2, 693e <nc_lms_block+0x13e>
    6938:	e60821        	l32r	a2, 158 (d6fc <xt_memcpy>)
    693b:	0002e0        	callx8	a2

0000693e <nc_lms_block+0x13e>:
    693e:	022c           	movi.n	a2, 32
    6940:	fd24af031f 	{ ae_lp24x2f.i	aep0, a3, 8; ae_zeroq56	aeq1 }
    6945:	048276        	loop	a2, 694d <nc_lms_block+0x14d>
    6948:	e2006f861f 	{ ae_lp24x2f.iu	aep0, a6, 8; ae_mulaafp24s.hh.ll	aeq1, aep0, aep0 }

0000694d <nc_lms_block+0x14d>:
    694d:	632322        	l32i	a2, a3, 0x18c
    6950:	360234        	ae_cvtq48a32s	aeq0, a2
    6953:	0364d6        	bgez	a4, 698d <nc_lms_block+0x18d>
    6956:	3550b4        	ae_sraiq56	aeq1, aeq1, 2
    6959:	fd2c40076f 	{ movi	a6, 7; ae_roundsq32asym	aeq1, aeq1 }
    695e:	369204        	ae_trunca32q48	a2, aeq1
    6961:	e6b441        	l32r	a4, 434 (6ffff <_end+0x60a5f>)
    6964:	017680        	slli	a7, a6, 24
    6967:	fca082        	movi	a8, 252
    696a:	0b2427        	blt	a4, a2, 6979 <nc_lms_block+0x179>
    696d:	7fd822        	addmi	a2, a8, 0x7f00
    6970:	300224        	ae_cvtp24a16x2.ll	aep0, a2, a2
    6973:	030214        	ae_mulfq32sp16s.l	aeq0, aeq0, aep0
    6976:	000346        	j	6987 <nc_lms_block+0x187>

00006979 <nc_lms_block+0x179>:
    6979:	0aa727        	bge	a7, a2, 6987 <nc_lms_block+0x187>
    697c:	320c           	movi.n	a2, 3
    697e:	40d222        	addmi	a2, a2, 0x4000
    6981:	300224        	ae_cvtp24a16x2.ll	aep0, a2, a2
    6984:	a10004        	ae_mulzaafq32sp16s.ll	aeq0, aeq0, aep0, aeq0, aep0
    6987:	060934        	ae_roundsq32asym	aeq0, aeq0
    698a:	368204        	ae_trunca32q48	a2, aeq0
    698d:	140c           	movi.n	a4, 1
    698f:	0144b0        	slli	a4, a4, 21
    6992:	e636e1        	l32r	a14, 26c (f210 <immediate_num>)
    6995:	532240        	max	a2, a2, a4
    6998:	636322        	s32i	a2, a3, 0x18c
    699b:	6223f2        	l32i	a15, a3, 0x188
    699e:	364f34        	ae_cvtq48a32s	aeq1, a15
    69a1:	440e54        	ae_lp16x2f.i	aep0, a14, 20
    69a4:	c10044        	ae_mulzaafq32sp16s.lh	aeq0, aeq1, aep0, aeq0, aep0
    69a7:	060934        	ae_roundsq32asym	aeq0, aeq0
    69aa:	628354        	ae_sq32f.x	aeq0, a3, a5
    69ad:	f01d           	retw.n

000069af <nc_lms_block+0x1af>:
	...

000069b0 <gain_after_ec>:
    69b0:	00a136        	entry	a1, 80
    69b3:	e5c6c1        	l32r	a12, cc (f59c <p_ecnr_mem>)
    69b6:	05ed           	mov.n	a14, a5
    69b8:	eaa4f2        	movi	a15, 0x4ea
    69bb:	0c58           	l32i.n	a5, a12, 0
    69bd:	04dd           	mov.n	a13, a4
    69bf:	b04ff0        	addx8	a4, a15, a15
    69c2:	9169           	s32i.n	a6, a1, 36
    69c4:	443d04        	ae_lp16x2f.i	aep3, a13, 0
    69c7:	444e04        	ae_lp16x2f.i	aep4, a14, 0
    69ca:	412544        	ae_lp16f.x	aep2, a5, a4
    69cd:	07bc           	beqz.n	a7, 6a01 <gain_after_ec+0x51>
    69cf:	1a0c           	movi.n	a10, 1
    69d1:	e62241        	l32r	a4, 25c (be9c <airoha_divide>)
    69d4:	11aa10        	slli	a10, a10, 15
    69d7:	07bd           	mov.n	a11, a7
    69d9:	0e5d           	mov.n	a5, a14
    69db:	0d6d           	mov.n	a6, a13
    69dd:	562114        	ae_sp24x2s.i	aep2, a1, 8
    69e0:	563134        	ae_sp24x2s.i	aep3, a1, 24
    69e3:	564124        	ae_sp24x2s.i	aep4, a1, 16
    69e6:	0004e0        	callx8	a4
    69e9:	360b34        	ae_cvtq48a32s	aeq0, a11
    69ec:	540114        	ae_lp24x2.i	aep0, a1, 8
    69ef:	d4e230412f 	{ ae_lp24x2.i	aep4, a1, 16; ae_mulfq32sp16s.l	aeq0, aeq0, aep0 }
    69f4:	543134        	ae_lp24x2.i	aep3, a1, 24
    69f7:	340a94        	ae_sllaq56	aeq0, aeq0, a10
    69fa:	f96793d66f 	{ or	a13, a6, a6; ae_roundsp24q48asym	aep2, aeq0 }
    69ff:	05ed           	mov.n	a14, a5

00006a01 <gain_after_ec+0x51>:
    6a01:	fecd92        	addi	a9, a13, -2
    6a04:	fece82        	addi	a8, a14, -2
    6a07:	fec352        	addi	a5, a3, -2
    6a0a:	fec242        	addi	a4, a2, -2
    6a0d:	a60c           	movi.n	a6, 10
    6a0f:	8139           	s32i.n	a3, a1, 32
    6a11:	fec3b2        	addi	a11, a3, -2
    6a14:	fec2c2        	addi	a12, a2, -2
    6a17:	b1d9           	s32i.n	a13, a1, 44
    6a19:	a1e9           	s32i.n	a14, a1, 40
    6a1b:	08fd           	mov.n	a15, a8
    6a1d:	097d           	mov.n	a7, a9
    6a1f:	20a550        	or	a10, a5, a5
    6a22:	203440        	or	a3, a4, a4
    6a25:	598676        	loop	a6, 6a82 <gain_after_ec+0xd2>
    6a28:	eb69ac8c1f 	{ ae_lp16f.iu	aep0, a12, 2; ae_mulfp24s.ll	aeq2, aep2, aep3 }
    6a2d:	e868ac9b1f 	{ ae_lp16f.iu	aep1, a11, 2; ae_mulfp24s.hh	aeq0, aep2, aep3 }
    6a32:	ea89faa18f 	{ ae_slliq56	aeq2, aeq2, 4; ae_mulfp24s.ll	aeq1, aep2, aep4 }
    6a37:	e988fa810f 	{ ae_slliq56	aeq0, aeq0, 4; ae_mulfp24s.hh	aeq3, aep2, aep4 }
    6a3c:	eb09ba213f 	{ ae_sq56s.i	aeq2, a1, 24; ae_mulfp24s.ll	aeq2, aep2, aep0 }
    6a41:	ea29ba012f 	{ ae_sq56s.i	aeq0, a1, 16; ae_mulfp24s.ll	aeq0, aep2, aep1 }
    6a46:	355114        	ae_slliq56	aeq1, aeq1, 4
    6a49:	631114        	ae_sq56s.i	aeq1, a1, 8
    6a4c:	356114        	ae_slliq56	aeq1, aeq2, 4
    6a4f:	618124        	ae_lq56.i	aeq2, a1, 16
    6a52:	fbf3bdc13f 	{ ae_lq56.i	aeq2, a1, 24; ae_roundsp16q48sym	aep6, aeq2 }
    6a57:	fbf3edbd1f 	{ ae_lp16x2f.iu	aep3, a13, 4; ae_roundsp16q48sym	aep7, aeq2 }
    6a5c:	fbebb2e71f 	{ ae_sp16f.l.iu	aep6, a7, 2; ae_roundsp16q48sym	aep6, aeq1 }
    6a61:	35f114        	ae_slliq56	aeq3, aeq3, 4
    6a64:	f8fbf2f71f 	{ ae_sp16f.l.iu	aep7, a7, 2; ae_roundsp16q48sym	aep1, aeq3 }
    6a69:	350114        	ae_slliq56	aeq0, aeq0, 4
    6a6c:	fbe3fde11f 	{ ae_lq56.i	aeq3, a1, 8; ae_roundsp16q48sym	aep7, aeq0 }
    6a71:	fafbedce1f 	{ ae_lp16x2f.iu	aep4, a14, 4; ae_roundsp16q48sym	aep5, aeq3 }
    6a76:	429f14        	ae_sp16f.l.iu	aep1, a15, 2
    6a79:	42df14        	ae_sp16f.l.iu	aep5, a15, 2
    6a7c:	42e414        	ae_sp16f.l.iu	aep6, a4, 2
    6a7f:	42fa14        	ae_sp16f.l.iu	aep7, a10, 2

00006a82 <gain_after_ec+0xd2>:
    6a82:	9148           	l32i.n	a4, a1, 36
    6a84:	a178           	l32i.n	a7, a1, 40
    6a86:	b1a8           	l32i.n	a10, a1, 44
    6a88:	021426        	beqi	a4, 1, 6a8e <gain_after_ec+0xde>
    6a8b:	002146        	j	6b14 <gain_after_ec+0x164>
    6a8e:	e58f41        	l32r	a4, cc (f59c <p_ecnr_mem>)
    6a91:	03fd           	mov.n	a15, a3
    6a93:	8138           	l32i.n	a3, a1, 32
    6a95:	0468           	l32i.n	a6, a4, 0
    6a97:	2b4c           	movi.n	a11, 66
    6a99:	52a6c2        	movi	a12, 0x652
    6a9c:	3ca0d2        	movi	a13, 60
    6a9f:	b1a0e2        	movi	a14, 177
    6aa2:	0aa042        	movi	a4, 10
    6aa5:	440a04        	ae_lp16x2f.i	aep0, a10, 0
    6aa8:	441704        	ae_lp16x2f.i	aep1, a7, 0
    6aab:	2cdbb2        	addmi	a11, a11, 0x2c00
    6aae:	f0ccc0        	subx8	a12, a12, a12
    6ab1:	2cddd2        	addmi	a13, a13, 0x2c00
    6ab4:	11eea0        	slli	a14, a14, 6
    6ab7:	fec332        	addi	a3, a3, -2
    6aba:	fec222        	addi	a2, a2, -2
    6abd:	538476        	loop	a4, 6b14 <gain_after_ec+0x164>
    6ac0:	4146b4        	ae_lp16f.x	aep4, a6, a11
    6ac3:	e81099d6cf 	{ ae_lp16f.x	aep5, a6, a12; ae_mulfp24s.hh	aeq0, aep4, aep0 }
    6ac8:	ea11eca21f 	{ ae_lp16f.iu	aep2, a2, 2; ae_mulfp24s.ll	aeq1, aep4, aep0 }
    6acd:	e934ba802f 	{ ae_slliq56	aeq0, aeq0, 2; ae_mulfp24s.hh	aeq2, aep5, aep1 }
    6ad2:	eb35fa906f 	{ ae_slliq56	aeq1, aeq1, 2; ae_mulfp24s.ll	aeq3, aep5, aep1 }
    6ad7:	fae3ecb31f 	{ ae_lp16f.iu	aep3, a3, 2; ae_roundsp16q48sym	aep5, aeq0 }
    6adc:	fbebad8a1f 	{ ae_lp16x2f.iu	aep0, a10, 4; ae_roundsp16q48sym	aep6, aeq1 }
    6ae1:	42d914        	ae_sp16f.l.iu	aep5, a9, 2
    6ae4:	42e914        	ae_sp16f.l.iu	aep6, a9, 2
    6ae7:	35a094        	ae_slliq56	aeq2, aeq2, 2
    6aea:	fbf3d9c6df 	{ ae_lp16f.x	aep4, a6, a13; ae_roundsp16q48sym	aep7, aeq2 }
    6aef:	eb5199e6ef 	{ ae_lp16f.x	aep6, a6, a14; ae_mulfp24s.ll	aeq2, aep4, aep2 }
    6af4:	eb79fab02f 	{ ae_slliq56	aeq0, aeq3, 2; ae_mulfp24s.ll	aeq3, aep6, aep3 }
    6af9:	fae3faa06f 	{ ae_slliq56	aeq1, aeq2, 2; ae_roundsp16q48sym	aep5, aeq0 }
    6afe:	fbebbab0ef 	{ ae_slliq56	aeq3, aeq3, 2; ae_roundsp16q48sym	aep6, aeq1 }
    6b03:	449714        	ae_lp16x2f.iu	aep1, a7, 4
    6b06:	fbfbf2f81f 	{ ae_sp16f.l.iu	aep7, a8, 2; ae_roundsp16q48sym	aep7, aeq3 }
    6b0b:	42d814        	ae_sp16f.l.iu	aep5, a8, 2
    6b0e:	42ef14        	ae_sp16f.l.iu	aep6, a15, 2
    6b11:	42f514        	ae_sp16f.l.iu	aep7, a5, 2

00006b14 <gain_after_ec+0x164>:
    6b14:	f01d           	retw.n

00006b16 <gain_after_ec+0x166>:
	...

00006b18 <synth_3band>:
    6b18:	004136        	entry	a1, 32
    6b1b:	c54b           	addi.n	a12, a5, 4
    6b1d:	f3f6c0        	wur.ae_cbegin0	a12
    6b20:	e64371        	l32r	a7, 42c (f440 <sb_g10>)
    6b23:	e64581        	l32r	a8, 438 (f4c0 <sb_h2ir_v2>)
    6b26:	05c8           	l32i.n	a12, a5, 0
    6b28:	7cc5f2        	addi	a15, a5, 124
    6b2b:	a90c           	movi.n	a9, 10
    6b2d:	fd248004af 	{ movi	a10, 4; ae_zeroq56	aeq1 }
    6b32:	fb0c           	movi.n	a11, 15
    6b34:	f3f7f0        	wur.ae_cend0	a15
    6b37:	fc0c4fe22e 	{ addi	a2, a2, -2; ae_movq56	aeq0, aeq1 }
    6b3c:	fec332        	addi	a3, a3, -2
    6b3f:	fcc442        	addi	a4, a4, -4
    6b42:	fec662        	addi	a6, a6, -2

00006b45 <synth_3band+0x2d>:
    6b45:	408214        	ae_lp16f.iu	aep0, a2, 2
    6b48:	409314        	ae_lp16f.iu	aep1, a3, 2
    6b4b:	d9212df41f 	{ ae_lp16x2f.iu	aep7, a4, 4; ae_addsp24s	aep2, aep0, aep1 }
    6b50:	078184        	ae_subsp24s	aep0, aep0, aep1
    6b53:	1aa004        	ae_selp24.ll	aep0, aep2, aep0
    6b56:	fc24e40caf 	{ ae_sp16x2f.c	aep0, a12, a10; nop }
    6b5b:	fc24e47caf 	{ ae_sp16x2f.c	aep7, a12, a10; nop }
    6b60:	441704        	ae_lp16x2f.i	aep1, a7, 0
    6b63:	440804        	ae_lp16x2f.i	aep0, a8, 0
    6b66:	168b76        	loop	a11, 6b80 <synth_3band+0x68>
    6b69:	fc24daacaf 	{ ae_lp16x2f.c	aep2, a12, a10; nop }
    6b6e:	e247dabcaf 	{ ae_lp16x2f.c	aep3, a12, a10; ae_mulafp24s.ll	aeq1, aep1, aep2 }
    6b73:	e2462d971f 	{ ae_lp16x2f.iu	aep1, a7, 4; ae_mulafp24s.hh	aeq0, aep1, aep2 }
    6b78:	010b94        	ae_mulsfp24s.hl	aeq1, aep0, aep3
    6b7b:	e262ad881f 	{ ae_lp16x2f.iu	aep0, a8, 4; ae_mulafp24s.lh	aeq0, aep0, aep3 }

00006b80 <synth_3band+0x68>:
    6b80:	f86b8ff99e 	{ addi	a9, a9, -1; ae_roundsp16q48asym	aep0, aeq1 }
    6b85:	f863f2861f 	{ ae_sp16f.l.iu	aep0, a6, 2; ae_roundsp16q48asym	aep1, aeq0 }
    6b8a:	fd248c477e 	{ addi	a7, a7, -60; ae_zeroq56	aeq1 }
    6b8f:	fc0c4c488e 	{ addi	a8, a8, -60; ae_movq56	aeq0, aeq1 }
    6b94:	429614        	ae_sp16f.l.iu	aep1, a6, 2
    6b97:	faa956        	bnez	a9, 6b45 <synth_3band+0x2d>
    6b9a:	05c9           	s32i.n	a12, a5, 0
    6b9c:	f01d           	retw.n

00006b9e <synth_3band+0x86>:
	...

00006ba0 <main_err_alpha>:
    6ba0:	004136        	entry	a1, 32
    6ba3:	23bc           	beqz.n	a3, 6bd9 <main_err_alpha+0x39>
    6ba5:	115300        	slli	a5, a3, 16
    6ba8:	0248           	l32i.n	a4, a2, 0
    6baa:	032222        	l32i	a2, a2, 12
    6bad:	ffaff2        	movi	a15, -1
    6bb0:	c03350        	sub	a3, a3, a5
    6bb3:	015f10        	slli	a5, a15, 31
    6bb6:	805350        	add	a5, a3, a5
    6bb9:	0aa062        	movi	a6, 10
    6bbc:	fec432        	addi	a3, a4, -2
    6bbf:	308554        	ae_cvtp24a16x2.lh	aep0, a5, a5
    6bc2:	409204        	ae_lp16f.iu	aep1, a2, 0
    6bc5:	108676        	loop	a6, 6bd9 <main_err_alpha+0x39>
    6bc8:	e820acf31f 	{ ae_lp16f.iu	aep7, a3, 2; ae_mulfp24s.hh	aeq0, aep0, aep1 }
    6bcd:	010734        	ae_mulafp24s.ll	aeq0, aep0, aep7
    6bd0:	1b8f14        	ae_roundsp16q48asym	aep1, aeq0
    6bd3:	421304        	ae_sp16f.l.i	aep1, a3, 0
    6bd6:	409214        	ae_lp16f.iu	aep1, a2, 2

00006bd9 <main_err_alpha+0x39>:
    6bd9:	f01d           	retw.n

00006bdb <main_err_alpha+0x3b>:
	...

00006bdc <AVC_prcs>:
    6bdc:	004136        	entry	a1, 32
    6bdf:	fc2480784f 	{ movi	a4, 120; ae_zeroq56	aeq0 }
    6be4:	440304        	ae_lp16x2f.i	aep0, a3, 0
    6be7:	048476        	loop	a4, 6bef <AVC_prcs+0x13>
    6bea:	e2002d831f 	{ ae_lp16x2f.iu	aep0, a3, 4; ae_mulaafp24s.hh.ll	aeq0, aep0, aep0 }

00006bef <AVC_prcs+0x13>:
    6bef:	3501f4        	ae_sraiq56	aeq0, aeq0, 7
    6bf2:	fc2441113f 	{ movi	a3, 0x111; ae_roundsq32asym	aeq0, aeq0 }
    6bf7:	300334        	ae_cvtp24a16x2.ll	aep0, a3, a3
    6bfa:	d4e20000af 	{ movi	a10, 0; ae_mulfq32sp16s.l	aeq0, aeq0, aep0 }
    6bff:	e53231        	l32r	a3, c8 (9cc <HIFI_sqrt>)
    6c02:	3501d4        	ae_slliq56	aeq0, aeq0, 7
    6c05:	060934        	ae_roundsq32asym	aeq0, aeq0
    6c08:	368b04        	ae_trunca32q48	a11, aeq0
    6c0b:	0003e0        	callx8	a3
    6c0e:	364b34        	ae_cvtq48a32s	aeq1, a11
    6c11:	fc24fe9a4f 	{ ae_slaasq56s	aeq1, aeq1, a10; nop }
    6c16:	fd2c6d020f 	{ ae_lp16x2f.i	aep0, a2, 0; ae_roundsq32asym	aeq1, aeq1 }
    6c1b:	600224        	ae_lq32f.i	aeq0, a2, 8
    6c1e:	0c0120223e 	{ l16si	a3, a2, 4; ae_mulzaafq32sp16s.lh	aeq0, aeq1, aep0, aeq0, aep0 }
    6c23:	060934        	ae_roundsq32asym	aeq0, aeq0
    6c26:	11b300        	slli	a11, a3, 16
    6c29:	368a04        	ae_trunca32q48	a10, aeq0
    6c2c:	e58c31        	l32r	a3, 25c (be9c <airoha_divide>)
    6c2f:	22a9           	s32i.n	a10, a2, 8
    6c31:	0003e0        	callx8	a3
    6c34:	feca42        	addi	a4, a10, -2
    6c37:	360b34        	ae_cvtq48a32s	aeq0, a11
    6c3a:	fc24fe840f 	{ ae_slaasq56s	aeq0, aeq0, a4; nop }
    6c3f:	f86380013f 	{ movi	a3, 1; ae_roundsp16q48asym	aep0, aeq0 }
    6c44:	360f24        	ae_trunca16p24s.l	a15, aep0
    6c47:	039222        	l16si	a2, a2, 6
    6c4a:	113330        	slli	a3, a3, 13
    6c4d:	533f30        	max	a3, a15, a3
    6c50:	432320        	min	a2, a3, a2
    6c53:	f01d           	retw.n

00006c55 <AVC_prcs+0x79>:
    6c55:	000000                                        ...

00006c58 <aec_post_prcs>:
    6c58:	004136        	entry	a1, 32
    6c5b:	72a362        	movi	a6, 0x372
    6c5e:	74a372        	movi	a7, 0x374
    6c61:	28c2f2        	addi	a15, a2, 40
    6c64:	411264        	ae_lp16f.x	aep1, a2, a6
    6c67:	412274        	ae_lp16f.x	aep2, a2, a7
    6c6a:	1512d2        	l16ui	a13, a2, 42
    6c6d:	ea4580f58e 	{ addi	a8, a5, 15; ae_mulfp24s.ll	aeq0, aep1, aep2 }
    6c72:	fc7c           	movi.n	a12, -1
    6c74:	f967a142ee 	{ l16si	a14, a2, 40; ae_roundsp24q48asym	aep2, aeq0 }
    6c79:	403f04        	ae_lp16f.i	aep3, a15, 0
    6c7c:	301dd4        	ae_cvtp24a16x2.ll	aep1, a13, a13
    6c7f:	1552e2        	s16i	a14, a2, 42
    6c82:	dd2ecfe42e 	{ addi	a2, a4, -2; ae_subsp24s	aep3, aep3, aep1 }
    6c87:	4169c0        	srli	a6, a12, 9
    6c8a:	b38550        	movgez	a8, a5, a5
    6c8d:	cd2c62066f 	{ ae_movpa24x2	aep0, a6, a6; ae_sraip24	aep3, aep3, 4 }
    6c92:	10a062        	movi	a6, 16
    6c95:	214480        	srai	a4, a8, 4
    6c98:	404304        	ae_lp16f.i	aep4, a3, 0

00006c9b <aec_post_prcs+0x43>:
    6c9b:	079314        	ae_addsp24s	aep1, aep1, aep3
    6c9e:	21b5a6        	blti	a5, 16, 6cc3 <aec_post_prcs+0x6b>
    6ca1:	0781d4        	ae_subsp24s	aep5, aep0, aep1
    6ca4:	015274        	ae_mulfp24s.ll	aeq0, aep5, aep2
    6ca7:	350094        	ae_slliq56	aeq0, aeq0, 2
    6caa:	060934        	ae_roundsq32asym	aeq0, aeq0
    6cad:	128476        	loop	a4, 6cc3 <aec_post_prcs+0x6b>
    6cb0:	ea85ecf21f 	{ ae_lp16f.iu	aep7, a2, 2; ae_mulfp24s.ll	aeq1, aep1, aep4 }
    6cb5:	fd2c6cc31f 	{ ae_lp16f.iu	aep4, a3, 2; ae_roundsq32asym	aeq1, aeq1 }
    6cba:	037814        	ae_mulafq32sp16s.l	aeq1, aeq0, aep7
    6cbd:	1b9f54        	ae_roundsp16q48asym	aep5, aeq1
    6cc0:	4253f4        	ae_sp16f.l.i	aep5, a3, -2

00006cc3 <aec_post_prcs+0x6b>:
    6cc3:	660b           	addi.n	a6, a6, -1
    6cc5:	fd2656        	bnez	a6, 6c9b <aec_post_prcs+0x43>
    6cc8:	f01d           	retw.n

00006cca <aec_post_prcs+0x72>:
	...

00006ccc <tx_downsample_by2_N>:
    6ccc:	004136        	entry	a1, 32
    6ccf:	600604        	ae_lq32f.i	aeq0, a6, 0
    6cd2:	0217e6        	bgei	a7, 1, 6cd8 <tx_downsample_by2_N+0xc>
    6cd5:	002946        	j	6d7e <tx_downsample_by2_N+0xb2>
    6cd8:	e5d981        	l32r	a8, 43c (f420 <wb_r01>)
    6cdb:	440404        	ae_lp16x2f.i	aep0, a4, 0
    6cde:	fec332        	addi	a3, a3, -2
    6ce1:	fec222        	addi	a2, a2, -2
    6ce4:	f03d           	nop.n
    6ce6:	948776        	loop	a7, 6d7e <tx_downsample_by2_N+0xb2>
    6ce9:	e2002f150f 	{ ae_lp24x2f.i	aep1, a5, 0; ae_mulaafp24s.hh.ll	aeq0, aep0, aep0 }
    6cee:	fd242c340f 	{ ae_lp16f.i	aep3, a4, 0; ae_cvtq48p24s.h	aeq1, aep1 }
    6cf3:	de2cb1283f 	{ ae_lp24.i	aep2, a8, 12; ae_selp24.hl	aep4, aep3, aep1 }
    6cf8:	e88874350f 	{ ae_sp24f.l.i	aep3, a5, 0; ae_mulasfp24s.hh.ll	aeq1, aep2, aep4 }
    6cfd:	ff2c2f251f 	{ ae_lp24x2f.i	aep2, a5, 8; ae_cvtq48p24s.l	aeq3, aep1 }
    6d02:	fa6ff1684f 	{ ae_lp24.i	aep6, a8, 16; ae_roundsp24q48asym	aep5, aeq1 }
    6d07:	df55f4551f 	{ ae_sp24f.l.i	aep5, a5, 4; ae_selp24.lh	aep7, aep5, aep2 }
    6d0c:	e9f871385f 	{ ae_lp24.i	aep3, a8, 20; ae_mulasfp24s.hh.ll	aeq3, aep6, aep7 }
    6d11:	fe442c441f 	{ ae_lp16f.i	aep4, a4, 2; ae_cvtq48p24s.h	aeq2, aep2 }
    6d16:	f87fed841f 	{ ae_lp16x2f.iu	aep0, a4, 4; ae_roundsp24q48asym	aep1, aeq3 }
    6d1b:	dd4634152f 	{ ae_sp24f.l.i	aep1, a5, 8; ae_selp24.ll	aep2, aep1, aep2 }
    6d20:	05b244        	ae_mulasfp24s.hh.ll	aeq2, aep3, aep2
    6d23:	1bad14        	ae_roundsp24q48asym	aep1, aeq2
    6d26:	521534        	ae_sp24f.l.i	aep1, a5, 12
    6d29:	5c6524        	ae_lp24x2f.i	aep6, a5, 16
    6d2c:	ffc431780f 	{ ae_lp24.i	aep7, a8, 0; ae_cvtq48p24s.h	aeq3, aep6 }
    6d31:	ded0f4454f 	{ ae_sp24f.l.i	aep4, a5, 16; ae_selp24.hl	aep5, aep4, aep6 }
    6d36:	e9bc6f253f 	{ ae_lp24x2f.i	aep2, a5, 24; ae_mulasfp24s.hh.ll	aeq3, aep7, aep5 }
    6d3b:	fecc31681f 	{ ae_lp24.i	aep6, a8, 4; ae_cvtq48p24s.l	aeq2, aep6 }
    6d40:	fa7fbf17df 	{ ae_movap24s.l	a7, aep1; ae_roundsp24q48asym	aep4, aeq3 }
    6d45:	df51f4455f 	{ ae_sp24f.l.i	aep4, a5, 20; ae_selp24.lh	aep7, aep4, aep2 }
    6d4a:	e9f831482f 	{ ae_lp24.i	aep4, a8, 8; ae_mulasfp24s.hh.ll	aeq2, aep6, aep7 }
    6d4f:	0aca84        	ae_cvtq48p24s.h	aeq3, aep2
    6d52:	1bad34        	ae_roundsp24q48asym	aep3, aeq2
    6d55:	dd4e34356f 	{ ae_sp24f.l.i	aep3, a5, 24; ae_selp24.ll	aep2, aep3, aep2 }
    6d5a:	05ca44        	ae_mulasfp24s.hh.ll	aeq3, aep4, aep2
    6d5d:	1bbd54        	ae_roundsp24q48asym	aep5, aeq3
    6d60:	34d904        	ae_movap24s.l	a9, aep5
    6d63:	a97a           	add.n	a10, a9, a7
    6d65:	c07970        	sub	a7, a9, a7
    6d68:	41f1a0        	srli	a15, a10, 1
    6d6b:	417170        	srli	a7, a7, 1
    6d6e:	39ef74        	ae_movpa24x2	aep6, a15, a7
    6d71:	f9fab4557f 	{ ae_sp24f.l.i	aep5, a5, 28; ae_roundsp16asym	aep2, aep6 }
    6d76:	df4972a31f 	{ ae_sp16f.l.iu	aep2, a3, 2; ae_selp24.hh	aep7, aep2, aep2 }
    6d7b:	42f214        	ae_sp16f.l.iu	aep7, a2, 2

00006d7e <tx_downsample_by2_N+0xb2>:
    6d7e:	060934        	ae_roundsq32asym	aeq0, aeq0
    6d81:	620604        	ae_sq32f.i	aeq0, a6, 0
    6d84:	f01d           	retw.n

00006d86 <tx_downsample_by2_N+0xba>:
	...

00006d88 <tx_upsample_by2_N>:
    6d88:	006136        	entry	a1, 48
    6d8b:	600604        	ae_lq32f.i	aeq0, a6, 0
    6d8e:	0217e6        	bgei	a7, 1, 6d94 <tx_upsample_by2_N+0xc>
    6d91:	002ac6        	j	6e40 <tx_upsample_by2_N+0xb8>
    6d94:	771b           	addi.n	a7, a7, 1
    6d96:	41a170        	srli	a10, a7, 1
    6d99:	e5a871        	l32r	a7, 43c (f420 <wb_r01>)
    6d9c:	402304        	ae_lp16f.i	aep2, a3, 0
    6d9f:	401204        	ae_lp16f.i	aep1, a2, 0
    6da2:	fcc442        	addi	a4, a4, -4
    6da5:	81eb           	addi.n	a8, a1, 14
    6da7:	91cb           	addi.n	a9, a1, 12
    6da9:	f03d           	nop.n
    6dab:	f03d           	nop.n
    6dad:	8f8a76        	loop	a10, 6e40 <tx_upsample_by2_N+0xb8>
    6db0:	dd46ef050f 	{ ae_lp24x2f.i	aep0, a5, 0; ae_subsp24s	aep3, aep1, aep2 }
    6db5:	fd0432391f 	{ ae_sp16f.l.i	aep3, a9, 2; ae_cvtq48p24s.h	aeq1, aep0 }
    6dba:	ff0c2c380f 	{ ae_lp16f.i	aep3, a8, 0; ae_cvtq48p24s.l	aeq3, aep0 }
    6dbf:	de0cf1470f 	{ ae_lp24.i	aep4, a7, 0; ae_selp24.hl	aep5, aep3, aep0 }
    6dc4:	e8b074350f 	{ ae_sp24f.l.i	aep3, a5, 0; ae_mulasfp24s.hh.ll	aeq1, aep4, aep5 }
    6dc9:	d8452f351f 	{ ae_lp24x2f.i	aep3, a5, 8; ae_addsp24s	aep0, aep1, aep2 }
    6dce:	fa6fb1671f 	{ ae_lp24.i	aep6, a7, 4; ae_roundsp24q48asym	aep4, aeq1 }
    6dd3:	df71f4451f 	{ ae_sp24f.l.i	aep4, a5, 4; ae_selp24.lh	aep7, aep4, aep3 }
    6dd8:	e9f871572f 	{ ae_lp24.i	aep5, a7, 8; ae_mulasfp24s.hh.ll	aeq3, aep6, aep7 }
    6ddd:	fe6432090f 	{ ae_sp16f.l.i	aep0, a9, 0; ae_cvtq48p24s.h	aeq2, aep3 }
    6de2:	fa7fac690f 	{ ae_lp16f.i	aep6, a9, 0; ae_roundsp24q48asym	aep4, aeq3 }
    6de7:	dd7274452f 	{ ae_sp24f.l.i	aep4, a5, 8; ae_selp24.ll	aep3, aep4, aep3 }
    6dec:	05d344        	ae_mulasfp24s.hh.ll	aeq2, aep5, aep3
    6def:	1bad24        	ae_roundsp24q48asym	aep2, aeq2
    6df2:	e203b4253f 	{ ae_sp24f.l.i	aep2, a5, 12; ae_mulafp24s.ll	aeq0, aep0, aep0 }
    6df7:	5c1524        	ae_lp24x2f.i	aep1, a5, 16
    6dfa:	ff2431473f 	{ ae_lp24.i	aep4, a7, 12; ae_cvtq48p24s.h	aeq3, aep1 }
    6dff:	df38f4654f 	{ ae_sp24f.l.i	aep6, a5, 16; ae_selp24.hl	aep7, aep6, aep1 }
    6e04:	e9f06f353f 	{ ae_lp24x2f.i	aep3, a5, 24; ae_mulasfp24s.hh.ll	aeq3, aep4, aep7 }
    6e09:	fe2c31674f 	{ ae_lp24.i	aep6, a7, 16; ae_cvtq48p24s.l	aeq2, aep1 }
    6e0e:	fa7fbf2adf 	{ ae_movap24s.l	a10, aep2; ae_roundsp24q48asym	aep4, aeq3 }
    6e13:	df71f4455f 	{ ae_sp24f.l.i	aep4, a5, 20; ae_selp24.lh	aep7, aep4, aep3 }
    6e18:	e9f831775f 	{ ae_lp24.i	aep7, a7, 20; ae_mulasfp24s.hh.ll	aeq2, aep6, aep7 }
    6e1d:	ff642c921f 	{ ae_lp16f.iu	aep1, a2, 2; ae_cvtq48p24s.h	aeq3, aep3 }
    6e22:	fb77aca31f 	{ ae_lp16f.iu	aep2, a3, 2; ae_roundsp24q48asym	aep6, aeq2 }
    6e27:	dd7a74656f 	{ ae_sp24f.l.i	aep6, a5, 24; ae_selp24.ll	aep3, aep6, aep3 }
    6e2c:	05fb44        	ae_mulasfp24s.hh.ll	aeq3, aep7, aep3
    6e2f:	1bbd64        	ae_roundsp24q48asym	aep6, aeq3
    6e32:	34eb04        	ae_movap24s.l	a11, aep6
    6e35:	39fab4        	ae_movpa24x2	aep7, a10, a11
    6e38:	f9fef4657f 	{ ae_sp24f.l.i	aep6, a5, 28; ae_roundsp16asym	aep3, aep7 }
    6e3d:	46b414        	ae_sp16x2f.iu	aep3, a4, 4

00006e40 <tx_upsample_by2_N+0xb8>:
    6e40:	060934        	ae_roundsq32asym	aeq0, aeq0
    6e43:	620604        	ae_sq32f.i	aeq0, a6, 0
    6e46:	f01d           	retw.n

00006e48 <gain_after_ec_ch5>:
    6e48:	008136        	entry	a1, 64
    6e4b:	e4a051        	l32r	a5, cc (f59c <p_ecnr_mem>)
    6e4e:	eaa472        	movi	a7, 0x4ea
    6e51:	b07770        	addx8	a7, a7, a7
    6e54:	0568           	l32i.n	a6, a5, 0
    6e56:	442204        	ae_lp16x2f.i	aep2, a2, 0
    6e59:	1a0c           	movi.n	a10, 1
    6e5b:	411674        	ae_lp16f.x	aep1, a6, a7
    6e5e:	04ac           	beqz.n	a4, 6e82 <gain_after_ec_ch5+0x3a>
    6e60:	e4ff61        	l32r	a6, 25c (be9c <airoha_divide>)
    6e63:	11aa10        	slli	a10, a10, 15
    6e66:	04bd           	mov.n	a11, a4
    6e68:	561124        	ae_sp24x2s.i	aep1, a1, 16
    6e6b:	562134        	ae_sp24x2s.i	aep2, a1, 24
    6e6e:	0006e0        	callx8	a6
    6e71:	360b34        	ae_cvtq48a32s	aeq0, a11
    6e74:	540124        	ae_lp24x2.i	aep0, a1, 16
    6e77:	d4e230213f 	{ ae_lp24x2.i	aep2, a1, 24; ae_mulfq32sp16s.l	aeq0, aeq0, aep0 }
    6e7c:	340a94        	ae_sllaq56	aeq0, aeq0, a10
    6e7f:	1b8d14        	ae_roundsp24q48asym	aep1, aeq0

00006e82 <gain_after_ec_ch5+0x3a>:
    6e82:	fec242        	addi	a4, a2, -2
    6e85:	481c           	movi.n	a8, 20
    6e87:	206220        	or	a6, a2, a2
    6e8a:	207440        	or	a7, a4, a4
    6e8d:	178876        	loop	a8, 6ea8 <gain_after_ec_ch5+0x60>
    6e90:	011244        	ae_mulfp24s.hh	aeq0, aep1, aep2
    6e93:	ea45eda61f 	{ ae_lp16x2f.iu	aep2, a6, 4; ae_mulfp24s.ll	aeq1, aep1, aep2 }
    6e98:	350114        	ae_slliq56	aeq0, aeq0, 4
    6e9b:	f8e3ba914f 	{ ae_slliq56	aeq1, aeq1, 4; ae_roundsp16q48sym	aep0, aeq0 }
    6ea0:	fbebf2871f 	{ ae_sp16f.l.iu	aep0, a7, 2; ae_roundsp16q48sym	aep7, aeq1 }
    6ea5:	42f714        	ae_sp16f.l.iu	aep7, a7, 2

00006ea8 <gain_after_ec_ch5+0x60>:
    6ea8:	281366        	bnei	a3, 1, 6ed4 <gain_after_ec_ch5+0x8c>
    6eab:	0538           	l32i.n	a3, a5, 0
    6ead:	e564f1        	l32r	a15, 440 (103de <_end+0xe3e>)
    6eb0:	14a062        	movi	a6, 20
    6eb3:	441204        	ae_lp16x2f.i	aep1, a2, 0
    6eb6:	4103f4        	ae_lp16f.x	aep0, a3, a15
    6eb9:	178676        	loop	a6, 6ed4 <gain_after_ec_ch5+0x8c>
    6ebc:	010144        	ae_mulfp24s.hh	aeq0, aep0, aep1
    6ebf:	ea21ed921f 	{ ae_lp16x2f.iu	aep1, a2, 4; ae_mulfp24s.ll	aeq1, aep0, aep1 }
    6ec4:	350094        	ae_slliq56	aeq0, aeq0, 2
    6ec7:	f9e3ba906f 	{ ae_slliq56	aeq1, aeq1, 2; ae_roundsp16q48sym	aep2, aeq0 }
    6ecc:	fbebf2a41f 	{ ae_sp16f.l.iu	aep2, a4, 2; ae_roundsp16q48sym	aep7, aeq1 }
    6ed1:	42f414        	ae_sp16f.l.iu	aep7, a4, 2

00006ed4 <gain_after_ec_ch5+0x8c>:
    6ed4:	f01d           	retw.n

00006ed6 <gain_after_ec_ch5+0x8e>:
	...

00006ed8 <downsample_by4>:
    6ed8:	004136        	entry	a1, 32
    6edb:	471c           	movi.n	a7, 20
    6edd:	fcc222        	addi	a2, a2, -4
    6ee0:	f8c462        	addi	a6, a4, -8
    6ee3:	f03d           	nop.n
    6ee5:	058776        	loop	a7, 6eee <downsample_by4+0x16>
    6ee8:	448214        	ae_lp16x2f.iu	aep0, a2, 4
    6eeb:	5e8614        	ae_sp24x2f.iu	aep0, a6, 8

00006eee <downsample_by4+0x16>:
    6eee:	e555c1        	l32r	a12, 444 (e7c0 <hpf_band5_coef>)
    6ef1:	e4e921        	l32r	a2, 298 (321c <biquad_2cascade_24bitTx>)
    6ef4:	8e2c           	movi.n	a14, 40
    6ef6:	04ad           	mov.n	a10, a4
    6ef8:	05bd           	mov.n	a11, a5
    6efa:	03dd           	mov.n	a13, a3
    6efc:	0002e0        	callx8	a2
    6eff:	a40c           	movi.n	a4, 10
    6f01:	032d           	mov.n	a2, a3
    6f03:	078476        	loop	a4, 6f0e <downsample_by4+0x36>
    6f06:	234d           	ae_l16si.n	a4, a3, 0
    6f08:	624d           	ae_s16i.n	a4, a2, 0
    6f0a:	338b           	addi.n	a3, a3, 8
    6f0c:	222b           	addi.n	a2, a2, 2
    6f0e:	f01d           	retw.n

00006f10 <hb_buf_delay>:
    6f10:	004136        	entry	a1, 32
    6f13:	e49171        	l32r	a7, 158 (d6fc <xt_memcpy>)
    6f16:	06ad           	mov.n	a10, a6
    6f18:	04bd           	mov.n	a11, a4
    6f1a:	03cd           	mov.n	a12, a3
    6f1c:	0007e0        	callx8	a7
    6f1f:	c05530        	sub	a5, a5, a3
    6f22:	90b340        	addx2	a11, a3, a4
    6f25:	04ad           	mov.n	a10, a4
    6f27:	05cd           	mov.n	a12, a5
    6f29:	0007e0        	callx8	a7
    6f2c:	90a540        	addx2	a10, a5, a4
    6f2f:	02bd           	mov.n	a11, a2
    6f31:	03cd           	mov.n	a12, a3
    6f33:	0007e0        	callx8	a7
    6f36:	02ad           	mov.n	a10, a2
    6f38:	06bd           	mov.n	a11, a6
    6f3a:	03cd           	mov.n	a12, a3
    6f3c:	0007e0        	callx8	a7
    6f3f:	f01d           	retw.n

00006f41 <hb_buf_delay+0x31>:
    6f41:	00000000                                 .......

00006f48 <siir_safr>:
    6f48:	004136        	entry	a1, 32
    6f4b:	05a237        	bge	a2, a3, 6f54 <siir_safr+0xc>
    6f4e:	440404        	ae_lp16x2f.i	aep0, a4, 0
    6f51:	000086        	j	6f57 <siir_safr+0xf>

00006f54 <siir_safr+0xc>:
    6f54:	440414        	ae_lp16x2f.i	aep0, a4, 4
    6f57:	360234        	ae_cvtq48a32s	aeq0, a2
    6f5a:	364334        	ae_cvtq48a32s	aeq1, a3
    6f5d:	c10014        	ae_mulzaafq32sp16s.lh	aeq0, aeq0, aep0, aeq1, aep0
    6f60:	060934        	ae_roundsq32asym	aeq0, aeq0
    6f63:	368204        	ae_trunca32q48	a2, aeq0
    6f66:	f01d           	retw.n

00006f68 <take_min_four>:
    6f68:	004136        	entry	a1, 32
    6f6b:	224d           	ae_l16si.n	a4, a2, 0
    6f6d:	5023a6        	blti	a3, 2, 6fc1 <take_min_four+0x59>
    6f70:	ffa052        	movi	a5, 255
    6f73:	7fd552        	addmi	a5, a5, 0x7f00
    6f76:	630b           	addi.n	a6, a3, -1
    6f78:	222b           	addi.n	a2, a2, 2
    6f7a:	048d           	mov.n	a8, a4
    6f7c:	053d           	mov.n	a3, a5
    6f7e:	207550        	or	a7, a5, a5
    6f81:	318676        	loop	a6, 6fb6 <take_min_four+0x4e>
    6f84:	22ad           	ae_l16si.n	a10, a2, 0
    6f86:	086d           	mov.n	a6, a8
    6f88:	079d           	mov.n	a9, a7
    6f8a:	0a4d           	mov.n	a4, a10
    6f8c:	1c2a87        	blt	a10, a8, 6fac <take_min_four+0x44>
    6f8f:	084d           	mov.n	a4, a8
    6f91:	0a6d           	mov.n	a6, a10
    6f93:	079d           	mov.n	a9, a7
    6f95:	132a77        	blt	a10, a7, 6fac <take_min_four+0x44>
    6f98:	084d           	mov.n	a4, a8
    6f9a:	076d           	mov.n	a6, a7
    6f9c:	0a9d           	mov.n	a9, a10
    6f9e:	0a2a37        	blt	a10, a3, 6fac <take_min_four+0x44>
    6fa1:	4355a0        	min	a5, a5, a10
    6fa4:	039d           	mov.n	a9, a3
    6fa6:	084d           	mov.n	a4, a8
    6fa8:	076d           	mov.n	a6, a7
    6faa:	053d           	mov.n	a3, a5

00006fac <take_min_four+0x44>:
    6fac:	035d           	mov.n	a5, a3
    6fae:	222b           	addi.n	a2, a2, 2
    6fb0:	093d           	mov.n	a3, a9
    6fb2:	067d           	mov.n	a7, a6
    6fb4:	048d           	mov.n	a8, a4

00006fb6 <take_min_four+0x4e>:
    6fb6:	249a           	add.n	a2, a4, a9
    6fb8:	365a           	add.n	a3, a6, a5
    6fba:	223a           	add.n	a2, a2, a3
    6fbc:	112220        	slli	a2, a2, 14
    6fbf:	f01d           	retw.n

00006fc1 <take_min_four+0x59>:
    6fc1:	ffa062        	movi	a6, 255
    6fc4:	7fd662        	addmi	a6, a6, 0x7f00
    6fc7:	069d           	mov.n	a9, a6
    6fc9:	065d           	mov.n	a5, a6
    6fcb:	fff9c6        	j	6fb6 <take_min_four+0x4e>

00006fce <take_min_four+0x66>:
	...

00006fd0 <prelim_filter>:
    6fd0:	012136        	entry	a1, 144
    6fd3:	40c262        	addi	a6, a2, 64
    6fd6:	46c2c2        	addi	a12, a2, 70
    6fd9:	f3f7c0        	wur.ae_cend0	a12
    6fdc:	f3f660        	wur.ae_cbegin0	a6
    6fdf:	22c2f2        	addi	a15, a2, 34
    6fe2:	e149           	s32i.n	a4, a1, 56
    6fe4:	e122d2        	l32i	a13, a2, 0x384
    6fe7:	e222e2        	l32i	a14, a2, 0x388
    6fea:	e02272        	l32i	a7, a2, 0x380
    6fed:	192252        	l32i	a5, a2, 100
    6ff0:	24c242        	addi	a4, a2, 36
    6ff3:	c129           	s32i.n	a2, a1, 48
    6ff5:	e46321        	l32r	a2, 184 (d6e8 <xt_memset>)
    6ff8:	400f04        	ae_lp16f.i	aep0, a15, 0
    6ffb:	60c1a2        	addi	a10, a1, 96
    6ffe:	0b0c           	movi.n	a11, 0
    7000:	6c0c           	movi.n	a12, 6
    7002:	d139           	s32i.n	a3, a1, 52
    7004:	21d9           	s32i.n	a13, a1, 8
    7006:	b1e9           	s32i.n	a14, a1, 44
    7008:	41f9           	s32i.n	a15, a1, 16
    700a:	560134        	ae_sp24x2s.i	aep0, a1, 24
    700d:	0002e0        	callx8	a2
    7010:	21e8           	l32i.n	a14, a1, 8
    7012:	b1f8           	l32i.n	a15, a1, 44
    7014:	e50d81        	l32r	a8, 448 (ccccc <_end+0xbd72c>)
    7017:	5cc122        	addi	a2, a1, 92
    701a:	40c192        	addi	a9, a1, 64
    701d:	39a884        	ae_movpa24x2	aep2, a8, a8
    7020:	f129           	s32i.n	a2, a1, 60
    7022:	541134        	ae_lp24x2.i	aep1, a1, 24
    7025:	0aa062        	movi	a6, 10
    7028:	02a032        	movi	a3, 2
    702b:	fd248feeae 	{ addi	a10, a14, -2; ae_zeroq56	aeq1 }
    7030:	fec772        	addi	a7, a7, -2
    7033:	fecf22        	addi	a2, a15, -2
    7036:	03a0b2        	movi	a11, 3
    7039:	fec9c2        	addi	a12, a9, -2
    703c:	562144        	ae_sp24x2s.i	aep2, a1, 32

0000703f <prelim_filter+0x6f>:
    703f:	408a14        	ae_lp16f.iu	aep0, a10, 2
    7042:	0b61a2        	s32i	a10, a1, 44
    7045:	608404        	ae_lq32f.i	aeq2, a4, 0
    7048:	fc0c62853f 	{ ae_sp16f.l.c	aep0, a5, a3; ae_movq56	aeq0, aeq1 }
    704d:	0c8b76        	loop	a11, 705d <prelim_filter+0x8d>
    7050:	fc24d9053f 	{ ae_lp16f.c	aep0, a5, a3; nop }
    7055:	f682fd541f 	{ ae_lq32f.iu	aeq2, a4, 4; ae_mulafq32sp16s.l	aeq1, aeq2, aep0 }
    705a:	010034        	ae_mulafp24s.ll	aeq0, aep0, aep0

0000705d <prelim_filter+0x8d>:
    705d:	ff2c3a909f 	{ ae_slliq56	aeq2, aeq1, 1; ae_cvtq48p24s.l	aeq3, aep1 }
    7062:	f9763b002f 	{ ae_sraiq56	aeq0, aeq0, 2; ae_addq56	aeq1, aeq2, aeq1 }
    7067:	fc244001af 	{ movi	a10, 1; ae_roundsq32asym	aeq0, aeq0 }
    706c:	f93eff08ef 	{ ae_trunca32q48	a8, aeq0; ae_subq56	aeq1, aeq3, aeq1 }
    7071:	f86bb2971f 	{ ae_sp16f.l.iu	aep1, a7, 2; ae_roundsp16q48asym	aep0, aeq1 }
    7076:	0009d4        	ae_cvta32p24.l	a9, aep0
    7079:	11aa20        	slli	a10, a10, 14
    707c:	53b8a0        	max	a11, a8, a10
    707f:	e47781        	l32r	a8, 25c (be9c <airoha_divide>)
    7082:	428c14        	ae_sp16f.l.iu	aep0, a12, 2
    7085:	21a690        	srai	a10, a9, 6
    7088:	21c9           	s32i.n	a12, a1, 8
    708a:	0008e0        	callx8	a8
    708d:	360b34        	ae_cvtq48a32s	aeq0, a11
    7090:	f188           	l32i.n	a8, a1, 60
    7092:	fc24fe8a0f 	{ ae_slaasq56s	aeq0, aeq0, a10; nop }
    7097:	3b0c           	movi.n	a11, 3
    7099:	f8678f044e 	{ addi	a4, a4, -16; ae_roundsp24q48asym	aep0, aeq0 }
    709e:	542144        	ae_lp24x2.i	aep2, a1, 32
    70a1:	1a8b76        	loop	a11, 70bf <prelim_filter+0xef>
    70a4:	601414        	ae_lq32f.iu	aeq0, a4, 4
    70a7:	fc24d9153f 	{ ae_lp16f.c	aep1, a5, a3; nop }
    70ac:	e223bd381f 	{ ae_lq32f.iu	aeq1, a8, 4; ae_mulafp24s.ll	aeq0, aep0, aep1 }
    70b1:	060934        	ae_roundsq32asym	aeq0, aeq0
    70b4:	f4caf9840f 	{ ae_sq32f.i	aeq0, a4, 0; ae_mulafq32sp24s.l	aeq1, aeq0, aep2 }
    70b9:	06d934        	ae_roundsq32asym	aeq3, aeq1
    70bc:	623804        	ae_sq32f.i	aeq3, a8, 0
    70bf:	b1a8           	l32i.n	a10, a1, 44
    70c1:	21c8           	l32i.n	a12, a1, 8
    70c3:	660b           	addi.n	a6, a6, -1
    70c5:	fd248f844e 	{ addi	a4, a4, -8; ae_zeroq56	aeq1 }
    70ca:	409214        	ae_lp16f.iu	aep1, a2, 2
    70cd:	f6e656        	bnez	a6, 703f <prelim_filter+0x6f>
    70d0:	fc24b0c16e 	{ l32i	a6, a1, 48; ae_zeroq56	aeq0 }
    70d5:	042122        	l32i	a2, a1, 16
    70d8:	e4dd41        	l32r	a4, 44c (393e4b <_end+0x3848ab>)
    70db:	fe0444013e 	{ addi	a3, a1, 64; ae_movq56	aeq2, aeq0 }
    70e0:	421204        	ae_sp16f.l.i	aep1, a2, 0
    70e3:	e02622        	l32i	a2, a6, 0x380
    70e6:	0aa0f2        	movi	a15, 10
    70e9:	398444        	ae_movpa24x2	aep0, a4, a4
    70ec:	196652        	s32i	a5, a6, 100
    70ef:	401304        	ae_lp16f.i	aep1, a3, 0
    70f2:	fec242        	addi	a4, a2, -2
    70f5:	158f76        	loop	a15, 710e <prelim_filter+0x13e>
    70f8:	ea21ece41f 	{ ae_lp16f.iu	aep6, a4, 2; ae_mulfp24s.ll	aeq1, aep0, aep1 }
    70fd:	ebc1ec931f 	{ ae_lp16f.iu	aep1, a3, 2; ae_mulfp24s.ll	aeq3, aep0, aep6 }
    7102:	1b9d24        	ae_roundsp24q48asym	aep2, aeq1
    7105:	1bbd74        	ae_roundsp24q48asym	aep7, aeq3
    7108:	012234        	ae_mulafp24s.ll	aeq0, aep2, aep2
    710b:	01f734        	ae_mulafp24s.ll	aeq2, aep7, aep7
    710e:	fd2440014f 	{ movi	a4, 1; ae_roundsq32asym	aeq1, aeq0 }
    7113:	114400        	slli	a4, a4, 16
    7116:	fc147ec4ff 	{ ae_cvtq48a32s	aeq3, a4; ae_movq56	aeq0, aeq2 }
    711b:	e45431        	l32r	a3, 26c (f210 <immediate_num>)
    711e:	fe2445c65e 	{ addi	a5, a6, 92; ae_roundsq32asym	aeq2, aeq0 }
    7123:	f8aafa312f 	{ ae_sq56s.i	aeq3, a1, 16; ae_subq56	aeq0, aeq1, aeq2 }
    7128:	60c504        	ae_lq32f.i	aeq3, a5, 0
    712b:	633114        	ae_sq56s.i	aeq3, a1, 8
    712e:	61c124        	ae_lq56.i	aeq3, a1, 16
    7131:	d6c42d037f 	{ ae_lp16x2f.i	aep0, a3, 28; ae_ltq56s	b0, aeq3, aeq0 }
    7136:	6005f4        	ae_lq32f.i	aeq0, a5, -4
    7139:	0e003de11f 	{ ae_lq56.i	aeq3, a1, 8; ae_mulzaafq32sp16s.lh	aeq0, aeq2, aep0, aeq0, aep0 }
    713e:	0c03c000ef 	{ movi	a14, 0; ae_mulzaafq32sp16s.lh	aeq1, aeq1, aep0, aeq3, aep0 }
    7143:	fc244001ff 	{ movi	a15, 1; ae_roundsq32asym	aeq0, aeq0 }
    7148:	fd2c56ef0f 	{ movt	a14, a15, b0; ae_roundsq32asym	aeq1, aeq1 }
    714d:	621504        	ae_sq32f.i	aeq1, a5, 0
    7150:	6205f4        	ae_sq32f.i	aeq0, a5, -4
    7153:	5eac           	beqz.n	a14, 717c <prelim_filter+0x1ac>
    7155:	40c132        	addi	a3, a1, 64
    7158:	80a042        	movi	a4, 128
    715b:	5f0c           	movi.n	a15, 5
    715d:	398444        	ae_movpa24x2	aep0, a4, a4
    7160:	fcc222        	addi	a2, a2, -4
    7163:	441304        	ae_lp16x2f.i	aep1, a3, 0
    7166:	128f76        	loop	a15, 717c <prelim_filter+0x1ac>
    7169:	cc04eda21f 	{ ae_lp16x2f.iu	aep2, a2, 4; ae_sraip24	aep1, aep1, 1 }
    716e:	0f20a4        	ae_sraip24	aep2, aep2, 1
    7171:	d9292d931f 	{ ae_lp16x2f.iu	aep1, a3, 4; ae_addsp24s	aep2, aep2, aep1 }
    7176:	07a024        	ae_addsp24s	aep2, aep2, aep0
    7179:	4623f4        	ae_sp16x2f.i	aep2, a3, -4

0000717c <prelim_filter+0x1ac>:
    717c:	e4b521        	l32r	a2, 450 (155555 <_end+0x145fb5>)
    717f:	4cc632        	addi	a3, a6, 76
    7182:	0b9652        	l16si	a5, a6, 22
    7185:	398224        	ae_movpa24x2	aep0, a2, a2
    7188:	600304        	ae_lq32f.i	aeq0, a3, 0
    718b:	f6c2b1664e 	{ l32i	a4, a6, 88; ae_mulafq32sp24s.l	aeq0, aeq2, aep0 }
    7190:	11f520        	slli	a15, a5, 14
    7193:	fc247176ae 	{ l32i	a10, a6, 92; ae_roundsq32asym	aeq0, aeq0 }
    7198:	e43321        	l32r	a2, 264 (bfa4 <airoha_divide_limit_1>)
    719b:	53b4f0        	max	a11, a4, a15
    719e:	620304        	ae_sq32f.i	aeq0, a3, 0
    71a1:	0002e0        	callx8	a2
    71a4:	e4ac41        	l32r	a4, 454 (175e97 <_end+0x1668f7>)
    71a7:	379aa4        	ae_truncp24a32x2	aep1, a10, a10
    71aa:	f8e6e2044f 	{ ae_movpa24x2	aep0, a4, a4; ae_roundsp16asym	aep1, aep1 }
    71af:	e12642        	l32i	a4, a6, 0x384
    71b2:	20c652        	addi	a5, a6, 32
    71b5:	421504        	ae_sp16f.l.i	aep1, a5, 0
    71b8:	af0c           	movi.n	a15, 10
    71ba:	600314        	ae_lq32f.i	aeq0, a3, 4
    71bd:	401404        	ae_lp16f.i	aep1, a4, 0
    71c0:	0a8f76        	loop	a15, 71ce <prelim_filter+0x1fe>
    71c3:	ea21ec941f 	{ ae_lp16f.iu	aep1, a4, 2; ae_mulfp24s.ll	aeq1, aep0, aep1 }
    71c8:	1b9d24        	ae_roundsp24q48asym	aep2, aeq1
    71cb:	012234        	ae_mulafp24s.ll	aeq0, aep2, aep2

000071ce <prelim_filter+0x1fe>:
    71ce:	fc2462b6be 	{ l16si	a11, a6, 86; ae_roundsq32asym	aeq0, aeq0 }
    71d3:	620314        	ae_sq32f.i	aeq0, a3, 4
    71d6:	e4a031        	l32r	a3, 458 (7254 <find_phase>)
    71d9:	60c1a2        	addi	a10, a1, 96
    71dc:	0003e0        	callx8	a3
    71df:	1626f2        	l32i	a15, a6, 88
    71e2:	ffa042        	movi	a4, 255
    71e5:	00a472        	movi	a7, 0x400
    71e8:	0a5d           	mov.n	a5, a10
    71ea:	068d           	mov.n	a8, a6
    71ec:	7fd442        	addmi	a4, a4, 0x7f00
    71ef:	030c           	movi.n	a3, 0
    71f1:	502f77        	blt	a15, a7, 7245 <prelim_filter+0x275>
    71f4:	109832        	l16si	a3, a8, 32
    71f7:	089862        	l16si	a6, a8, 16
    71fa:	0998b2        	l16si	a11, a8, 18
    71fd:	c0a360        	sub	a10, a3, a6
    7200:	130c           	movi.n	a3, 1
    7202:	3f1aa6        	blti	a10, 1, 7245 <prelim_filter+0x275>
    7205:	086d           	mov.n	a6, a8
    7207:	1baab7        	bge	a10, a11, 7226 <prelim_filter+0x256>
    720a:	40c142        	addi	a4, a1, 64
    720d:	0002e0        	callx8	a2
    7210:	a20c           	movi.n	a2, 10
    7212:	378aa4        	ae_truncp24a32x2	aep0, a10, a10
    7215:	401404        	ae_lp16f.i	aep1, a4, 0
    7218:	0a8276        	loop	a2, 7226 <prelim_filter+0x256>
    721b:	ea05ac941f 	{ ae_lp16f.iu	aep1, a4, 2; ae_mulfp24s.ll	aeq0, aep1, aep0 }
    7220:	1b8f24        	ae_roundsp16q48asym	aep2, aeq0
    7223:	4224f4        	ae_sp16f.l.i	aep2, a4, -2

00007226 <prelim_filter+0x256>:
    7226:	e02642        	l32i	a4, a6, 0x380
    7229:	40c122        	addi	a2, a1, 64
    722c:	05a0f2        	movi	a15, 5
    722f:	440204        	ae_lp16x2f.i	aep0, a2, 0
    7232:	fcc442        	addi	a4, a4, -4
    7235:	0a8f76        	loop	a15, 7243 <prelim_filter+0x273>
    7238:	449414        	ae_lp16x2f.iu	aep1, a4, 4
    723b:	dc06ed821f 	{ ae_lp16x2f.iu	aep0, a2, 4; ae_subsp24s	aep1, aep1, aep0 }
    7240:	461404        	ae_sp16x2f.i	aep1, a4, 0

00007243 <prelim_filter+0x273>:
    7243:	040c           	movi.n	a4, 0

00007245 <prelim_filter+0x275>:
    7245:	d128           	l32i.n	a2, a1, 52
    7247:	e1f8           	l32i.n	a15, a1, 56
    7249:	0259           	s32i.n	a5, a2, 0
    724b:	1239           	s32i.n	a3, a2, 4
    724d:	6f4d           	ae_s16i.n	a4, a15, 0
    724f:	f01d           	retw.n

00007251 <prelim_filter+0x281>:
    7251:	000000                                        ...

00007254 <find_phase>:
    7254:	004136        	entry	a1, 32
    7257:	344030        	extui	a4, a3, 0, 4
    725a:	0e34a6        	blti	a4, 3, 726c <find_phase+0x18>
    725d:	1954e6        	bgei	a4, 5, 727a <find_phase+0x26>
    7260:	253426        	beqi	a4, 3, 7289 <find_phase+0x35>
    7263:	374466        	bnei	a4, 4, 729e <find_phase+0x4a>
    7266:	600214        	ae_lq32f.i	aeq0, a2, 4
    7269:	000586        	j	7283 <find_phase+0x2f>

0000726c <find_phase+0x18>:
    726c:	f49c           	beqz.n	a4, 728f <find_phase+0x3b>
    726e:	3b1426        	beqi	a4, 1, 72ad <find_phase+0x59>
    7271:	292466        	bnei	a4, 2, 729e <find_phase+0x4a>
    7274:	600224        	ae_lq32f.i	aeq0, a2, 8
    7277:	000d46        	j	72b0 <find_phase+0x5c>

0000727a <find_phase+0x26>:
    727a:	175426        	beqi	a4, 5, 7295 <find_phase+0x41>
    727d:	1d6466        	bnei	a4, 6, 729e <find_phase+0x4a>
    7280:	600224        	ae_lq32f.i	aeq0, a2, 8
    7283:	604204        	ae_lq32f.i	aeq1, a2, 0
    7286:	000746        	j	72a7 <find_phase+0x53>

00007289 <find_phase+0x35>:
    7289:	600214        	ae_lq32f.i	aeq0, a2, 4
    728c:	000206        	j	7298 <find_phase+0x44>

0000728f <find_phase+0x3b>:
    728f:	600204        	ae_lq32f.i	aeq0, a2, 0
    7292:	000686        	j	72b0 <find_phase+0x5c>

00007295 <find_phase+0x41>:
    7295:	600224        	ae_lq32f.i	aeq0, a2, 8
    7298:	604204        	ae_lq32f.i	aeq1, a2, 0
    729b:	000506        	j	72b3 <find_phase+0x5f>

0000729e <find_phase+0x4a>:
    729e:	600224        	ae_lq32f.i	aeq0, a2, 8
    72a1:	604214        	ae_lq32f.i	aeq1, a2, 4
    72a4:	0b7426        	beqi	a4, 7, 72b3 <find_phase+0x5f>
    72a7:	060824        	ae_negq56	aeq0, aeq0
    72aa:	000146        	j	72b3 <find_phase+0x5f>

000072ad <find_phase+0x59>:
    72ad:	600214        	ae_lq32f.i	aeq0, a2, 4
    72b0:	064b34        	ae_movq56	aeq1, aeq0
    72b3:	0118c4        	ae_addq56	aeq0, aeq1, aeq0
    72b6:	350074        	ae_sraiq56	aeq0, aeq0, 1
    72b9:	026347        	bbci	a3, 4, 72bf <find_phase+0x6b>
    72bc:	060824        	ae_negq56	aeq0, aeq0
    72bf:	060934        	ae_roundsq32asym	aeq0, aeq0
    72c2:	368204        	ae_trunca32q48	a2, aeq0
    72c5:	f01d           	retw.n

000072c7 <find_phase+0x73>:
	...

000072c8 <prelim_filter3>:
    72c8:	00a136        	entry	a1, 80
    72cb:	037d           	mov.n	a7, a3
    72cd:	8159           	s32i.n	a5, a1, 32
    72cf:	205426        	beqi	a4, 5, 72f3 <prelim_filter3+0x2b>
    72d2:	3f3466        	bnei	a4, 3, 7315 <prelim_filter3+0x4d>
    72d5:	2b9252        	l16si	a5, a2, 86
    72d8:	140c           	movi.n	a4, 1
    72da:	114440        	slli	a4, a4, 12
    72dd:	2f0c           	movi.n	a15, 2
    72df:	28a432        	movi	a3, 0x428
    72e2:	24a462        	movi	a6, 0x424
    72e5:	3149           	s32i.n	a4, a1, 12
    72e7:	423a           	add.n	a4, a2, a3
    72e9:	326a           	add.n	a3, a2, a6
    72eb:	a90c           	movi.n	a9, 10
    72ed:	212550        	srai	a2, a5, 5
    72f0:	000f06        	j	7330 <prelim_filter3+0x68>

000072f3 <prelim_filter3+0x2b>:
    72f3:	06d232        	addmi	a3, a2, 0x600
    72f6:	160c           	movi.n	a6, 1
    72f8:	38a642        	movi	a4, 0x638
    72fb:	116640        	slli	a6, a6, 12
    72fe:	201332        	l16ui	a3, a3, 64
    7301:	2f0c           	movi.n	a15, 2
    7303:	3ca652        	movi	a5, 0x63c
    7306:	4139           	s32i.n	a3, a1, 16
    7308:	a90c           	movi.n	a9, 10
    730a:	3169           	s32i.n	a6, a1, 12
    730c:	424a           	add.n	a4, a2, a4
    730e:	325a           	add.n	a3, a2, a5
    7310:	51f9           	s32i.n	a15, a1, 20
    7312:	000786        	j	7334 <prelim_filter3+0x6c>

00007315 <prelim_filter3+0x4d>:
    7315:	2b9252        	l16si	a5, a2, 86
    7318:	140c           	movi.n	a4, 1
    731a:	114420        	slli	a4, a4, 14
    731d:	5f0c           	movi.n	a15, 5
    731f:	c8a432        	movi	a3, 0x4c8
    7322:	c4a462        	movi	a6, 0x4c4
    7325:	3149           	s32i.n	a4, a1, 12
    7327:	423a           	add.n	a4, a2, a3
    7329:	326a           	add.n	a3, a2, a6
    732b:	491c           	movi.n	a9, 20
    732d:	212a50        	srai	a2, a5, 10
    7330:	51f9           	s32i.n	a15, a1, 20
    7332:	4129           	s32i.n	a2, a1, 16
    7334:	0388           	l32i.n	a8, a3, 0
    7336:	0428           	l32i.n	a2, a4, 0
    7338:	0758           	l32i.n	a5, a7, 0
    733a:	16c762        	addi	a6, a7, 22
    733d:	10c7f2        	addi	a15, a7, 16
    7340:	7179           	s32i.n	a7, a1, 28
    7342:	774b           	addi.n	a7, a7, 4
    7344:	240c           	movi.n	a4, 2
    7346:	3a0c           	movi.n	a10, 3
    7348:	f3f6f0        	wur.ae_cbegin0	a15
    734b:	f3f760        	wur.ae_cend0	a6
    734e:	6169           	s32i.n	a6, a1, 24
    7350:	fc24ac060f 	{ ae_lp16f.i	aep0, a6, 0; ae_zeroq56	aeq0 }
    7355:	093d           	mov.n	a3, a9
    7357:	fec262        	addi	a6, a2, -2
    735a:	fec882        	addi	a8, a8, -2
    735d:	9179           	s32i.n	a7, a1, 36
    735f:	a199           	s32i.n	a9, a1, 40
    7361:	409814        	ae_lp16f.iu	aep1, a8, 2
    7364:	b189           	s32i.n	a8, a1, 44
    7366:	608704        	ae_lq32f.i	aeq2, a7, 0
    7369:	fd0462954f 	{ ae_sp16f.l.c	aep1, a5, a4; ae_movq56	aeq1, aeq0 }
    736e:	0c8a76        	loop	a10, 737e <prelim_filter3+0xb6>
    7371:	fc24d9154f 	{ ae_lp16f.c	aep1, a5, a4; nop }
    7376:	f686fd571f 	{ ae_lq32f.iu	aeq2, a7, 4; ae_mulafq32sp16s.l	aeq1, aeq2, aep1 }
    737b:	011134        	ae_mulafp24s.ll	aeq0, aep1, aep1

0000737e <prelim_filter3+0xb6>:
    737e:	ff0c3a909f 	{ ae_slliq56	aeq2, aeq1, 1; ae_cvtq48p24s.l	aeq3, aep0 }
    7383:	f97630518e 	{ l32i	a8, a1, 20; ae_addq56	aeq1, aeq2, aeq1 }
    7388:	f93efb002f 	{ ae_sraiq56	aeq0, aeq0, 2; ae_subq56	aeq1, aeq3, aeq1 }
    738d:	1b9f74        	ae_roundsp16q48asym	aep7, aeq1
    7390:	fc247f7f5f 	{ ae_cvta32p24.l	a15, aep7; ae_roundsq32asym	aeq0, aeq0 }
    7395:	400800        	ssr	a8
    7398:	368b04        	ae_trunca32q48	a11, aeq0
    739b:	e3b281        	l32r	a8, 264 (bfa4 <airoha_divide_limit_1>)
    739e:	b1a0f0        	sra	a10, a15
    73a1:	0008e0        	callx8	a8
    73a4:	378aa4        	ae_truncp24a32x2	aep0, a10, a10
    73a7:	3a0c           	movi.n	a10, 3
    73a9:	f4c782        	addi	a8, a7, -12
    73ac:	6007d4        	ae_lq32f.i	aeq0, a7, -12
    73af:	108a76        	loop	a10, 73c3 <prelim_filter3+0xfb>
    73b2:	fc24d9154f 	{ ae_lp16f.c	aep1, a5, a4; nop }
    73b7:	010134        	ae_mulafp24s.ll	aeq0, aep0, aep1
    73ba:	060934        	ae_roundsq32asym	aeq0, aeq0
    73bd:	620804        	ae_sq32f.i	aeq0, a8, 0
    73c0:	601814        	ae_lq32f.iu	aeq0, a8, 4
    73c3:	fc248f487e 	{ addi	a7, a8, -12; ae_zeroq56	aeq0 }
    73c8:	a198           	l32i.n	a9, a1, 40
    73ca:	b188           	l32i.n	a8, a1, 44
    73cc:	330b           	addi.n	a3, a3, -1
    73ce:	408614        	ae_lp16f.iu	aep0, a6, 2
    73d1:	f8c356        	bnez	a3, 7361 <prelim_filter3+0x99>
    73d4:	7138           	l32i.n	a3, a1, 28
    73d6:	61e8           	l32i.n	a14, a1, 24
    73d8:	41f190        	srli	a15, a9, 1
    73db:	0359           	s32i.n	a5, a3, 0
    73dd:	fc24b20e0f 	{ ae_sp16f.l.i	aep0, a14, 0; ae_zeroq56	aeq0 }
    73e2:	440204        	ae_lp16x2f.i	aep0, a2, 0
    73e5:	048f76        	loop	a15, 73ed <prelim_filter3+0x125>
    73e8:	e2002d821f 	{ ae_lp16x2f.iu	aep0, a2, 4; ae_mulaafp24s.hh.ll	aeq0, aep0, aep0 }
    73ed:	fc2470313e 	{ l32i	a3, a1, 12; ae_roundsq32asym	aeq0, aeq0 }
    73f2:	368204        	ae_trunca32q48	a2, aeq0
    73f5:	91a8           	l32i.n	a10, a1, 36
    73f7:	41b8           	l32i.n	a11, a1, 16
    73f9:	722320        	salt	a2, a3, a2
    73fc:	e41731        	l32r	a3, 458 (7254 <find_phase>)
    73ff:	0003e0        	callx8	a3
    7402:	8138           	l32i.n	a3, a1, 32
    7404:	1329           	s32i.n	a2, a3, 4
    7406:	03a9           	s32i.n	a10, a3, 0
    7408:	f01d           	retw.n

0000740a <prelim_filter3+0x142>:
	...

0000740c <cali_module_short>:
    740c:	004136        	entry	a1, 32
    740f:	e32f51        	l32r	a5, cc (f59c <p_ecnr_mem>)
    7412:	060c           	movi.n	a6, 0
    7414:	c0a082        	movi	a8, 192
    7417:	0558           	l32i.n	a5, a5, 0
    7419:	e0a072        	movi	a7, 224
    741c:	927a           	add.n	a9, a2, a7
    741e:	2cd552        	addmi	a5, a5, 0x2c00
    7421:	249552        	l16si	a5, a5, 72
    7424:	a28a           	add.n	a10, a2, a8
    7426:	839a40        	moveqz	a9, a10, a4
    7429:	4b25a6        	blti	a5, 2, 7478 <cali_module_short+0x6c>
    742c:	1358           	l32i.n	a5, a3, 4
    742e:	060c           	movi.n	a6, 0
    7430:	0388           	l32i.n	a8, a3, 0
    7432:	4d15a6        	blti	a5, 1, 7483 <cali_module_short+0x77>
    7435:	396d           	ae_l16si.n	a6, a9, 2
    7437:	829272        	l16si	a7, a2, 0x104
    743a:	318080        	srai	a8, a8, 16
    743d:	45a687        	bge	a6, a8, 7486 <cali_module_short+0x7a>
    7440:	296d           	ae_l16si.n	a6, a9, 0
    7442:	2f0c           	movi.n	a15, 2
    7444:	8092a2        	l16si	a10, a2, 0x100
    7447:	728680        	salt	a8, a6, a8
    744a:	8892b2        	l16si	a11, a2, 0x110
    744d:	9068f0        	addx2	a6, a8, a15
    7450:	883b           	addi.n	a8, a8, 3
    7452:	787a           	add.n	a7, a8, a7
    7454:	4377a0        	min	a7, a7, a10
    7457:	682be6        	bgei	a11, 2, 74c3 <cali_module_short+0xb7>
    745a:	879282        	l16si	a8, a2, 0x10e
    745d:	06d2a2        	addmi	a10, a2, 0x600
    7460:	189ab2        	l16si	a11, a10, 48
    7463:	981b           	addi.n	a9, a8, 1
    7465:	898d           	ae_sext16	a8, a9
    7467:	875292        	s16i	a9, a2, 0x10e
    746a:	35c8a6        	blti	a8, 32, 74a3 <cali_module_short+0x97>
    746d:	00a292        	movi	a9, 0x200
    7470:	4a9897        	bne	a8, a9, 74be <cali_module_short+0xb2>
    7473:	280c           	movi.n	a8, 2
    7475:	0011c6        	j	74c0 <cali_module_short+0xb4>

00007478 <cali_module_short+0x6c>:
    7478:	815262        	s16i	a6, a2, 0x102
    747b:	835262        	s16i	a6, a2, 0x106
    747e:	426262        	s32i	a6, a2, 0x108
    7481:	f01d           	retw.n

00007483 <cali_module_short+0x77>:
    7483:	000fc6        	j	74c6 <cali_module_short+0xba>

00007486 <cali_module_short+0x7a>:
    7486:	0299a2        	l16si	a10, a9, 4
    7489:	060c           	movi.n	a6, 0
    748b:	0399b2        	l16si	a11, a9, 6
    748e:	312a87        	blt	a10, a8, 74c3 <cali_module_short+0xb7>
    7491:	f9c762        	addi	a6, a7, -7
    7494:	1cab87        	bge	a11, a8, 74b4 <cali_module_short+0xa8>
    7497:	670b           	addi.n	a6, a7, -1
    7499:	0f0c           	movi.n	a15, 0
    749b:	5376f0        	max	a7, a6, a15
    749e:	e67c           	movi.n	a6, -2
    74a0:	0007c6        	j	74c3 <cali_module_short+0xb7>

000074a3 <cali_module_short+0x97>:
    74a3:	162292        	l32i	a9, a2, 88
    74a6:	118b60        	slli	a8, a11, 10
    74a9:	0c0c           	movi.n	a12, 0
    74ab:	14a987        	bge	a9, a8, 74c3 <cali_module_short+0xb7>
    74ae:	8752c2        	s16i	a12, a2, 0x10e
    74b1:	000386        	j	74c3 <cali_module_short+0xb7>

000074b4 <cali_module_short+0xa8>:
    74b4:	0f0c           	movi.n	a15, 0
    74b6:	5376f0        	max	a7, a6, a15
    74b9:	c67c           	movi.n	a6, -4
    74bb:	000106        	j	74c3 <cali_module_short+0xb7>

000074be <cali_module_short+0xb2>:
    74be:	180c           	movi.n	a8, 1
    74c0:	885282        	s16i	a8, a2, 0x110
    74c3:	825272        	s16i	a7, a2, 0x104
    74c6:	3378           	l32i.n	a7, a3, 12
    74c8:	815262        	s16i	a6, a2, 0x102
    74cb:	080c           	movi.n	a8, 0
    74cd:	7e17a6        	blti	a7, 1, 754f <cali_module_short+0x143>
    74d0:	d0a062        	movi	a6, 208
    74d3:	f0a082        	movi	a8, 240
    74d6:	626a           	add.n	a6, a2, a6
    74d8:	828a           	add.n	a8, a2, a8
    74da:	838640        	moveqz	a8, a6, a4
    74dd:	2378           	l32i.n	a7, a3, 8
    74df:	28ad           	ae_l16si.n	a10, a8, 0
    74e1:	460c           	movi.n	a6, 4
    74e3:	319070        	srai	a9, a7, 16
    74e6:	192a97        	blt	a10, a9, 7503 <cali_module_short+0xf7>
    74e9:	38ad           	ae_l16si.n	a10, a8, 2
    74eb:	260c           	movi.n	a6, 2
    74ed:	0298b2        	l16si	a11, a8, 4
    74f0:	0f2a97        	blt	a10, a9, 7503 <cali_module_short+0xf7>
    74f3:	060c           	movi.n	a6, 0
    74f5:	0a2b97        	blt	a11, a9, 7503 <cali_module_short+0xf7>
    74f8:	039862        	l16si	a6, a8, 6
    74fb:	cf7c           	movi.n	a15, -4
    74fd:	726690        	salt	a6, a6, a9
    7500:	9066f0        	addx2	a6, a6, a15
    7503:	835262        	s16i	a6, a2, 0x106
    7506:	4815a6        	blti	a5, 1, 7552 <cali_module_short+0x146>
    7509:	e35861        	l32r	a6, 26c (f210 <immediate_num>)
    750c:	0358           	l32i.n	a5, a3, 0
    750e:	378574        	ae_truncp24a32x2	aep0, a5, a7
    7511:	441674        	ae_lp16x2f.i	aep1, a6, 28
    7514:	f00680c88f 	{ movi	a8, 200; ae_mulzaafp24s.hh.ll	aeq0, aep1, aep0 }
    7519:	e8a0d2        	movi	a13, 232
    751c:	f86390e28f 	{ add	a14, a2, a8; ae_roundsp16q48asym	aep0, aeq0 }
    7521:	52da           	add.n	a5, a2, a13
    7523:	835e40        	moveqz	a5, a14, a4
    7526:	25fd           	ae_l16si.n	a15, a5, 0
    7528:	360724        	ae_trunca16p24s.l	a7, aep0
    752b:	460c           	movi.n	a6, 4
    752d:	358d           	ae_l16si.n	a8, a5, 2
    752f:	1f2f77        	blt	a15, a7, 7552 <cali_module_short+0x146>
    7532:	877d           	ae_sext16	a7, a7
    7534:	260c           	movi.n	a6, 2
    7536:	182877        	blt	a8, a7, 7552 <cali_module_short+0x146>
    7539:	029582        	l16si	a8, a5, 4
    753c:	060c           	movi.n	a6, 0
    753e:	039552        	l16si	a5, a5, 6
    7541:	0d2877        	blt	a8, a7, 7552 <cali_module_short+0x146>
    7544:	c67c           	movi.n	a6, -4
    7546:	725570        	salt	a5, a5, a7
    7549:	906560        	addx2	a6, a5, a6
    754c:	000086        	j	7552 <cali_module_short+0x146>

0000754f <cali_module_short+0x143>:
    754f:	835282        	s16i	a8, a2, 0x106
    7552:	5358           	l32i.n	a5, a3, 20
    7554:	070c           	movi.n	a7, 0
    7556:	855262        	s16i	a6, a2, 0x10a
    7559:	3215a6        	blti	a5, 1, 758f <cali_module_short+0x183>
    755c:	d8a052        	movi	a5, 216
    755f:	f8a072        	movi	a7, 248
    7562:	825a           	add.n	a8, a2, a5
    7564:	527a           	add.n	a5, a2, a7
    7566:	4368           	l32i.n	a6, a3, 16
    7568:	835840        	moveqz	a5, a8, a4
    756b:	258d           	ae_l16si.n	a8, a5, 0
    756d:	316060        	srai	a6, a6, 16
    7570:	470c           	movi.n	a7, 4
    7572:	192867        	blt	a8, a6, 758f <cali_module_short+0x183>
    7575:	358d           	ae_l16si.n	a8, a5, 2
    7577:	270c           	movi.n	a7, 2
    7579:	029592        	l16si	a9, a5, 4
    757c:	0f2867        	blt	a8, a6, 758f <cali_module_short+0x183>
    757f:	070c           	movi.n	a7, 0
    7581:	0a2967        	blt	a9, a6, 758f <cali_module_short+0x183>
    7584:	039552        	l16si	a5, a5, 6
    7587:	cf7c           	movi.n	a15, -4
    7589:	725560        	salt	a5, a5, a6
    758c:	9075f0        	addx2	a7, a5, a15
    758f:	7358           	l32i.n	a5, a3, 28
    7591:	845272        	s16i	a7, a2, 0x108
    7594:	060c           	movi.n	a6, 0
    7596:	3715a6        	blti	a5, 1, 75d1 <cali_module_short+0x1c5>
    7599:	daa1e2        	movi	a14, 0x1da
    759c:	e2a162        	movi	a6, 0x1e2
    759f:	6358           	l32i.n	a5, a3, 24
    75a1:	72ea           	add.n	a7, a2, a14
    75a3:	326a           	add.n	a3, a2, a6
    75a5:	833740        	moveqz	a3, a7, a4
    75a8:	23fd           	ae_l16si.n	a15, a3, 0
    75aa:	314050        	srai	a4, a5, 16
    75ad:	450c           	movi.n	a5, 4
    75af:	192f47        	blt	a15, a4, 75cc <cali_module_short+0x1c0>
    75b2:	336d           	ae_l16si.n	a6, a3, 2
    75b4:	250c           	movi.n	a5, 2
    75b6:	029372        	l16si	a7, a3, 4
    75b9:	0f2647        	blt	a6, a4, 75cc <cali_module_short+0x1c0>
    75bc:	050c           	movi.n	a5, 0
    75be:	0a2747        	blt	a7, a4, 75cc <cali_module_short+0x1c0>
    75c1:	039332        	l16si	a3, a3, 6
    75c4:	cf7c           	movi.n	a15, -4
    75c6:	723340        	salt	a3, a3, a4
    75c9:	9053f0        	addx2	a5, a3, a15
    75cc:	f65252        	s16i	a5, a2, 0x1ec
    75cf:	f01d           	retw.n

000075d1 <cali_module_short+0x1c5>:
    75d1:	f65262        	s16i	a6, a2, 0x1ec
    75d4:	f01d           	retw.n

000075d6 <cali_module_short+0x1ca>:
	...

000075d8 <cali_power>:
    75d8:	006136        	entry	a1, 48
    75db:	e2bc51        	l32r	a5, cc (f59c <p_ecnr_mem>)
    75de:	0a0c           	movi.n	a10, 0
    75e0:	0558           	l32i.n	a5, a5, 0
    75e2:	2cd552        	addmi	a5, a5, 0x2c00
    75e5:	fd24a2455e 	{ l16si	a5, a5, 72; ae_zeroq56	aeq1 }
    75ea:	0225e6        	bgei	a5, 2, 75f0 <cali_power+0x18>
    75ed:	009b06        	j	785d <cali_power+0x285>
    75f0:	1448           	l32i.n	a4, a4, 4
    75f2:	0214e6        	bgei	a4, 1, 75f8 <cali_power+0x20>
    75f5:	009906        	j	785d <cali_power+0x285>
    75f8:	2c1342        	l16ui	a4, a3, 88
    75fb:	821352        	l16ui	a5, a3, 0x104
    75fe:	300454        	ae_cvtp24a16x2.ll	aep0, a4, a5
    7601:	e800a7c3ee 	{ l16si	a14, a3, 248; ae_mulfp24s.hh	aeq0, aep0, aep0 }
    7606:	e122f2        	l32i	a15, a2, 0x384
    7609:	d4e23e222e 	{ l32i	a2, a2, 0x388; ae_mulfq32sp16s.l	aeq0, aeq0, aep0 }
    760e:	4e1b           	addi.n	a4, a14, 1
    7610:	644040        	extui	a4, a4, 0, 7
    7613:	f86380056f 	{ movi	a6, 5; ae_roundsp16q48asym	aep0, aeq0 }
    7618:	7c5342        	s16i	a4, a3, 248
    761b:	fc0c77011f 	{ ae_sp24x2s.i	aep0, a1, 8; ae_movq56	aeq0, aeq1 }
    7620:	fccf42        	addi	a4, a15, -4
    7623:	440204        	ae_lp16x2f.i	aep0, a2, 0
    7626:	098676        	loop	a6, 7633 <cali_power+0x5b>
    7629:	e2002d941f 	{ ae_lp16x2f.iu	aep1, a4, 4; ae_mulaafp24s.hh.ll	aeq0, aep0, aep0 }
    762e:	e2246d821f 	{ ae_lp16x2f.iu	aep0, a2, 4; ae_mulaafp24s.hh.ll	aeq1, aep1, aep1 }

00007633 <cali_power+0x5b>:
    7633:	839322        	l16si	a2, a3, 0x106
    7636:	140c           	movi.n	a4, 1
    7638:	114410        	slli	a4, a4, 15
    763b:	3500b4        	ae_sraiq56	aeq0, aeq0, 2
    763e:	fc2440e45f 	{ movi	a5, 228; ae_roundsq32asym	aeq0, aeq0 }
    7643:	c04420        	sub	a4, a4, a2
    7646:	3550b4        	ae_sraiq56	aeq1, aeq1, 2
    7649:	fd2c40e86f 	{ movi	a6, 232; ae_roundsq32asym	aeq1, aeq1 }
    764e:	60b534        	ae_lq32f.xu	aeq2, a5, a3
    7651:	300244        	ae_cvtp24a16x2.ll	aep0, a2, a4
    7654:	0e003c663f 	{ ae_lq32f.xu	aeq3, a6, a3; ae_mulzaafq32sp16s.lh	aeq0, aeq2, aep0, aeq0, aep0 }
    7659:	0e01c001ef 	{ movi	a14, 1; ae_mulzaafq32sp16s.lh	aeq1, aeq3, aep0, aeq1, aep0 }
    765e:	060934        	ae_roundsq32asym	aeq0, aeq0
    7661:	fd2c79850f 	{ ae_sq32f.i	aeq0, a5, 0; ae_roundsq32asym	aeq1, aeq1 }
    7666:	621604        	ae_sq32f.i	aeq1, a6, 0
    7669:	392352        	l32i	a5, a3, 228
    766c:	3a23f2        	l32i	a15, a3, 232
    766f:	112e40        	slli	a2, a14, 12
    7672:	21a350        	srai	a10, a5, 3
    7675:	e2fb51        	l32r	a5, 264 (bfa4 <airoha_divide_limit_1>)
    7678:	53b2f0        	max	a11, a2, a15
    767b:	0005e0        	callx8	a5
    767e:	292342        	l32i	a4, a3, 164
    7681:	312372        	l32i	a7, a3, 196
    7684:	7c1392        	l16ui	a9, a3, 248
    7687:	5384a0        	max	a8, a4, a10
    768a:	4347a0        	min	a4, a7, a10
    768d:	0a2d           	mov.n	a2, a10
    768f:	296382        	s32i	a8, a3, 164
    7692:	316342        	s32i	a4, a3, 196
    7695:	050956        	bnez	a9, 76e9 <cali_power+0x111>
    7698:	7d9372        	l16si	a7, a3, 250
    769b:	378884        	ae_truncp24a32x2	aep0, a8, a8
    769e:	f8e2ab944f 	{ ae_truncp24a32x2	aep1, a4, a4; ae_roundsp16asym	aep0, aep0 }
    76a3:	f8e6c0a8df 	{ movi	a13, 168; ae_roundsp16asym	aep1, aep1 }
    76a8:	c8a0e2        	movi	a14, 200
    76ab:	e36c81        	l32r	a8, 45c (79c0 <take_max_four>)
    76ae:	a3da           	add.n	a10, a3, a13
    76b0:	11f7f0        	slli	a15, a7, 1
    76b3:	43ea           	add.n	a4, a3, a14
    76b5:	430af4        	ae_sp16f.l.x	aep0, a10, a15
    76b8:	4314f4        	ae_sp16f.l.x	aep1, a4, a15
    76bb:	0008e0        	callx8	a8
    76be:	e36881        	l32r	a8, 460 (6f68 <take_min_four>)
    76c1:	3063a2        	s32i	a10, a3, 192
    76c4:	cb0c           	movi.n	a11, 12
    76c6:	04ad           	mov.n	a10, a4
    76c8:	0008e0        	callx8	a8
    76cb:	e36641        	l32r	a4, 464 (c0010000 <_end+0xc0000a60>)
    76ce:	ad0c           	movi.n	a13, 10
    76d0:	296342        	s32i	a4, a3, 164
    76d3:	724d70        	salt	a4, a13, a7
    76d6:	e71b           	addi.n	a14, a7, 1
    76d8:	0f0c           	movi.n	a15, 0
    76da:	e36381        	l32r	a8, 468 (3fff0000 <_end+0x3ffe0a60>)
    76dd:	83fe40        	moveqz	a15, a14, a4
    76e0:	3863a2        	s32i	a10, a3, 224
    76e3:	316382        	s32i	a8, a3, 196
    76e6:	7d53f2        	s16i	a15, a3, 250

000076e9 <cali_power+0x111>:
    76e9:	0648           	l32i.n	a4, a6, 0
    76eb:	1f0c           	movi.n	a15, 1
    76ed:	10df62        	addmi	a6, a15, 0x1000
    76f0:	02a467        	bge	a4, a6, 76f6 <cali_power+0x11e>
    76f3:	0027c6        	j	7796 <cali_power+0x1be>
    76f6:	36c234        	ae_cvtq48a32s	aeq3, a2
    76f9:	540114        	ae_lp24x2.i	aep0, a1, 8
    76fc:	d6e300e04f 	{ movi	a4, 224; ae_mulfq32sp16s.l	aeq0, aeq3, aep0 }
    7701:	606344        	ae_lq32f.x	aeq1, a3, a4
    7704:	d6440000ff 	{ movi	a15, 0; ae_ltq56s	b0, aeq1, aeq0 }
    7709:	160c           	movi.n	a6, 1
    770b:	e2d841        	l32r	a4, 26c (f210 <immediate_num>)
    770e:	d3f600        	movt	a15, a6, b0
    7711:	8fac           	beqz.n	a15, 773d <cali_power+0x165>
    7713:	fc2440f06f 	{ movi	a6, 240; ae_roundsq32asym	aeq0, aeq0 }
    7718:	eca0f2        	movi	a15, 236
    771b:	38c442        	addi	a4, a4, 56
    771e:	440404        	ae_lp16x2f.i	aep0, a4, 0
    7721:	607634        	ae_lq32f.xu	aeq1, a6, a3
    7724:	0c03ed142f 	{ ae_lp16x2f.i	aep1, a4, 8; ae_mulzaafq32sp16s.lh	aeq1, aeq1, aep0, aeq3, aep0 }
    7729:	60bf34        	ae_lq32f.xu	aeq2, a15, a3
    772c:	c11184        	ae_mulzaafq32sp16s.lh	aeq0, aeq2, aep1, aeq0, aep1
    772f:	065934        	ae_roundsq32asym	aeq1, aeq1
    7732:	fc2479960f 	{ ae_sq32f.i	aeq1, a6, 0; ae_roundsq32asym	aeq0, aeq0 }
    7737:	620f04        	ae_sq32f.i	aeq0, a15, 0
    773a:	001606        	j	7796 <cali_power+0x1be>

0000773d <cali_power+0x165>:
    773d:	c0a042        	movi	a4, 192
    7740:	602344        	ae_lq32f.x	aeq0, a3, a4
    7743:	d4e20000ff 	{ movi	a15, 0; ae_mulfq32sp16s.l	aeq0, aeq0, aep0 }
    7748:	160c           	movi.n	a6, 1
    774a:	d6c430011f 	{ ae_lp24x2.i	aep0, a1, 8; ae_ltq56s	b0, aeq3, aeq0 }
    774f:	000bd4        	ae_cvta32p24.l	a11, aep0
    7752:	e2c241        	l32r	a4, 25c (be9c <airoha_divide>)
    7755:	d3f600        	movt	a15, a6, b0
    7758:	afbc           	beqz.n	a15, 7796 <cali_power+0x1be>
    775a:	02ad           	mov.n	a10, a2
    775c:	633114        	ae_sq56s.i	aeq3, a1, 8
    775f:	0004e0        	callx8	a4
    7762:	e2c241        	l32r	a4, 26c (f210 <immediate_num>)
    7765:	360b34        	ae_cvtq48a32s	aeq0, a11
    7768:	f0a062        	movi	a6, 240
    776b:	fc24fe8a0f 	{ ae_slaasq56s	aeq0, aeq0, a10; nop }
    7770:	fc2440ec7f 	{ movi	a7, 236; ae_roundsq32asym	aeq0, aeq0 }
    7775:	38c442        	addi	a4, a4, 56
    7778:	607634        	ae_lq32f.xu	aeq1, a6, a3
    777b:	441414        	ae_lp16x2f.i	aep1, a4, 4
    777e:	0c253c473f 	{ ae_lq32f.xu	aeq2, a7, a3; ae_mulzaafq32sp16s.lh	aeq0, aeq1, aep1, aeq0, aep1 }
    7783:	440404        	ae_lp16x2f.i	aep0, a4, 0
    7786:	fc247de11f 	{ ae_lq56.i	aeq3, a1, 8; ae_roundsq32asym	aeq0, aeq0 }
    778b:	0f02b9860f 	{ ae_sq32f.i	aeq0, a6, 0; ae_mulzaafq32sp16s.lh	aeq2, aeq2, aep0, aeq3, aep0 }
    7790:	06e934        	ae_roundsq32asym	aeq3, aeq2
    7793:	623704        	ae_sq32f.i	aeq3, a7, 0
    7796:	3b2342        	l32i	a4, a3, 236
    7799:	3c2362        	l32i	a6, a3, 240
    779c:	c02240        	sub	a2, a2, a4
    779f:	c0b640        	sub	a11, a6, a4
    77a2:	21a120        	srai	a10, a2, 1
    77a5:	0005e0        	callx8	a5
    77a8:	861322        	l16ui	a2, a3, 0x10c
    77ab:	f550a0        	extui	a5, a10, 16, 16
    77ae:	8413d2        	l16ui	a13, a3, 0x108
    77b1:	824d           	ae_sext16	a4, a2
    77b3:	112400        	slli	a2, a4, 16
    77b6:	33aa27        	bge	a10, a2, 77ed <cali_power+0x215>
    77b9:	7f9342        	l16si	a4, a3, 254
    77bc:	852c           	movi.n	a5, 40
    77be:	8513c2        	l16ui	a12, a3, 0x10a
    77c1:	441b           	addi.n	a4, a4, 1
    77c3:	844d           	ae_sext16	a4, a4
    77c5:	434450        	min	a4, a4, a5
    77c8:	3004c4        	ae_cvtp24a16x2.ll	aep0, a4, a12
    77cb:	ea0080f4df 	{ movi	a13, 244; ae_mulfp24s.hl	aeq0, aep0, aep0 }
    77d0:	6063d4        	ae_lq32f.x	aeq1, a3, a13
    77d3:	360294        	ae_sllisq56s	aeq0, aeq0, 10
    77d6:	f82ac000ff 	{ movi	a15, 0; ae_subq56	aeq0, aeq1, aeq0 }
    77db:	060934        	ae_roundsq32asym	aeq0, aeq0
    77de:	368e04        	ae_trunca32q48	a14, aeq0
    77e1:	7f5342        	s16i	a4, a3, 254
    77e4:	534ef0        	max	a4, a14, a15
    77e7:	3d6342        	s32i	a4, a3, 244
    77ea:	000a46        	j	7817 <cali_power+0x23f>

000077ed <cali_power+0x215>:
    77ed:	c04540        	sub	a4, a5, a4
    77f0:	3004d4        	ae_cvtp24a16x2.ll	aep0, a4, a13
    77f3:	e80080f4ef 	{ movi	a14, 244; ae_mulfp24s.hh	aeq0, aep0, aep0 }
    77f8:	d4e20000ff 	{ movi	a15, 0; ae_mulfq32sp16s.l	aeq0, aeq0, aep0 }
    77fd:	7f53f2        	s16i	a15, a3, 254
    7800:	3603d4        	ae_sllisq56s	aeq0, aeq0, 15
    7803:	fc247c2e3f 	{ ae_lq32f.xu	aeq1, a14, a3; ae_roundsq32asym	aeq0, aeq0 }
    7808:	350174        	ae_sraiq56	aeq0, aeq0, 5
    780b:	0118c4        	ae_addq56	aeq0, aeq1, aeq0
    780e:	060934        	ae_roundsq32asym	aeq0, aeq0
    7811:	620e04        	ae_sq32f.i	aeq0, a14, 0
    7814:	3d2342        	l32i	a4, a3, 244
    7817:	150c           	movi.n	a5, 1
    7819:	015520        	slli	a5, a5, 30
    781c:	214140        	srai	a4, a4, 1
    781f:	445a           	add.n	a4, a4, a5
    7821:	378a44        	ae_truncp24a32x2	aep0, a10, a4
    7824:	e801bec27f 	{ ae_cvtq48a32s	aeq1, a2; ae_mulfp24s.lh	aeq0, aep0, aep0 }
    7829:	0e0c           	movi.n	a14, 0
    782b:	350054        	ae_slliq56	aeq0, aeq0, 1
    782e:	d5440001ff 	{ movi	a15, 1; ae_leq56s	b0, aeq1, aeq0 }
    7833:	060c           	movi.n	a6, 0
    7835:	140c           	movi.n	a4, 1
    7837:	d3ef00        	movt	a14, a15, b0
    783a:	6e8c           	beqz.n	a14, 7844 <cali_power+0x26c>
    783c:	7e9322        	l16si	a2, a3, 252
    783f:	224b           	addi.n	a2, a2, 4
    7841:	000546        	j	785a <cali_power+0x282>

00007844 <cali_power+0x26c>:
    7844:	879322        	l16si	a2, a3, 0x10e
    7847:	7e9352        	l16si	a5, a3, 252
    784a:	112200        	slli	a2, a2, 16
    784d:	364234        	ae_cvtq48a32s	aeq1, a2
    7850:	d6480fc52e 	{ addi	a2, a5, -4; ae_ltq56s	b0, aeq0, aeq1 }
    7855:	d36400        	movt	a6, a4, b0
    7858:	168c           	beqz.n	a6, 785d <cali_power+0x285>
    785a:	7e5322        	s16i	a2, a3, 252
    785d:	01d322        	addmi	a2, a3, 0x100
    7860:	31f0a0        	srai	a15, a10, 16
    7863:	62fd           	ae_s16i.n	a15, a2, 0
    7865:	f01d           	retw.n

00007867 <cali_power+0x28f>:
	...

00007868 <mag_calibration>:
    7868:	004136        	entry	a1, 32
    786b:	e28031        	l32r	a3, 26c (f210 <immediate_num>)
    786e:	1ca142        	movi	a4, 0x11c
    7871:	4cc2e2        	addi	a14, a2, 76
    7874:	28c362        	addi	a6, a3, 40
    7877:	603424        	ae_lq32f.xu	aeq0, a4, a2
    787a:	440604        	ae_lp16x2f.i	aep0, a6, 0
    787d:	604e04        	ae_lq32f.i	aeq1, a14, 0
    7880:	0c008120ff 	{ movi	a15, 0x120; ae_mulzaafq32sp16s.lh	aeq0, aeq0, aep0, aeq1, aep0 }
    7885:	608e14        	ae_lq32f.i	aeq2, a14, 4
    7888:	fc247c6f2f 	{ ae_lq32f.xu	aeq3, a15, a2; ae_roundsq32asym	aeq0, aeq0 }
    788d:	0e0379840f 	{ ae_sq32f.i	aeq0, a4, 0; ae_mulzaafq32sp16s.lh	aeq1, aeq3, aep0, aeq2, aep0 }
    7892:	4722b2        	l32i	a11, a2, 0x11c
    7895:	ff2c40015f 	{ movi	a5, 1; ae_roundsq32asym	aeq3, aeq1 }
    789a:	10d552        	addmi	a5, a5, 0x1000
    789d:	623f04        	ae_sq32f.i	aeq3, a15, 0
    78a0:	02ab57        	bge	a11, a5, 78a6 <mag_calibration+0x3e>
    78a3:	0045c6        	j	79be <mag_calibration+0x156>
    78a6:	482242        	l32i	a4, a2, 0x120
    78a9:	c2a152        	movi	a5, 0x1c2
    78ac:	21a240        	srai	a10, a4, 2
    78af:	e26d41        	l32r	a4, 264 (bfa4 <airoha_divide_limit_1>)
    78b2:	0004e0        	callx8	a4
    78b5:	869242        	l16si	a4, a2, 0x10c
    78b8:	378aa4        	ae_truncp24a32x2	aep0, a10, a10
    78bb:	f8e2b4926e 	{ l32i	a6, a2, 0x124; ae_roundsp16asym	aep0, aep0 }
    78c0:	441b           	addi.n	a4, a4, 1
    78c2:	94fd           	ae_zext16	a15, a4
    78c4:	430254        	ae_sp16f.l.x	aep0, a2, a5
    78c7:	865242        	s16i	a4, a2, 0x10c
    78ca:	02cf26        	beqi	a15, 32, 78d0 <mag_calibration+0x68>
    78cd:	003606        	j	79a9 <mag_calibration+0x141>
    78d0:	8d9262        	l16si	a6, a2, 0x11a
    78d3:	28a172        	movi	a7, 0x128
    78d6:	a27a           	add.n	a10, a2, a7
    78d8:	040c           	movi.n	a4, 0
    78da:	931252        	l16ui	a5, a2, 0x126
    78dd:	9066a0        	addx2	a6, a6, a10
    78e0:	865242        	s16i	a4, a2, 0x10c
    78e3:	665d           	ae_s16i.n	a5, a6, 0
    78e5:	e2dd51        	l32r	a5, 45c (79c0 <take_max_four>)
    78e8:	0005e0        	callx8	a5
    78eb:	8d9272        	l16si	a7, a2, 0x11a
    78ee:	48a182        	movi	a8, 0x148
    78f1:	5062a2        	s32i	a10, a2, 0x140
    78f4:	a28a           	add.n	a10, a2, a8
    78f6:	a31252        	l16ui	a5, a2, 0x146
    78f9:	9077a0        	addx2	a7, a7, a10
    78fc:	675d           	ae_s16i.n	a5, a7, 0
    78fe:	e2d851        	l32r	a5, 460 (6f68 <take_min_four>)
    7901:	cb0c           	movi.n	a11, 12
    7903:	40a162        	movi	a6, 0x140
    7906:	0005e0        	callx8	a5
    7909:	18a152        	movi	a5, 0x118
    790c:	418524        	ae_lp16f.xu	aep0, a5, a2
    790f:	ea01fb926f 	{ ae_lq32f.x	aeq0, a2, a6; ae_mulfp24s.ll	aeq1, aep0, aep0 }
    7914:	5862a2        	s32i	a10, a2, 0x160
    7917:	f86b8160ef 	{ movi	a14, 0x160; ae_roundsp16q48asym	aep0, aeq1 }
    791c:	d5e23bb2ef 	{ ae_lq32f.x	aeq1, a2, a14; ae_mulfq32sp16s.l	aeq2, aeq0, aep0 }
    7921:	0f0c           	movi.n	a15, 0
    7923:	d65400017f 	{ movi	a7, 1; ae_ltq56s	b0, aeq1, aeq2 }
    7928:	cda062        	movi	a6, 205
    792b:	6cd662        	addmi	a6, a6, 0x6c00
    792e:	d3f700        	movt	a15, a7, b0
    7931:	6fac           	beqz.n	a15, 795b <mag_calibration+0xf3>
    7933:	fe3458866f 	{ ae_cvtp24a16x2.ll	aep0, a6, a6; ae_roundsq32asym	aeq2, aeq2 }
    7938:	d7e20000ff 	{ movi	a15, 0; ae_mulfq32sp16s.l	aeq2, aeq2, aep0 }
    793d:	170c           	movi.n	a7, 1
    793f:	d6c801146f 	{ movi	a6, 0x114; ae_ltq56s	b0, aeq2, aeq1 }
    7944:	2cc332        	addi	a3, a3, 44
    7947:	d3f700        	movt	a15, a7, b0
    794a:	df8c           	beqz.n	a15, 795b <mag_calibration+0xf3>
    794c:	440304        	ae_lp16x2f.i	aep0, a3, 0
    794f:	607624        	ae_lq32f.xu	aeq1, a6, a2
    7952:	c10044        	ae_mulzaafq32sp16s.lh	aeq0, aeq1, aep0, aeq0, aep0
    7955:	060934        	ae_roundsq32asym	aeq0, aeq0
    7958:	620604        	ae_sq32f.i	aeq0, a6, 0

0000795b <mag_calibration+0xf3>:
    795b:	4522b2        	l32i	a11, a2, 0x114
    795e:	e1da31        	l32r	a3, c8 (9cc <HIFI_sqrt>)
    7961:	0a0c           	movi.n	a10, 0
    7963:	0003e0        	callx8	a3
    7966:	360b34        	ae_cvtq48a32s	aeq0, a11
    7969:	fc24fe8a0f 	{ ae_slaasq56s	aeq0, aeq0, a10; nop }
    796e:	fc246c050f 	{ ae_lp16f.i	aep0, a5, 0; ae_roundsq32asym	aeq0, aeq0 }
    7973:	d4e228d2de 	{ l16si	a13, a2, 0x11a; ae_mulfq32sp16s.l	aeq0, aeq0, aep0 }
    7978:	34a632        	movi	a3, 0x634
    797b:	e192c2        	l16si	a12, a2, 0x1c2
    797e:	411234        	ae_lp16f.x	aep1, a2, a3
    7981:	d4e6001d3e 	{ addi	a3, a13, 1; ae_mulfq32sp16s.l	aeq0, aeq0, aep1 }
    7986:	115c00        	slli	a5, a12, 16
    7989:	83ed           	ae_sext16	a14, a3
    798b:	b60c           	movi.n	a6, 11
    798d:	350054        	ae_slliq56	aeq0, aeq0, 1
    7990:	496252        	s32i	a5, a2, 0x124
    7993:	516252        	s32i	a5, a2, 0x144
    7996:	7256e0        	salt	a5, a6, a14
    7999:	933450        	movnez	a3, a4, a5
    799c:	fb63c542fe 	{ addi	a15, a2, 84; ae_roundsp16q48asym	aep7, aeq0 }
    79a1:	8d5232        	s16i	a3, a2, 0x11a
    79a4:	427f04        	ae_sp16f.l.i	aep7, a15, 0
    79a7:	f01d           	retw.n

000079a9 <mag_calibration+0x141>:
    79a9:	e19232        	l16si	a3, a2, 0x1c2
    79ac:	512252        	l32i	a5, a2, 0x144
    79af:	113300        	slli	a3, a3, 16
    79b2:	534630        	max	a4, a6, a3
    79b5:	433530        	min	a3, a5, a3
    79b8:	496242        	s32i	a4, a2, 0x124
    79bb:	516232        	s32i	a3, a2, 0x144
    79be:	f01d           	retw.n

000079c0 <take_max_four>:
    79c0:	004136        	entry	a1, 32
    79c3:	f37c           	movi.n	a3, -1
    79c5:	226d           	ae_l16si.n	a6, a2, 0
    79c7:	113310        	slli	a3, a3, 15
    79ca:	b40c           	movi.n	a4, 11
    79cc:	222b           	addi.n	a2, a2, 2
    79ce:	037d           	mov.n	a7, a3
    79d0:	038d           	mov.n	a8, a3
    79d2:	358476        	loop	a4, 7a0b <take_max_four+0x4b>
    79d5:	22ad           	ae_l16si.n	a10, a2, 0
    79d7:	084d           	mov.n	a4, a8
    79d9:	079d           	mov.n	a9, a7
    79db:	065d           	mov.n	a5, a6
    79dd:	03bd           	mov.n	a11, a3
    79df:	068d           	mov.n	a8, a6
    79e1:	047d           	mov.n	a7, a4
    79e3:	093d           	mov.n	a3, a9
    79e5:	0a6d           	mov.n	a6, a10
    79e7:	1e25a7        	blt	a5, a10, 7a09 <take_max_four+0x49>
    79ea:	056d           	mov.n	a6, a5
    79ec:	0a8d           	mov.n	a8, a10
    79ee:	047d           	mov.n	a7, a4
    79f0:	093d           	mov.n	a3, a9
    79f2:	1324a7        	blt	a4, a10, 7a09 <take_max_four+0x49>
    79f5:	056d           	mov.n	a6, a5
    79f7:	048d           	mov.n	a8, a4
    79f9:	0a7d           	mov.n	a7, a10
    79fb:	093d           	mov.n	a3, a9
    79fd:	0829a7        	blt	a9, a10, 7a09 <take_max_four+0x49>
    7a00:	533ba0        	max	a3, a11, a10
    7a03:	056d           	mov.n	a6, a5
    7a05:	048d           	mov.n	a8, a4
    7a07:	097d           	mov.n	a7, a9

00007a09 <take_max_four+0x49>:
    7a09:	222b           	addi.n	a2, a2, 2

00007a0b <take_max_four+0x4b>:
    7a0b:	286a           	add.n	a2, a8, a6
    7a0d:	227a           	add.n	a2, a2, a7
    7a0f:	223a           	add.n	a2, a2, a3
    7a11:	112220        	slli	a2, a2, 14
    7a14:	f01d           	retw.n

00007a16 <take_max_four+0x56>:
	...

00007a18 <beam1_proc>:
    7a18:	008136        	entry	a1, 64
    7a1b:	4139           	s32i.n	a3, a1, 16
    7a1d:	fc2491364f 	{ addx2	a3, a6, a4; ae_zeroq56	aeq0 }
    7a22:	5169           	s32i.n	a6, a1, 20
    7a24:	3815a6        	blti	a5, 1, 7a60 <beam1_proc+0x48>
    7a27:	5f0c           	movi.n	a15, 5
    7a29:	076d           	mov.n	a6, a7
    7a2b:	440304        	ae_lp16x2f.i	aep0, a3, 0
    7a2e:	034d           	mov.n	a4, a3
    7a30:	048f76        	loop	a15, 7a38 <beam1_proc+0x20>
    7a33:	e2002d841f 	{ ae_lp16x2f.iu	aep0, a4, 4; ae_mulaafp24s.hh.ll	aeq0, aep0, aep0 }

00007a38 <beam1_proc+0x20>:
    7a38:	3500b4        	ae_sraiq56	aeq0, aeq0, 2
    7a3b:	fc2440014f 	{ movi	a4, 1; ae_roundsq32asym	aeq0, aeq0 }
    7a40:	1a0c           	movi.n	a10, 1
    7a42:	270c           	movi.n	a7, 2
    7a44:	014470        	slli	a4, a4, 25
    7a47:	01aab0        	slli	a10, a10, 21
    7a4a:	727750        	salt	a7, a7, a5
    7a4d:	93a470        	movnez	a10, a4, a7
    7a50:	368b04        	ae_trunca32q48	a11, aeq0
    7a53:	e20241        	l32r	a4, 25c (be9c <airoha_divide>)
    7a56:	0004e0        	callx8	a4
    7a59:	067d           	mov.n	a7, a6
    7a5b:	71a9           	s32i.n	a10, a1, 28
    7a5d:	ffffc6        	j	7a60 <beam1_proc+0x48>

00007a60 <beam1_proc+0x48>:
    7a60:	4168           	l32i.n	a6, a1, 16
    7a62:	fec392        	addi	a9, a3, -2
    7a65:	889232        	l16si	a3, a2, 0x110
    7a68:	88a042        	movi	a4, 136
    7a6b:	98a0e2        	movi	a14, 152
    7a6e:	9ca0c2        	movi	a12, 156
    7a71:	0d0c           	movi.n	a13, 0
    7a73:	464a           	add.n	a4, a6, a4
    7a75:	e6ea           	add.n	a14, a6, a14
    7a77:	418c64        	ae_lp16f.xu	aep0, a12, a6
    7a7a:	78c6a2        	addi	a10, a6, 120
    7a7d:	262682        	l32i	a8, a6, 152
    7a80:	16f8           	l32i.n	a15, a6, 4
    7a82:	5168           	l32i.n	a6, a1, 20
    7a84:	627d70        	saltu	a7, a13, a7
    7a87:	723d30        	salt	a3, a13, a3
    7a8a:	103730        	and	a3, a7, a3
    7a8d:	030470        	rsr.br	a7
    7a90:	0a0370        	depbits	a7, a3, 0, 1
    7a93:	61c9           	s32i.n	a12, a1, 24
    7a95:	90c6f0        	addx2	a12, a6, a15
    7a98:	360b34        	ae_cvtq48a32s	aeq0, a11
    7a9b:	130470        	wsr.br	a7
    7a9e:	0b0c           	movi.n	a11, 0
    7aa0:	1f0c           	movi.n	a15, 1
    7aa2:	fecc62        	addi	a6, a12, -2
    7aa5:	f3f640        	wur.ae_cbegin0	a4
    7aa8:	f3f7e0        	wur.ae_cend0	a14
    7aab:	fd0c16bf0f 	{ movt	a11, a15, b0; ae_cvtq48p24s.l	aeq1, aep0 }
    7ab0:	2e0c           	movi.n	a14, 2
    7ab2:	870c           	movi.n	a7, 8
    7ab4:	0a4d           	mov.n	a4, a10
    7ab6:	06fd           	mov.n	a15, a6
    7ab8:	409914        	ae_lp16f.iu	aep1, a9, 2
    7abb:	fc24e298ef 	{ ae_sp16f.l.c	aep1, a8, a14; nop }
    7ac0:	400404        	ae_lp16f.i	aep0, a4, 0
    7ac3:	04cd           	mov.n	a12, a4
    7ac5:	098776        	loop	a7, 7ad2 <beam1_proc+0xba>
    7ac8:	fc24d918ef 	{ ae_lp16f.c	aep1, a8, a14; nop }
    7acd:	ee21ec8c1f 	{ ae_lp16f.iu	aep0, a12, 2; ae_mulsfp24s.ll	aeq1, aep0, aep1 }

00007ad2 <beam1_proc+0xba>:
    7ad2:	f86bec8f1f 	{ ae_lp16f.iu	aep0, a15, 2; ae_roundsp16q48asym	aep1, aeq1 }
    7ad7:	0914a4        	ae_movp48	aep2, aep1
    7ada:	1bac           	beqz.n	a11, 7aff <beam1_proc+0xe7>
    7adc:	402204        	ae_lp16f.i	aep2, a2, 0
    7adf:	eb29bd227f 	{ ae_lq32f.i	aeq1, a2, 28; ae_mulfp24s.ll	aeq2, aep2, aep1 }
    7ae4:	407224        	ae_lp16f.i	aep7, a2, 4
    7ae7:	35a094        	ae_slliq56	aeq2, aeq2, 2
    7aea:	f59fbd626f 	{ ae_lq32f.i	aeq3, a2, 24; ae_mulafq32sp16s.l	aeq2, aeq1, aep7 }
    7aef:	403214        	ae_lp16f.i	aep3, a2, 2
    7af2:	f78fb9b27f 	{ ae_sq32f.i	aeq3, a2, 28; ae_mulafq32sp16s.l	aeq2, aeq3, aep3 }
    7af7:	06a934        	ae_roundsq32asym	aeq2, aeq2
    7afa:	f973b9a26f 	{ ae_sq32f.i	aeq2, a2, 24; ae_roundsp16q48asym	aep2, aeq2 }

00007aff <beam1_proc+0xe7>:
    7aff:	d4e672a61f 	{ ae_sp16f.l.iu	aep2, a6, 2; ae_mulfq32sp16s.l	aeq1, aeq0, aep1 }
    7b04:	f0cc42        	addi	a4, a12, -16
    7b07:	2815a6        	blti	a5, 1, 7b33 <beam1_proc+0x11b>
    7b0a:	0430d0        	extui	a3, a13, 0, 1
    7b0d:	23ec           	bnez.n	a3, 7b33 <beam1_proc+0x11b>
    7b0f:	7138           	l32i.n	a3, a1, 28
    7b11:	fc24fe934f 	{ ae_slaasq56s	aeq1, aeq1, a3; nop }
    7b16:	f86fec2c8f 	{ ae_lp16f.i	aep2, a12, -16; ae_roundsp24q48asym	aep1, aeq1 }
    7b1b:	f03d           	nop.n
    7b1d:	0f8776        	loop	a7, 7b30 <beam1_proc+0x118>
    7b20:	fd4c1978ef 	{ ae_lp16f.c	aep7, a8, a14; ae_cvtq48p24s.l	aeq1, aep2 }
    7b25:	e2e7eca41f 	{ ae_lp16f.iu	aep2, a4, 2; ae_mulafp24s.ll	aeq1, aep1, aep7 }
    7b2a:	1b9f34        	ae_roundsp16q48asym	aep3, aeq1
    7b2d:	4234f4        	ae_sp16f.l.i	aep3, a4, -2

00007b30 <beam1_proc+0x118>:
    7b30:	f0c442        	addi	a4, a4, -16

00007b33 <beam1_proc+0x11b>:
    7b33:	fd0c001dde 	{ addi	a13, a13, 1; ae_cvtq48p24s.l	aeq1, aep0 }
    7b38:	029d26        	beqi	a13, 10, 7b3e <beam1_proc+0x126>
    7b3b:	ffde46        	j	7ab8 <beam1_proc+0xa0>
    7b3e:	042132        	l32i	a3, a1, 16
    7b41:	0621f2        	l32i	a15, a1, 24
    7b44:	04a042        	movi	a4, 4
    7b47:	266382        	s32i	a8, a3, 152
    7b4a:	fc24b20f0f 	{ ae_sp16f.l.i	aep0, a15, 0; ae_zeroq56	aeq0 }
    7b4f:	440a04        	ae_lp16x2f.i	aep0, a10, 0
    7b52:	203aa0        	or	a3, a10, a10
    7b55:	048476        	loop	a4, 7b5d <beam1_proc+0x145>
    7b58:	e2002d831f 	{ ae_lp16x2f.iu	aep0, a3, 4; ae_mulaafp24s.hh.ll	aeq0, aep0, aep0 }

00007b5d <beam1_proc+0x145>:
    7b5d:	f863a0622e 	{ l16si	a2, a2, 12; ae_roundsp16q48asym	aep0, aeq0 }
    7b62:	360324        	ae_trunca16p24s.l	a3, aep0
    7b65:	042142        	l32i	a4, a1, 16
    7b68:	faa052        	movi	a5, 250
    7b6b:	7ed562        	addmi	a6, a5, 0x7e00
    7b6e:	4f5432        	s16i	a3, a4, 158
    7b71:	16a237        	bge	a2, a3, 7b8b <beam1_proc+0x173>
    7b74:	08a032        	movi	a3, 8
    7b77:	300664        	ae_cvtp24a16x2.ll	aep0, a6, a6
    7b7a:	401a04        	ae_lp16f.i	aep1, a10, 0
    7b7d:	0a8376        	loop	a3, 7b8b <beam1_proc+0x173>
    7b80:	ea21ac9a1f 	{ ae_lp16f.iu	aep1, a10, 2; ae_mulfp24s.ll	aeq0, aep0, aep1 }
    7b85:	1b8f24        	ae_roundsp16q48asym	aep2, aeq0
    7b88:	422af4        	ae_sp16f.l.i	aep2, a10, -2

00007b8b <beam1_proc+0x173>:
    7b8b:	f01d           	retw.n

00007b8d <beam1_proc+0x175>:
    7b8d:	000000                                        ...

00007b90 <beam2_proc>:
    7b90:	00e136        	entry	a1, 112
    7b93:	03cd           	mov.n	a12, a3
    7b95:	fd24a2339e 	{ l16si	a9, a3, 70; ae_zeroq56	aeq1 }
    7b9a:	1223a2        	l32i	a10, a3, 72
    7b9d:	078d           	mov.n	a8, a7
    7b9f:	117910        	slli	a7, a9, 15
    7ba2:	727a70        	salt	a7, a10, a7
    7ba5:	fec692        	addi	a9, a6, -2
    7ba8:	839670        	moveqz	a9, a6, a7
    7bab:	303884        	ae_cvtp24a16x2.ll	aep3, a8, a8
    7bae:	30c3a2        	addi	a10, a3, 48
    7bb1:	05fd           	mov.n	a15, a5
    7bb3:	352b           	addi.n	a3, a5, 2
    7bb5:	cd7c           	movi.n	a13, -4
    7bb7:	80d882        	addmi	a8, a8, 0xffff8000
    7bba:	eb7c           	movi.n	a11, -2
    7bbc:	93fd30        	movnez	a15, a13, a3
    7bbf:	d199           	s32i.n	a9, a1, 52
    7bc1:	f3f6a0        	wur.ae_cbegin0	a10
    7bc4:	981b           	addi.n	a9, a8, 1
    7bc6:	8d7c           	movi.n	a13, -8
    7bc8:	aa7c           	movi.n	a10, -6
    7bca:	626980        	saltu	a6, a9, a8
    7bcd:	93ad30        	movnez	a10, a13, a3
    7bd0:	be7c           	movi.n	a14, -5
    7bd2:	72b5b0        	salt	a11, a5, a11
    7bd5:	090c           	movi.n	a9, 0
    7bd7:	83eab0        	moveqz	a14, a10, a11
    7bda:	93f9b0        	movnez	a15, a9, a11
    7bdd:	1d2132        	l32i	a3, a1, 116
    7be0:	0cb8           	l32i.n	a11, a12, 0
    7be2:	180c           	movi.n	a8, 1
    7be4:	72a580        	salt	a10, a5, a8
    7be7:	f1e9           	s32i.n	a14, a1, 60
    7be9:	1ce8           	l32i.n	a14, a12, 4
    7beb:	10da60        	and	a13, a10, a6
    7bee:	40cc72        	addi	a7, a12, 64
    7bf1:	e1f9           	s32i.n	a15, a1, 56
    7bf3:	9063b0        	addx2	a6, a3, a11
    7bf6:	1c21f2        	l32i	a15, a1, 112
    7bf9:	f3f770        	wur.ae_cend0	a7
    7bfc:	46cc72        	addi	a7, a12, 70
    7bff:	71f9           	s32i.n	a15, a1, 28
    7c01:	fec6f2        	addi	a15, a6, -2
    7c04:	102c62        	l32i	a6, a12, 64
    7c07:	904340        	addx2	a4, a3, a4
    7c0a:	9033e0        	addx2	a3, a3, a14
    7c0d:	4ccc82        	addi	a8, a12, 76
    7c10:	8179           	s32i.n	a7, a1, 32
    7c12:	4047f4        	ae_lp16f.i	aep4, a7, -2
    7c15:	10cc72        	addi	a7, a12, 16
    7c18:	fec492        	addi	a9, a4, -2
    7c1b:	fec3e2        	addi	a14, a3, -2
    7c1e:	9159           	s32i.n	a5, a1, 36
    7c20:	230c           	movi.n	a3, 2
    7c22:	040c           	movi.n	a4, 0
    7c24:	b189           	s32i.n	a8, a1, 44
    7c26:	a179           	s32i.n	a7, a1, 40
    7c28:	1061c2        	s32i	a12, a1, 64
    7c2b:	563114        	ae_sp24x2s.i	aep3, a1, 8
    7c2e:	c1d9           	s32i.n	a13, a1, 48
    7c30:	000586        	j	7c4a <beam2_proc+0xba>

00007c33 <beam2_proc+0xa3>:
    7c33:	000000                                        ...

00007c36 <beam2_proc+0xa6>:
    7c36:	408914        	ae_lp16f.iu	aep0, a9, 2
    7c39:	fa62b2cf1f 	{ ae_sp16f.l.iu	aep4, a15, 2; ae_movp48	aep4, aep0 }
    7c3e:	075d           	mov.n	a5, a7
    7c40:	441b           	addi.n	a4, a4, 1
    7c42:	057d           	mov.n	a7, a5
    7c44:	029466        	bnei	a4, 10, 7c4a <beam2_proc+0xba>
    7c47:	0042c6        	j	7d56 <beam2_proc+0x1c6>
    7c4a:	881252        	l16ui	a5, a2, 0x110
    7c4d:	408e14        	ae_lp16f.iu	aep0, a14, 2
    7c50:	fc24a2863f 	{ ae_sp16f.l.c	aep0, a6, a3; ae_zeroq56	aeq0 }
    7c55:	fdd516        	beqz	a5, 7c36 <beam2_proc+0xa6>
    7c58:	850c           	movi.n	a5, 8
    7c5a:	500704        	ae_lp24f.i	aep0, a7, 0
    7c5d:	098576        	loop	a5, 7c6a <beam2_proc+0xda>
    7c60:	fc24d9163f 	{ ae_lp16f.c	aep1, a6, a3; nop }
    7c65:	e223ae871f 	{ ae_lp24f.iu	aep0, a7, 4; ae_mulafp24s.ll	aeq0, aep0, aep1 }

00007c6a <beam2_proc+0xda>:
    7c6a:	f867bf456f 	{ ae_trunca16p24s.l	a5, aep4; ae_roundsp24q48asym	aep0, aeq0 }
    7c6f:	0ac484        	ae_cvtq48p24s.l	aeq3, aep4
    7c72:	058bc4        	ae_mulssfp24s.hh.ll	aeq3, aep0, aep3
    7c75:	605150        	abs	a5, a5
    7c78:	1bbf04        	ae_roundsp16q48asym	aep0, aeq3
    7c7b:	360824        	ae_trunca16p24s.l	a8, aep0
    7c7e:	608180        	abs	a8, a8
    7c81:	02a587        	bge	a5, a8, 7c87 <beam2_proc+0xf7>
    7c84:	094484        	ae_movp48	aep0, aep4

00007c87 <beam2_proc+0xf7>:
    7c87:	40c914        	ae_lp16f.iu	aep4, a9, 2
    7c8a:	e0c752        	addi	a5, a7, -32
    7c8d:	428f14        	ae_sp16f.l.iu	aep0, a15, 2
    7c90:	facd16        	beqz	a13, 7c40 <beam2_proc+0xb0>
    7c93:	025426        	beqi	a4, 5, 7c99 <beam2_proc+0x109>
    7c96:	08e456        	bnez	a4, 7d28 <beam2_proc+0x198>
    7c99:	fc2499063f 	{ ae_lp16f.c	aep0, a6, a3; ae_zeroq56	aeq0 }
    7c9e:	fc24d9063f 	{ ae_lp16f.c	aep0, a6, a3; nop }
    7ca3:	fc24d9063f 	{ ae_lp16f.c	aep0, a6, a3; nop }
    7ca8:	fc24d9063f 	{ ae_lp16f.c	aep0, a6, a3; nop }
    7cad:	480c           	movi.n	a8, 4
    7caf:	1161f2        	s32i	a15, a1, 68
    7cb2:	e203b7412f 	{ ae_sp24x2s.i	aep4, a1, 16; ae_mulafp24s.ll	aeq0, aep0, aep0 }
    7cb7:	1261e2        	s32i	a14, a1, 72
    7cba:	136192        	s32i	a9, a1, 76
    7cbd:	078876        	loop	a8, 7cc8 <beam2_proc+0x138>
    7cc0:	fc24d9063f 	{ ae_lp16f.c	aep0, a6, a3; nop }
    7cc5:	010034        	ae_mulafp24s.ll	aeq0, aep0, aep0

00007cc8 <beam2_proc+0x138>:
    7cc8:	b188           	l32i.n	a8, a1, 44
    7cca:	3500b4        	ae_sraiq56	aeq0, aeq0, 2
    7ccd:	190c           	movi.n	a9, 1
    7ccf:	604804        	ae_lq32f.i	aeq1, a8, 0
    7cd2:	f96a30f1ae 	{ l32i	a10, a1, 60; ae_addq56	aeq1, aeq1, aeq0 }
    7cd7:	fc244000df 	{ movi	a13, 0; ae_roundsq32asym	aeq0, aeq0 }
    7cdc:	fd2c79880f 	{ ae_sq32f.i	aeq0, a8, 0; ae_roundsq32asym	aeq1, aeq1 }
    7ce1:	829282        	l16si	a8, a2, 0x104
    7ce4:	369b04        	ae_trunca32q48	a11, aeq1
    7ce7:	119940        	slli	a9, a9, 12
    7cea:	728d80        	salt	a8, a13, a8
    7ced:	e1d8           	l32i.n	a13, a1, 56
    7cef:	146cb2        	s32i	a11, a12, 80
    7cf2:	729b90        	salt	a9, a11, a9
    7cf5:	cc7c           	movi.n	a12, -4
    7cf7:	d1e8           	l32i.n	a14, a1, 52
    7cf9:	93ac90        	movnez	a10, a12, a9
    7cfc:	83ad80        	moveqz	a10, a13, a8
    7cff:	808ea0        	add	a8, a14, a10
    7d02:	401800        	ssl	a8
    7d05:	01a0f2        	movi	a15, 1
    7d08:	e15581        	l32r	a8, 25c (be9c <airoha_divide>)
    7d0b:	a1af00        	sll	a10, a15
    7d0e:	0008e0        	callx8	a8
    7d11:	fd24b101ce 	{ l32i	a12, a1, 64; ae_zeroq56	aeq1 }
    7d16:	0c21d2        	l32i	a13, a1, 48
    7d19:	132192        	l32i	a9, a1, 76
    7d1c:	1221e2        	l32i	a14, a1, 72
    7d1f:	1121f2        	l32i	a15, a1, 68
    7d22:	543114        	ae_lp24x2.i	aep3, a1, 8
    7d25:	544124        	ae_lp24x2.i	aep4, a1, 16

00007d28 <beam2_proc+0x198>:
    7d28:	400f04        	ae_lp16f.i	aep0, a15, 0
    7d2b:	360b34        	ae_cvtq48a32s	aeq0, a11
    7d2e:	d4e200088f 	{ movi	a8, 8; ae_mulfq32sp16s.l	aeq0, aeq0, aep0 }
    7d33:	fc24fe8a0f 	{ ae_slaasq56s	aeq0, aeq0, a10; nop }
    7d38:	f867ae178f 	{ ae_lp24f.i	aep1, a7, -32; ae_roundsp24q48asym	aep0, aeq0 }
    7d3d:	0f8876        	loop	a8, 7d50 <beam2_proc+0x1c0>
    7d40:	fc2c19763f 	{ ae_lp16f.c	aep7, a6, a3; ae_cvtq48p24s.l	aeq0, aep1 }
    7d45:	e2e3ae951f 	{ ae_lp24f.iu	aep1, a5, 4; ae_mulafp24s.ll	aeq0, aep0, aep7 }
    7d4a:	1b8d24        	ae_roundsp24q48asym	aep2, aeq0
    7d4d:	5225f4        	ae_sp24f.l.i	aep2, a5, -4

00007d50 <beam2_proc+0x1c0>:
    7d50:	e0c552        	addi	a5, a5, -32
    7d53:	ffba46        	j	7c40 <beam2_proc+0xb0>

00007d56 <beam2_proc+0x1c6>:
    7d56:	106c62        	s32i	a6, a12, 64
    7d59:	8158           	l32i.n	a5, a1, 32
    7d5b:	a168           	l32i.n	a6, a1, 40
    7d5d:	430c           	movi.n	a3, 4
    7d5f:	4245f4        	ae_sp16f.l.i	aep4, a5, -2
    7d62:	5c0c24        	ae_lp24x2f.i	aep0, a12, 16
    7d65:	064d           	mov.n	a4, a6
    7d67:	048376        	loop	a3, 7d6f <beam2_proc+0x1df>
    7d6a:	e2006f841f 	{ ae_lp24x2f.iu	aep0, a4, 8; ae_mulaafp24s.hh.ll	aeq1, aep0, aep0 }

00007d6f <beam2_proc+0x1df>:
    7d6f:	f86bb0914e 	{ l32i	a4, a1, 36; ae_roundsp16q48asym	aep0, aeq1 }
    7d74:	d37c           	movi.n	a3, -3
    7d76:	420504        	ae_sp16f.l.i	aep0, a5, 0
    7d79:	02a347        	bge	a3, a4, 7d7f <beam2_proc+0x1ef>
    7d7c:	002306        	j	7e0c <beam2_proc+0x27c>
    7d7f:	821222        	l16ui	a2, a2, 0x104
    7d82:	086256        	bnez	a2, 7e0c <beam2_proc+0x27c>
    7d85:	2d9c22        	l16si	a2, a12, 90
    7d88:	239c42        	l16si	a4, a12, 70
    7d8b:	152c52        	l32i	a5, a12, 84
    7d8e:	221b           	addi.n	a2, a2, 1
    7d90:	823d           	ae_sext16	a3, a2
    7d92:	2d5c22        	s16i	a2, a12, 90
    7d95:	53c3a6        	blti	a3, 32, 7dec <beam2_proc+0x25c>
    7d98:	152c32        	l32i	a3, a12, 84
    7d9b:	2e9c52        	l16si	a5, a12, 92
    7d9e:	60cca2        	addi	a10, a12, 96
    7da1:	10c332        	addi	a3, a3, 16
    7da4:	020c           	movi.n	a2, 0
    7da6:	9055a0        	addx2	a5, a5, a10
    7da9:	413530        	srli	a3, a3, 5
    7dac:	239c42        	l16si	a4, a12, 70
    7daf:	2d5c22        	s16i	a2, a12, 90
    7db2:	653d           	ae_s16i.n	a3, a5, 0
    7db4:	2e9c32        	l16si	a3, a12, 92
    7db7:	be0c           	movi.n	a14, 11
    7db9:	156c42        	s32i	a4, a12, 84
    7dbc:	331b           	addi.n	a3, a3, 1
    7dbe:	83fd           	ae_sext16	a15, a3
    7dc0:	724ef0        	salt	a4, a14, a15
    7dc3:	933240        	movnez	a3, a2, a4
    7dc6:	e1a621        	l32r	a2, 460 (6f68 <take_min_four>)
    7dc9:	cb0c           	movi.n	a11, 12
    7dcb:	2e5c32        	s16i	a3, a12, 92
    7dce:	0c3d           	mov.n	a3, a12
    7dd0:	0002e0        	callx8	a2
    7dd3:	122322        	l32i	a2, a3, 72
    7dd6:	03cd           	mov.n	a12, a3
    7dd8:	e12531        	l32r	a3, 26c (f210 <immediate_num>)
    7ddb:	15a2a7        	bge	a2, a10, 7df4 <beam2_proc+0x264>
    7dde:	e12331        	l32r	a3, 26c (f210 <immediate_num>)
    7de1:	20c332        	addi	a3, a3, 32
    7de4:	440304        	ae_lp16x2f.i	aep0, a3, 0
    7de7:	0003c6        	j	7dfa <beam2_proc+0x26a>

00007dea <beam2_proc+0x25a>:
	...

00007dec <beam2_proc+0x25c>:
    7dec:	254a           	add.n	a2, a5, a4
    7dee:	156c22        	s32i	a2, a12, 84
    7df1:	0005c6        	j	7e0c <beam2_proc+0x27c>

00007df4 <beam2_proc+0x264>:
    7df4:	20c332        	addi	a3, a3, 32
    7df7:	440314        	ae_lp16x2f.i	aep0, a3, 4
    7dfa:	360234        	ae_cvtq48a32s	aeq0, a2
    7dfd:	364a34        	ae_cvtq48a32s	aeq1, a10
    7e00:	c10014        	ae_mulzaafq32sp16s.lh	aeq0, aeq0, aep0, aeq1, aep0
    7e03:	060934        	ae_roundsq32asym	aeq0, aeq0
    7e06:	368f04        	ae_trunca32q48	a15, aeq0
    7e09:	126cf2        	s32i	a15, a12, 72
    7e0c:	142c22        	l32i	a2, a12, 80
    7e0f:	130c           	movi.n	a3, 1
    7e11:	10d332        	addmi	a3, a3, 0x1000
    7e14:	732237        	blt	a2, a3, 7e8b <beam2_proc+0x2fb>
    7e17:	7128           	l32i.n	a2, a1, 28
    7e19:	d33c           	movi.n	a3, 61
    7e1b:	d7a042        	movi	a4, 215
    7e1e:	1522e6        	bgei	a2, 2, 7e37 <beam2_proc+0x2a7>
    7e21:	66a022        	movi	a2, 102
    7e24:	b33c           	movi.n	a3, 59
    7e26:	46d222        	addmi	a2, a2, 0x4600
    7e29:	113380        	slli	a3, a3, 8
    7e2c:	ff3c           	movi.n	a15, 63
    7e2e:	300324        	ae_cvtp24a16x2.ll	aep0, a3, a2
    7e31:	112f70        	slli	a2, a15, 9
    7e34:	0002c6        	j	7e43 <beam2_proc+0x2b3>

00007e37 <beam2_proc+0x2a7>:
    7e37:	2c9c22        	l16si	a2, a12, 88
    7e3a:	4ad332        	addmi	a3, a3, 0x4a00
    7e3d:	43d442        	addmi	a4, a4, 0x4300
    7e40:	300434        	ae_cvtp24a16x2.ll	aep0, a4, a3
    7e43:	239c32        	l16si	a3, a12, 70
    7e46:	122c42        	l32i	a4, a12, 72
    7e49:	364434        	ae_cvtq48a32s	aeq1, a4
    7e4c:	113310        	slli	a3, a3, 15
    7e4f:	d5633ec33f 	{ ae_cvtq48a32s	aeq0, a3; ae_mulfq32sp16s.h	aeq2, aeq1, aep0 }
    7e54:	d4e34000ef 	{ movi	a14, 0; ae_mulfq32sp16s.l	aeq1, aeq1, aep0 }
    7e59:	d6c00001ff 	{ movi	a15, 1; ae_ltq56s	b0, aeq2, aeq0 }
    7e5e:	d54840003f 	{ movi	a3, 0; ae_leq56s	b1, aeq0, aeq1 }
    7e63:	140c           	movi.n	a4, 1
    7e65:	d3ef00        	movt	a14, a15, b0
    7e68:	fe9c           	beqz.n	a14, 7e8b <beam2_proc+0x2fb>
    7e6a:	d33410        	movt	a3, a4, b1
    7e6d:	438c           	beqz.n	a3, 7e75 <beam2_proc+0x2e5>
    7e6f:	aea022        	movi	a2, 174
    7e72:	7fd222        	addmi	a2, a2, 0x7f00
    7e75:	8f0c           	movi.n	a15, 8
    7e77:	300224        	ae_cvtp24a16x2.ll	aep0, a2, a2
    7e7a:	600c44        	ae_lq32f.i	aeq0, a12, 16
    7e7d:	0a8f76        	loop	a15, 7e8b <beam2_proc+0x2fb>
    7e80:	d4e27d161f 	{ ae_lq32f.iu	aeq0, a6, 4; ae_mulfq32sp16s.l	aeq1, aeq0, aep0 }
    7e85:	1b9d14        	ae_roundsp24q48asym	aep1, aeq1
    7e88:	5216f4        	ae_sp24f.l.i	aep1, a6, -4

00007e8b <beam2_proc+0x2fb>:
    7e8b:	f01d           	retw.n

00007e8d <beam2_proc+0x2fd>:
    7e8d:	000000                                        ...

00007e90 <beam1_mid_band>:
    7e90:	006136        	entry	a1, 48
    7e93:	fc24a8523e 	{ l16si	a3, a2, 0x10a; ae_zeroq56	aeq0 }
    7e98:	05d242        	addmi	a4, a2, 0x500
    7e9b:	3b13a6        	blti	a3, 1, 7eda <beam1_mid_band+0x4a>
    7e9e:	1a2452        	l32i	a5, a4, 104
    7ea1:	a60c           	movi.n	a6, 10
    7ea3:	440504        	ae_lp16x2f.i	aep0, a5, 0
    7ea6:	048676        	loop	a6, 7eae <beam1_mid_band+0x1e>
    7ea9:	e2002d851f 	{ ae_lp16x2f.iu	aep0, a5, 4; ae_mulaafp24s.hh.ll	aeq0, aep0, aep0 }

00007eae <beam1_mid_band+0x1e>:
    7eae:	3500b4        	ae_sraiq56	aeq0, aeq0, 2
    7eb1:	fc2440015f 	{ movi	a5, 1; ae_roundsq32asym	aeq0, aeq0 }
    7eb6:	368804        	ae_trunca32q48	a8, aeq0
    7eb9:	160c           	movi.n	a6, 1
    7ebb:	1a0c           	movi.n	a10, 1
    7ebd:	270c           	movi.n	a7, 2
    7ebf:	115550        	slli	a5, a5, 11
    7ec2:	53b850        	max	a11, a8, a5
    7ec5:	016670        	slli	a6, a6, 25
    7ec8:	01aab0        	slli	a10, a10, 21
    7ecb:	727730        	salt	a7, a7, a3
    7ece:	e0e351        	l32r	a5, 25c (be9c <airoha_divide>)
    7ed1:	93a670        	movnez	a10, a6, a7
    7ed4:	0005e0        	callx8	a5
    7ed7:	ffffc6        	j	7eda <beam1_mid_band+0x4a>

00007eda <beam1_mid_band+0x4a>:
    7eda:	05d272        	addmi	a7, a2, 0x500
    7edd:	1a2442        	l32i	a4, a4, 104
    7ee0:	1927f2        	l32i	a15, a7, 100
    7ee3:	78a552        	movi	a5, 0x578
    7ee6:	98a562        	movi	a6, 0x598
    7ee9:	70a5e2        	movi	a14, 0x570
    7eec:	1b27c2        	l32i	a12, a7, 108
    7eef:	525a           	add.n	a5, a2, a5
    7ef1:	626a           	add.n	a6, a2, a6
    7ef3:	458e24        	ae_lp16x2f.xu	aep0, a14, a2
    7ef6:	360b34        	ae_cvtq48a32s	aeq0, a11
    7ef9:	21e9           	s32i.n	a14, a1, 8
    7efb:	fcc4d2        	addi	a13, a4, -4
    7efe:	fccfe2        	addi	a14, a15, -4
    7f01:	080c           	movi.n	a8, 0
    7f03:	490c           	movi.n	a9, 4
    7f05:	8b0c           	movi.n	a11, 8
    7f07:	3179           	s32i.n	a7, a1, 12
    7f09:	f3f650        	wur.ae_cbegin0	a5
    7f0c:	f3f760        	wur.ae_cend0	a6
    7f0f:	064d           	mov.n	a4, a6
    7f11:	fe040feffe 	{ addi	a15, a15, -2; ae_cvtq48p24s.h	aeq2, aep0 }
    7f16:	fd0c2d9d1f 	{ ae_lp16x2f.iu	aep1, a13, 4; ae_cvtq48p24s.l	aeq1, aep0 }
    7f1b:	fc24e41c9f 	{ ae_sp16x2f.c	aep1, a12, a9; nop }
    7f20:	440404        	ae_lp16x2f.i	aep0, a4, 0
    7f23:	045d           	mov.n	a5, a4
    7f25:	0c8b76        	loop	a11, 7f35 <beam1_mid_band+0xa5>
    7f28:	fc24da9c9f 	{ ae_lp16x2f.c	aep1, a12, a9; nop }
    7f2d:	0581c4        	ae_mulssfp24s.hh.ll	aeq2, aep0, aep1
    7f30:	ee206d851f 	{ ae_lp16x2f.iu	aep0, a5, 4; ae_mulsafp24s.hl.lh	aeq1, aep0, aep1 }

00007f35 <beam1_mid_band+0xa5>:
    7f35:	f873ed8e1f 	{ ae_lp16x2f.iu	aep0, a14, 4; ae_roundsp16q48asym	aep1, aeq2 }
    7f3a:	f96bb29f1f 	{ ae_sp16f.l.iu	aep1, a15, 2; ae_roundsp16q48asym	aep2, aeq1 }
    7f3f:	d5ea0e054e 	{ addi	a4, a5, -32; ae_mulfq32sp16s.l	aeq2, aeq0, aep2 }
    7f44:	d4e672af1f 	{ ae_sp16f.l.iu	aep2, a15, 2; ae_mulfq32sp16s.l	aeq1, aeq0, aep1 }
    7f49:	3a13a6        	blti	a3, 1, 7f87 <beam1_mid_band+0xf7>
    7f4c:	047080        	extui	a7, a8, 0, 1
    7f4f:	47fc           	bnez.n	a7, 7f87 <beam1_mid_band+0xf7>
    7f51:	442584        	ae_lp16x2f.i	aep2, a5, -32
    7f54:	fc24feaa8f 	{ ae_slaasq56s	aeq2, aeq2, a10; nop }
    7f59:	f977fe9a4f 	{ ae_slaasq56s	aeq1, aeq1, a10; ae_roundsp24q48asym	aep3, aeq2 }
    7f5e:	fb6fcfe45e 	{ addi	a5, a4, -2; ae_roundsp24q48asym	aep7, aeq1 }
    7f63:	1afb14        	ae_selp24.hl	aep1, aep7, aep3
    7f66:	1a8b76        	loop	a11, 7f84 <beam1_mid_band+0xf4>
    7f69:	fd441aec9f 	{ ae_lp16x2f.c	aep6, a12, a9; ae_cvtq48p24s.h	aeq1, aep2 }
    7f6e:	fe4c2da41f 	{ ae_lp16x2f.iu	aep2, a4, 4; ae_cvtq48p24s.l	aeq2, aep2 }
    7f73:	051e04        	ae_mulaafp24s.hh.ll	aeq1, aep1, aep6
    7f76:	059654        	ae_mulasfp24s.hl.lh	aeq2, aep1, aep6
    7f79:	1b9f34        	ae_roundsp16q48asym	aep3, aeq1
    7f7c:	fb73f2b51f 	{ ae_sp16f.l.iu	aep3, a5, 2; ae_roundsp16q48asym	aep7, aeq2 }
    7f81:	42f514        	ae_sp16f.l.iu	aep7, a5, 2
    7f84:	e0c442        	addi	a4, a4, -32

00007f87 <beam1_mid_band+0xf7>:
    7f87:	fe0400188e 	{ addi	a8, a8, 1; ae_cvtq48p24s.h	aeq2, aep0 }
    7f8c:	869866        	bnei	a8, 10, 7f16 <beam1_mid_band+0x86>
    7f8f:	2158           	l32i.n	a5, a1, 8
    7f91:	3138           	l32i.n	a3, a1, 12
    7f93:	8f0c           	movi.n	a15, 8
    7f95:	fc24b3050f 	{ ae_sp16x2f.i	aep0, a5, 0; ae_zeroq56	aeq0 }
    7f9a:	440404        	ae_lp16x2f.i	aep0, a4, 0
    7f9d:	1b63c2        	s32i	a12, a3, 108
    7fa0:	048f76        	loop	a15, 7fa8 <beam1_mid_band+0x118>
    7fa3:	e2002d841f 	{ ae_lp16x2f.iu	aep0, a4, 4; ae_mulaafp24s.hh.ll	aeq0, aep0, aep0 }

00007fa8 <beam1_mid_band+0x118>:
    7fa8:	3500b4        	ae_sraiq56	aeq0, aeq0, 2
    7fab:	f863a0624e 	{ l16si	a4, a2, 12; ae_roundsp16q48asym	aep0, aeq0 }
    7fb0:	360524        	ae_trunca16p24s.l	a5, aep0
    7fb3:	05d232        	addmi	a3, a2, 0x500
    7fb6:	3a5352        	s16i	a5, a3, 116
    7fb9:	1ea457        	bge	a4, a5, 7fdb <beam1_mid_band+0x14b>
    7fbc:	faa032        	movi	a3, 250
    7fbf:	7ed332        	addmi	a3, a3, 0x7e00
    7fc2:	98a552        	movi	a5, 0x598
    7fc5:	041c           	movi.n	a4, 16
    7fc7:	411254        	ae_lp16f.x	aep1, a2, a5
    7fca:	300334        	ae_cvtp24a16x2.ll	aep0, a3, a3
    7fcd:	0a8476        	loop	a4, 7fdb <beam1_mid_band+0x14b>
    7fd0:	ea21ac961f 	{ ae_lp16f.iu	aep1, a6, 2; ae_mulfp24s.ll	aeq0, aep0, aep1 }
    7fd5:	1b8f24        	ae_roundsp16q48asym	aep2, aeq0
    7fd8:	4226f4        	ae_sp16f.l.i	aep2, a6, -2

00007fdb <beam1_mid_band+0x14b>:
    7fdb:	f01d           	retw.n

00007fdd <beam1_mid_band+0x14d>:
    7fdd:	000000                                        ...

00007fe0 <beam2_mid_band>:
    7fe0:	00e136        	entry	a1, 112
    7fe3:	02cd           	mov.n	a12, a2
    7fe5:	05d272        	addmi	a7, a2, 0x500
    7fe8:	609762        	l16si	a6, a7, 192
    7feb:	312782        	l32i	a8, a7, 196
    7fee:	60a5d2        	movi	a13, 0x560
    7ff1:	116610        	slli	a6, a6, 15
    7ff4:	a2da           	add.n	a10, a2, a13
    7ff6:	90a052        	movi	a5, 144
    7ff9:	5a5a           	add.n	a5, a10, a5
    7ffb:	641c           	movi.n	a4, 22
    7ffd:	831c           	movi.n	a3, 24
    7fff:	726860        	salt	a6, a8, a6
    8002:	8592b2        	l16si	a11, a2, 0x10a
    8005:	933460        	movnez	a3, a4, a6
    8008:	b0a092        	movi	a9, 176
    800b:	f3f650        	wur.ae_cbegin0	a5
    800e:	192722        	l32i	a2, a7, 100
    8011:	2e2762        	l32i	a6, a7, 184
    8014:	1a2742        	l32i	a4, a7, 104
    8017:	182752        	l32i	a5, a7, 96
    801a:	5ccaf2        	addi	a15, a10, 92
    801d:	da9a           	add.n	a13, a10, a9
    801f:	1e0c           	movi.n	a14, 1
    8021:	443f04        	ae_lp16x2f.i	aep3, a15, 0
    8024:	f3f7d0        	wur.ae_cend0	a13
    8027:	b1f9           	s32i.n	a15, a1, 44
    8029:	071be6        	bgei	a11, 1, 8034 <beam2_mid_band+0x54>
    802c:	881c72        	l16ui	a7, a12, 0x110
    802f:	180c           	movi.n	a8, 1
    8031:	62e780        	saltu	a14, a7, a8

00008034 <beam2_mid_band+0x54>:
    8034:	fe24858a7e 	{ addi	a7, a10, 88; ae_zeroq56	aeq2 }
    8039:	9179           	s32i.n	a7, a1, 36
    803b:	60caf2        	addi	a15, a10, 96
    803e:	05dc72        	addmi	a7, a12, 0x500
    8041:	fcc382        	addi	a8, a3, -4
    8044:	06dc92        	addmi	a9, a12, 0x600
    8047:	61a9           	s32i.n	a10, a1, 24
    8049:	51f9           	s32i.n	a15, a1, 20
    804b:	fcc2f2        	addi	a15, a2, -4
    804e:	fcc4a2        	addi	a10, a4, -4
    8051:	a179           	s32i.n	a7, a1, 40
    8053:	e77c           	movi.n	a7, -2
    8055:	e189           	s32i.n	a8, a1, 56
    8057:	d199           	s32i.n	a9, a1, 52
    8059:	2b2b           	addi.n	a2, a11, 2
    805b:	c47c           	movi.n	a4, -4
    805d:	887c           	movi.n	a8, -8
    805f:	a97c           	movi.n	a9, -6
    8061:	939820        	movnez	a9, a8, a2
    8064:	834b20        	moveqz	a4, a11, a2
    8067:	020c           	movi.n	a2, 0
    8069:	727b70        	salt	a7, a11, a7
    806c:	c1b9           	s32i.n	a11, a1, 48
    806e:	bb7c           	movi.n	a11, -5
    8070:	934270        	movnez	a4, a2, a7
    8073:	83b970        	moveqz	a11, a9, a7
    8076:	73ba           	add.n	a7, a3, a11
    8078:	434a           	add.n	a4, a3, a4
    807a:	880c           	movi.n	a8, 8
    807c:	0a9d           	mov.n	a9, a10
    807e:	106142        	s32i	a4, a1, 64
    8081:	fcc552        	addi	a5, a5, -4
    8084:	420c           	movi.n	a2, 4
    8086:	f179           	s32i.n	a7, a1, 60
    8088:	f86e80004f 	{ movi	a4, 0; ae_movp48	aep0, aep3 }
    808d:	71d9           	s32i.n	a13, a1, 28
    808f:	0d3d           	mov.n	a3, a13
    8091:	08dd           	mov.n	a13, a8
    8093:	81c9           	s32i.n	a12, a1, 32
    8095:	1161e2        	s32i	a14, a1, 68
    8098:	003b06        	j	8188 <beam2_mid_band+0x1a8>

0000809b <beam2_mid_band+0xbb>:
    809b:	000000                                        ...

0000809e <beam2_mid_band+0xbe>:
    809e:	080c           	movi.n	a8, 0
    80a0:	f8e28e073e 	{ addi	a3, a7, -32; ae_roundsp16asym	aep0, aep0 }
    80a5:	468514        	ae_sp16x2f.iu	aep0, a5, 4
    80a8:	0d4e56        	bnez	a14, 8180 <beam2_mid_band+0x1a0>
    80ab:	025426        	beqi	a4, 5, 80b1 <beam2_mid_band+0xd1>
    80ae:	08d456        	bnez	a4, 813f <beam2_mid_band+0x15f>
    80b1:	fc249a862f 	{ ae_lp16x2f.c	aep0, a6, a2; ae_zeroq56	aeq0 }
    80b6:	fc24da862f 	{ ae_lp16x2f.c	aep0, a6, a2; nop }
    80bb:	fc24da862f 	{ ae_lp16x2f.c	aep0, a6, a2; nop }
    80c0:	fc24da862f 	{ ae_lp16x2f.c	aep0, a6, a2; nop }
    80c5:	e2000004ef 	{ movi	a14, 4; ae_mulaafp24s.hh.ll	aeq0, aep0, aep0 }
    80ca:	126192        	s32i	a9, a1, 72
    80cd:	078e76        	loop	a14, 80d8 <beam2_mid_band+0xf8>
    80d0:	fc24da862f 	{ ae_lp16x2f.c	aep0, a6, a2; nop }
    80d5:	050004        	ae_mulaafp24s.hh.ll	aeq0, aep0, aep0

000080d8 <beam2_mid_band+0xf8>:
    80d8:	c8a592        	movi	a9, 0x5c8
    80db:	606c94        	ae_lq32f.x	aeq1, a12, a9
    80de:	3500b4        	ae_sraiq56	aeq0, aeq0, 2
    80e1:	f96a282cae 	{ l16si	a10, a12, 0x104; ae_addq56	aeq1, aeq1, aeq0 }
    80e6:	1361f2        	s32i	a15, a1, 76
    80e9:	fc2470a1fe 	{ l32i	a15, a1, 40; ae_roundsq32asym	aeq0, aeq0 }
    80ee:	fd2c784c9f 	{ ae_sq32f.x	aeq0, a12, a9; ae_roundsq32asym	aeq1, aeq1 }
    80f3:	369b04        	ae_trunca32q48	a11, aeq1
    80f6:	102192        	l32i	a9, a1, 64
    80f9:	563114        	ae_sp24x2s.i	aep3, a1, 8
    80fc:	336fb2        	s32i	a11, a15, 204
    80ff:	161aa6        	blti	a10, 1, 8119 <beam2_mid_band+0x139>
    8102:	f198           	l32i.n	a9, a1, 60
    8104:	ffa7a2        	movi	a10, 0x7ff
    8107:	0e2ab7        	blt	a10, a11, 8119 <beam2_mid_band+0x139>
    810a:	d198           	l32i.n	a9, a1, 52
    810c:	e1a8           	l32i.n	a10, a1, 56
    810e:	0f0c           	movi.n	a15, 0
    8110:	191992        	l16ui	a9, a9, 50
    8113:	c09a90        	sub	a9, a10, a9
    8116:	5399f0        	max	a9, a9, a15

00008119 <beam2_mid_band+0x139>:
    8119:	fec9a2        	addi	a10, a9, -2
    811c:	83a980        	moveqz	a10, a9, a8
    811f:	401a00        	ssl	a10
    8122:	1f0c           	movi.n	a15, 1
    8124:	e04e81        	l32r	a8, 25c (be9c <airoha_divide>)
    8127:	a1af00        	sll	a10, a15
    812a:	0008e0        	callx8	a8
    812d:	81c8           	l32i.n	a12, a1, 32
    812f:	fe24b111ee 	{ l32i	a14, a1, 68; ae_zeroq56	aeq2 }
    8134:	1321f2        	l32i	a15, a1, 76
    8137:	122192        	l32i	a9, a1, 72
    813a:	543114        	ae_lp24x2.i	aep3, a1, 8
    813d:	8d0c           	movi.n	a13, 8
    813f:	440504        	ae_lp16x2f.i	aep0, a5, 0
    8142:	360b34        	ae_cvtq48a32s	aeq0, a11
    8145:	d4626d178f 	{ ae_lp16x2f.i	aep1, a7, -32; ae_mulfq32sp16s.h	aeq1, aeq0, aep0 }
    814a:	d4e20fe37e 	{ addi	a7, a3, -2; ae_mulfq32sp16s.l	aeq0, aeq0, aep0 }
    814f:	fc24fe9a4f 	{ ae_slaasq56s	aeq1, aeq1, a10; nop }
    8154:	fb6ffe8a0f 	{ ae_slaasq56s	aeq0, aeq0, a10; ae_roundsp24q48asym	aep7, aeq1 }
    8159:	1b8d24        	ae_roundsp24q48asym	aep2, aeq0
    815c:	1afa04        	ae_selp24.hl	aep0, aep7, aep2
    815f:	1a8d76        	loop	a13, 817d <beam2_mid_band+0x19d>
    8162:	fc241ae62f 	{ ae_lp16x2f.c	aep6, a6, a2; ae_cvtq48p24s.h	aeq0, aep1 }
    8167:	fd2c2d931f 	{ ae_lp16x2f.iu	aep1, a3, 4; ae_cvtq48p24s.l	aeq1, aep1 }
    816c:	050604        	ae_mulaafp24s.hh.ll	aeq0, aep0, aep6
    816f:	050e54        	ae_mulasfp24s.hl.lh	aeq1, aep0, aep6
    8172:	1b8f24        	ae_roundsp16q48asym	aep2, aeq0
    8175:	fb6bf2a71f 	{ ae_sp16f.l.iu	aep2, a7, 2; ae_roundsp16q48asym	aep7, aeq1 }
    817a:	42f714        	ae_sp16f.l.iu	aep7, a7, 2

0000817d <beam2_mid_band+0x19d>:
    817d:	e0c332        	addi	a3, a3, -32

00008180 <beam2_mid_band+0x1a0>:
    8180:	f86e80144e 	{ addi	a4, a4, 1; ae_movp48	aep0, aep3 }
    8185:	4d9426        	beqi	a4, 10, 81d6 <beam2_mid_band+0x1f6>
    8188:	fc24ad9f1f 	{ ae_lp16x2f.iu	aep1, a15, 4; ae_zeroq56	aeq0 }
    818d:	fd0464162f 	{ ae_sp16x2f.c	aep1, a6, a2; ae_movq56	aeq1, aeq0 }
    8192:	441304        	ae_lp16x2f.i	aep1, a3, 0
    8195:	037d           	mov.n	a7, a3
    8197:	0c8d76        	loop	a13, 81a7 <beam2_mid_band+0x1c7>
    819a:	fc24daa62f 	{ ae_lp16x2f.c	aep2, a6, a2; nop }
    819f:	051204        	ae_mulaafp24s.hh.ll	aeq0, aep1, aep2
    81a2:	ea446d971f 	{ ae_lp16x2f.iu	aep1, a7, 4; ae_mulasfp24s.hl.lh	aeq1, aep1, aep2 }

000081a7 <beam2_mid_band+0x1c7>:
    81a7:	f96f80003f 	{ movi	a3, 0; ae_roundsp24q48asym	aep2, aeq1 }
    81ac:	f867c0018f 	{ movi	a8, 1; ae_roundsp24q48asym	aep1, aeq0 }
    81b1:	f002fe12bf 	{ ae_selp24.ll	aep2, aep1, aep2; ae_mulzaafp24s.hh.ll	aeq1, aep0, aep0 }
    81b6:	dc42edb91f 	{ ae_lp16x2f.iu	aep3, a9, 4; ae_subsp24s	aep1, aep0, aep2 }
    81bb:	079284        	ae_subsp24s	aep0, aep1, aep2
    81be:	090184        	ae_roundsp16asym	aep0, aep0
    81c1:	048804        	ae_mulzaafp24s.hh.ll	aeq3, aep0, aep0
    81c4:	09b104        	ae_ltq56s	b0, aeq1, aeq3
    81c7:	d33800        	movt	a3, a8, b0
    81ca:	ed0316        	beqz	a3, 809e <beam2_mid_band+0xbe>
    81cd:	f86680018f 	{ movi	a8, 1; ae_movp48	aep0, aep1 }
    81d2:	ffb286        	j	80a0 <beam2_mid_band+0xc0>

000081d5 <beam2_mid_band+0x1f5>:
	...

000081d6 <beam2_mid_band+0x1f6>:
    81d6:	9188           	l32i.n	a8, a1, 36
    81d8:	b128           	l32i.n	a2, a1, 44
    81da:	6178           	l32i.n	a7, a1, 24
    81dc:	0869           	s32i.n	a6, a8, 0
    81de:	7168           	l32i.n	a6, a1, 28
    81e0:	b0a052        	movi	a5, 176
    81e3:	830c           	movi.n	a3, 8
    81e5:	463204        	ae_sp16x2f.i	aep3, a2, 0
    81e8:	450754        	ae_lp16x2f.x	aep0, a7, a5
    81eb:	062d           	mov.n	a2, a6
    81ed:	048376        	loop	a3, 81f5 <beam2_mid_band+0x215>
    81f0:	e3002d821f 	{ ae_lp16x2f.iu	aep0, a2, 4; ae_mulaafp24s.hh.ll	aeq2, aep0, aep0 }

000081f5 <beam2_mid_band+0x215>:
    81f5:	5198           	l32i.n	a9, a1, 20
    81f7:	c138           	l32i.n	a3, a1, 48
    81f9:	3520b4        	ae_sraiq56	aeq0, aeq2, 2
    81fc:	f8638ffd2f 	{ movi	a2, -3; ae_roundsp16q48asym	aep0, aeq0 }
    8201:	420904        	ae_sp16f.l.i	aep0, a9, 0
    8204:	02a237        	bge	a2, a3, 820a <beam2_mid_band+0x22a>
    8207:	002846        	j	82ac <beam2_mid_band+0x2cc>
    820a:	821c22        	l16ui	a2, a12, 0x104
    820d:	05dca2        	addmi	a10, a12, 0x500
    8210:	29bd           	ae_l16si.n	a11, a9, 0
    8212:	096256        	bnez	a2, 82ac <beam2_mid_band+0x2cc>
    8215:	05dc22        	addmi	a2, a12, 0x500
    8218:	6a9232        	l16si	a3, a2, 212
    821b:	05dcf2        	addmi	a15, a12, 0x500
    821e:	342fd2        	l32i	a13, a15, 208
    8221:	331b           	addi.n	a3, a3, 1
    8223:	834d           	ae_sext16	a4, a3
    8225:	6a5232        	s16i	a3, a2, 212
    8228:	52c4a6        	blti	a4, 32, 827e <beam2_mid_band+0x29e>
    822b:	6b9f82        	l16si	a8, a15, 214
    822e:	030c           	movi.n	a3, 0
    8230:	d8a572        	movi	a7, 0x5d8
    8233:	ac7a           	add.n	a10, a12, a7
    8235:	6a5232        	s16i	a3, a2, 212
    8238:	10cd22        	addi	a2, a13, 16
    823b:	9078a0        	addx2	a7, a8, a10
    823e:	412520        	srli	a2, a2, 5
    8241:	295d           	ae_l16si.n	a5, a9, 0
    8243:	672d           	ae_s16i.n	a2, a7, 0
    8245:	6b9f22        	l16si	a2, a15, 214
    8248:	05dc62        	addmi	a6, a12, 0x500
    824b:	be0c           	movi.n	a14, 11
    824d:	346f52        	s32i	a5, a15, 208
    8250:	221b           	addi.n	a2, a2, 1
    8252:	82fd           	ae_sext16	a15, a2
    8254:	724ef0        	salt	a4, a14, a15
    8257:	932340        	movnez	a2, a3, a4
    825a:	6b5622        	s16i	a2, a6, 214
    825d:	e08021        	l32r	a2, 460 (6f68 <take_min_four>)
    8260:	cb0c           	movi.n	a11, 12
    8262:	0002e0        	callx8	a2
    8265:	9188           	l32i.n	a8, a1, 36
    8267:	e00131        	l32r	a3, 26c (f210 <immediate_num>)
    826a:	e00071        	l32r	a7, 26c (f210 <immediate_num>)
    826d:	3828           	l32i.n	a2, a8, 12
    826f:	20c332        	addi	a3, a3, 32
    8272:	20c742        	addi	a4, a7, 32
    8275:	14a2a7        	bge	a2, a10, 828d <beam2_mid_band+0x2ad>
    8278:	440404        	ae_lp16x2f.i	aep0, a4, 0
    827b:	000446        	j	8290 <beam2_mid_band+0x2b0>

0000827e <beam2_mid_band+0x29e>:
    827e:	342a42        	l32i	a4, a10, 208
    8281:	24ba           	add.n	a2, a4, a11
    8283:	346a22        	s32i	a2, a10, 208
    8286:	000886        	j	82ac <beam2_mid_band+0x2cc>

00008289 <beam2_mid_band+0x2a9>:
    8289:	00000000                                ....

0000828d <beam2_mid_band+0x2ad>:
    828d:	440314        	ae_lp16x2f.i	aep0, a3, 4
    8290:	360234        	ae_cvtq48a32s	aeq0, a2
    8293:	364a34        	ae_cvtq48a32s	aeq1, a10
    8296:	0c00b081ce 	{ l32i	a12, a1, 32; ae_mulzaafq32sp16s.lh	aeq0, aeq0, aep0, aeq1, aep0 }
    829b:	7168           	l32i.n	a6, a1, 28
    829d:	fc2470617e 	{ l32i	a7, a1, 24; ae_roundsq32asym	aeq0, aeq0 }
    82a2:	5198           	l32i.n	a9, a1, 20
    82a4:	368f04        	ae_trunca32q48	a15, aeq0
    82a7:	b0a052        	movi	a5, 176
    82aa:	38f9           	s32i.n	a15, a8, 12
    82ac:	a128           	l32i.n	a2, a1, 40
    82ae:	130c           	movi.n	a3, 1
    82b0:	10d332        	addmi	a3, a3, 0x1000
    82b3:	332222        	l32i	a2, a2, 204
    82b6:	da3c           	movi.n	a10, 61
    82b8:	1b0c           	movi.n	a11, 1
    82ba:	552237        	blt	a2, a3, 8313 <beam2_mid_band+0x333>
    82bd:	294d           	ae_l16si.n	a4, a9, 0
    82bf:	4ada22        	addmi	a2, a10, 0x4a00
    82c2:	113b20        	slli	a3, a11, 14
    82c5:	604834        	ae_lq32f.i	aeq1, a8, 12
    82c8:	300324        	ae_cvtp24a16x2.ll	aep0, a3, a2
    82cb:	11d410        	slli	a13, a4, 15
    82ce:	d5633ecd3f 	{ ae_cvtq48a32s	aeq0, a13; ae_mulfq32sp16s.h	aeq2, aeq1, aep0 }
    82d3:	d4e34000ef 	{ movi	a14, 0; ae_mulfq32sp16s.l	aeq1, aeq1, aep0 }
    82d8:	d6c00001ff 	{ movi	a15, 1; ae_ltq56s	b0, aeq2, aeq0 }
    82dd:	d64440002f 	{ movi	a2, 0; ae_ltq56s	b1, aeq1, aeq0 }
    82e2:	130c           	movi.n	a3, 1
    82e4:	d3ef00        	movt	a14, a15, b0
    82e7:	8eac           	beqz.n	a14, 8313 <beam2_mid_band+0x333>
    82e9:	d32310        	movt	a2, a3, b1
    82ec:	728c           	beqz.n	a2, 82f7 <beam2_mid_band+0x317>
    82ee:	05dc22        	addmi	a2, a12, 0x500
    82f1:	611222        	l16ui	a2, a2, 194
    82f4:	000146        	j	82fd <beam2_mid_band+0x31d>

000082f7 <beam2_mid_band+0x317>:
    82f7:	aea022        	movi	a2, 174
    82fa:	7fd222        	addmi	a2, a2, 0x7f00
    82fd:	0f1c           	movi.n	a15, 16
    82ff:	300224        	ae_cvtp24a16x2.ll	aep0, a2, a2
    8302:	411754        	ae_lp16f.x	aep1, a7, a5
    8305:	0a8f76        	loop	a15, 8313 <beam2_mid_band+0x333>
    8308:	ea21ac961f 	{ ae_lp16f.iu	aep1, a6, 2; ae_mulfp24s.ll	aeq0, aep0, aep1 }
    830d:	1b8f24        	ae_roundsp16q48asym	aep2, aeq0
    8310:	4226f4        	ae_sp16f.l.i	aep2, a6, -2

00008313 <beam2_mid_band+0x333>:
    8313:	f01d           	retw.n

00008315 <beam2_mid_band+0x335>:
    8315:	000000                                        ...

00008318 <TWO_MIC_CHKSUM>:
    8318:	004136        	entry	a1, 32
    831b:	040c           	movi.n	a4, 0
    831d:	738c           	beqz.n	a3, 8328 <TWO_MIC_CHKSUM+0x10>
    831f:	058376        	loop	a3, 8328 <TWO_MIC_CHKSUM+0x10>
    8322:	223d           	ae_l16si.n	a3, a2, 0
    8324:	222b           	addi.n	a2, a2, 2
    8326:	434a           	add.n	a4, a3, a4

00008328 <TWO_MIC_CHKSUM+0x10>:
    8328:	842d           	ae_sext16	a2, a4
    832a:	f01d           	retw.n

0000832c <TWO_MIC_WB_Write_FLASH>:
    832c:	004136        	entry	a1, 32
    832f:	df67f1        	l32r	a15, cc (f59c <p_ecnr_mem>)
    8332:	023d           	mov.n	a3, a2
    8334:	0f48           	l32i.n	a4, a15, 0
    8336:	2cd422        	addmi	a2, a4, 0x2c00
    8339:	221252        	l16ui	a5, a2, 68
    833c:	020c           	movi.n	a2, 0
    833e:	65d462        	addmi	a6, a4, 0x6500
    8341:	022526        	beqi	a5, 2, 8347 <TWO_MIC_WB_Write_FLASH+0x1b>
    8344:	002986        	j	83ee <TWO_MIC_WB_Write_FLASH+0xc2>
    8347:	201652        	l16ui	a5, a6, 64
    834a:	2cd462        	addmi	a6, a4, 0x2c00
    834d:	e04771        	l32r	a7, 46c (c2c8 <real_split+0xa8>)
    8350:	022526        	beqi	a5, 2, 8356 <TWO_MIC_WB_Write_FLASH+0x2a>
    8353:	002086        	j	83d9 <TWO_MIC_WB_Write_FLASH+0xad>
    8356:	aaa062        	movi	a6, 170
    8359:	55d662        	addmi	a6, a6, 0x5500
    835c:	65d4d2        	addmi	a13, a4, 0x6500
    835f:	636d           	ae_s16i.n	a6, a3, 0
    8361:	231d72        	l16ui	a7, a13, 70
    8364:	6f1d62        	l16ui	a6, a13, 222
    8367:	8f2c           	movi.n	a15, 40
    8369:	025372        	s16i	a7, a3, 4
    836c:	68df72        	addmi	a7, a15, 0x6800
    836f:	095362        	s16i	a6, a3, 18
    8372:	df7961        	l32r	a6, 158 (d6fc <xt_memcpy>)
    8375:	050c           	movi.n	a5, 0
    8377:	711de2        	l16ui	a14, a13, 226
    837a:	14c3a2        	addi	a10, a3, 20
    837d:	b47a           	add.n	a11, a4, a7
    837f:	8c0c           	movi.n	a12, 8
    8381:	234b           	addi.n	a2, a3, 4
    8383:	0853e2        	s16i	a14, a3, 16
    8386:	035352        	s16i	a5, a3, 6
    8389:	045352        	s16i	a5, a3, 8
    838c:	055352        	s16i	a5, a3, 10
    838f:	065352        	s16i	a5, a3, 12
    8392:	075352        	s16i	a5, a3, 14
    8395:	0006e0        	callx8	a6
    8398:	c8a072        	movi	a7, 200
    839b:	69d772        	addmi	a7, a7, 0x6900
    839e:	24c3a2        	addi	a10, a3, 36
    83a1:	b47a           	add.n	a11, a4, a7
    83a3:	0c1c           	movi.n	a12, 16
    83a5:	0006e0        	callx8	a6
    83a8:	c8a072        	movi	a7, 200
    83ab:	68d772        	addmi	a7, a7, 0x6800
    83ae:	44c3a2        	addi	a10, a3, 68
    83b1:	b47a           	add.n	a11, a4, a7
    83b3:	8c0c           	movi.n	a12, 8
    83b5:	0006e0        	callx8	a6
    83b8:	68a072        	movi	a7, 104
    83bb:	69d772        	addmi	a7, a7, 0x6900
    83be:	54c3a2        	addi	a10, a3, 84
    83c1:	b47a           	add.n	a11, a4, a7
    83c3:	8c0c           	movi.n	a12, 8
    83c5:	0006e0        	callx8	a6
    83c8:	043c           	movi.n	a4, 48
    83ca:	058476        	loop	a4, 83d3 <TWO_MIC_WB_Write_FLASH+0xa7>
    83cd:	224d           	ae_l16si.n	a4, a2, 0
    83cf:	222b           	addi.n	a2, a2, 2
    83d1:	545a           	add.n	a5, a4, a5

000083d3 <TWO_MIC_WB_Write_FLASH+0xa7>:
    83d3:	735d           	ae_s16i.n	a5, a3, 2
    83d5:	120c           	movi.n	a2, 1
    83d7:	f01d           	retw.n

000083d9 <TWO_MIC_WB_Write_FLASH+0xad>:
    83d9:	111566        	bnei	a5, 1, 83ee <TWO_MIC_WB_Write_FLASH+0xc2>
    83dc:	279652        	l16si	a5, a6, 78
    83df:	2c3c           	movi.n	a12, 50
    83e1:	03ad           	mov.n	a10, a3
    83e3:	0075d6        	bgez	a5, 83ee <TWO_MIC_WB_Write_FLASH+0xc2>
    83e6:	b47a           	add.n	a11, a4, a7
    83e8:	df5c41        	l32r	a4, 158 (d6fc <xt_memcpy>)
    83eb:	0004e0        	callx8	a4
    83ee:	f01d           	retw.n

000083f0 <AEC_NR_Write_FLASH>:
    83f0:	008136        	entry	a1, 64
    83f3:	fb7c           	movi.n	a11, -1
    83f5:	df6331        	l32r	a3, 184 (d6e8 <xt_memset>)
    83f8:	f4b0b0        	extui	a11, a11, 0, 16
    83fb:	0c5c           	movi.n	a12, 80
    83fd:	02ad           	mov.n	a10, a2
    83ff:	0003e0        	callx8	a3
    8402:	df1c31        	l32r	a3, 74 (832c <TWO_MIC_WB_Write_FLASH>)
    8405:	02ad           	mov.n	a10, a2
    8407:	0003e0        	callx8	a3
    840a:	df3031        	l32r	a3, cc (f59c <p_ecnr_mem>)
    840d:	3f0c           	movi.n	a15, 3
    840f:	df0951        	l32r	a5, 34 (3358 <EC_REF_GAIN_READBACK>)
    8412:	0348           	l32i.n	a4, a3, 0
    8414:	060c           	movi.n	a6, 0
    8416:	6dd442        	addmi	a4, a4, 0x6d00
    8419:	ee0472        	l8ui	a7, a4, 238
    841c:	10c142        	addi	a4, a1, 16
    841f:	028f77        	bany	a15, a7, 8425 <AEC_NR_Write_FLASH+0x35>
    8422:	002b46        	j	84d3 <AEC_NR_Write_FLASH+0xe3>
    8425:	31a9           	s32i.n	a10, a1, 12
    8427:	04ad           	mov.n	a10, a4
    8429:	0005e0        	callx8	a5
    842c:	03c8           	l32i.n	a12, a3, 0
    842e:	e01081        	l32r	a8, 470 (c2b8 <real_split+0x98>)
    8431:	050c           	movi.n	a5, 0
    8433:	030c           	movi.n	a3, 0
    8435:	060c           	movi.n	a6, 0
    8437:	6ee727        	bbsi	a7, 2, 84a9 <AEC_NR_Write_FLASH+0xb9>
    843a:	470c           	movi.n	a7, 4
    843c:	3c8a           	add.n	a3, a12, a8
    843e:	090c           	movi.n	a9, 0
    8440:	5a1c           	movi.n	a10, 21
    8442:	00a062        	movi	a6, 0
    8445:	1f8776        	loop	a7, 8468 <AEC_NR_Write_FLASH+0x78>
    8448:	247d           	ae_l16si.n	a7, a4, 0
    844a:	23bd           	ae_l16si.n	a11, a3, 0
    844c:	40e7d0        	nsa	a13, a7
    844f:	c0bb70        	sub	a11, a11, a7
    8452:	c0dad0        	sub	a13, a10, a13
    8455:	60b1b0        	abs	a11, a11
    8458:	53dd90        	max	a13, a13, a9
    845b:	05adb7        	bge	a13, a11, 8464 <AEC_NR_Write_FLASH+0x74>
    845e:	976d           	ae_zext16	a6, a7
    8460:	636d           	ae_s16i.n	a6, a3, 0
    8462:	160c           	movi.n	a6, 1

00008464 <AEC_NR_Write_FLASH+0x74>:
    8464:	332b           	addi.n	a3, a3, 2
    8466:	442b           	addi.n	a4, a4, 2

00008468 <AEC_NR_Write_FLASH+0x78>:
    8468:	2cdc32        	addmi	a3, a12, 0x2c00
    846b:	221342        	l16ui	a4, a3, 68
    846e:	030c           	movi.n	a3, 0
    8470:	0ba372        	movi	a7, 0x30b
    8473:	322466        	bnei	a4, 2, 84a9 <AEC_NR_Write_FLASH+0xb9>
    8476:	1177a0        	slli	a7, a7, 6
    8479:	4d0c           	movi.n	a13, 4
    847b:	18c142        	addi	a4, a1, 24
    847e:	090c           	movi.n	a9, 0
    8480:	5a1c           	movi.n	a10, 21
    8482:	030c           	movi.n	a3, 0
    8484:	bc7a           	add.n	a11, a12, a7
    8486:	1f8d76        	loop	a13, 84a9 <AEC_NR_Write_FLASH+0xb9>
    8489:	247d           	ae_l16si.n	a7, a4, 0
    848b:	2bdd           	ae_l16si.n	a13, a11, 0
    848d:	40e7e0        	nsa	a14, a7
    8490:	c0dd70        	sub	a13, a13, a7
    8493:	c0eae0        	sub	a14, a10, a14
    8496:	60d1d0        	abs	a13, a13
    8499:	53ee90        	max	a14, a14, a9
    849c:	05aed7        	bge	a14, a13, 84a5 <AEC_NR_Write_FLASH+0xb5>
    849f:	973d           	ae_zext16	a3, a7
    84a1:	6b3d           	ae_s16i.n	a3, a11, 0
    84a3:	130c           	movi.n	a3, 1

000084a5 <AEC_NR_Write_FLASH+0xb5>:
    84a5:	bb2b           	addi.n	a11, a11, 2
    84a7:	442b           	addi.n	a4, a4, 2

000084a9 <AEC_NR_Write_FLASH+0xb9>:
    84a9:	a75c           	movi.n	a7, 90
    84ab:	5ad772        	addmi	a7, a7, 0x5a00
    84ae:	7cc242        	addi	a4, a2, 124
    84b1:	3c5272        	s16i	a7, a2, 120
    84b4:	df2971        	l32r	a7, 158 (d6fc <xt_memcpy>)
    84b7:	bc8a           	add.n	a11, a12, a8
    84b9:	8c0c           	movi.n	a12, 8
    84bb:	04ad           	mov.n	a10, a4
    84bd:	0007e0        	callx8	a7
    84c0:	870c           	movi.n	a7, 8
    84c2:	058776        	loop	a7, 84cb <AEC_NR_Write_FLASH+0xdb>
    84c5:	247d           	ae_l16si.n	a7, a4, 0
    84c7:	442b           	addi.n	a4, a4, 2
    84c9:	575a           	add.n	a5, a7, a5

000084cb <AEC_NR_Write_FLASH+0xdb>:
    84cb:	31a8           	l32i.n	a10, a1, 12
    84cd:	3d5252        	s16i	a5, a2, 122
    84d0:	000046        	j	84d5 <AEC_NR_Write_FLASH+0xe5>

000084d3 <AEC_NR_Write_FLASH+0xe3>:
    84d3:	030c           	movi.n	a3, 0
    84d5:	2023a0        	or	a2, a3, a10
    84d8:	202260        	or	a2, a2, a6
    84db:	f01d           	retw.n

000084dd <AEC_NR_Write_FLASH+0xed>:
    84dd:	000000                                        ...

000084e0 <WB_RX_NR_frame_process>:
    84e0:	004136        	entry	a1, 32
    84e3:	defa31        	l32r	a3, cc (f59c <p_ecnr_mem>)
    84e6:	dfe351        	l32r	a5, 474 (c2a4 <real_split+0x84>)
    84e9:	dfe361        	l32r	a6, 478 (c2a8 <real_split+0x88>)
    84ec:	0348           	l32i.n	a4, a3, 0
    84ee:	f0a0d2        	movi	a13, 240
    84f1:	02ad           	mov.n	a10, a2
    84f3:	b45a           	add.n	a11, a4, a5
    84f5:	c46a           	add.n	a12, a4, a6
    84f7:	df7a41        	l32r	a4, 2e0 (3138 <emph_filter_N>)
    84fa:	0004e0        	callx8	a4
    84fd:	0348           	l32i.n	a4, a3, 0
    84ff:	dfdf61        	l32r	a6, 47c (9c78 <two_mic_SWB_NR_proc+0x2a8>)
    8502:	d3a772        	movi	a7, 0x7d3
    8505:	1177d0        	slli	a7, a7, 3
    8508:	a46a           	add.n	a10, a4, a6
    850a:	e47a           	add.n	a14, a4, a7
    850c:	df9141        	l32r	a4, 350 (8530 <WB_NR_frame_process>)
    850f:	0c0c           	movi.n	a12, 0
    8511:	02bd           	mov.n	a11, a2
    8513:	02dd           	mov.n	a13, a2
    8515:	0004e0        	callx8	a4
    8518:	0338           	l32i.n	a3, a3, 0
    851a:	dfd941        	l32r	a4, 480 (c2ac <real_split+0x8c>)
    851d:	f0a0d2        	movi	a13, 240
    8520:	b35a           	add.n	a11, a3, a5
    8522:	c34a           	add.n	a12, a3, a4
    8524:	df8f31        	l32r	a3, 360 (3180 <deemph_filter_N>)
    8527:	02ad           	mov.n	a10, a2
    8529:	0003e0        	callx8	a3
    852c:	f01d           	retw.n

0000852e <WB_RX_NR_frame_process+0x4e>:
	...

00008530 <WB_NR_frame_process>:
    8530:	004136        	entry	a1, 32
    8533:	25d2f2        	addmi	a15, a2, 0x2500
    8536:	360282        	l8ui	a8, a2, 54
    8539:	04bd           	mov.n	a11, a4
    853b:	3b2f72        	l32i	a7, a15, 236
    853e:	3c2f42        	l32i	a4, a15, 240
    8541:	286827        	bbci	a8, 2, 856d <WB_NR_frame_process+0x3d>
    8544:	dfd081        	l32r	a8, 484 (af7c <fft_wo2>)
    8547:	07ad           	mov.n	a10, a7
    8549:	0008e0        	callx8	a8
    854c:	02d782        	addmi	a8, a7, 0x200
    854f:	090c           	movi.n	a9, 0
    8551:	705892        	s16i	a9, a8, 224
    8554:	dfcd81        	l32r	a8, 488 (d3e8 <inear_VAD_detection_iem2>)
    8557:	07ad           	mov.n	a10, a7
    8559:	0008e0        	callx8	a8
    855c:	02d782        	addmi	a8, a7, 0x200
    855f:	890882        	l8ui	a8, a8, 137
    8562:	07ad           	mov.n	a10, a7
    8564:	056837        	bbci	a8, 3, 856d <WB_NR_frame_process+0x3d>
    8567:	dfc981        	l32r	a8, 48c (d598 <Wear_Detection_iem2>)
    856a:	0008e0        	callx8	a8

0000856d <WB_NR_frame_process+0x3d>:
    856d:	360282        	l8ui	a8, a2, 54
    8570:	056817        	bbci	a8, 1, 8579 <WB_NR_frame_process+0x49>
    8573:	dfc781        	l32r	a8, 490 (1078 <PD_TD_prcs>)
    8576:	0008e0        	callx8	a8
    8579:	dfc681        	l32r	a8, 494 (9d10 <fft_wo>)
    857c:	02ad           	mov.n	a10, a2
    857e:	03bd           	mov.n	a11, a3
    8580:	0008e0        	callx8	a8
    8583:	360232        	l8ui	a3, a2, 54
    8586:	02d782        	addmi	a8, a7, 0x200
    8589:	1bd792        	addmi	a9, a7, 0x1b00
    858c:	2a6317        	bbci	a3, 1, 85ba <WB_NR_frame_process+0x8a>
    858f:	086327        	bbci	a3, 2, 859b <WB_NR_frame_process+0x6b>
    8592:	880832        	l8ui	a3, a8, 136
    8595:	00a1b2        	movi	a11, 0x100
    8598:	10e367        	bbsi	a3, 6, 85ac <WB_NR_frame_process+0x7c>
    859b:	13d232        	addmi	a3, a2, 0x1300
    859e:	7a93d2        	l16si	a13, a3, 244
    85a1:	02c8           	l32i.n	a12, a2, 0
    85a3:	dfbd31        	l32r	a3, 498 (1c30 <pitch_by_harmonic>)
    85a6:	00a2b2        	movi	a11, 0x200
    85a9:	000206        	j	85b5 <WB_NR_frame_process+0x85>

000085ac <WB_NR_frame_process+0x7c>:
    85ac:	2099d2        	l16si	a13, a9, 64
    85af:	bb27c2        	l32i	a12, a7, 0x2ec
    85b2:	dfb931        	l32r	a3, 498 (1c30 <pitch_by_harmonic>)
    85b5:	02ad           	mov.n	a10, a2
    85b7:	0003e0        	callx8	a3
    85ba:	dfb831        	l32r	a3, 49c (9eb8 <NR_vad1>)
    85bd:	02ad           	mov.n	a10, a2
    85bf:	0003e0        	callx8	a3
    85c2:	dfb731        	l32r	a3, 4a0 (a000 <NR_vad2>)
    85c5:	02ad           	mov.n	a10, a2
    85c7:	0003e0        	callx8	a3
    85ca:	dfb631        	l32r	a3, 4a4 (a354 <NR_NoiseEstimate>)
    85cd:	02ad           	mov.n	a10, a2
    85cf:	0003e0        	callx8	a3
    85d2:	dfb531        	l32r	a3, 4a8 (a4c8 <NR_NoiseWithGain>)
    85d5:	02ad           	mov.n	a10, a2
    85d7:	0003e0        	callx8	a3
    85da:	360232        	l8ui	a3, a2, 54
    85dd:	0b0c           	movi.n	a11, 0
    85df:	02ad           	mov.n	a10, a2
    85e1:	056327        	bbci	a3, 2, 85ea <WB_NR_frame_process+0xba>
    85e4:	dfb231        	l32r	a3, 4ac (b138 <WB_NR_IE_frame_process>)
    85e7:	0003e0        	callx8	a3
    85ea:	dfb131        	l32r	a3, 4b0 (a598 <NR_WienerFilter>)
    85ed:	0b0c           	movi.n	a11, 0
    85ef:	02ad           	mov.n	a10, a2
    85f1:	0003e0        	callx8	a3
    85f4:	360232        	l8ui	a3, a2, 54
    85f7:	0b0c           	movi.n	a11, 0
    85f9:	00a2c2        	movi	a12, 0x200
    85fc:	4ee307        	bbsi	a3, 0, 864e <WB_NR_frame_process+0x11e>
    85ff:	dfad31        	l32r	a3, 4b4 (7f0 <comfort_noise_gen_wb>)
    8602:	0c0c           	movi.n	a12, 0
    8604:	02ad           	mov.n	a10, a2
    8606:	07bd           	mov.n	a11, a7
    8608:	06dd           	mov.n	a13, a6
    860a:	0003e0        	callx8	a3
    860d:	03d432        	addmi	a3, a4, 0x300
    8610:	4b1332        	l16ui	a3, a3, 150
    8613:	0022c2        	l32i	a12, a2, 0
    8616:	3c1366        	bnei	a3, 1, 8656 <WB_NR_frame_process+0x126>
    8619:	189232        	l16si	a3, a2, 48
    861c:	00a292        	movi	a9, 0x200
    861f:	207660        	or	a7, a6, a6
    8622:	fccc82        	addi	a8, a12, -4
    8625:	0c8976        	loop	a9, 8635 <WB_NR_frame_process+0x105>
    8628:	fc0c2c871f 	{ ae_lp16f.iu	aep0, a7, 2; ae_cvtq48p24s.l	aeq0, aep0 }
    862d:	fc24fe830f 	{ ae_slaasq56s	aeq0, aeq0, a3; nop }
    8632:	624814        	ae_sq32f.iu	aeq0, a8, 4

00008635 <WB_NR_frame_process+0x105>:
    8635:	25d232        	addmi	a3, a2, 0x2500
    8638:	2f23b2        	l32i	a11, a3, 188
    863b:	1392d2        	l16si	a13, a2, 38
    863e:	df9e31        	l32r	a3, 4b8 (2f3c <subband_comfort_noise>)
    8641:	eea0e2        	movi	a14, 238
    8644:	0f0c           	movi.n	a15, 0
    8646:	04ad           	mov.n	a10, a4
    8648:	0003e0        	callx8	a3
    864b:	0001c6        	j	8656 <WB_NR_frame_process+0x126>

0000864e <WB_NR_frame_process+0x11e>:
    864e:	decd31        	l32r	a3, 184 (d6e8 <xt_memset>)
    8651:	06ad           	mov.n	a10, a6
    8653:	0003e0        	callx8	a3
    8656:	df9931        	l32r	a3, 4bc (ad88 <ifft_wo>)
    8659:	02ad           	mov.n	a10, a2
    865b:	05bd           	mov.n	a11, a5
    865d:	06cd           	mov.n	a12, a6
    865f:	0003e0        	callx8	a3
    8662:	f01d           	retw.n

00008664 <NB_RX_NR_frame_process>:
    8664:	004136        	entry	a1, 32
    8667:	de9961        	l32r	a6, cc (f59c <p_ecnr_mem>)
    866a:	df8251        	l32r	a5, 474 (c2a4 <real_split+0x84>)
    866d:	df8241        	l32r	a4, 478 (c2a8 <real_split+0x88>)
    8670:	0638           	l32i.n	a3, a6, 0
    8672:	78a0d2        	movi	a13, 120
    8675:	02ad           	mov.n	a10, a2
    8677:	b35a           	add.n	a11, a3, a5
    8679:	c34a           	add.n	a12, a3, a4
    867b:	df1931        	l32r	a3, 2e0 (3138 <emph_filter_N>)
    867e:	0003e0        	callx8	a3
    8681:	0638           	l32i.n	a3, a6, 0
    8683:	df7e41        	l32r	a4, 47c (9c78 <two_mic_SWB_NR_proc+0x2a8>)
    8686:	d3a772        	movi	a7, 0x7d3
    8689:	1177d0        	slli	a7, a7, 3
    868c:	434a           	add.n	a4, a3, a4
    868e:	337a           	add.n	a3, a3, a7
    8690:	df8171        	l32r	a7, 494 (9d10 <fft_wo>)
    8693:	04ad           	mov.n	a10, a4
    8695:	02bd           	mov.n	a11, a2
    8697:	0007e0        	callx8	a7
    869a:	df8071        	l32r	a7, 49c (9eb8 <NR_vad1>)
    869d:	04ad           	mov.n	a10, a4
    869f:	0007e0        	callx8	a7
    86a2:	df7f71        	l32r	a7, 4a0 (a000 <NR_vad2>)
    86a5:	04ad           	mov.n	a10, a4
    86a7:	0007e0        	callx8	a7
    86aa:	df7e71        	l32r	a7, 4a4 (a354 <NR_NoiseEstimate>)
    86ad:	04ad           	mov.n	a10, a4
    86af:	0007e0        	callx8	a7
    86b2:	df7d71        	l32r	a7, 4a8 (a4c8 <NR_NoiseWithGain>)
    86b5:	04ad           	mov.n	a10, a4
    86b7:	0007e0        	callx8	a7
    86ba:	df7d71        	l32r	a7, 4b0 (a598 <NR_WienerFilter>)
    86bd:	0b0c           	movi.n	a11, 0
    86bf:	04ad           	mov.n	a10, a4
    86c1:	0007e0        	callx8	a7
    86c4:	deb071        	l32r	a7, 184 (d6e8 <xt_memset>)
    86c7:	0b0c           	movi.n	a11, 0
    86c9:	00a2c2        	movi	a12, 0x200
    86cc:	03ad           	mov.n	a10, a3
    86ce:	0007e0        	callx8	a7
    86d1:	df7a71        	l32r	a7, 4bc (ad88 <ifft_wo>)
    86d4:	04ad           	mov.n	a10, a4
    86d6:	02bd           	mov.n	a11, a2
    86d8:	03cd           	mov.n	a12, a3
    86da:	0007e0        	callx8	a7
    86dd:	0638           	l32i.n	a3, a6, 0
    86df:	df6841        	l32r	a4, 480 (c2ac <real_split+0x8c>)
    86e2:	78a0d2        	movi	a13, 120
    86e5:	b35a           	add.n	a11, a3, a5
    86e7:	c34a           	add.n	a12, a3, a4
    86e9:	df1d31        	l32r	a3, 360 (3180 <deemph_filter_N>)
    86ec:	02ad           	mov.n	a10, a2
    86ee:	0003e0        	callx8	a3
    86f1:	f01d           	retw.n

000086f3 <NB_RX_NR_frame_process+0x8f>:
	...

000086f4 <SWB_NR_frame_process>:
    86f4:	004136        	entry	a1, 32
    86f7:	25d2f2        	addmi	a15, a2, 0x2500
    86fa:	360282        	l8ui	a8, a2, 54
    86fd:	04bd           	mov.n	a11, a4
    86ff:	3b2f72        	l32i	a7, a15, 236
    8702:	3c2f42        	l32i	a4, a15, 240
    8705:	286827        	bbci	a8, 2, 8731 <SWB_NR_frame_process+0x3d>
    8708:	df5f81        	l32r	a8, 484 (af7c <fft_wo2>)
    870b:	07ad           	mov.n	a10, a7
    870d:	0008e0        	callx8	a8
    8710:	02d782        	addmi	a8, a7, 0x200
    8713:	090c           	movi.n	a9, 0
    8715:	705892        	s16i	a9, a8, 224
    8718:	df5c81        	l32r	a8, 488 (d3e8 <inear_VAD_detection_iem2>)
    871b:	07ad           	mov.n	a10, a7
    871d:	0008e0        	callx8	a8
    8720:	02d782        	addmi	a8, a7, 0x200
    8723:	890882        	l8ui	a8, a8, 137
    8726:	07ad           	mov.n	a10, a7
    8728:	056837        	bbci	a8, 3, 8731 <SWB_NR_frame_process+0x3d>
    872b:	df5881        	l32r	a8, 48c (d598 <Wear_Detection_iem2>)
    872e:	0008e0        	callx8	a8

00008731 <SWB_NR_frame_process+0x3d>:
    8731:	360282        	l8ui	a8, a2, 54
    8734:	056817        	bbci	a8, 1, 873d <SWB_NR_frame_process+0x49>
    8737:	df5681        	l32r	a8, 490 (1078 <PD_TD_prcs>)
    873a:	0008e0        	callx8	a8
    873d:	df5581        	l32r	a8, 494 (9d10 <fft_wo>)
    8740:	02ad           	mov.n	a10, a2
    8742:	03bd           	mov.n	a11, a3
    8744:	0008e0        	callx8	a8
    8747:	360232        	l8ui	a3, a2, 54
    874a:	02d782        	addmi	a8, a7, 0x200
    874d:	1bd792        	addmi	a9, a7, 0x1b00
    8750:	2a6317        	bbci	a3, 1, 877e <SWB_NR_frame_process+0x8a>
    8753:	086327        	bbci	a3, 2, 875f <SWB_NR_frame_process+0x6b>
    8756:	880832        	l8ui	a3, a8, 136
    8759:	00a2b2        	movi	a11, 0x200
    875c:	10e367        	bbsi	a3, 6, 8770 <SWB_NR_frame_process+0x7c>
    875f:	13d232        	addmi	a3, a2, 0x1300
    8762:	7a93d2        	l16si	a13, a3, 244
    8765:	02c8           	l32i.n	a12, a2, 0
    8767:	df4c31        	l32r	a3, 498 (1c30 <pitch_by_harmonic>)
    876a:	00a4b2        	movi	a11, 0x400
    876d:	000206        	j	8779 <SWB_NR_frame_process+0x85>

00008770 <SWB_NR_frame_process+0x7c>:
    8770:	2099d2        	l16si	a13, a9, 64
    8773:	bb27c2        	l32i	a12, a7, 0x2ec
    8776:	df4831        	l32r	a3, 498 (1c30 <pitch_by_harmonic>)
    8779:	02ad           	mov.n	a10, a2
    877b:	0003e0        	callx8	a3
    877e:	df4731        	l32r	a3, 49c (9eb8 <NR_vad1>)
    8781:	02ad           	mov.n	a10, a2
    8783:	0003e0        	callx8	a3
    8786:	df4631        	l32r	a3, 4a0 (a000 <NR_vad2>)
    8789:	02ad           	mov.n	a10, a2
    878b:	0003e0        	callx8	a3
    878e:	df4531        	l32r	a3, 4a4 (a354 <NR_NoiseEstimate>)
    8791:	02ad           	mov.n	a10, a2
    8793:	0003e0        	callx8	a3
    8796:	df4431        	l32r	a3, 4a8 (a4c8 <NR_NoiseWithGain>)
    8799:	02ad           	mov.n	a10, a2
    879b:	0003e0        	callx8	a3
    879e:	360232        	l8ui	a3, a2, 54
    87a1:	0b0c           	movi.n	a11, 0
    87a3:	02ad           	mov.n	a10, a2
    87a5:	056327        	bbci	a3, 2, 87ae <SWB_NR_frame_process+0xba>
    87a8:	df4131        	l32r	a3, 4ac (b138 <WB_NR_IE_frame_process>)
    87ab:	0003e0        	callx8	a3
    87ae:	df4031        	l32r	a3, 4b0 (a598 <NR_WienerFilter>)
    87b1:	0b0c           	movi.n	a11, 0
    87b3:	02ad           	mov.n	a10, a2
    87b5:	0003e0        	callx8	a3
    87b8:	360232        	l8ui	a3, a2, 54
    87bb:	0b0c           	movi.n	a11, 0
    87bd:	00a4c2        	movi	a12, 0x400
    87c0:	4ce307        	bbsi	a3, 0, 8810 <SWB_NR_frame_process+0x11c>
    87c3:	df3c31        	l32r	a3, 4b4 (7f0 <comfort_noise_gen_wb>)
    87c6:	0c0c           	movi.n	a12, 0
    87c8:	02ad           	mov.n	a10, a2
    87ca:	07bd           	mov.n	a11, a7
    87cc:	06dd           	mov.n	a13, a6
    87ce:	0003e0        	callx8	a3
    87d1:	03d432        	addmi	a3, a4, 0x300
    87d4:	4b1332        	l16ui	a3, a3, 150
    87d7:	02c8           	l32i.n	a12, a2, 0
    87d9:	3b1366        	bnei	a3, 1, 8818 <SWB_NR_frame_process+0x124>
    87dc:	189232        	l16si	a3, a2, 48
    87df:	00a492        	movi	a9, 0x400
    87e2:	067d           	mov.n	a7, a6
    87e4:	fccc82        	addi	a8, a12, -4
    87e7:	0c8976        	loop	a9, 87f7 <SWB_NR_frame_process+0x103>
    87ea:	fc0c2c871f 	{ ae_lp16f.iu	aep0, a7, 2; ae_cvtq48p24s.l	aeq0, aep0 }
    87ef:	fc24fe830f 	{ ae_slaasq56s	aeq0, aeq0, a3; nop }
    87f4:	624814        	ae_sq32f.iu	aeq0, a8, 4

000087f7 <SWB_NR_frame_process+0x103>:
    87f7:	25d232        	addmi	a3, a2, 0x2500
    87fa:	2f23b2        	l32i	a11, a3, 188
    87fd:	1392d2        	l16si	a13, a2, 38
    8800:	df2e31        	l32r	a3, 4b8 (2f3c <subband_comfort_noise>)
    8803:	dca1e2        	movi	a14, 0x1dc
    8806:	0f0c           	movi.n	a15, 0
    8808:	04ad           	mov.n	a10, a4
    880a:	0003e0        	callx8	a3
    880d:	0001c6        	j	8818 <SWB_NR_frame_process+0x124>

00008810 <SWB_NR_frame_process+0x11c>:
    8810:	de5d31        	l32r	a3, 184 (d6e8 <xt_memset>)
    8813:	06ad           	mov.n	a10, a6
    8815:	0003e0        	callx8	a3
    8818:	df2931        	l32r	a3, 4bc (ad88 <ifft_wo>)
    881b:	02ad           	mov.n	a10, a2
    881d:	05bd           	mov.n	a11, a5
    881f:	06cd           	mov.n	a12, a6
    8821:	0003e0        	callx8	a3
    8824:	f01d           	retw.n

00008826 <SWB_NR_frame_process+0x132>:
	...

00008828 <SWB_RX_NR_frame_process>:
    8828:	004136        	entry	a1, 32
    882b:	de2831        	l32r	a3, cc (f59c <p_ecnr_mem>)
    882e:	df1151        	l32r	a5, 474 (c2a4 <real_split+0x84>)
    8831:	df1161        	l32r	a6, 478 (c2a8 <real_split+0x88>)
    8834:	0348           	l32i.n	a4, a3, 0
    8836:	e0a1d2        	movi	a13, 0x1e0
    8839:	02ad           	mov.n	a10, a2
    883b:	b45a           	add.n	a11, a4, a5
    883d:	c46a           	add.n	a12, a4, a6
    883f:	dea841        	l32r	a4, 2e0 (3138 <emph_filter_N>)
    8842:	0004e0        	callx8	a4
    8845:	0348           	l32i.n	a4, a3, 0
    8847:	df0d61        	l32r	a6, 47c (9c78 <two_mic_SWB_NR_proc+0x2a8>)
    884a:	d3a772        	movi	a7, 0x7d3
    884d:	1177d0        	slli	a7, a7, 3
    8850:	a46a           	add.n	a10, a4, a6
    8852:	e47a           	add.n	a14, a4, a7
    8854:	deef41        	l32r	a4, 410 (86f4 <SWB_NR_frame_process>)
    8857:	0c0c           	movi.n	a12, 0
    8859:	02bd           	mov.n	a11, a2
    885b:	02dd           	mov.n	a13, a2
    885d:	0004e0        	callx8	a4
    8860:	0338           	l32i.n	a3, a3, 0
    8862:	df0741        	l32r	a4, 480 (c2ac <real_split+0x8c>)
    8865:	e0a1d2        	movi	a13, 0x1e0
    8868:	b35a           	add.n	a11, a3, a5
    886a:	c34a           	add.n	a12, a3, a4
    886c:	debd31        	l32r	a3, 360 (3180 <deemph_filter_N>)
    886f:	02ad           	mov.n	a10, a2
    8871:	0003e0        	callx8	a3
    8874:	f01d           	retw.n

00008876 <SWB_RX_NR_frame_process+0x4e>:
	...

00008878 <two_mic_WB_NR_proc>:
    8878:	00a136        	entry	a1, 80
    887b:	de14a1        	l32r	a10, cc (f59c <p_ecnr_mem>)
    887e:	b159           	s32i.n	a5, a1, 44
    8880:	de8ae1        	l32r	a14, 2a8 (968c <two_mic_WB_NR_NSN_proc+0xb1c>)
    8883:	0a58           	l32i.n	a5, a10, 0
    8885:	df0ed1        	l32r	a13, 4c0 (9690 <two_mic_WB_NR_NSN_proc+0xb20>)
    8888:	027d           	mov.n	a7, a2
    888a:	70d5a2        	addmi	a10, a5, 0x7000
    888d:	95ea           	add.n	a9, a5, a14
    888f:	2cd582        	addmi	a8, a5, 0x2c00
    8892:	d60af2        	l8ui	a15, a10, 214
    8895:	25da           	add.n	a2, a5, a13
    8897:	04bd           	mov.n	a11, a4
    8899:	0998           	l32i.n	a9, a9, 0
    889b:	85a3c2        	movi	a12, 0x385
    889e:	252842        	l32i	a4, a8, 148
    88a1:	8169           	s32i.n	a6, a1, 32
    88a3:	0228           	l32i.n	a2, a2, 0
    88a5:	116cb0        	slli	a6, a12, 5
    88a8:	7129           	s32i.n	a2, a1, 28
    88aa:	256a           	add.n	a2, a5, a6
    88ac:	61a9           	s32i.n	a10, a1, 24
    88ae:	5199           	s32i.n	a9, a1, 20
    88b0:	446f27        	bbci	a15, 2, 88f8 <two_mic_WB_NR_proc+0x80>
    88b3:	def461        	l32r	a6, 484 (af7c <fft_wo2>)
    88b6:	09ad           	mov.n	a10, a9
    88b8:	0006e0        	callx8	a6
    88bb:	5168           	l32i.n	a6, a1, 20
    88bd:	080c           	movi.n	a8, 0
    88bf:	51a8           	l32i.n	a10, a1, 20
    88c1:	02d662        	addmi	a6, a6, 0x200
    88c4:	705682        	s16i	a8, a6, 224
    88c7:	def061        	l32r	a6, 488 (d3e8 <inear_VAD_detection_iem2>)
    88ca:	0006e0        	callx8	a6
    88cd:	51a8           	l32i.n	a10, a1, 20
    88cf:	02da62        	addmi	a6, a10, 0x200
    88d2:	890662        	l8ui	a6, a6, 137
    88d5:	076637        	bbci	a6, 3, 88e0 <two_mic_WB_NR_proc+0x68>
    88d8:	deed61        	l32r	a6, 48c (d598 <Wear_Detection_iem2>)
    88db:	0006e0        	callx8	a6
    88de:	51a8           	l32i.n	a10, a1, 20

000088e0 <two_mic_WB_NR_proc+0x68>:
    88e0:	bb2a62        	l32i	a6, a10, 0x2ec
    88e3:	e7a782        	movi	a8, 0x7e7
    88e6:	1188e0        	slli	a8, a8, 2
    88e9:	b6cb           	addi.n	a11, a6, 12
    88eb:	de1b61        	l32r	a6, 158 (d6fc <xt_memcpy>)
    88ee:	aa8a           	add.n	a10, a10, a8
    88f0:	70a0c2        	movi	a12, 112
    88f3:	0006e0        	callx8	a6
    88f6:	5198           	l32i.n	a9, a1, 20
    88f8:	def361        	l32r	a6, 4c4 (8b70 <two_mic_WB_NR_NSN_proc>)
    88fb:	02ad           	mov.n	a10, a2
    88fd:	04bd           	mov.n	a11, a4
    88ff:	09cd           	mov.n	a12, a9
    8901:	07dd           	mov.n	a13, a7
    8903:	03ed           	mov.n	a14, a3
    8905:	0006e0        	callx8	a6
    8908:	94a572        	movi	a7, 0x594
    890b:	70d582        	addmi	a8, a5, 0x7000
    890e:	089462        	l16si	a6, a4, 16
    8911:	7fd772        	addmi	a7, a7, 0x7f00
    8914:	685862        	s16i	a6, a8, 208
    8917:	dee161        	l32r	a6, 49c (9eb8 <NR_vad1>)
    891a:	0a3d           	mov.n	a3, a10
    891c:	02ad           	mov.n	a10, a2
    891e:	0994f2        	l16si	a15, a4, 18
    8921:	757a           	add.n	a7, a5, a7
    8923:	a189           	s32i.n	a8, a1, 40
    8925:	67fd           	ae_s16i.n	a15, a7, 0
    8927:	0006e0        	callx8	a6
    892a:	dedd61        	l32r	a6, 4a0 (a000 <NR_vad2>)
    892d:	02ad           	mov.n	a10, a2
    892f:	0006e0        	callx8	a6
    8932:	dee561        	l32r	a6, 4c8 (a164 <NR_vad2_low>)
    8935:	02ad           	mov.n	a10, a2
    8937:	04bd           	mov.n	a11, a4
    8939:	03cd           	mov.n	a12, a3
    893b:	0006e0        	callx8	a6
    893e:	ded931        	l32r	a3, 4a4 (a354 <NR_NoiseEstimate>)
    8941:	02ad           	mov.n	a10, a2
    8943:	0003e0        	callx8	a3
    8946:	9ca032        	movi	a3, 156
    8949:	75d332        	addmi	a3, a3, 0x7500
    894c:	a53a           	add.n	a10, a5, a3
    894e:	37bd           	ae_l16si.n	a11, a7, 2
    8950:	dedf31        	l32r	a3, 4cc (9934 <est_pow_aver>)
    8953:	0003e0        	callx8	a3
    8956:	dede61        	l32r	a6, 4d0 (75c30a3d <_end+0x75c2149d>)
    8959:	0cd432        	addmi	a3, a4, 0xc00
    895c:	364a34        	ae_cvtq48a32s	aeq1, a10
    895f:	600324        	ae_lq32f.i	aeq0, a3, 8
    8962:	308664        	ae_cvtp24a16x2.lh	aep0, a6, a6
    8965:	0c008181ff 	{ movi	a15, 0x181; ae_mulzaafq32sp16s.lh	aeq0, aeq0, aep0, aeq1, aep0 }
    896a:	116fd0        	slli	a6, a15, 3
    896d:	fc247033ae 	{ l32i	a10, a3, 12; ae_roundsq32asym	aeq0, aeq0 }
    8972:	628464        	ae_sq32f.x	aeq0, a4, a6
    8975:	23b8           	l32i.n	a11, a3, 8
    8977:	ded771        	l32r	a7, 4d4 (9688 <two_mic_WB_NR_NSN_proc+0xb18>)
    897a:	70d562        	addmi	a6, a5, 0x7000
    897d:	5caab7        	bge	a10, a11, 89dd <two_mic_WB_NR_proc+0x165>
    8980:	de3761        	l32r	a6, 25c (be9c <airoha_divide>)
    8983:	0006e0        	callx8	a6
    8986:	ded371        	l32r	a7, 4d4 (9688 <two_mic_WB_NR_NSN_proc+0xb18>)
    8989:	6090a0        	neg	a9, a10
    898c:	400900        	ssr	a9
    898f:	757a           	add.n	a7, a5, a7
    8991:	b1e0b0        	sra	a14, a11
    8994:	47dd           	ae_l16ui.n	a13, a7, 0
    8996:	300dd4        	ae_cvtp24a16x2.ll	aep0, a13, a13
    8999:	360e34        	ae_cvtq48a32s	aeq0, a14
    899c:	d4e213c66f 	{ or	a12, a6, a6; ae_mulfq32sp16s.l	aeq0, aeq0, aep0 }
    89a1:	41e9           	s32i.n	a14, a1, 16
    89a3:	620144        	ae_sq32f.i	aeq0, a1, 16
    89a6:	10c162        	addi	a6, a1, 16
    89a9:	23a8           	l32i.n	a10, a3, 8
    89ab:	33b8           	l32i.n	a11, a3, 12
    89ad:	70d582        	addmi	a8, a5, 0x7000
    89b0:	0911f2        	l16ui	a15, a1, 18
    89b3:	6058f2        	s16i	a15, a8, 192
    89b6:	000ce0        	callx8	a12
    89b9:	ddc331        	l32r	a3, c8 (9cc <HIFI_sqrt>)
    89bc:	0003e0        	callx8	a3
    89bf:	573d           	ae_l16ui.n	a3, a7, 2
    89c1:	300334        	ae_cvtp24a16x2.ll	aep0, a3, a3
    89c4:	360b34        	ae_cvtq48a32s	aeq0, a11
    89c7:	d4e21441bf 	{ s32i.n	a11, a1, 16; ae_mulfq32sp16s.l	aeq0, aeq0, aep0 }
    89cc:	fc24fe8a0f 	{ ae_slaasq56s	aeq0, aeq0, a10; nop }
    89d1:	060834        	ae_roundsq32sym	aeq0, aeq0
    89d4:	620604        	ae_sq32f.i	aeq0, a6, 0
    89d7:	091132        	l16ui	a3, a1, 18
    89da:	000206        	j	89e6 <two_mic_WB_NR_proc+0x16e>

000089dd <two_mic_WB_NR_proc+0x165>:
    89dd:	357a           	add.n	a3, a5, a7
    89df:	237d           	ae_l16si.n	a7, a3, 0
    89e1:	533d           	ae_l16ui.n	a3, a3, 2
    89e3:	605672        	s16i	a7, a6, 192
    89e6:	70d572        	addmi	a7, a5, 0x7000
    89e9:	635732        	s16i	a3, a7, 198
    89ec:	deaf31        	l32r	a3, 4a8 (a4c8 <NR_NoiseWithGain>)
    89ef:	6168           	l32i.n	a6, a1, 24
    89f1:	02ad           	mov.n	a10, a2
    89f3:	9179           	s32i.n	a7, a1, 36
    89f5:	0003e0        	callx8	a3
    89f8:	0cd432        	addmi	a3, a4, 0xc00
    89fb:	131332        	l16ui	a3, a3, 38
    89fe:	c74c           	movi.n	a7, 76
    8a00:	73d782        	addmi	a8, a7, 0x7300
    8a03:	021326        	beqi	a3, 1, 8a09 <two_mic_WB_NR_proc+0x191>
    8a06:	002346        	j	8a97 <two_mic_WB_NR_proc+0x21f>
    8a09:	70d562        	addmi	a6, a5, 0x7000
    8a0c:	a58a           	add.n	a10, a5, a8
    8a0e:	7196b2        	l16si	a11, a6, 226
    8a11:	deb131        	l32r	a3, 4d8 (9980 <est_pow_aver_x>)
    8a14:	0003e0        	callx8	a3
    8a17:	0cd462        	addmi	a6, a4, 0xc00
    8a1a:	0b9672        	l16si	a7, a6, 22
    8a1d:	129662        	l16si	a6, a6, 36
    8a20:	0cd432        	addmi	a3, a4, 0xc00
    8a23:	117780        	slli	a7, a7, 8
    8a26:	0aaa77        	bge	a10, a7, 8a34 <two_mic_WB_NR_proc+0x1bc>
    8a29:	0cd472        	addmi	a7, a4, 0xc00
    8a2c:	0c9772        	l16si	a7, a7, 24
    8a2f:	676a           	add.n	a6, a7, a6
    8a31:	000206        	j	8a3d <two_mic_WB_NR_proc+0x1c5>

00008a34 <two_mic_WB_NR_proc+0x1bc>:
    8a34:	0cd472        	addmi	a7, a4, 0xc00
    8a37:	0d9772        	l16si	a7, a7, 26
    8a3a:	c06670        	sub	a6, a6, a7
    8a3d:	a66d           	ae_clamps16	a6, a6
    8a3f:	070c           	movi.n	a7, 0
    8a41:	0cd4e2        	addmi	a14, a4, 0xc00
    8a44:	536670        	max	a6, a6, a7
    8a47:	0e9e72        	l16si	a7, a14, 28
    8a4a:	125362        	s16i	a6, a3, 36
    8a4d:	0cd432        	addmi	a3, a4, 0xc00
    8a50:	11f780        	slli	a15, a7, 8
    8a53:	0eafa7        	bge	a15, a10, 8a65 <two_mic_WB_NR_proc+0x1ed>
    8a56:	64a062        	movi	a6, 100
    8a59:	165362        	s16i	a6, a3, 44
    8a5c:	0cd432        	addmi	a3, a4, 0xc00
    8a5f:	160c           	movi.n	a6, 1
    8a61:	0004c6        	j	8a78 <two_mic_WB_NR_proc+0x200>

00008a64 <two_mic_WB_NR_proc+0x1ec>:
	...

00008a65 <two_mic_WB_NR_proc+0x1ed>:
    8a65:	169362        	l16si	a6, a3, 44
    8a68:	0716a6        	blti	a6, 1, 8a73 <two_mic_WB_NR_proc+0x1fb>
    8a6b:	660b           	addi.n	a6, a6, -1
    8a6d:	165362        	s16i	a6, a3, 44
    8a70:	0001c6        	j	8a7b <two_mic_WB_NR_proc+0x203>

00008a73 <two_mic_WB_NR_proc+0x1fb>:
    8a73:	0cd432        	addmi	a3, a4, 0xc00
    8a76:	060c           	movi.n	a6, 0
    8a78:	155362        	s16i	a6, a3, 42
    8a7b:	0cd432        	addmi	a3, a4, 0xc00
    8a7e:	109332        	l16si	a3, a3, 32
    8a81:	160c           	movi.n	a6, 1
    8a83:	0cd472        	addmi	a7, a4, 0xc00
    8a86:	113380        	slli	a3, a3, 8
    8a89:	7233a0        	salt	a3, a3, a10
    8a8c:	306360        	xor	a6, a3, a6
    8a8f:	185762        	s16i	a6, a7, 48
    8a92:	6168           	l32i.n	a6, a1, 24
    8a94:	175732        	s16i	a3, a7, 46
    8a97:	98a5f2        	movi	a15, 0x598
    8a9a:	282632        	l32i	a3, a6, 160
    8a9d:	7fdf62        	addmi	a6, a15, 0x7f00
    8aa0:	0bd472        	addmi	a7, a4, 0xb00
    8aa3:	656a           	add.n	a6, a5, a6
    8aa5:	7a1782        	l16ui	a8, a7, 244
    8aa8:	469d           	ae_l16ui.n	a9, a6, 0
    8aaa:	08d332        	addmi	a3, a3, 0x800
    8aad:	0bd4f2        	addmi	a15, a4, 0xb00
    8ab0:	161987        	beq	a9, a8, 8aca <two_mic_WB_NR_proc+0x252>
    8ab3:	88dd           	ae_sext16	a13, a8
    8ab5:	392fb2        	l32i	a11, a15, 228
    8ab8:	de8981        	l32r	a8, 4dc (9ce8 <equal_power>)
    8abb:	89cd           	ae_sext16	a12, a9
    8abd:	eea0e2        	movi	a14, 238
    8ac0:	03ad           	mov.n	a10, a3
    8ac2:	0008e0        	callx8	a8
    8ac5:	7a57a2        	s16i	a10, a7, 244
    8ac8:	66ad           	ae_s16i.n	a10, a6, 0
    8aca:	0bd462        	addmi	a6, a4, 0xb00
    8acd:	392662        	l32i	a6, a6, 228
    8ad0:	eea072        	movi	a7, 238
    8ad3:	600304        	ae_lq32f.i	aeq0, a3, 0
    8ad6:	fcc662        	addi	a6, a6, -4
    8ad9:	0a8776        	loop	a7, 8ae7 <two_mic_WB_NR_proc+0x26f>
    8adc:	605614        	ae_lq32f.iu	aeq1, a6, 4
    8adf:	f96b3d131f 	{ ae_lq32f.iu	aeq0, a3, 4; ae_maxq56s	aeq1, aeq0, aeq1 }
    8ae4:	6213f4        	ae_sq32f.i	aeq1, a3, -4

00008ae7 <two_mic_WB_NR_proc+0x26f>:
    8ae7:	6168           	l32i.n	a6, a1, 24
    8ae9:	02ad           	mov.n	a10, a2
    8aeb:	04bd           	mov.n	a11, a4
    8aed:	d60632        	l8ui	a3, a6, 214
    8af0:	056327        	bbci	a3, 2, 8af9 <two_mic_WB_NR_proc+0x281>
    8af3:	de6e31        	l32r	a3, 4ac (b138 <WB_NR_IE_frame_process>)
    8af6:	0003e0        	callx8	a3

00008af9 <two_mic_WB_NR_proc+0x281>:
    8af9:	de6d31        	l32r	a3, 4b0 (a598 <NR_WienerFilter>)
    8afc:	02ad           	mov.n	a10, a2
    8afe:	04bd           	mov.n	a11, a4
    8b00:	0003e0        	callx8	a3
    8b03:	04cd           	mov.n	a12, a4
    8b05:	8148           	l32i.n	a4, a1, 32
    8b07:	de6b31        	l32r	a3, 4b4 (7f0 <comfort_noise_gen_wb>)
    8b0a:	51b8           	l32i.n	a11, a1, 20
    8b0c:	02ad           	mov.n	a10, a2
    8b0e:	20d440        	or	a13, a4, a4
    8b11:	0003e0        	callx8	a3
    8b14:	d60632        	l8ui	a3, a6, 214
    8b17:	072172        	l32i	a7, a1, 28
    8b1a:	0a2182        	l32i	a8, a1, 40
    8b1d:	3fe307        	bbsi	a3, 0, 8b60 <two_mic_WB_NR_proc+0x2e8>
    8b20:	03d732        	addmi	a3, a7, 0x300
    8b23:	4b1332        	l16ui	a3, a3, 150
    8b26:	2826c2        	l32i	a12, a6, 160
    8b29:	331366        	bnei	a3, 1, 8b60 <two_mic_WB_NR_proc+0x2e8>
    8b2c:	00a272        	movi	a7, 0x200
    8b2f:	689832        	l16si	a3, a8, 208
    8b32:	fccc62        	addi	a6, a12, -4
    8b35:	0c8776        	loop	a7, 8b45 <two_mic_WB_NR_proc+0x2cd>
    8b38:	fc0c2c841f 	{ ae_lp16f.iu	aep0, a4, 2; ae_cvtq48p24s.l	aeq0, aep0 }
    8b3d:	fc24fe830f 	{ ae_slaasq56s	aeq0, aeq0, a3; nop }
    8b42:	624614        	ae_sq32f.iu	aeq0, a6, 4

00008b45 <two_mic_WB_NR_proc+0x2cd>:
    8b45:	de6631        	l32r	a3, 4e0 (965c <two_mic_WB_NR_NSN_proc+0xaec>)
    8b48:	9148           	l32i.n	a4, a1, 36
    8b4a:	71a8           	l32i.n	a10, a1, 28
    8b4c:	353a           	add.n	a3, a5, a3
    8b4e:	03b8           	l32i.n	a11, a3, 0
    8b50:	6394d2        	l16si	a13, a4, 198
    8b53:	de5931        	l32r	a3, 4b8 (2f3c <subband_comfort_noise>)
    8b56:	eea0e2        	movi	a14, 238
    8b59:	0f0c           	movi.n	a15, 0
    8b5b:	0003e0        	callx8	a3
    8b5e:	8148           	l32i.n	a4, a1, 32

00008b60 <two_mic_WB_NR_proc+0x2e8>:
    8b60:	de5731        	l32r	a3, 4bc (ad88 <ifft_wo>)
    8b63:	b1b8           	l32i.n	a11, a1, 44
    8b65:	02ad           	mov.n	a10, a2
    8b67:	04cd           	mov.n	a12, a4
    8b69:	0003e0        	callx8	a3
    8b6c:	f01d           	retw.n

00008b6e <two_mic_WB_NR_proc+0x2f6>:
	...

00008b70 <two_mic_WB_NR_NSN_proc>:
    8b70:	012136        	entry	a1, 144
    8b73:	c139           	s32i.n	a3, a1, 48
    8b75:	3802a2        	l8ui	a10, a2, 56
    8b78:	dd5331        	l32r	a3, c4 (9cc8 <get_sb_ptn_addr>)
    8b7b:	e149           	s32i.n	a4, a1, 56
    8b7d:	0003e0        	callx8	a3
    8b80:	380292        	l8ui	a9, a2, 56
    8b83:	de5831        	l32r	a3, 4e4 (e800 <fftorder_1024_12b>)
    8b86:	9e0c           	movi.n	a14, 9
    8b88:	d199           	s32i.n	a9, a1, 52
    8b8a:	00a242        	movi	a4, 0x200
    8b8d:	00a1f2        	movi	a15, 0x100
    8b90:	629e90        	saltu	a9, a14, a9
    8b93:	e0a172        	movi	a7, 0x1e0
    8b96:	f0a0b2        	movi	a11, 240
    8b99:	93f490        	movnez	a15, a4, a9
    8b9c:	93b790        	movnez	a11, a7, a9
    8b9f:	832b           	addi.n	a8, a3, 2
    8ba1:	334b           	addi.n	a3, a3, 4
    8ba3:	106122        	s32i	a2, a1, 64
    8ba6:	1561a2        	s32i	a10, a1, 84
    8ba9:	933890        	movnez	a3, a8, a9
    8bac:	f1f9           	s32i.n	a15, a1, 60
    8bae:	020c           	movi.n	a2, 0
    8bb0:	054d           	mov.n	a4, a5
    8bb2:	067d           	mov.n	a7, a6
    8bb4:	1261b2        	s32i	a11, a1, 72
    8bb7:	138b76        	loop	a11, 8bce <two_mic_WB_NR_NSN_proc+0x5e>
    8bba:	248d           	ae_l16si.n	a8, a4, 0
    8bbc:	27fd           	ae_l16si.n	a15, a7, 0
    8bbe:	442b           	addi.n	a4, a4, 2
    8bc0:	608180        	abs	a8, a8
    8bc3:	202820        	or	a2, a8, a2
    8bc6:	6081f0        	abs	a8, a15
    8bc9:	772b           	addi.n	a7, a7, 2
    8bcb:	202280        	or	a2, a2, a8

00008bce <two_mic_WB_NR_NSN_proc+0x5e>:
    8bce:	40e220        	nsa	a2, a2
    8bd1:	102182        	l32i	a8, a1, 64
    8bd4:	116122        	s32i	a2, a1, 68
    8bd7:	d128           	l32i.n	a2, a1, 52
    8bd9:	990c           	movi.n	a9, 9
    8bdb:	179842        	l16si	a4, a8, 46
    8bde:	622920        	saltu	a2, a9, a2
    8be1:	dd44a1        	l32r	a10, f4 (f500 <wb_score_bands>)
    8be4:	25d8f2        	addmi	a15, a8, 0x2500
    8be7:	0898           	l32i.n	a9, a8, 0
    8be9:	dd4181        	l32r	a8, f0 (f560 <swb_score_bands>)
    8bec:	c1c8           	l32i.n	a12, a1, 48
    8bee:	136142        	s32i	a4, a1, 76
    8bf1:	88a742        	movi	a4, 0x788
    8bf4:	93a820        	movnez	a10, a8, a2
    8bf7:	1661a2        	s32i	a10, a1, 88
    8bfa:	1a0c           	movi.n	a10, 1
    8bfc:	0bdce2        	addmi	a14, a12, 0xb00
    8bff:	4584c4        	ae_lp16x2f.xu	aep0, a4, a12
    8c02:	1121c2        	l32i	a12, a1, 68
    8c05:	118a50        	slli	a8, a10, 11
    8c08:	00a472        	movi	a7, 0x400
    8c0b:	f1a8           	l32i.n	a10, a1, 60
    8c0d:	937820        	movnez	a7, a8, a2
    8c10:	146172        	s32i	a7, a1, 80
    8c13:	f0cc72        	addi	a7, a12, -16
    8c16:	1321c2        	l32i	a12, a1, 76
    8c19:	0d0c           	movi.n	a13, 0
    8c1b:	4181a0        	srli	a8, a10, 1
    8c1e:	322fa2        	l32i	a10, a15, 200
    8c21:	eea0b2        	movi	a11, 238
    8c24:	dca1f2        	movi	a15, 0x1dc
    8c27:	93bf20        	movnez	a11, a15, a2
    8c2a:	332ef2        	l32i	a15, a14, 204
    8c2d:	5377d0        	max	a7, a7, a13
    8c30:	196172        	s32i	a7, a1, 100
    8c33:	4377c0        	min	a7, a7, a12
    8c36:	031674        	wur.ae_sar	a7
    8c39:	2c0c           	movi.n	a12, 2
    8c3b:	f823d52c2f 	{ sub	a2, a12, a2; ae_sllssp24s	aep1, aep0 }
    8c40:	442f04        	ae_lp16x2f.i	aep2, a15, 0
    8c43:	b1b9           	s32i.n	a11, a1, 44
    8c45:	116172        	s32i	a7, a1, 68
    8c48:	b94b           	addi.n	a11, a9, 4
    8c4a:	f92bad0a0f 	{ ae_lp16x2f.i	aep0, a10, 0; ae_sllssp24s	aep2, aep2 }
    8c4f:	11c2e0        	slli	a12, a2, 2
    8c52:	1172f0        	slli	a7, a2, 1
    8c55:	136122        	s32i	a2, a1, 76
    8c58:	2a8876        	loop	a8, 8c86 <two_mic_WB_NR_NSN_proc+0x116>
    8c5b:	e808a0032e 	{ l16si	a2, a3, 0; ae_mulfp24s.hh	aeq0, aep2, aep0 }
    8c60:	e804d0837f 	{ add	a8, a3, a7; ae_mulfp24s.hh	aeq1, aep1, aep0 }
    8c65:	eb09b84bdf 	{ ae_sq32f.x	aeq0, a11, a13; ae_mulfp24s.ll	aeq2, aep2, aep0 }
    8c6a:	eb05f859df 	{ ae_sq32f.x	aeq1, a9, a13; ae_mulfp24s.ll	aeq3, aep1, aep0 }
    8c6f:	28dd           	ae_l16si.n	a13, a8, 0
    8c71:	44e414        	ae_lp16x2f.iu	aep6, a4, 4
    8c74:	f83bedff1f 	{ ae_lp16x2f.iu	aep7, a15, 4; ae_sllssp24s	aep1, aep6 }
    8c79:	f93fb86b2f 	{ ae_sq32f.x	aeq2, a11, a2; ae_sllssp24s	aep2, aep7 }
    8c7e:	448a14        	ae_lp16x2f.iu	aep0, a10, 4
    8c81:	33ca           	add.n	a3, a3, a12
    8c83:	62b924        	ae_sq32f.x	aeq3, a9, a2
    8c86:	c128           	l32i.n	a2, a1, 48
    8c88:	fc20f1214e 	{ l32i	a4, a1, 72; ae_zerop48	aep1 }
    8c8d:	84a7f2        	movi	a15, 0x784
    8c90:	f2fa           	add.n	a15, a2, a15
    8c92:	904420        	addx2	a4, a4, a2
    8c95:	d128           	l32i.n	a2, a1, 52
    8c97:	332e82        	l32i	a8, a14, 204
    8c9a:	88a7e2        	movi	a14, 0x788
    8c9d:	4534e4        	ae_lp16x2f.x	aep3, a4, a14
    8ca0:	44ea           	add.n	a4, a4, a14
    8ca2:	9e0c           	movi.n	a14, 9
    8ca4:	62ee20        	saltu	a14, a14, a2
    8ca7:	820c           	movi.n	a2, 8
    8ca9:	b02e20        	addx8	a2, a14, a2
    8cac:	d129           	s32i.n	a2, a1, 52
    8cae:	122122        	l32i	a2, a1, 72
    8cb1:	fcc8e2        	addi	a14, a8, -4
    8cb4:	902280        	addx2	a2, a2, a8
    8cb7:	0d2182        	l32i	a8, a1, 52
    8cba:	442204        	ae_lp16x2f.i	aep2, a2, 0
    8cbd:	138876        	loop	a8, 8cd4 <two_mic_WB_NR_NSN_proc+0x164>
    8cc0:	fc6833bf1f 	{ ae_sp16x2f.iu	aep3, a15, 4; ae_abssp24s	aep0, aep3 }
    8cc5:	fe4833ae1f 	{ ae_sp16x2f.iu	aep2, a14, 4; ae_abssp24s	aep4, aep2 }
    8cca:	dc042db41f 	{ ae_lp16x2f.iu	aep3, a4, 4; ae_orp48	aep0, aep1, aep0 }
    8ccf:	dc806da21f 	{ ae_lp16x2f.iu	aep2, a2, 4; ae_orp48	aep1, aep0, aep4 }
    8cd4:	448af4        	ae_lp16x2f.iu	aep0, a10, -4
    8cd7:	3a8876        	loop	a8, 8d15 <two_mic_WB_NR_NSN_proc+0x1a5>
    8cda:	fa2fa0038e 	{ l16si	a8, a3, 0; ae_sllssp24s	aep4, aep3 }
    8cdf:	fa2bf3bf1f 	{ ae_sp16x2f.iu	aep3, a15, 4; ae_sllssp24s	aep5, aep2 }
    8ce4:	ea14b3ae1f 	{ ae_sp16x2f.iu	aep2, a14, 4; ae_mulfp24s.hl	aeq0, aep5, aep0 }
    8ce9:	014854        	ae_mulfp24s.hl	aeq1, aep4, aep0
    8cec:	ff68384bdf 	{ ae_sq32f.x	aeq0, a11, a13; ae_abssp24s	aep6, aep3 }
    8cf1:	e915f859df 	{ ae_sq32f.x	aeq1, a9, a13; ae_mulfp24s.lh	aeq3, aep5, aep0 }
    8cf6:	e91190d37f 	{ add	a13, a3, a7; ae_mulfp24s.lh	aeq2, aep4, aep0 }
    8cfb:	ff48600dde 	{ l16si	a13, a13, 0; ae_abssp24s	aep7, aep2 }
    8d00:	dcc4787b8f 	{ ae_sq32f.x	aeq3, a11, a8; ae_orp48	aep1, aep1, aep6 }
    8d05:	33ca           	add.n	a3, a3, a12
    8d07:	dce46d8aff 	{ ae_lp16x2f.iu	aep0, a10, -4; ae_orp48	aep1, aep1, aep7 }
    8d0c:	44b414        	ae_lp16x2f.iu	aep3, a4, 4
    8d0f:	44a214        	ae_lp16x2f.iu	aep2, a2, 4
    8d12:	62a984        	ae_sq32f.x	aeq2, a9, a8
    8d15:	0094d4        	ae_cvta32p24.h	a4, aep1
    8d18:	0017d4        	ae_cvta32p24.l	a7, aep1
    8d1b:	122122        	l32i	a2, a1, 72
    8d1e:	204470        	or	a4, a4, a7
    8d21:	192172        	l32i	a7, a1, 100
    8d24:	40e440        	nsa	a4, a4
    8d27:	418120        	srli	a8, a2, 1
    8d2a:	434740        	min	a4, a7, a4
    8d2d:	102172        	l32i	a7, a1, 64
    8d30:	132122        	l32i	a2, a1, 76
    8d33:	175742        	s16i	a4, a7, 46
    8d36:	902230        	addx2	a2, a2, a3
    8d39:	442504        	ae_lp16x2f.i	aep2, a5, 0
    8d3c:	441604        	ae_lp16x2f.i	aep1, a6, 0
    8d3f:	2f8876        	loop	a8, 8d72 <two_mic_WB_NR_NSN_proc+0x202>
    8d42:	f92bf3af1f 	{ ae_sp16x2f.iu	aep2, a15, 4; ae_sllssp24s	aep3, aep2 }
    8d47:	fa27b39e1f 	{ ae_sp16x2f.iu	aep1, a14, 4; ae_sllssp24s	aep4, aep1 }
    8d4c:	ea10a0034e 	{ l16si	a4, a3, 0; ae_mulfp24s.hl	aeq0, aep4, aep0 }
    8d51:	ea0ceda51f 	{ ae_lp16x2f.iu	aep2, a5, 4; ae_mulfp24s.hl	aeq1, aep3, aep0 }
    8d56:	e90db84bdf 	{ ae_sq32f.x	aeq0, a11, a13; ae_mulfp24s.lh	aeq2, aep3, aep0 }
    8d5b:	e911f859df 	{ ae_sq32f.x	aeq1, a9, a13; ae_mulfp24s.lh	aeq3, aep4, aep0 }
    8d60:	22dd           	ae_l16si.n	a13, a2, 0
    8d62:	62bb44        	ae_sq32f.x	aeq3, a11, a4
    8d65:	448af4        	ae_lp16x2f.iu	aep0, a10, -4
    8d68:	449614        	ae_lp16x2f.iu	aep1, a6, 4
    8d6b:	33ca           	add.n	a3, a3, a12
    8d6d:	22ca           	add.n	a2, a2, a12
    8d6f:	62a944        	ae_sq32f.x	aeq2, a9, a4
    8d72:	102132        	l32i	a3, a1, 64
    8d75:	f148           	l32i.n	a4, a1, 60
    8d77:	dddc21        	l32r	a2, 4e8 (c408 <sw_fft_32b_2811>)
    8d7a:	03a8           	l32i.n	a10, a3, 0
    8d7c:	11b4f0        	slli	a11, a4, 1
    8d7f:	8c0c           	movi.n	a12, 8
    8d81:	1d0c           	movi.n	a13, 1
    8d83:	1e0c           	movi.n	a14, 1
    8d85:	0002e0        	callx8	a2
    8d88:	c198           	l32i.n	a9, a1, 48
    8d8a:	0368           	l32i.n	a6, a3, 0
    8d8c:	142172        	l32i	a7, a1, 80
    8d8f:	0bd9f2        	addmi	a15, a9, 0xb00
    8d92:	112152        	l32i	a5, a1, 68
    8d95:	342f22        	l32i	a2, a15, 208
    8d98:	352f32        	l32i	a3, a15, 212
    8d9b:	a08760        	addx4	a8, a7, a6
    8d9e:	c0a5a0        	sub	a10, a5, a10
    8da1:	600624        	ae_lq32f.i	aeq0, a6, 8
    8da4:	6048e4        	ae_lq32f.i	aeq1, a8, -8
    8da7:	568b           	addi.n	a5, a6, 8
    8da9:	fa660f886e 	{ addi	a6, a8, -8; ae_addq56	aeq2, aeq0, aeq1 }
    8dae:	0859a2        	s16i	a10, a9, 16
    8db1:	fcc272        	addi	a7, a2, -4
    8db4:	f8c382        	addi	a8, a3, -8
    8db7:	2b8476        	loop	a4, 8de6 <two_mic_WB_NR_NSN_proc+0x276>
    8dba:	f82afb209f 	{ ae_sraiq56	aeq2, aeq2, 1; ae_subq56	aeq0, aeq1, aeq0 }
    8dbf:	60c514        	ae_lq32f.i	aeq3, a5, 4
    8dc2:	604614        	ae_lq32f.i	aeq1, a6, 4
    8dc5:	350074        	ae_sraiq56	aeq0, aeq0, 1
    8dc8:	fa3ef9a71f 	{ ae_sq32f.i	aeq2, a7, 4; ae_subq56	aeq2, aeq3, aeq1 }
    8dcd:	fb7e39883f 	{ ae_sq32f.i	aeq0, a8, 12; ae_addq56	aeq3, aeq3, aeq1 }
    8dd2:	35a074        	ae_sraiq56	aeq2, aeq2, 1
    8dd5:	35f074        	ae_sraiq56	aeq3, aeq3, 1
    8dd8:	601524        	ae_lq32f.iu	aeq0, a5, 8
    8ddb:	6056e4        	ae_lq32f.iu	aeq1, a6, -8
    8dde:	fa6639e72f 	{ ae_sq32f.iu	aeq2, a7, 8; ae_addq56	aeq2, aeq0, aeq1 }
    8de3:	627824        	ae_sq32f.iu	aeq3, a8, 8
    8de6:	0bd9b2        	addmi	a11, a9, 0xb00
    8de9:	362bd2        	l32i	a13, a11, 216
    8dec:	372be2        	l32i	a14, a11, 220
    8def:	b1f8           	l32i.n	a15, a1, 44
    8df1:	5c1234        	ae_lp24x2f.i	aep1, a2, 24
    8df4:	116af0        	slli	a6, a10, 1
    8df7:	170c           	movi.n	a7, 1
    8df9:	f02795c76f 	{ sub	a12, a7, a6; ae_mulzaap24s.hh.ll	aeq0, aep1, aep1 }
    8dfe:	18c242        	addi	a4, a2, 24
    8e01:	18c352        	addi	a5, a3, 24
    8e04:	5c0334        	ae_lp24x2f.i	aep0, a3, 24
    8e07:	1861b2        	s32i	a11, a1, 96
    8e0a:	0959c2        	s16i	a12, a9, 18
    8e0d:	915bc2        	s16i	a12, a11, 0x122
    8e10:	fccd22        	addi	a2, a13, -4
    8e13:	fcce32        	addi	a3, a14, -4
    8e16:	0f8f76        	loop	a15, 8e29 <two_mic_WB_NR_NSN_proc+0x2b9>
    8e19:	f003f9c21f 	{ ae_sq32f.iu	aeq0, a2, 4; ae_mulzaap24s.hh.ll	aeq1, aep0, aep0 }
    8e1e:	625314        	ae_sq32f.iu	aeq1, a3, 4
    8e21:	5c9414        	ae_lp24x2f.iu	aep1, a4, 8
    8e24:	f027af851f 	{ ae_lp24x2f.iu	aep0, a5, 8; ae_mulzaap24s.hh.ll	aeq0, aep1, aep1 }
    8e29:	392d           	ae_l16si.n	a2, a9, 2
    8e2b:	037c           	movi.n	a3, -16
    8e2d:	e1b8           	l32i.n	a11, a1, 56
    8e2f:	1042a6        	blti	a2, 4, 8e43 <two_mic_WB_NR_NSN_proc+0x2d3>
    8e32:	0cd922        	addmi	a2, a9, 0xc00
    8e35:	223d           	ae_l16si.n	a3, a2, 0
    8e37:	e1b8           	l32i.n	a11, a1, 56
    8e39:	040c           	movi.n	a4, 0
    8e3b:	330b           	addi.n	a3, a3, -1
    8e3d:	533340        	max	a3, a3, a4
    8e40:	0007c6        	j	8e63 <two_mic_WB_NR_NSN_proc+0x2f3>

00008e43 <two_mic_WB_NR_NSN_proc+0x2d3>:
    8e43:	0d2327        	blt	a3, a2, 8e54 <two_mic_WB_NR_NSN_proc+0x2e4>
    8e46:	0cd922        	addmi	a2, a9, 0xc00
    8e49:	223d           	ae_l16si.n	a3, a2, 0
    8e4b:	e1b8           	l32i.n	a11, a1, 56
    8e4d:	043c           	movi.n	a4, 48
    8e4f:	335b           	addi.n	a3, a3, 5
    8e51:	0002c6        	j	8e60 <two_mic_WB_NR_NSN_proc+0x2f0>

00008e54 <two_mic_WB_NR_NSN_proc+0x2e4>:
    8e54:	0d02e6        	bgei	a2, -1, 8e65 <two_mic_WB_NR_NSN_proc+0x2f5>
    8e57:	0cd922        	addmi	a2, a9, 0xc00
    8e5a:	223d           	ae_l16si.n	a3, a2, 0
    8e5c:	043c           	movi.n	a4, 48
    8e5e:	333b           	addi.n	a3, a3, 3
    8e60:	433340        	min	a3, a3, a4
    8e63:	623d           	ae_s16i.n	a3, a2, 0
    8e65:	049922        	l16si	a2, a9, 8
    8e68:	837c           	movi.n	a3, -8
    8e6a:	dcb141        	l32r	a4, 130 (7fff0000 <_end+0x7ffe0a60>)
    8e6d:	102327        	blt	a3, a2, 8e81 <two_mic_WB_NR_NSN_proc+0x311>
    8e70:	0cd922        	addmi	a2, a9, 0xc00
    8e73:	322d           	ae_l16si.n	a2, a2, 2
    8e75:	112200        	slli	a2, a2, 16
    8e78:	360234        	ae_cvtq48a32s	aeq0, a2
    8e7b:	dd9c21        	l32r	a2, 4ec (7f5c00a4 <_end+0x7f5b0b04>)
    8e7e:	000146        	j	8e87 <two_mic_WB_NR_NSN_proc+0x317>

00008e81 <two_mic_WB_NR_NSN_proc+0x311>:
    8e81:	360434        	ae_cvtq48a32s	aeq0, a4
    8e84:	dd9b21        	l32r	a2, 4f0 (7ff00010 <_end+0x7fef0a70>)
    8e87:	102142        	l32i	a4, a1, 64
    8e8a:	308224        	ae_cvtp24a16x2.lh	aep0, a2, a2
    8e8d:	dca0d2        	movi	a13, 220
    8e90:	25d432        	addmi	a3, a4, 0x2500
    8e93:	176132        	s32i	a3, a1, 92
    8e96:	372332        	l32i	a3, a3, 220
    8e99:	364334        	ae_cvtq48a32s	aeq1, a3
    8e9c:	0c010004ff 	{ movi	a15, 4; ae_mulzaafq32sp16s.lh	aeq0, aeq1, aep0, aeq0, aep0 }
    8ea1:	3604e2        	l8ui	a14, a4, 54
    8ea4:	25dd22        	addmi	a2, a13, 0x2500
    8ea7:	fc244001cf 	{ movi	a12, 1; ae_roundsq32asym	aeq0, aeq0 }
    8eac:	10def0        	and	a13, a14, a15
    8eaf:	628424        	ae_sq32f.x	aeq0, a4, a2
    8eb2:	086e27        	bbci	a14, 2, 8ebe <two_mic_WB_NR_NSN_proc+0x34e>
    8eb5:	02db22        	addmi	a2, a11, 0x200
    8eb8:	890222        	l8ui	a2, a2, 137
    8ebb:	01e257        	bbsi	a2, 5, 8ec0 <two_mic_WB_NR_NSN_proc+0x350>
    8ebe:	0c0c           	movi.n	a12, 0
    8ec0:	dd8d21        	l32r	a2, 4f4 (c9e8 <Pitch_2Mic>)
    8ec3:	09ad           	mov.n	a10, a9
    8ec5:	0bd952        	addmi	a5, a9, 0xb00
    8ec8:	0002e0        	callx8	a2
    8ecb:	c1d8           	l32i.n	a13, a1, 48
    8ecd:	140c           	movi.n	a4, 1
    8ecf:	014430        	slli	a4, a4, 29
    8ed2:	0bdd32        	addmi	a3, a13, 0xb00
    8ed5:	7b1322        	l16ui	a2, a3, 246
    8ed8:	fd2094d15f 	{ s32i.n	a5, a1, 52; ae_zerop48	aep2 }
    8edd:	1b6132        	s32i	a3, a1, 108
    8ee0:	0222f6        	bgeui	a2, 2, 8ee6 <two_mic_WB_NR_NSN_proc+0x376>
    8ee3:	004086        	j	8fe9 <two_mic_WB_NR_NSN_proc+0x479>
    8ee6:	08dd22        	addmi	a2, a13, 0x800
    8ee9:	0cdd52        	addmi	a5, a13, 0xc00
    8eec:	dd8331        	l32r	a3, 4f8 (34ccccd <_end+0x34bd72d>)
    8eef:	ff2222        	l32i	a2, a2, 0x3fc
    8ef2:	255d           	ae_l16si.n	a5, a5, 0
    8ef4:	140c           	movi.n	a4, 1
    8ef6:	726320        	salt	a6, a3, a2
    8ef9:	014460        	slli	a4, a4, 26
    8efc:	722420        	salt	a2, a4, a2
    8eff:	530c           	movi.n	a3, 5
    8f01:	f63b           	addi.n	a15, a6, 3
    8f03:	0c15a6        	blti	a5, 1, 8f13 <two_mic_WB_NR_NSN_proc+0x3a3>
    8f06:	0cdd42        	addmi	a4, a13, 0xc00
    8f09:	1458           	l32i.n	a5, a4, 4
    8f0b:	3448           	l32i.n	a4, a4, 12
    8f0d:	aea792        	movi	a9, 0x7ae
    8f10:	012547        	blt	a5, a4, 8f15 <two_mic_WB_NR_NSN_proc+0x3a5>
    8f13:	090c           	movi.n	a9, 0
    8f15:	93f320        	movnez	a15, a3, a2
    8f18:	0bdd22        	addmi	a2, a13, 0xb00
    8f1b:	0bdd32        	addmi	a3, a13, 0xb00
    8f1e:	0bdd42        	addmi	a4, a13, 0xb00
    8f21:	3e22d2        	l32i	a13, a2, 248
    8f24:	750c           	movi.n	a5, 7
    8f26:	0155a0        	slli	a5, a5, 22
    8f29:	725d50        	salt	a5, a13, a5
    8f2c:	d77c           	movi.n	a7, -3
    8f2e:	935d50        	movnez	a5, a13, a5
    8f31:	3823b2        	l32i	a11, a3, 224
    8f34:	dd72e1        	l32r	a14, 4fc (d9999b <_end+0xd8a3fb>)
    8f37:	3a24a2        	l32i	a10, a4, 232
    8f3a:	017790        	slli	a7, a7, 23
    8f3d:	dd5a           	add.n	a13, a13, a5
    8f3f:	5d7a           	add.n	a5, a13, a7
    8f41:	418190        	srli	a8, a9, 1
    8f44:	1c0c           	movi.n	a12, 1
    8f46:	fccb62        	addi	a6, a11, -4
    8f49:	fcca72        	addi	a7, a10, -4
    8f4c:	e1f9           	s32i.n	a15, a1, 56
    8f4e:	3a25e7        	blt	a5, a14, 8f8c <two_mic_WB_NR_NSN_proc+0x41c>
    8f51:	dd6bc1        	l32r	a12, 500 (fe266666 <_end+0xfe2570c6>)
    8f54:	5e0c           	movi.n	a14, 5
    8f56:	01ee40        	slli	a14, a14, 28
    8f59:	f89a           	add.n	a15, a8, a9
    8f5b:	360e34        	ae_cvtq48a32s	aeq0, a14
    8f5e:	11ef00        	slli	a14, a15, 16
    8f61:	cdca           	add.n	a12, a13, a12
    8f63:	fd7c           	movi.n	a13, -1
    8f65:	c0efe0        	sub	a14, a15, a14
    8f68:	1f0c           	movi.n	a15, 1
    8f6a:	c0ccf0        	sub	a12, a12, a15
    8f6d:	01dd10        	slli	a13, a13, 31
    8f70:	deda           	add.n	a13, a14, a13
    8f72:	e1f8           	l32i.n	a15, a1, 56
    8f74:	1e0c           	movi.n	a14, 1
    8f76:	85c7c0        	extui	a12, a12, 23, 9
    8f79:	53ece0        	max	a14, a12, a14
    8f7c:	1c0c           	movi.n	a12, 1
    8f7e:	308dd4        	ae_cvtp24a16x2.lh	aep0, a13, a13
    8f81:	078e76        	loop	a14, 8f8c <two_mic_WB_NR_NSN_proc+0x41c>
    8f84:	468614        	ae_sp16x2f.iu	aep0, a6, 4
    8f87:	624714        	ae_sq32f.iu	aeq0, a7, 4
    8f8a:	cc1b           	addi.n	a12, a12, 1

00008f8c <two_mic_WB_NR_NSN_proc+0x41c>:
    8f8c:	fd7c           	movi.n	a13, -1
    8f8e:	11e910        	slli	a14, a9, 15
    8f91:	fd209588ef 	{ sub	a8, a8, a14; ae_zerop48	aep2 }
    8f96:	01dd10        	slli	a13, a13, 31
    8f99:	88da           	add.n	a8, a8, a13
    8f9b:	308884        	ae_cvtp24a16x2.lh	aep0, a8, a8
    8f9e:	152182        	l32i	a8, a1, 84
    8fa1:	468614        	ae_sp16x2f.iu	aep0, a6, 4
    8fa4:	1e0c           	movi.n	a14, 1
    8fa6:	908f80        	addx2	a8, a15, a8
    8fa9:	fec882        	addi	a8, a8, -2
    8fac:	288d           	ae_l16si.n	a8, a8, 0
    8fae:	01ee30        	slli	a14, a14, 29
    8fb1:	360e34        	ae_cvtq48a32s	aeq0, a14
    8fb4:	883b           	addi.n	a8, a8, 3
    8fb6:	018890        	slli	a8, a8, 23
    8fb9:	624714        	ae_sq32f.iu	aeq0, a7, 4
    8fbc:	630114        	ae_sq56s.i	aeq0, a1, 8
    8fbf:	022857        	blt	a8, a5, 8fc5 <two_mic_WB_NR_NSN_proc+0x455>
    8fc2:	018e46        	j	95ff <two_mic_WB_NR_NSN_proc+0xa8f>

00008fc5 <two_mic_WB_NR_NSN_proc+0x455>:
    8fc5:	b138           	l32i.n	a3, a1, 44
    8fc7:	e148           	l32i.n	a4, a1, 56
    8fc9:	c1d8           	l32i.n	a13, a1, 48
    8fcb:	d158           	l32i.n	a5, a1, 52
    8fcd:	2c0b           	addi.n	a2, a12, -1
    8fcf:	610114        	ae_lq56.i	aeq0, a1, 8
    8fd2:	32a237        	bge	a2, a3, 9008 <two_mic_WB_NR_NSN_proc+0x498>
    8fd5:	b128           	l32i.n	a2, a1, 44
    8fd7:	c022c0        	sub	a2, a2, a12
    8fda:	01c222        	addi	a2, a2, 1
    8fdd:	058276        	loop	a2, 8fe6 <two_mic_WB_NR_NSN_proc+0x476>
    8fe0:	46a614        	ae_sp16x2f.iu	aep2, a6, 4
    8fe3:	624714        	ae_sq32f.iu	aeq0, a7, 4

00008fe6 <two_mic_WB_NR_NSN_proc+0x476>:
    8fe6:	000786        	j	9008 <two_mic_WB_NR_NSN_proc+0x498>

00008fe9 <two_mic_WB_NR_NSN_proc+0x479>:
    8fe9:	0bdd32        	addmi	a3, a13, 0xb00
    8fec:	382322        	l32i	a2, a3, 224
    8fef:	3a2332        	l32i	a3, a3, 232
    8ff2:	b1f8           	l32i.n	a15, a1, 44
    8ff4:	360434        	ae_cvtq48a32s	aeq0, a4
    8ff7:	fcc222        	addi	a2, a2, -4
    8ffa:	fcc332        	addi	a3, a3, -4
    8ffd:	058f76        	loop	a15, 9006 <two_mic_WB_NR_NSN_proc+0x496>
    9000:	46a214        	ae_sp16x2f.iu	aep2, a2, 4
    9003:	624314        	ae_sq32f.iu	aeq0, a3, 4

00009006 <two_mic_WB_NR_NSN_proc+0x496>:
    9006:	140c           	movi.n	a4, 1

00009008 <two_mic_WB_NR_NSN_proc+0x498>:
    9008:	152122        	l32i	a2, a1, 84
    900b:	340b           	addi.n	a3, a4, -1
    900d:	026132        	s32i	a3, a1, 8
    9010:	902320        	addx2	a2, a3, a2
    9013:	226d           	ae_l16si.n	a6, a2, 0
    9015:	3c2532        	l32i	a3, a5, 240
    9018:	126122        	s32i	a2, a1, 72
    901b:	0816a6        	blti	a6, 1, 9027 <two_mic_WB_NR_NSN_proc+0x4b7>
    901e:	fec322        	addi	a2, a3, -2
    9021:	028676        	loop	a6, 9027 <two_mic_WB_NR_NSN_proc+0x4b7>
    9024:	42a214        	ae_sp16f.l.iu	aep2, a2, 2

00009027 <two_mic_WB_NR_NSN_proc+0x4b7>:
    9027:	099d22        	l16si	a2, a13, 18
    902a:	1e0c           	movi.n	a14, 1
    902c:	b1f8           	l32i.n	a15, a1, 44
    902e:	e149           	s32i.n	a4, a1, 56
    9030:	114e20        	slli	a4, a14, 14
    9033:	360434        	ae_cvtq48a32s	aeq0, a4
    9036:	602020        	neg	a2, a2
    9039:	fc24fe820f 	{ ae_slaasq56s	aeq0, aeq0, a2; nop }
    903e:	77a6f7        	bge	a6, a15, 90b9 <two_mic_WB_NR_NSN_proc+0x549>
    9041:	182122        	l32i	a2, a1, 96
    9044:	b1f8           	l32i.n	a15, a1, 44
    9046:	ffa0e2        	movi	a14, 255
    9049:	362272        	l32i	a7, a2, 216
    904c:	372282        	l32i	a8, a2, 220
    904f:	904630        	addx2	a4, a6, a3
    9052:	a07670        	addx4	a7, a6, a7
    9055:	a08680        	addx4	a8, a6, a8
    9058:	fcc772        	addi	a7, a7, -4
    905b:	fcc882        	addi	a8, a8, -4
    905e:	7fde22        	addmi	a2, a14, 0x7f00
    9061:	c09f60        	sub	a9, a15, a6
    9064:	01a032        	movi	a3, 1
    9067:	fec442        	addi	a4, a4, -2
    906a:	300224        	ae_cvtp24a16x2.ll	aep0, a2, a2
    906d:	f862fd571f 	{ ae_lq32f.iu	aeq2, a7, 4; ae_movp48	aep1, aep0 }
    9072:	605814        	ae_lq32f.iu	aeq1, a8, 4
    9075:	408976        	loop	a9, 90b9 <two_mic_WB_NR_NSN_proc+0x549>
    9078:	d65400009f 	{ movi	a9, 0; ae_ltq56s	b0, aeq1, aeq2 }
    907d:	fb723f15af 	{ ae_nsaq56s	a5, aeq1; ae_addq56	aeq3, aeq2, aeq0 }
    9082:	367a04        	ae_nsaq56s	a10, aeq3
    9085:	d39300        	movt	a9, a3, b0
    9088:	29ac           	beqz.n	a9, 90ae <two_mic_WB_NR_NSN_proc+0x53e>
    908a:	02bd           	mov.n	a11, a2
    908c:	439a50        	min	a9, a10, a5
    908f:	e9c9a2        	addi	a10, a9, -23
    9092:	fc24feba8f 	{ ae_slaasq56s	aeq2, aeq3, a10; nop }
    9097:	36aa04        	ae_trunca32q48	a10, aeq2
    909a:	38c992        	addi	a9, a9, 56
    909d:	345994        	ae_sllaq56	aeq1, aeq1, a9
    90a0:	4a8c           	beqz.n	a10, 90a8 <two_mic_WB_NR_NSN_proc+0x538>
    90a2:	369904        	ae_trunca32q48	a9, aeq1
    90a5:	d2b9a0        	quos	a11, a9, a10

000090a8 <two_mic_WB_NR_NSN_proc+0x538>:
    90a8:	439b20        	min	a9, a11, a2
    90ab:	301994        	ae_cvtp24a16x2.ll	aep1, a9, a9
    90ae:	609714        	ae_lq32f.iu	aeq2, a7, 4
    90b1:	605814        	ae_lq32f.iu	aeq1, a8, 4
    90b4:	f862f2941f 	{ ae_sp16f.l.iu	aep1, a4, 2; ae_movp48	aep1, aep0 }

000090b9 <two_mic_WB_NR_NSN_proc+0x549>:
    90b9:	f169           	s32i.n	a6, a1, 60
    90bb:	2168           	l32i.n	a6, a1, 8
    90bd:	0bdd32        	addmi	a3, a13, 0xb00
    90c0:	3b23a2        	l32i	a10, a3, 236
    90c3:	dc3021        	l32r	a2, 184 (d6e8 <xt_memset>)
    90c6:	11c6f0        	slli	a12, a6, 1
    90c9:	0b0c           	movi.n	a11, 0
    90cb:	0002e0        	callx8	a2
    90ce:	182122        	l32i	a2, a1, 96
    90d1:	1221d2        	l32i	a13, a1, 72
    90d4:	f1f8           	l32i.n	a15, a1, 60
    90d6:	362292        	l32i	a9, a2, 216
    90d9:	3722a2        	l32i	a10, a2, 220
    90dc:	3b2382        	l32i	a8, a3, 236
    90df:	e158           	l32i.n	a5, a1, 56
    90e1:	1521e2        	l32i	a14, a1, 84
    90e4:	4d2d           	ae_l16ui.n	a2, a13, 0
    90e6:	170c           	movi.n	a7, 1
    90e8:	a09f90        	addx4	a9, a15, a9
    90eb:	a0bfa0        	addx4	a11, a15, a10
    90ee:	136132        	s32i	a3, a1, 76
    90f1:	fe249135ef 	{ addx2	a3, a5, a14; ae_zeroq56	aeq2 }
    90f6:	0aa042        	movi	a4, 10
    90f9:	117710        	slli	a7, a7, 15
    90fc:	a08680        	addx4	a8, a6, a8
    90ff:	ff147d2b0f 	{ ae_lq32f.i	aeq1, a11, 0; ae_movq56	aeq3, aeq2 }
    9104:	600904        	ae_lq32f.i	aeq0, a9, 0

00009107 <two_mic_WB_NR_NSN_proc+0x597>:
    9107:	82cd           	ae_sext16	a12, a2
    9109:	232d           	ae_l16si.n	a2, a3, 0
    910b:	c0c2c0        	sub	a12, a2, a12
    910e:	0f1ca6        	blti	a12, 1, 9121 <two_mic_WB_NR_NSN_proc+0x5b1>
    9111:	0c8c76        	loop	a12, 9121 <two_mic_WB_NR_NSN_proc+0x5b1>
    9114:	0145c4        	ae_minq56s	aeq1, aeq1, aeq0
    9117:	fb7a3d191f 	{ ae_lq32f.iu	aeq0, a9, 4; ae_addq56	aeq3, aeq3, aeq0 }
    911c:	fa763d3b1f 	{ ae_lq32f.iu	aeq1, a11, 4; ae_addq56	aeq2, aeq2, aeq1 }

00009121 <two_mic_WB_NR_NSN_proc+0x5b1>:
    9121:	366c04        	ae_nsaq56s	a12, aeq2
    9124:	367d04        	ae_nsaq56s	a13, aeq3
    9127:	07ed           	mov.n	a14, a7
    9129:	43cdc0        	min	a12, a13, a12
    912c:	e9ccd2        	addi	a13, a12, -23
    912f:	fc24febdcf 	{ ae_slaasq56s	aeq3, aeq3, a13; nop }
    9134:	36bd04        	ae_trunca32q48	a13, aeq3
    9137:	f8ccc2        	addi	a12, a12, -8
    913a:	9d8c           	beqz.n	a13, 9147 <two_mic_WB_NR_NSN_proc+0x5d7>
    913c:	fc24feac8f 	{ ae_slaasq56s	aeq2, aeq2, a12; nop }
    9141:	36ac04        	ae_trunca32q48	a12, aeq2
    9144:	d2ecd0        	quos	a14, a12, a13

00009147 <two_mic_WB_NR_NSN_proc+0x5d7>:
    9147:	43ce70        	min	a12, a14, a7
    914a:	fe248ff44e 	{ addi	a4, a4, -1; ae_zeroq56	aeq2 }
    914f:	ff145408cf 	{ s32i.n	a12, a8, 0; ae_movq56	aeq3, aeq2 }
    9154:	332b           	addi.n	a3, a3, 2
    9156:	884b           	addi.n	a8, a8, 4
    9158:	ab9547        	bne	a5, a4, 9107 <two_mic_WB_NR_NSN_proc+0x597>
    915b:	c1f8           	l32i.n	a15, a1, 48
    915d:	530c           	movi.n	a3, 5
    915f:	0133c0        	slli	a3, a3, 20
    9162:	069f22        	l16si	a2, a15, 12
    9165:	3f4d           	ae_l16si.n	a4, a15, 2
    9167:	0212e6        	bgei	a2, 1, 916d <two_mic_WB_NR_NSN_proc+0x5fd>
    916a:	002046        	j	91ef <two_mic_WB_NR_NSN_proc+0x67f>
    916d:	0bdf22        	addmi	a2, a15, 0xb00
    9170:	322232        	l32i	a3, a2, 200
    9173:	1194f0        	slli	a9, a4, 1
    9176:	639d           	ae_s16i.n	a9, a3, 0
    9178:	3fcd           	ae_l16si.n	a12, a15, 2
    917a:	118cf0        	slli	a8, a12, 1
    917d:	738d           	ae_s16i.n	a8, a3, 2
    917f:	3fdd           	ae_l16si.n	a13, a15, 2
    9181:	114df0        	slli	a4, a13, 1
    9184:	025342        	s16i	a4, a3, 4
    9187:	3f4d           	ae_l16si.n	a4, a15, 2
    9189:	029f72        	l16si	a7, a15, 4
    918c:	474a           	add.n	a4, a7, a4
    918e:	035342        	s16i	a4, a3, 6
    9191:	029f42        	l16si	a4, a15, 4
    9194:	1144f0        	slli	a4, a4, 1
    9197:	045342        	s16i	a4, a3, 8
    919a:	029f42        	l16si	a4, a15, 4
    919d:	039fe2        	l16si	a14, a15, 6
    91a0:	4e4a           	add.n	a4, a14, a4
    91a2:	055342        	s16i	a4, a3, 10
    91a5:	039f42        	l16si	a4, a15, 6
    91a8:	1144f0        	slli	a4, a4, 1
    91ab:	065342        	s16i	a4, a3, 12
    91ae:	ff20a04f4e 	{ l16si	a4, a15, 8; ae_zerop48	aep6 }
    91b3:	070c           	movi.n	a7, 0
    91b5:	2168           	l32i.n	a6, a1, 8
    91b7:	1144f0        	slli	a4, a4, 1
    91ba:	075342        	s16i	a4, a3, 14
    91bd:	049f42        	l16si	a4, a15, 8
    91c0:	1321b2        	l32i	a11, a1, 76
    91c3:	9c2c           	movi.n	a12, 41
    91c5:	1144f0        	slli	a4, a4, 1
    91c8:	085342        	s16i	a4, a3, 16
    91cb:	021526        	beqi	a5, 1, 91d1 <two_mic_WB_NR_NSN_proc+0x661>
    91ce:	0067c6        	j	9371 <two_mic_WB_NR_NSN_proc+0x801>
    91d1:	ff2080997f 	{ movi	a7, 153; ae_zerop48	aep6 }
    91d6:	3b2bb2        	l32i	a11, a11, 236
    91d9:	7cdcc2        	addmi	a12, a12, 0x7c00
    91dc:	79d772        	addmi	a7, a7, 0x7900
    91df:	0b48           	l32i.n	a4, a11, 0
    91e1:	02a4c7        	bge	a4, a12, 91e7 <two_mic_WB_NR_NSN_proc+0x677>
    91e4:	0134c6        	j	96bb <two_mic_WB_NR_NSN_proc+0xb4b>
    91e7:	ff2081299e 	{ addi	a9, a9, 18; ae_zerop48	aep6 }
    91ec:	013406        	j	96c0 <two_mic_WB_NR_NSN_proc+0xb50>

000091ef <two_mic_WB_NR_NSN_proc+0x67f>:
    91ef:	420c           	movi.n	a2, 4
    91f1:	5814e6        	bgei	a4, 1, 924d <two_mic_WB_NR_NSN_proc+0x6dd>
    91f4:	029f42        	l16si	a4, a15, 4
    91f7:	039f52        	l16si	a5, a15, 6
    91fa:	4f14e6        	bgei	a4, 1, 924d <two_mic_WB_NR_NSN_proc+0x6dd>
    91fd:	4c15e6        	bgei	a5, 1, 924d <two_mic_WB_NR_NSN_proc+0x6dd>
    9200:	091f22        	l16ui	a2, a15, 18
    9203:	0a1f32        	l16ui	a3, a15, 20
    9206:	18cf52        	addi	a5, a15, 24
    9209:	82cd           	ae_sext16	a12, a2
    920b:	1b1237        	beq	a2, a3, 922a <two_mic_WB_NR_NSN_proc+0x6ba>
    920e:	dcb321        	l32r	a2, 4dc (9ce8 <equal_power>)
    9211:	b1e8           	l32i.n	a14, a1, 44
    9213:	83dd           	ae_sext16	a13, a3
    9215:	05bd           	mov.n	a11, a5
    9217:	0002e0        	callx8	a2
    921a:	182122        	l32i	a2, a1, 96
    921d:	c1f8           	l32i.n	a15, a1, 48
    921f:	0a8d           	mov.n	a8, a10
    9221:	3722a2        	l32i	a10, a2, 220
    9224:	0a5f82        	s16i	a8, a15, 20
    9227:	095f82        	s16i	a8, a15, 18
    922a:	dcd021        	l32r	a2, 56c (f280 <NR_immediate_num>)
    922d:	b1e8           	l32i.n	a14, a1, 44
    922f:	930c           	movi.n	a3, 9
    9231:	600a04        	ae_lq32f.i	aeq0, a10, 0
    9234:	604f64        	ae_lq32f.i	aeq1, a15, 24
    9237:	440244        	ae_lp16x2f.i	aep0, a2, 16
    923a:	0133d0        	slli	a3, a3, 19
    923d:	0a8e76        	loop	a14, 924b <two_mic_WB_NR_NSN_proc+0x6db>
    9240:	0d00bd351f 	{ ae_lq32f.iu	aeq1, a5, 4; ae_mulzaafq32sp16s.lh	aeq2, aeq0, aep0, aeq1, aep0 }
    9245:	601a14        	ae_lq32f.iu	aeq0, a10, 4
    9248:	6225f4        	ae_sq32f.i	aeq2, a5, -4

0000924b <two_mic_WB_NR_NSN_proc+0x6db>:
    924b:	520c           	movi.n	a2, 5

0000924d <two_mic_WB_NR_NSN_proc+0x6dd>:
    924d:	0bdf42        	addmi	a4, a15, 0xb00
    9250:	fe24b3a44e 	{ l32i	a4, a4, 232; ae_zeroq56	aeq2 }
    9255:	b1e8           	l32i.n	a14, a1, 44
    9257:	172182        	l32i	a8, a1, 92
    925a:	398334        	ae_movpa24x2	aep0, a3, a3
    925d:	600404        	ae_lq32f.i	aeq0, a4, 0
    9260:	078e76        	loop	a14, 926b <two_mic_WB_NR_NSN_proc+0x6fb>
    9263:	f8807d141f 	{ ae_lq32f.iu	aeq0, a4, 4; ae_mulfq32sp24s.l	aeq1, aeq0, aep0 }
    9268:	6214f4        	ae_sq32f.i	aeq1, a4, -4

0000926b <two_mic_WB_NR_NSN_proc+0x6fb>:
    926b:	b158           	l32i.n	a5, a1, 44
    926d:	18cf32        	addi	a3, a15, 24
    9270:	034d           	mov.n	a4, a3
    9272:	601404        	ae_lq32f.iu	aeq0, a4, 0
    9275:	048576        	loop	a5, 927d <two_mic_WB_NR_NSN_proc+0x70d>
    9278:	fae33d141f 	{ ae_lq32f.iu	aeq0, a4, 4; ae_maxq56s	aeq2, aeq2, aeq0 }

0000927d <two_mic_WB_NR_NSN_proc+0x70d>:
    927d:	366504        	ae_nsaq56s	a5, aeq2
    9280:	0a1f42        	l16ui	a4, a15, 20
    9283:	960c           	movi.n	a6, 9
    9285:	1c2567        	blt	a5, a6, 92a5 <two_mic_WB_NR_NSN_proc+0x735>
    9288:	b1e8           	l32i.n	a14, a1, 44
    928a:	f8c562        	addi	a6, a5, -8
    928d:	c04460        	sub	a4, a4, a6
    9290:	18cf52        	addi	a5, a15, 24
    9293:	401600        	ssl	a6
    9296:	0a5f42        	s16i	a4, a15, 20
    9299:	088e76        	loop	a14, 92a5 <two_mic_WB_NR_NSN_proc+0x735>
    929c:	0568           	l32i.n	a6, a5, 0
    929e:	a16600        	sll	a6, a6
    92a1:	0569           	s32i.n	a6, a5, 0
    92a3:	554b           	addi.n	a5, a5, 4

000092a5 <two_mic_WB_NR_NSN_proc+0x735>:
    92a5:	0cdf52        	addmi	a5, a15, 0xc00
    92a8:	600544        	ae_lq32f.i	aeq0, a5, 16
    92ab:	364504        	ae_nsaq56s	a5, aeq0
    92ae:	0bdf72        	addmi	a7, a15, 0xb00
    92b1:	224a           	add.n	a2, a2, a4
    92b3:	3a2742        	l32i	a4, a7, 232
    92b6:	3927d2        	l32i	a13, a7, 228
    92b9:	b1e8           	l32i.n	a14, a1, 44
    92bb:	c02250        	sub	a2, a2, a5
    92be:	f8c552        	addi	a5, a5, -8
    92c1:	0cc222        	addi	a2, a2, 12
    92c4:	fc24fe850f 	{ ae_slaasq56s	aeq0, aeq0, a5; nop }
    92c9:	7a5722        	s16i	a2, a7, 244
    92cc:	604f64        	ae_lq32f.i	aeq1, a15, 24
    92cf:	fccd52        	addi	a5, a13, -4
    92d2:	500404        	ae_lp24f.i	aep0, a4, 0
    92d5:	0f8e76        	loop	a14, 92e8 <two_mic_WB_NR_NSN_proc+0x778>
    92d8:	f9802e841f 	{ ae_lp24f.iu	aep0, a4, 4; ae_mulfq32sp24s.l	aeq2, aeq0, aep0 }
    92dd:	1bac14        	ae_roundsp24q48sym	aep1, aeq2
    92e0:	f9853d331f 	{ ae_lq32f.iu	aeq1, a3, 4; ae_mulfq32sp24s.l	aeq2, aeq1, aep1 }
    92e5:	626514        	ae_sq32f.iu	aeq2, a5, 4

000092e8 <two_mic_WB_NR_NSN_proc+0x778>:
    92e8:	0cdf32        	addmi	a3, a15, 0xc00
    92eb:	0a9332        	l16si	a3, a3, 20
    92ee:	3728b2        	l32i	a11, a8, 220
    92f1:	11a310        	slli	a10, a3, 15
    92f4:	dbdc31        	l32r	a3, 264 (bfa4 <airoha_divide_limit_1>)
    92f7:	0003e0        	callx8	a3
    92fa:	dc9d31        	l32r	a3, 570 (10000001 <_end+0xfff0a61>)
    92fd:	e128           	l32i.n	a2, a1, 56
    92ff:	102142        	l32i	a4, a1, 64
    9302:	692a37        	blt	a10, a3, 936f <two_mic_WB_NR_NSN_proc+0x7ff>
    9305:	1521d2        	l32i	a13, a1, 84
    9308:	392772        	l32i	a7, a7, 228
    930b:	25d462        	addmi	a6, a4, 0x2500
    930e:	7396e2        	l16si	a14, a6, 230
    9311:	089d42        	l16si	a4, a13, 16
    9314:	40ea30        	nsa	a3, a10
    9317:	401300        	ssl	a3
    931a:	350c           	movi.n	a5, 3
    931c:	c03530        	sub	a3, a5, a3
    931f:	a1fa00        	sll	a15, a10
    9322:	a06e70        	addx4	a6, a14, a7
    9325:	c054e0        	sub	a5, a4, a14
    9328:	378ff4        	ae_truncp24a32x2	aep0, a15, a15
    932b:	600604        	ae_lq32f.i	aeq0, a6, 0
    932e:	1015a6        	blti	a5, 1, 9342 <two_mic_WB_NR_NSN_proc+0x7d2>
    9331:	0d8576        	loop	a5, 9342 <two_mic_WB_NR_NSN_proc+0x7d2>
    9334:	340334        	ae_sllasq56s	aeq0, aeq0, a3
    9337:	060834        	ae_roundsq32sym	aeq0, aeq0
    933a:	f8e07d161f 	{ ae_lq32f.iu	aeq0, a6, 4; ae_mulrfq32sp24s.l	aeq1, aeq0, aep0 }
    933f:	6216f4        	ae_sq32f.i	aeq1, a6, -4

00009342 <two_mic_WB_NR_NSN_proc+0x7d2>:
    9342:	ea01f0b15e 	{ l32i	a5, a1, 44; ae_mulfp24s.ll	aeq1, aep0, aep0 }
    9347:	365704        	ae_nsaq56s	a7, aeq1
    934a:	c04540        	sub	a4, a5, a4
    934d:	1e14a6        	blti	a4, 1, 936f <two_mic_WB_NR_NSN_proc+0x7ff>
    9350:	f8c752        	addi	a5, a7, -8
    9353:	fc24fe954f 	{ ae_slaasq56s	aeq1, aeq1, a5; nop }
    9358:	1b9c04        	ae_roundsp24q48sym	aep0, aeq1
    935b:	d03350        	subx2	a3, a3, a5
    935e:	0d8476        	loop	a4, 936f <two_mic_WB_NR_NSN_proc+0x7ff>
    9361:	340334        	ae_sllasq56s	aeq0, aeq0, a3
    9364:	060834        	ae_roundsq32sym	aeq0, aeq0
    9367:	f8e07d161f 	{ ae_lq32f.iu	aeq0, a6, 4; ae_mulrfq32sp24s.l	aeq1, aeq0, aep0 }
    936c:	6216f4        	ae_sq32f.i	aeq1, a6, -4
    936f:	f01d           	retw.n

00009371 <two_mic_WB_NR_NSN_proc+0x801>:
    9371:	1625a6        	blti	a5, 2, 938b <two_mic_WB_NR_NSN_proc+0x81b>
    9374:	162182        	l32i	a8, a1, 88
    9377:	070c           	movi.n	a7, 0
    9379:	043c           	movi.n	a4, 48
    937b:	0c8676        	loop	a6, 938b <two_mic_WB_NR_NSN_proc+0x81b>
    937e:	634d           	ae_s16i.n	a4, a3, 0
    9380:	289d           	ae_l16si.n	a9, a8, 0
    9382:	332b           	addi.n	a3, a3, 2
    9384:	882b           	addi.n	a8, a8, 2
    9386:	119900        	slli	a9, a9, 16
    9389:	797a           	add.n	a7, a9, a7

0000938b <two_mic_WB_NR_NSN_proc+0x81b>:
    938b:	091f32        	l16ui	a3, a15, 18
    938e:	0a1f42        	l16ui	a4, a15, 20
    9391:	b1e8           	l32i.n	a14, a1, 44
    9393:	83cd           	ae_sext16	a12, a3
    9395:	151347        	beq	a3, a4, 93ae <two_mic_WB_NR_NSN_proc+0x83e>
    9398:	dc5131        	l32r	a3, 4dc (9ce8 <equal_power>)
    939b:	84dd           	ae_sext16	a13, a4
    939d:	18cfb2        	addi	a11, a15, 24
    93a0:	0003e0        	callx8	a3
    93a3:	ff20b0c1fe 	{ l32i	a15, a1, 48; ae_zerop48	aep6 }
    93a8:	0a5fa2        	s16i	a10, a15, 20
    93ab:	095fa2        	s16i	a10, a15, 18

000093ae <two_mic_WB_NR_NSN_proc+0x83e>:
    93ae:	d158           	l32i.n	a5, a1, 52
    93b0:	0bdf32        	addmi	a3, a15, 0xb00
    93b3:	3a2342        	l32i	a4, a3, 232
    93b6:	3c2592        	l32i	a9, a5, 240
    93b9:	f1b8           	l32i.n	a11, a1, 60
    93bb:	382332        	l32i	a3, a3, 224
    93be:	0cdfe2        	addmi	a14, a15, 0xc00
    93c1:	21d8           	l32i.n	a13, a1, 8
    93c3:	1621f2        	l32i	a15, a1, 88
    93c6:	322222        	l32i	a2, a2, 200
    93c9:	1961e2        	s32i	a14, a1, 100
    93cc:	dc5461        	l32r	a6, 51c (46666666 <_end+0x466570c6>)
    93cf:	dc54e1        	l32r	a14, 520 (2666599a <_end+0x266563fa>)
    93d2:	dc54a1        	l32r	a10, 524 (1b333333 <_end+0x1b323d93>)
    93d5:	368634        	ae_cvtq48a32s	aeq2, a6
    93d8:	308ee4        	ae_cvtp24a16x2.lh	aep0, a14, a14
    93db:	909b90        	addx2	a9, a11, a9
    93de:	166132        	s32i	a3, a1, 88
    93e1:	a0eb30        	addx4	a14, a11, a3
    93e4:	a03b40        	addx4	a3, a11, a4
    93e7:	90cdf0        	addx2	a12, a13, a15
    93ea:	364a34        	ae_cvtq48a32s	aeq1, a10
    93ed:	1a6142        	s32i	a4, a1, 104
    93f0:	118de0        	slli	a8, a13, 2
    93f3:	90fd20        	addx2	a15, a13, a2
    93f6:	401904        	ae_lp16f.i	aep1, a9, 0
    93f9:	fcc362        	addi	a6, a3, -4
    93fc:	0d4d           	mov.n	a4, a13
    93fe:	fccea2        	addi	a10, a14, -4
    9401:	632124        	ae_sq56s.i	aeq2, a1, 16
    9404:	0038c6        	j	94eb <two_mic_WB_NR_NSN_proc+0x97b>

00009407 <two_mic_WB_NR_NSN_proc+0x897>:
    9407:	320c           	movi.n	a2, 3
    9409:	012240        	slli	a2, a2, 28
    940c:	146122        	s32i	a2, a1, 80
    940f:	dc46e1        	l32r	a14, 528 (1e666666 <_end+0x1e6570c6>)
    9412:	dc4621        	l32r	a2, 52c (7ccd0333 <_end+0x7ccc0d93>)
    9415:	dc4241        	l32r	a4, 520 (2666599a <_end+0x266563fa>)
    9418:	f188           	l32i.n	a8, a1, 60
    941a:	1161e2        	s32i	a14, a1, 68
    941d:	3e0c           	movi.n	a14, 3
    941f:	d7af52        	movi	a5, -41
    9422:	01eeb0        	slli	a14, a14, 21
    9425:	0b7d           	mov.n	a7, a11
    9427:	622d57        	blt	a13, a5, 948d <two_mic_WB_NR_NSN_proc+0x91d>
    942a:	dc4121        	l32r	a2, 530 (23333333 <_end+0x23323d93>)
    942d:	dc41e1        	l32r	a14, 534 (1ccccccd <_end+0x1ccbd72d>)
    9430:	146122        	s32i	a2, a1, 80
    9433:	1161e2        	s32i	a14, a1, 68
    9436:	dc40e1        	l32r	a14, 538 (333333 <_end+0x323d93>)
    9439:	dc4021        	l32r	a2, 53c (7eb80148 <_end+0x7eb70ba8>)
    943c:	dbf641        	l32r	a4, 414 (40004000 <_end+0x3fff4a60>)
    943f:	656c           	movi.n	a5, -26
    9441:	482d57        	blt	a13, a5, 948d <two_mic_WB_NR_NSN_proc+0x91d>
    9444:	120c           	movi.n	a2, 1
    9446:	012230        	slli	a2, a2, 29
    9449:	dc3ae1        	l32r	a14, 534 (1ccccccd <_end+0x1ccbd72d>)
    944c:	146122        	s32i	a2, a1, 80
    944f:	1161e2        	s32i	a14, a1, 68
    9452:	db45e1        	l32r	a14, 168 (2ccccd <_end+0x2bd72d>)
    9455:	dc3921        	l32r	a2, 53c (7eb80148 <_end+0x7eb70ba8>)
    9458:	dbef41        	l32r	a4, 414 (40004000 <_end+0x3fff4a60>)
    945b:	557c           	movi.n	a5, -11
    945d:	2c2d57        	blt	a13, a5, 948d <two_mic_WB_NR_NSN_proc+0x91d>
    9460:	d20c           	movi.n	a2, 13
    9462:	722d20        	salt	a2, a13, a2
    9465:	dc3641        	l32r	a4, 540 (6666199a <_end+0x666523fa>)
    9468:	dc38d1        	l32r	a13, 548 (599a2666 <_end+0x599930c6>)
    946b:	dc3651        	l32r	a5, 544 (266666 <_end+0x2570c6>)
    946e:	1e0c           	movi.n	a14, 1
    9470:	934d20        	movnez	a4, a13, a2
    9473:	dc32d1        	l32r	a13, 53c (7eb80148 <_end+0x7eb70ba8>)
    9476:	01eeb0        	slli	a14, a14, 21
    9479:	1b0c           	movi.n	a11, 1
    947b:	93e520        	movnez	a14, a5, a2
    947e:	015b30        	slli	a5, a11, 29
    9481:	dc2cb1        	l32r	a11, 534 (1ccccccd <_end+0x1ccbd72d>)
    9484:	932d20        	movnez	a2, a13, a2
    9487:	146152        	s32i	a5, a1, 80
    948a:	1161b2        	s32i	a11, a1, 68
    948d:	d158           	l32i.n	a5, a1, 52
    948f:	3e13a6        	blti	a3, 1, 94d1 <two_mic_WB_NR_NSN_proc+0x961>
    9492:	39aee4        	ae_movpa24x2	aep2, a14, a14
    9495:	d3283141de 	{ l32i	a13, a1, 80; ae_lep24s	b0:b1, aep2, aep1 }
    949a:	1121e2        	l32i	a14, a1, 68
    949d:	30c444        	ae_cvtp24a16x2.lh	aep4, a4, a4
    94a0:	30b224        	ae_cvtp24a16x2.lh	aep3, a2, a2
    94a3:	fa6efecd3f 	{ ae_cvtq48a32s	aeq0, a13; ae_movp48	aep5, aep3 }
    94a8:	fe047eceff 	{ ae_cvtq48a32s	aeq3, a14; ae_movq56	aeq2, aeq0 }
    94ad:	140c           	movi.n	a4, 1
    94af:	1b8376        	loop	a3, 94ce <two_mic_WB_NR_NSN_proc+0x95e>
    94b2:	020c           	movi.n	a2, 0
    94b4:	409914        	ae_lp16f.iu	aep1, a9, 2
    94b7:	d32400        	movt	a2, a4, b0
    94ba:	32cc           	bnez.n	a2, 94c1 <two_mic_WB_NR_NSN_proc+0x951>
    94bc:	fe1c7f487f 	{ ae_movp48	aep5, aep4; ae_movq56	aeq2, aeq3 }
    94c1:	d32833da1f 	{ ae_sp16x2f.iu	aep5, a10, 4; ae_lep24s	b0:b1, aep2, aep1 }
    94c6:	fa6ef9e61f 	{ ae_sq32f.iu	aeq2, a6, 4; ae_movp48	aep5, aep3 }
    94cb:	068b34        	ae_movq56	aeq2, aeq0

000094ce <two_mic_WB_NR_NSN_proc+0x95e>:
    94ce:	618124        	ae_lq56.i	aeq2, a1, 16

000094d1 <two_mic_WB_NR_NSN_proc+0x961>:
    94d1:	122122        	l32i	a2, a1, 72
    94d4:	2148           	l32i.n	a4, a1, 8
    94d6:	9e0c           	movi.n	a14, 9
    94d8:	222b           	addi.n	a2, a2, 2
    94da:	757a           	add.n	a7, a5, a7
    94dc:	884b           	addi.n	a8, a8, 4
    94de:	126122        	s32i	a2, a1, 72
    94e1:	cc2b           	addi.n	a12, a12, 2
    94e3:	ff2b           	addi.n	a15, a15, 2
    94e5:	0294e7        	bne	a4, a14, 94eb <two_mic_WB_NR_NSN_proc+0x97b>
    94e8:	003846        	j	95cd <two_mic_WB_NR_NSN_proc+0xa5d>
    94eb:	2f2d           	ae_l16si.n	a2, a15, 0
    94ed:	452c           	movi.n	a5, 36
    94ef:	033c           	movi.n	a3, 48
    94f1:	4a2527        	blt	a5, a2, 953f <two_mic_WB_NR_NSN_proc+0x9cf>
    94f4:	d1af52        	movi	a5, -47
    94f7:	023d           	mov.n	a3, a2
    94f9:	422257        	blt	a2, a5, 953f <two_mic_WB_NR_NSN_proc+0x9cf>
    94fc:	132132        	l32i	a3, a1, 76
    94ff:	1e0c           	movi.n	a14, 1
    9501:	150c           	movi.n	a5, 1
    9503:	3b2332        	l32i	a3, a3, 236
    9506:	50d5b2        	addmi	a11, a5, 0x5000
    9509:	338a           	add.n	a3, a3, a8
    950b:	03d8           	l32i.n	a13, a3, 0
    950d:	70de32        	addmi	a3, a14, 0x7000
    9510:	453c           	movi.n	a5, 52
    9512:	062d37        	blt	a13, a3, 951c <two_mic_WB_NR_NSN_proc+0x9ac>
    9515:	32fb           	addi.n	a3, a2, 15
    9517:	000906        	j	953f <two_mic_WB_NR_NSN_proc+0x9cf>

0000951a <two_mic_WB_NR_NSN_proc+0x9aa>:
	...

0000951c <two_mic_WB_NR_NSN_proc+0x9ac>:
    951c:	042db7        	blt	a13, a11, 9524 <two_mic_WB_NR_NSN_proc+0x9b4>
    951f:	326b           	addi.n	a3, a2, 6
    9521:	000686        	j	953f <two_mic_WB_NR_NSN_proc+0x9cf>

00009524 <two_mic_WB_NR_NSN_proc+0x9b4>:
    9524:	99a032        	movi	a3, 153
    9527:	19d332        	addmi	a3, a3, 0x1900
    952a:	0523d7        	blt	a3, a13, 9533 <two_mic_WB_NR_NSN_proc+0x9c3>
    952d:	eec232        	addi	a3, a2, -18
    9530:	0002c6        	j	953f <two_mic_WB_NR_NSN_proc+0x9cf>

00009533 <two_mic_WB_NR_NSN_proc+0x9c3>:
    9533:	33d552        	addmi	a5, a5, 0x3300
    9536:	fac232        	addi	a3, a2, -6
    9539:	72dd50        	salt	a13, a13, a5
    953c:	8332d0        	moveqz	a3, a2, a13
    953f:	f189           	s32i.n	a8, a1, 60
    9541:	122182        	l32i	a8, a1, 72
    9544:	d0af22        	movi	a2, -48
    9547:	2c5d           	ae_l16si.n	a5, a12, 0
    9549:	533320        	max	a3, a3, a2
    954c:	d41b           	addi.n	a13, a4, 1
    954e:	28ed           	ae_l16si.n	a14, a8, 0
    9550:	382d           	ae_l16si.n	a2, a8, 2
    9552:	083c           	movi.n	a8, 48
    9554:	21d9           	s32i.n	a13, a1, 8
    9556:	43d380        	min	a13, a3, a8
    9559:	8255d0        	mull	a5, a5, a13
    955c:	07bd           	mov.n	a11, a7
    955e:	55a572        	movi	a7, 0x555
    9561:	825570        	mull	a5, a5, a7
    9564:	c032e0        	sub	a3, a2, a14
    9567:	1e9d87        	bne	a13, a8, 9589 <two_mic_WB_NR_NSN_proc+0xa19>
    956a:	f188           	l32i.n	a8, a1, 60
    956c:	909390        	addx2	a9, a3, a9
    956f:	401904        	ae_lp16f.i	aep1, a9, 0
    9572:	0b7d           	mov.n	a7, a11
    9574:	0213e6        	bgei	a3, 1, 957a <two_mic_WB_NR_NSN_proc+0xa0a>
    9577:	ffd586        	j	94d1 <two_mic_WB_NR_NSN_proc+0x961>
    957a:	c022e0        	sub	a2, a2, a14
    957d:	058276        	loop	a2, 9586 <two_mic_WB_NR_NSN_proc+0xa16>
    9580:	46ea14        	ae_sp16x2f.iu	aep6, a10, 4
    9583:	625614        	ae_sq32f.iu	aeq1, a6, 4

00009586 <two_mic_WB_NR_NSN_proc+0xa16>:
    9586:	ffd1c6        	j	94d1 <two_mic_WB_NR_NSN_proc+0x961>

00009589 <two_mic_WB_NR_NSN_proc+0xa19>:
    9589:	192182        	l32i	a8, a1, 100
    958c:	d159           	s32i.n	a5, a1, 52
    958e:	285d           	ae_l16si.n	a5, a8, 0
    9590:	0215e6        	bgei	a5, 1, 9596 <two_mic_WB_NR_NSN_proc+0xa26>
    9593:	ff9c06        	j	9407 <two_mic_WB_NR_NSN_proc+0x897>
    9596:	0474a6        	blti	a4, 7, 959e <two_mic_WB_NR_NSN_proc+0xa2e>
    9599:	857c           	movi.n	a5, -8
    959b:	0d2d57        	blt	a13, a5, 95ac <two_mic_WB_NR_NSN_proc+0xa3c>
    959e:	026426        	beqi	a4, 6, 95a4 <two_mic_WB_NR_NSN_proc+0xa34>
    95a1:	ff9886        	j	9407 <two_mic_WB_NR_NSN_proc+0x897>
    95a4:	e46c           	movi.n	a4, -18
    95a6:	02a4d7        	bge	a4, a13, 95ac <two_mic_WB_NR_NSN_proc+0xa3c>
    95a9:	ff9686        	j	9407 <two_mic_WB_NR_NSN_proc+0x897>
    95ac:	f188           	l32i.n	a8, a1, 60
    95ae:	d158           	l32i.n	a5, a1, 52
    95b0:	909390        	addx2	a9, a3, a9
    95b3:	401904        	ae_lp16f.i	aep1, a9, 0
    95b6:	0b7d           	mov.n	a7, a11
    95b8:	0213e6        	bgei	a3, 1, 95be <two_mic_WB_NR_NSN_proc+0xa4e>
    95bb:	ffc486        	j	94d1 <two_mic_WB_NR_NSN_proc+0x961>
    95be:	c022e0        	sub	a2, a2, a14
    95c1:	058276        	loop	a2, 95ca <two_mic_WB_NR_NSN_proc+0xa5a>
    95c4:	468a14        	ae_sp16x2f.iu	aep0, a10, 4
    95c7:	626614        	ae_sq32f.iu	aeq2, a6, 4

000095ca <two_mic_WB_NR_NSN_proc+0xa5a>:
    95ca:	ffc0c6        	j	94d1 <two_mic_WB_NR_NSN_proc+0x961>

000095cd <two_mic_WB_NR_NSN_proc+0xa5d>:
    95cd:	102132        	l32i	a3, a1, 64
    95d0:	c1c8           	l32i.n	a12, a1, 48
    95d2:	04d722        	addmi	a2, a7, 0x400
    95d5:	380332        	l8ui	a3, a3, 56
    95d8:	162182        	l32i	a8, a1, 88
    95db:	412b20        	srli	a2, a2, 11
    95de:	075c22        	s16i	a2, a12, 14
    95e1:	0293f6        	bgeui	a3, 10, 95e7 <two_mic_WB_NR_NSN_proc+0xa77>
    95e4:	007b86        	j	97d6 <two_mic_WB_NR_NSN_proc+0xc66>
    95e7:	059c22        	l16si	a2, a12, 10
    95ea:	331c           	movi.n	a3, 19
    95ec:	d46c           	movi.n	a4, -19
    95ee:	022327        	blt	a3, a2, 95f4 <two_mic_WB_NR_NSN_proc+0xa84>
    95f1:	0040c6        	j	96f8 <two_mic_WB_NR_NSN_proc+0xb88>
    95f4:	120c           	movi.n	a2, 1
    95f6:	012240        	slli	a2, a2, 28
    95f9:	83a052        	movi	a5, 131
    95fc:	005c06        	j	9770 <two_mic_WB_NR_NSN_proc+0xc00>

000095ff <two_mic_WB_NR_NSN_proc+0xa8f>:
    95ff:	11e900        	slli	a14, a9, 16
    9602:	3f0c           	movi.n	a15, 3
    9604:	dbc061        	l32r	a6, 504 (1eb851f <_end+0x1ea8f7f>)
    9607:	41c290        	srli	a12, a9, 2
    960a:	c099e0        	sub	a9, a9, a14
    960d:	01ef50        	slli	a14, a15, 27
    9610:	3f0c           	movi.n	a15, 3
    9612:	dbbd71        	l32r	a7, 508 (4cccccd <_end+0x4cbd72d>)
    9615:	360634        	ae_cvtq48a32s	aeq0, a6
    9618:	016f40        	slli	a6, a15, 28
    961b:	11fc00        	slli	a15, a12, 16
    961e:	364734        	ae_cvtq48a32s	aeq1, a7
    9621:	c07cf0        	sub	a7, a12, a15
    9624:	dbbaf1        	l32r	a15, 50c (ffa66666 <_end+0xffa570c6>)
    9627:	c9da           	add.n	a12, a9, a13
    9629:	36ce34        	ae_cvtq48a32s	aeq3, a14
    962c:	77da           	add.n	a7, a7, a13
    962e:	fe7c           	movi.n	a14, -1
    9630:	fd047a112f 	{ ae_sq56s.i	aeq1, a1, 16; ae_movq56	aeq1, aeq0 }
    9635:	368634        	ae_cvtq48a32s	aeq2, a6
    9638:	308cc4        	ae_cvtp24a16x2.lh	aep0, a12, a12
    963b:	309774        	ae_cvtp24a16x2.lh	aep1, a7, a7
    963e:	190c           	movi.n	a9, 1
    9640:	41d9e0        	srli	a13, a14, 9
    9643:	160c           	movi.n	a6, 1
    9645:	0166a0        	slli	a6, a6, 22
    9648:	656a           	add.n	a6, a5, a6
    964a:	31e760        	srai	a14, a6, 23
    964d:	dbb0c1        	l32r	a12, 510 (2bfffff <_end+0x2bf0a5f>)
    9650:	a06eb0        	addx4	a6, a14, a11
    9653:	a07ea0        	addx4	a7, a14, a10
    9656:	f8c662        	addi	a6, a6, -8
    9659:	f8c772        	addi	a7, a7, -8
    965c:	46a614        	ae_sp16x2f.iu	aep2, a6, 4
    965f:	022c57        	blt	a12, a5, 9665 <two_mic_WB_NR_NSN_proc+0xaf5>
    9662:	614124        	ae_lq56.i	aeq1, a1, 16
    9665:	dac2a1        	l32r	a10, 170 (59999a <_end+0x58a3fa>)
    9668:	ce1b           	addi.n	a12, a14, 1
    966a:	625714        	ae_sq32f.iu	aeq1, a7, 4
    966d:	b5aa           	add.n	a11, a5, a10
    966f:	01ac90        	slli	a10, a12, 23
    9672:	0aaab7        	bge	a10, a11, 9680 <two_mic_WB_NR_NSN_proc+0xb10>
    9675:	ce2b           	addi.n	a12, a14, 2
    9677:	469614        	ae_sp16x2f.iu	aep1, a6, 4
    967a:	627714        	ae_sq32f.iu	aeq3, a7, 4
    967d:	01ac90        	slli	a10, a12, 23
    9680:	3e22b2        	l32i	a11, a2, 248
    9683:	01ec90        	slli	a14, a12, 23
    9686:	5b5a           	add.n	a5, a11, a5
    9688:	b5fa           	add.n	a11, a5, a15
    968a:	16aab7        	bge	a10, a11, 96a4 <two_mic_WB_NR_NSN_proc+0xb34>
    968d:	c0abe0        	sub	a10, a11, a14
    9690:	80aad0        	add	a10, a10, a13
    9693:	85a7a0        	extui	a10, a10, 23, 9
    9696:	53aa90        	max	a10, a10, a9
    9699:	078a76        	loop	a10, 96a4 <two_mic_WB_NR_NSN_proc+0xb34>
    969c:	468614        	ae_sp16x2f.iu	aep0, a6, 4
    969f:	626714        	ae_sq32f.iu	aeq2, a7, 4
    96a2:	cc1b           	addi.n	a12, a12, 1

000096a4 <two_mic_WB_NR_NSN_proc+0xb34>:
    96a4:	fd0473961f 	{ ae_sp16x2f.iu	aep1, a6, 4; ae_movq56	aeq1, aeq0 }
    96a9:	627714        	ae_sq32f.iu	aeq3, a7, 4
    96ac:	02a857        	bge	a8, a5, 96b2 <two_mic_WB_NR_NSN_proc+0xb42>
    96af:	fe4486        	j	8fc5 <two_mic_WB_NR_NSN_proc+0x455>
    96b2:	3823b2        	l32i	a11, a3, 224
    96b5:	3a24a2        	l32i	a10, a4, 232
    96b8:	ffe1c6        	j	9643 <two_mic_WB_NR_NSN_proc+0xad3>

000096bb <two_mic_WB_NR_NSN_proc+0xb4b>:
    96bb:	032477        	blt	a4, a7, 96c2 <two_mic_WB_NR_NSN_proc+0xb52>
    96be:	99cb           	addi.n	a9, a9, 12
    96c0:	639d           	ae_s16i.n	a9, a3, 0
    96c2:	1bb8           	l32i.n	a11, a11, 4
    96c4:	db94e1        	l32r	a14, 514 (e667 <export_parameter_array+0x177>)
    96c7:	cb4a           	add.n	a12, a11, a4
    96c9:	53d4b0        	max	a13, a4, a11
    96cc:	0b2ce7        	blt	a12, a14, 96db <two_mic_WB_NR_NSN_proc+0xb6b>
    96cf:	082d77        	blt	a13, a7, 96db <two_mic_WB_NR_NSN_proc+0xb6b>
    96d2:	24c942        	addi	a4, a9, 36
    96d5:	18c882        	addi	a8, a8, 24
    96d8:	0004c6        	j	96ef <two_mic_WB_NR_NSN_proc+0xb7f>

000096db <two_mic_WB_NR_NSN_proc+0xb6b>:
    96db:	db8f71        	l32r	a7, 518 (e001 <_DYNAMIC+0x661>)
    96de:	67a052        	movi	a5, 103
    96e1:	76d562        	addmi	a6, a5, 0x7600
    96e4:	212c77        	blt	a12, a7, 9709 <two_mic_WB_NR_NSN_proc+0xb99>
    96e7:	1e2d67        	blt	a13, a6, 9709 <two_mic_WB_NR_NSN_proc+0xb99>
    96ea:	12c942        	addi	a4, a9, 18
    96ed:	886b           	addi.n	a8, a8, 6
    96ef:	634d           	ae_s16i.n	a4, a3, 0
    96f1:	070c           	movi.n	a7, 0
    96f3:	738d           	ae_s16i.n	a8, a3, 2
    96f5:	ff2486        	j	938b <two_mic_WB_NR_NSN_proc+0x81b>

000096f8 <two_mic_WB_NR_NSN_proc+0xb88>:
    96f8:	35a247        	bge	a2, a4, 9731 <two_mic_WB_NR_NSN_proc+0xbc1>
    96fb:	320c           	movi.n	a2, 3
    96fd:	9aa052        	movi	a5, 154
    9700:	012240        	slli	a2, a2, 28
    9703:	19d552        	addmi	a5, a5, 0x1900
    9706:	001986        	j	9770 <two_mic_WB_NR_NSN_proc+0xc00>

00009709 <two_mic_WB_NR_NSN_proc+0xb99>:
    9709:	8ea0d2        	movi	a13, 142
    970c:	22ddd2        	addmi	a13, a13, 0x2200
    970f:	070c           	movi.n	a7, 0
    9711:	02adc7        	bge	a13, a12, 9717 <two_mic_WB_NR_NSN_proc+0xba7>
    9714:	ff1cc6        	j	938b <two_mic_WB_NR_NSN_proc+0x81b>
    9717:	33a3c2        	movi	a12, 0x333
    971a:	90ccc0        	addx2	a12, a12, a12
    971d:	4344b0        	min	a4, a4, a11
    9720:	02ac47        	bge	a12, a4, 9726 <two_mic_WB_NR_NSN_proc+0xbb6>
    9723:	ff1906        	j	938b <two_mic_WB_NR_NSN_proc+0x81b>
    9726:	e8c942        	addi	a4, a9, -24
    9729:	f4c882        	addi	a8, a8, -12
    972c:	634d           	ae_s16i.n	a4, a3, 0
    972e:	fff046        	j	96f3 <two_mic_WB_NR_NSN_proc+0xb83>

00009731 <two_mic_WB_NR_NSN_proc+0xbc1>:
    9731:	db8631        	l32r	a3, 54c (66666667 <_end+0x666570c7>)
    9734:	14c222        	addi	a2, a2, 20
    9737:	112210        	slli	a2, a2, 15
    973a:	b22230        	mulsh	a2, a2, a3
    973d:	f57c           	movi.n	a5, -1
    973f:	05ef20        	extui	a14, a2, 31, 1
    9742:	212420        	srai	a2, a2, 4
    9745:	015530        	slli	a5, a5, 29
    9748:	22ea           	add.n	a2, a2, a14
    974a:	360534        	ae_cvtq48a32s	aeq0, a5
    974d:	301224        	ae_cvtp24a16x2.ll	aep1, a2, a2
    9750:	d4e600d24f 	{ movi	a4, 210; ae_mulfq32sp16s.l	aeq0, aeq0, aep1 }
    9755:	cdd442        	addmi	a4, a4, 0xffffcd00
    9758:	822240        	mull	a2, a2, a4
    975b:	368f04        	ae_trunca32q48	a15, aeq0
    975e:	360c           	movi.n	a6, 3
    9760:	9aa0d2        	movi	a13, 154
    9763:	19dd32        	addmi	a3, a13, 0x1900
    9766:	f52020        	extui	a2, a2, 16, 16
    9769:	016640        	slli	a6, a6, 28
    976c:	523a           	add.n	a5, a2, a3
    976e:	2f6a           	add.n	a2, a15, a6
    9770:	152132        	l32i	a3, a1, 84
    9773:	b1f8           	l32i.n	a15, a1, 44
    9775:	132162        	l32i	a6, a1, 76
    9778:	099342        	l16si	a4, a3, 18
    977b:	119500        	slli	a9, a5, 16
    977e:	85bd           	ae_sext16	a11, a5
    9780:	c03f40        	sub	a3, a15, a4
    9783:	4f13a6        	blti	a3, 1, 97d6 <two_mic_WB_NR_NSN_proc+0xc66>
    9786:	3b2662        	l32i	a6, a6, 236
    9789:	fa7c           	movi.n	a10, -1
    978b:	c05b90        	sub	a5, a11, a9
    978e:	db7191        	l32r	a9, 554 (999999a <_end+0x998a3fa>)
    9791:	8668           	l32i.n	a6, a6, 32
    9793:	db6f71        	l32r	a7, 550 (f6666666 <_end+0xf66570c6>)
    9796:	01aa10        	slli	a10, a10, 31
    9799:	cda0d2        	movi	a13, 205
    979c:	55aa           	add.n	a5, a5, a10
    979e:	4cdda2        	addmi	a10, a13, 0x4c00
    97a1:	66a0e2        	movi	a14, 102
    97a4:	1a21f2        	l32i	a15, a1, 104
    97a7:	309554        	ae_cvtp24a16x2.lh	aep1, a5, a5
    97aa:	66de52        	addmi	a5, a14, 0x6600
    97ad:	72a6a0        	salt	a10, a6, a10
    97b0:	929a           	add.n	a9, a2, a9
    97b2:	726560        	salt	a6, a5, a6
    97b5:	807270        	add	a7, a2, a7
    97b8:	8392a0        	moveqz	a9, a2, a10
    97bb:	939760        	movnez	a9, a7, a6
    97be:	a054f0        	addx4	a5, a4, a15
    97c1:	a0b480        	addx4	a11, a4, a8
    97c4:	fcc542        	addi	a4, a5, -4
    97c7:	fccb52        	addi	a5, a11, -4
    97ca:	360934        	ae_cvtq48a32s	aeq0, a9
    97cd:	058376        	loop	a3, 97d6 <two_mic_WB_NR_NSN_proc+0xc66>
    97d0:	469514        	ae_sp16x2f.iu	aep1, a5, 4
    97d3:	624414        	ae_sq32f.iu	aeq0, a4, 4

000097d6 <two_mic_WB_NR_NSN_proc+0xc66>:
    97d6:	102122        	l32i	a2, a1, 64
    97d9:	102132        	l32i	a3, a1, 64
    97dc:	360222        	l8ui	a2, a2, 54
    97df:	25d342        	addmi	a4, a3, 0x2500
    97e2:	306227        	bbci	a2, 2, 9816 <two_mic_WB_NR_NSN_proc+0xca6>
    97e5:	3b2422        	l32i	a2, a4, 236
    97e8:	02d232        	addmi	a3, a2, 0x200
    97eb:	890332        	l8ui	a3, a3, 137
    97ee:	02d242        	addmi	a4, a2, 0x200
    97f1:	02d222        	addmi	a2, a2, 0x200
    97f4:	1e6327        	bbci	a3, 2, 9816 <two_mic_WB_NR_NSN_proc+0xca6>
    97f7:	601432        	l16ui	a3, a4, 192
    97fa:	0b2142        	l32i	a4, a1, 44
    97fd:	53dc           	bnez.n	a3, 9816 <two_mic_WB_NR_NSN_proc+0xca6>
    97ff:	701222        	l16ui	a2, a2, 224
    9802:	1a2132        	l32i	a3, a1, 104
    9805:	d2cc           	bnez.n	a2, 9816 <two_mic_WB_NR_NSN_proc+0xca6>
    9807:	fcc822        	addi	a2, a8, -4
    980a:	fcc332        	addi	a3, a3, -4
    980d:	058476        	loop	a4, 9816 <two_mic_WB_NR_NSN_proc+0xca6>
    9810:	468214        	ae_sp16x2f.iu	aep0, a2, 4
    9813:	626314        	ae_sq32f.iu	aeq2, a3, 4
    9816:	182122        	l32i	a2, a1, 96
    9819:	b158           	l32i.n	a5, a1, 44
    981b:	db4f41        	l32r	a4, 558 (7ccccd <_end+0x7bd72d>)
    981e:	372222        	l32i	a2, a2, 220
    9821:	398444        	ae_movpa24x2	aep0, a4, a4
    9824:	14cc32        	addi	a3, a12, 20
    9827:	441804        	ae_lp16x2f.i	aep1, a8, 0
    982a:	140c           	movi.n	a4, 1
    982c:	d2c43d020f 	{ ae_lq32f.i	aeq0, a2, 0; ae_eqp24	b0:b1, aep1, aep6 }
    9831:	1d8576        	loop	a5, 9852 <two_mic_WB_NR_NSN_proc+0xce2>
    9834:	050c           	movi.n	a5, 0
    9836:	605314        	ae_lq32f.iu	aeq1, a3, 4
    9839:	d35410        	movt	a5, a4, b1
    983c:	458c           	beqz.n	a5, 9844 <two_mic_WB_NR_NSN_proc+0xcd4>
    983e:	080d64        	ae_mulfq32sp24s.l	aeq1, aeq1, aep0
    9841:	000086        	j	9847 <two_mic_WB_NR_NSN_proc+0xcd7>

00009844 <two_mic_WB_NR_NSN_proc+0xcd4>:
    9844:	c11944        	ae_mulzaafq32sp16s.lh	aeq1, aeq1, aep1, aeq0, aep1
    9847:	601214        	ae_lq32f.iu	aeq0, a2, 4
    984a:	449814        	ae_lp16x2f.iu	aep1, a8, 4
    984d:	d2c439930f 	{ ae_sq32f.i	aeq1, a3, 0; ae_eqp24	b0:b1, aep1, aep6 }

00009852 <two_mic_WB_NR_NSN_proc+0xce2>:
    9852:	da9a21        	l32r	a2, 2bc (7fbe0042 <_end+0x7fbd0aa2>)
    9855:	8129           	s32i.n	a2, a1, 32
    9857:	0a9cb2        	l16si	a11, a12, 20
    985a:	db1c21        	l32r	a2, 4cc (9934 <est_pow_aver>)
    985d:	18cca2        	addi	a10, a12, 24
    9860:	db3f31        	l32r	a3, 55c (7f1b00e5 <_end+0x7f1a0b45>)
    9863:	9139           	s32i.n	a3, a1, 36
    9865:	0c3d           	mov.n	a3, a12
    9867:	0002e0        	callx8	a2
    986a:	0cd322        	addmi	a2, a3, 0xc00
    986d:	1258           	l32i.n	a5, a2, 4
    986f:	da3831        	l32r	a3, 150 (6f48 <siir_safr>)
    9872:	0abd           	mov.n	a11, a10
    9874:	20c1c2        	addi	a12, a1, 32
    9877:	05ad           	mov.n	a10, a5
    9879:	0003e0        	callx8	a3
    987c:	0abd           	mov.n	a11, a10
    987e:	32a8           	l32i.n	a10, a2, 12
    9880:	12b9           	s32i.n	a11, a2, 4
    9882:	cda022        	movi	a2, 205
    9885:	20aab7        	bge	a10, a11, 98a9 <two_mic_WB_NR_NSN_proc+0xd39>
    9888:	da7521        	l32r	a2, 25c (be9c <airoha_divide>)
    988b:	0002e0        	callx8	a2
    988e:	120c           	movi.n	a2, 1
    9890:	fe249522af 	{ sub	a2, a2, a10; ae_zeroq56	aeq2 }
    9895:	400200        	ssr	a2
    9898:	db3261        	l32r	a6, 560 (6ccd1333 <_end+0x6ccc1d93>)
    989b:	c1f8           	l32i.n	a15, a1, 48
    989d:	172182        	l32i	a8, a1, 92
    98a0:	c1a042        	movi	a4, 193
    98a3:	b150b0        	sra	a5, a11
    98a6:	001206        	j	98f2 <two_mic_WB_NR_NSN_proc+0xd82>

000098a9 <two_mic_WB_NR_NSN_proc+0xd39>:
    98a9:	6cd222        	addmi	a2, a2, 0x6c00
    98ac:	360a34        	ae_cvtq48a32s	aeq0, a10
    98af:	300224        	ae_cvtp24a16x2.ll	aep0, a2, a2
    98b2:	f88030c1fe 	{ l32i	a15, a1, 48; ae_mulfq32sp24s.l	aeq0, aeq0, aep0 }
    98b7:	bfa032        	movi	a3, 191
    98ba:	620174        	ae_sq32f.i	aeq0, a1, 28
    98bd:	7128           	l32i.n	a2, a1, 28
    98bf:	1b2142        	l32i	a4, a1, 108
    98c2:	db1651        	l32r	a5, 51c (46666666 <_end+0x466570c6>)
    98c5:	fe249192be 	{ blt	a2, a11, 98e2 <two_mic_WB_NR_NSN_proc+0xd72>; ae_zeroq56	aeq2 }
    98ca:	079f22        	l16si	a2, a15, 14
    98cd:	db2561        	l32r	a6, 564 (799a0666 <_end+0x799910c6>)
    98d0:	172182        	l32i	a8, a1, 92
    98d3:	0b2327        	blt	a3, a2, 98e2 <two_mic_WB_NR_NSN_proc+0xd72>
    98d6:	7b1432        	l16ui	a3, a4, 246
    98d9:	c1a042        	movi	a4, 193
    98dc:	7fae72        	movi	a7, 0xfffffe7f
    98df:	3523b6        	bltui	a3, 2, 9918 <two_mic_WB_NR_NSN_proc+0xda8>
    98e2:	150c           	movi.n	a5, 1
    98e4:	fe24b1718e 	{ l32i	a8, a1, 92; ae_zeroq56	aeq2 }
    98e9:	db1561        	l32r	a6, 540 (6666199a <_end+0x666523fa>)
    98ec:	c1a042        	movi	a4, 193
    98ef:	015520        	slli	a5, a5, 30
    98f2:	1144c0        	slli	a4, a4, 4
    98f5:	7159           	s32i.n	a5, a1, 28
    98f7:	4f2d           	ae_l16ui.n	a2, a15, 0
    98f9:	300224        	ae_cvtp24a16x2.ll	aep0, a2, a2
    98fc:	360534        	ae_cvtq48a32s	aeq0, a5
    98ff:	f88018766f 	{ ae_cvtp24a16x2.lh	aep7, a6, a6; ae_mulfq32sp24s.l	aeq0, aeq0, aep0 }
    9904:	0cdfe2        	addmi	a14, a15, 0xc00
    9907:	604e44        	ae_lq32f.i	aeq1, a14, 16
    990a:	350074        	ae_sraiq56	aeq0, aeq0, 1
    990d:	0cfd00022f 	{ movi	a2, 2; ae_mulzaafq32sp16s.lh	aeq0, aeq1, aep7, aeq0, aep7 }
    9912:	628f44        	ae_sq32f.x	aeq0, a15, a4
    9915:	fe5486        	j	926b <two_mic_WB_NR_NSN_proc+0x6fb>

00009918 <two_mic_WB_NR_NSN_proc+0xda8>:
    9918:	1144c0        	slli	a4, a4, 4
    991b:	7159           	s32i.n	a5, a1, 28
    991d:	d62727        	blt	a7, a2, 98f7 <two_mic_WB_NR_NSN_proc+0xd87>
    9920:	192122        	l32i	a2, a1, 100
    9923:	033c           	movi.n	a3, 48
    9925:	db1071        	l32r	a7, 568 (5999999a <_end+0x5998a3fa>)
    9928:	422d           	ae_l16ui.n	a2, a2, 0
    992a:	c99237        	bne	a2, a3, 98f7 <two_mic_WB_NR_NSN_proc+0xd87>
    992d:	075d           	mov.n	a5, a7
    992f:	fff086        	j	98f5 <two_mic_WB_NR_NSN_proc+0xd85>

00009932 <two_mic_WB_NR_NSN_proc+0xdc2>:
	...

00009934 <est_pow_aver>:
    9934:	006136        	entry	a1, 48
    9937:	840c           	movi.n	a4, 8
    9939:	fc2495343f 	{ sub	a3, a4, a3; ae_zeroq56	aeq0 }
    993e:	1fa0f2        	movi	a15, 31
    9941:	4333f0        	min	a3, a3, a15
    9944:	604204        	ae_lq32f.i	aeq1, a2, 0
    9947:	48a042        	movi	a4, 72
    994a:	01d396        	bltz	a3, 996b <est_pow_aver+0x37>
    994d:	078476        	loop	a4, 9958 <est_pow_aver+0x24>
    9950:	3453b4        	ae_sraaq56	aeq1, aeq1, a3
    9953:	f8667d321f 	{ ae_lq32f.iu	aeq1, a2, 4; ae_addsq56s	aeq0, aeq0, aeq1 }

00009958 <est_pow_aver+0x24>:
    9958:	db0721        	l32r	a2, 574 (38e39 <_end+0x29899>)
    995b:	398224        	ae_movpa24x2	aep0, a2, a2
    995e:	080524        	ae_mulfq32sp24s.l	aeq0, aeq0, aep0
    9961:	060834        	ae_roundsq32sym	aeq0, aeq0
    9964:	620134        	ae_sq32f.i	aeq0, a1, 12
    9967:	3128           	l32i.n	a2, a1, 12
    9969:	f01d           	retw.n

0000996b <est_pow_aver+0x37>:
    996b:	603030        	neg	a3, a3
    996e:	098476        	loop	a4, 997b <est_pow_aver+0x47>
    9971:	fc24fe934f 	{ ae_slaasq56s	aeq1, aeq1, a3; nop }
    9976:	f8667d321f 	{ ae_lq32f.iu	aeq1, a2, 4; ae_addsq56s	aeq0, aeq0, aeq1 }

0000997b <est_pow_aver+0x47>:
    997b:	fff646        	j	9958 <est_pow_aver+0x24>

0000997e <est_pow_aver+0x4a>:
	...

00009980 <est_pow_aver_x>:
    9980:	006136        	entry	a1, 48
    9983:	840c           	movi.n	a4, 8
    9985:	fc2495343f 	{ sub	a3, a4, a3; ae_zeroq56	aeq0 }
    998a:	1fa0f2        	movi	a15, 31
    998d:	4333f0        	min	a3, a3, a15
    9990:	604204        	ae_lq32f.i	aeq1, a2, 0
    9993:	26a042        	movi	a4, 38
    9996:	020396        	bltz	a3, 99ba <est_pow_aver_x+0x3a>
    9999:	078476        	loop	a4, 99a4 <est_pow_aver_x+0x24>
    999c:	3453b4        	ae_sraaq56	aeq1, aeq1, a3
    999f:	f8667d321f 	{ ae_lq32f.iu	aeq1, a2, 4; ae_addsq56s	aeq0, aeq0, aeq1 }

000099a4 <est_pow_aver_x+0x24>:
    99a4:	daf521        	l32r	a2, 578 (35e51 <_end+0x268b1>)
    99a7:	398224        	ae_movpa24x2	aep0, a2, a2
    99aa:	080524        	ae_mulfq32sp24s.l	aeq0, aeq0, aep0
    99ad:	060834        	ae_roundsq32sym	aeq0, aeq0
    99b0:	620134        	ae_sq32f.i	aeq0, a1, 12
    99b3:	3128           	l32i.n	a2, a1, 12
    99b5:	f01d           	retw.n

000099b7 <est_pow_aver_x+0x37>:
    99b7:	000000                                        ...

000099ba <est_pow_aver_x+0x3a>:
    99ba:	603030        	neg	a3, a3
    99bd:	098476        	loop	a4, 99ca <est_pow_aver_x+0x4a>
    99c0:	fc24fe934f 	{ ae_slaasq56s	aeq1, aeq1, a3; nop }
    99c5:	f8667d321f 	{ ae_lq32f.iu	aeq1, a2, 4; ae_addsq56s	aeq0, aeq0, aeq1 }

000099ca <est_pow_aver_x+0x4a>:
    99ca:	fff586        	j	99a4 <est_pow_aver_x+0x24>

000099cd <est_pow_aver_x+0x4d>:
    99cd:	000000                                        ...

000099d0 <two_mic_SWB_NR_proc>:
    99d0:	00a136        	entry	a1, 80
    99d3:	d9bea1        	l32r	a10, cc (f59c <p_ecnr_mem>)
    99d6:	b159           	s32i.n	a5, a1, 44
    99d8:	da34e1        	l32r	a14, 2a8 (968c <two_mic_WB_NR_NSN_proc+0xb1c>)
    99db:	0a58           	l32i.n	a5, a10, 0
    99dd:	dab8d1        	l32r	a13, 4c0 (9690 <two_mic_WB_NR_NSN_proc+0xb20>)
    99e0:	027d           	mov.n	a7, a2
    99e2:	70d5a2        	addmi	a10, a5, 0x7000
    99e5:	95ea           	add.n	a9, a5, a14
    99e7:	2cd582        	addmi	a8, a5, 0x2c00
    99ea:	d60af2        	l8ui	a15, a10, 214
    99ed:	25da           	add.n	a2, a5, a13
    99ef:	04bd           	mov.n	a11, a4
    99f1:	0998           	l32i.n	a9, a9, 0
    99f3:	85a3c2        	movi	a12, 0x385
    99f6:	252842        	l32i	a4, a8, 148
    99f9:	8169           	s32i.n	a6, a1, 32
    99fb:	0228           	l32i.n	a2, a2, 0
    99fd:	116cb0        	slli	a6, a12, 5
    9a00:	7129           	s32i.n	a2, a1, 28
    9a02:	256a           	add.n	a2, a5, a6
    9a04:	61a9           	s32i.n	a10, a1, 24
    9a06:	5199           	s32i.n	a9, a1, 20
    9a08:	446f27        	bbci	a15, 2, 9a50 <two_mic_SWB_NR_proc+0x80>
    9a0b:	da9e61        	l32r	a6, 484 (af7c <fft_wo2>)
    9a0e:	09ad           	mov.n	a10, a9
    9a10:	0006e0        	callx8	a6
    9a13:	5168           	l32i.n	a6, a1, 20
    9a15:	080c           	movi.n	a8, 0
    9a17:	51a8           	l32i.n	a10, a1, 20
    9a19:	02d662        	addmi	a6, a6, 0x200
    9a1c:	705682        	s16i	a8, a6, 224
    9a1f:	da9a61        	l32r	a6, 488 (d3e8 <inear_VAD_detection_iem2>)
    9a22:	0006e0        	callx8	a6
    9a25:	51a8           	l32i.n	a10, a1, 20
    9a27:	02da62        	addmi	a6, a10, 0x200
    9a2a:	890662        	l8ui	a6, a6, 137
    9a2d:	076637        	bbci	a6, 3, 9a38 <two_mic_SWB_NR_proc+0x68>
    9a30:	da9761        	l32r	a6, 48c (d598 <Wear_Detection_iem2>)
    9a33:	0006e0        	callx8	a6
    9a36:	51a8           	l32i.n	a10, a1, 20

00009a38 <two_mic_SWB_NR_proc+0x68>:
    9a38:	bb2a62        	l32i	a6, a10, 0x2ec
    9a3b:	e7a782        	movi	a8, 0x7e7
    9a3e:	1188e0        	slli	a8, a8, 2
    9a41:	b6cb           	addi.n	a11, a6, 12
    9a43:	d9c561        	l32r	a6, 158 (d6fc <xt_memcpy>)
    9a46:	aa8a           	add.n	a10, a10, a8
    9a48:	70a0c2        	movi	a12, 112
    9a4b:	0006e0        	callx8	a6
    9a4e:	5198           	l32i.n	a9, a1, 20
    9a50:	da9d61        	l32r	a6, 4c4 (8b70 <two_mic_WB_NR_NSN_proc>)
    9a53:	02ad           	mov.n	a10, a2
    9a55:	04bd           	mov.n	a11, a4
    9a57:	09cd           	mov.n	a12, a9
    9a59:	07dd           	mov.n	a13, a7
    9a5b:	03ed           	mov.n	a14, a3
    9a5d:	0006e0        	callx8	a6
    9a60:	94a572        	movi	a7, 0x594
    9a63:	70d582        	addmi	a8, a5, 0x7000
    9a66:	089462        	l16si	a6, a4, 16
    9a69:	7fd772        	addmi	a7, a7, 0x7f00
    9a6c:	685862        	s16i	a6, a8, 208
    9a6f:	da8b61        	l32r	a6, 49c (9eb8 <NR_vad1>)
    9a72:	0a3d           	mov.n	a3, a10
    9a74:	02ad           	mov.n	a10, a2
    9a76:	0994f2        	l16si	a15, a4, 18
    9a79:	757a           	add.n	a7, a5, a7
    9a7b:	a189           	s32i.n	a8, a1, 40
    9a7d:	67fd           	ae_s16i.n	a15, a7, 0
    9a7f:	0006e0        	callx8	a6
    9a82:	da8761        	l32r	a6, 4a0 (a000 <NR_vad2>)
    9a85:	02ad           	mov.n	a10, a2
    9a87:	0006e0        	callx8	a6
    9a8a:	da8f61        	l32r	a6, 4c8 (a164 <NR_vad2_low>)
    9a8d:	02ad           	mov.n	a10, a2
    9a8f:	04bd           	mov.n	a11, a4
    9a91:	03cd           	mov.n	a12, a3
    9a93:	0006e0        	callx8	a6
    9a96:	da8331        	l32r	a3, 4a4 (a354 <NR_NoiseEstimate>)
    9a99:	02ad           	mov.n	a10, a2
    9a9b:	0003e0        	callx8	a3
    9a9e:	9ca032        	movi	a3, 156
    9aa1:	75d332        	addmi	a3, a3, 0x7500
    9aa4:	a53a           	add.n	a10, a5, a3
    9aa6:	37bd           	ae_l16si.n	a11, a7, 2
    9aa8:	da8931        	l32r	a3, 4cc (9934 <est_pow_aver>)
    9aab:	0003e0        	callx8	a3
    9aae:	da8861        	l32r	a6, 4d0 (75c30a3d <_end+0x75c2149d>)
    9ab1:	0cd432        	addmi	a3, a4, 0xc00
    9ab4:	364a34        	ae_cvtq48a32s	aeq1, a10
    9ab7:	600324        	ae_lq32f.i	aeq0, a3, 8
    9aba:	308664        	ae_cvtp24a16x2.lh	aep0, a6, a6
    9abd:	0c008181ff 	{ movi	a15, 0x181; ae_mulzaafq32sp16s.lh	aeq0, aeq0, aep0, aeq1, aep0 }
    9ac2:	116fd0        	slli	a6, a15, 3
    9ac5:	fc247033ae 	{ l32i	a10, a3, 12; ae_roundsq32asym	aeq0, aeq0 }
    9aca:	628464        	ae_sq32f.x	aeq0, a4, a6
    9acd:	23b8           	l32i.n	a11, a3, 8
    9acf:	da8171        	l32r	a7, 4d4 (9688 <two_mic_WB_NR_NSN_proc+0xb18>)
    9ad2:	70d562        	addmi	a6, a5, 0x7000
    9ad5:	5caab7        	bge	a10, a11, 9b35 <two_mic_SWB_NR_proc+0x165>
    9ad8:	d9e161        	l32r	a6, 25c (be9c <airoha_divide>)
    9adb:	0006e0        	callx8	a6
    9ade:	da7d71        	l32r	a7, 4d4 (9688 <two_mic_WB_NR_NSN_proc+0xb18>)
    9ae1:	6090a0        	neg	a9, a10
    9ae4:	400900        	ssr	a9
    9ae7:	757a           	add.n	a7, a5, a7
    9ae9:	b1e0b0        	sra	a14, a11
    9aec:	47dd           	ae_l16ui.n	a13, a7, 0
    9aee:	300dd4        	ae_cvtp24a16x2.ll	aep0, a13, a13
    9af1:	360e34        	ae_cvtq48a32s	aeq0, a14
    9af4:	d4e213c66f 	{ or	a12, a6, a6; ae_mulfq32sp16s.l	aeq0, aeq0, aep0 }
    9af9:	41e9           	s32i.n	a14, a1, 16
    9afb:	620144        	ae_sq32f.i	aeq0, a1, 16
    9afe:	10c162        	addi	a6, a1, 16
    9b01:	23a8           	l32i.n	a10, a3, 8
    9b03:	33b8           	l32i.n	a11, a3, 12
    9b05:	70d582        	addmi	a8, a5, 0x7000
    9b08:	0911f2        	l16ui	a15, a1, 18
    9b0b:	6058f2        	s16i	a15, a8, 192
    9b0e:	000ce0        	callx8	a12
    9b11:	d96d31        	l32r	a3, c8 (9cc <HIFI_sqrt>)
    9b14:	0003e0        	callx8	a3
    9b17:	573d           	ae_l16ui.n	a3, a7, 2
    9b19:	300334        	ae_cvtp24a16x2.ll	aep0, a3, a3
    9b1c:	360b34        	ae_cvtq48a32s	aeq0, a11
    9b1f:	d4e21441bf 	{ s32i.n	a11, a1, 16; ae_mulfq32sp16s.l	aeq0, aeq0, aep0 }
    9b24:	fc24fe8a0f 	{ ae_slaasq56s	aeq0, aeq0, a10; nop }
    9b29:	060834        	ae_roundsq32sym	aeq0, aeq0
    9b2c:	620604        	ae_sq32f.i	aeq0, a6, 0
    9b2f:	091132        	l16ui	a3, a1, 18
    9b32:	000206        	j	9b3e <two_mic_SWB_NR_proc+0x16e>

00009b35 <two_mic_SWB_NR_proc+0x165>:
    9b35:	357a           	add.n	a3, a5, a7
    9b37:	237d           	ae_l16si.n	a7, a3, 0
    9b39:	533d           	ae_l16ui.n	a3, a3, 2
    9b3b:	605672        	s16i	a7, a6, 192
    9b3e:	70d572        	addmi	a7, a5, 0x7000
    9b41:	635732        	s16i	a3, a7, 198
    9b44:	da5931        	l32r	a3, 4a8 (a4c8 <NR_NoiseWithGain>)
    9b47:	6168           	l32i.n	a6, a1, 24
    9b49:	02ad           	mov.n	a10, a2
    9b4b:	9179           	s32i.n	a7, a1, 36
    9b4d:	0003e0        	callx8	a3
    9b50:	0cd432        	addmi	a3, a4, 0xc00
    9b53:	131332        	l16ui	a3, a3, 38
    9b56:	c74c           	movi.n	a7, 76
    9b58:	73d782        	addmi	a8, a7, 0x7300
    9b5b:	021326        	beqi	a3, 1, 9b61 <two_mic_SWB_NR_proc+0x191>
    9b5e:	002346        	j	9bef <two_mic_SWB_NR_proc+0x21f>
    9b61:	70d562        	addmi	a6, a5, 0x7000
    9b64:	a58a           	add.n	a10, a5, a8
    9b66:	7196b2        	l16si	a11, a6, 226
    9b69:	da5b31        	l32r	a3, 4d8 (9980 <est_pow_aver_x>)
    9b6c:	0003e0        	callx8	a3
    9b6f:	0cd462        	addmi	a6, a4, 0xc00
    9b72:	0b9672        	l16si	a7, a6, 22
    9b75:	129662        	l16si	a6, a6, 36
    9b78:	0cd432        	addmi	a3, a4, 0xc00
    9b7b:	117780        	slli	a7, a7, 8
    9b7e:	0aaa77        	bge	a10, a7, 9b8c <two_mic_SWB_NR_proc+0x1bc>
    9b81:	0cd472        	addmi	a7, a4, 0xc00
    9b84:	0c9772        	l16si	a7, a7, 24
    9b87:	676a           	add.n	a6, a7, a6
    9b89:	000206        	j	9b95 <two_mic_SWB_NR_proc+0x1c5>

00009b8c <two_mic_SWB_NR_proc+0x1bc>:
    9b8c:	0cd472        	addmi	a7, a4, 0xc00
    9b8f:	0d9772        	l16si	a7, a7, 26
    9b92:	c06670        	sub	a6, a6, a7
    9b95:	a66d           	ae_clamps16	a6, a6
    9b97:	070c           	movi.n	a7, 0
    9b99:	0cd4e2        	addmi	a14, a4, 0xc00
    9b9c:	536670        	max	a6, a6, a7
    9b9f:	0e9e72        	l16si	a7, a14, 28
    9ba2:	125362        	s16i	a6, a3, 36
    9ba5:	0cd432        	addmi	a3, a4, 0xc00
    9ba8:	11f780        	slli	a15, a7, 8
    9bab:	0eafa7        	bge	a15, a10, 9bbd <two_mic_SWB_NR_proc+0x1ed>
    9bae:	64a062        	movi	a6, 100
    9bb1:	165362        	s16i	a6, a3, 44
    9bb4:	0cd432        	addmi	a3, a4, 0xc00
    9bb7:	160c           	movi.n	a6, 1
    9bb9:	0004c6        	j	9bd0 <two_mic_SWB_NR_proc+0x200>

00009bbc <two_mic_SWB_NR_proc+0x1ec>:
	...

00009bbd <two_mic_SWB_NR_proc+0x1ed>:
    9bbd:	169362        	l16si	a6, a3, 44
    9bc0:	0716a6        	blti	a6, 1, 9bcb <two_mic_SWB_NR_proc+0x1fb>
    9bc3:	660b           	addi.n	a6, a6, -1
    9bc5:	165362        	s16i	a6, a3, 44
    9bc8:	0001c6        	j	9bd3 <two_mic_SWB_NR_proc+0x203>

00009bcb <two_mic_SWB_NR_proc+0x1fb>:
    9bcb:	0cd432        	addmi	a3, a4, 0xc00
    9bce:	060c           	movi.n	a6, 0
    9bd0:	155362        	s16i	a6, a3, 42
    9bd3:	0cd432        	addmi	a3, a4, 0xc00
    9bd6:	109332        	l16si	a3, a3, 32
    9bd9:	160c           	movi.n	a6, 1
    9bdb:	0cd472        	addmi	a7, a4, 0xc00
    9bde:	113380        	slli	a3, a3, 8
    9be1:	7233a0        	salt	a3, a3, a10
    9be4:	306360        	xor	a6, a3, a6
    9be7:	185762        	s16i	a6, a7, 48
    9bea:	6168           	l32i.n	a6, a1, 24
    9bec:	175732        	s16i	a3, a7, 46
    9bef:	98a5f2        	movi	a15, 0x598
    9bf2:	282632        	l32i	a3, a6, 160
    9bf5:	7fdf62        	addmi	a6, a15, 0x7f00
    9bf8:	0bd472        	addmi	a7, a4, 0xb00
    9bfb:	656a           	add.n	a6, a5, a6
    9bfd:	7a1782        	l16ui	a8, a7, 244
    9c00:	469d           	ae_l16ui.n	a9, a6, 0
    9c02:	10d332        	addmi	a3, a3, 0x1000
    9c05:	0bd4f2        	addmi	a15, a4, 0xb00
    9c08:	161987        	beq	a9, a8, 9c22 <two_mic_SWB_NR_proc+0x252>
    9c0b:	88dd           	ae_sext16	a13, a8
    9c0d:	392fb2        	l32i	a11, a15, 228
    9c10:	da3381        	l32r	a8, 4dc (9ce8 <equal_power>)
    9c13:	89cd           	ae_sext16	a12, a9
    9c15:	dca1e2        	movi	a14, 0x1dc
    9c18:	03ad           	mov.n	a10, a3
    9c1a:	0008e0        	callx8	a8
    9c1d:	7a57a2        	s16i	a10, a7, 244
    9c20:	66ad           	ae_s16i.n	a10, a6, 0
    9c22:	0bd462        	addmi	a6, a4, 0xb00
    9c25:	392662        	l32i	a6, a6, 228
    9c28:	dca172        	movi	a7, 0x1dc
    9c2b:	600304        	ae_lq32f.i	aeq0, a3, 0
    9c2e:	fcc662        	addi	a6, a6, -4
    9c31:	0a8776        	loop	a7, 9c3f <two_mic_SWB_NR_proc+0x26f>
    9c34:	605614        	ae_lq32f.iu	aeq1, a6, 4
    9c37:	f96b3d131f 	{ ae_lq32f.iu	aeq0, a3, 4; ae_maxq56s	aeq1, aeq0, aeq1 }
    9c3c:	6213f4        	ae_sq32f.i	aeq1, a3, -4

00009c3f <two_mic_SWB_NR_proc+0x26f>:
    9c3f:	6168           	l32i.n	a6, a1, 24
    9c41:	02ad           	mov.n	a10, a2
    9c43:	04bd           	mov.n	a11, a4
    9c45:	d60632        	l8ui	a3, a6, 214
    9c48:	056327        	bbci	a3, 2, 9c51 <two_mic_SWB_NR_proc+0x281>
    9c4b:	da1831        	l32r	a3, 4ac (b138 <WB_NR_IE_frame_process>)
    9c4e:	0003e0        	callx8	a3

00009c51 <two_mic_SWB_NR_proc+0x281>:
    9c51:	da1731        	l32r	a3, 4b0 (a598 <NR_WienerFilter>)
    9c54:	02ad           	mov.n	a10, a2
    9c56:	04bd           	mov.n	a11, a4
    9c58:	0003e0        	callx8	a3
    9c5b:	04cd           	mov.n	a12, a4
    9c5d:	8148           	l32i.n	a4, a1, 32
    9c5f:	da1531        	l32r	a3, 4b4 (7f0 <comfort_noise_gen_wb>)
    9c62:	51b8           	l32i.n	a11, a1, 20
    9c64:	02ad           	mov.n	a10, a2
    9c66:	20d440        	or	a13, a4, a4
    9c69:	0003e0        	callx8	a3
    9c6c:	d60632        	l8ui	a3, a6, 214
    9c6f:	072172        	l32i	a7, a1, 28
    9c72:	0a2182        	l32i	a8, a1, 40
    9c75:	3fe307        	bbsi	a3, 0, 9cb8 <two_mic_SWB_NR_proc+0x2e8>
    9c78:	03d732        	addmi	a3, a7, 0x300
    9c7b:	4b1332        	l16ui	a3, a3, 150
    9c7e:	2826c2        	l32i	a12, a6, 160
    9c81:	331366        	bnei	a3, 1, 9cb8 <two_mic_SWB_NR_proc+0x2e8>
    9c84:	00a472        	movi	a7, 0x400
    9c87:	689832        	l16si	a3, a8, 208
    9c8a:	fccc62        	addi	a6, a12, -4
    9c8d:	0c8776        	loop	a7, 9c9d <two_mic_SWB_NR_proc+0x2cd>
    9c90:	fc0c2c841f 	{ ae_lp16f.iu	aep0, a4, 2; ae_cvtq48p24s.l	aeq0, aep0 }
    9c95:	fc24fe830f 	{ ae_slaasq56s	aeq0, aeq0, a3; nop }
    9c9a:	624614        	ae_sq32f.iu	aeq0, a6, 4

00009c9d <two_mic_SWB_NR_proc+0x2cd>:
    9c9d:	da1031        	l32r	a3, 4e0 (965c <two_mic_WB_NR_NSN_proc+0xaec>)
    9ca0:	9148           	l32i.n	a4, a1, 36
    9ca2:	71a8           	l32i.n	a10, a1, 28
    9ca4:	353a           	add.n	a3, a5, a3
    9ca6:	03b8           	l32i.n	a11, a3, 0
    9ca8:	6394d2        	l16si	a13, a4, 198
    9cab:	da0331        	l32r	a3, 4b8 (2f3c <subband_comfort_noise>)
    9cae:	dca1e2        	movi	a14, 0x1dc
    9cb1:	0f0c           	movi.n	a15, 0
    9cb3:	0003e0        	callx8	a3
    9cb6:	8148           	l32i.n	a4, a1, 32

00009cb8 <two_mic_SWB_NR_proc+0x2e8>:
    9cb8:	da0131        	l32r	a3, 4bc (ad88 <ifft_wo>)
    9cbb:	b1b8           	l32i.n	a11, a1, 44
    9cbd:	02ad           	mov.n	a10, a2
    9cbf:	04cd           	mov.n	a12, a4
    9cc1:	0003e0        	callx8	a3
    9cc4:	f01d           	retw.n

00009cc6 <two_mic_SWB_NR_proc+0x2f6>:
	...

00009cc8 <get_sb_ptn_addr>:
    9cc8:	004136        	entry	a1, 32
    9ccb:	da2c51        	l32r	a5, 57c (f520 <wb_sb_ptn>)
    9cce:	da2c61        	l32r	a6, 580 (f550 <nb_sb_ptn>)
    9cd1:	023d           	mov.n	a3, a2
    9cd3:	740c           	movi.n	a4, 7
    9cd5:	da2b21        	l32r	a2, 584 (f580 <swb_sb_ptn>)
    9cd8:	724430        	salt	a4, a4, a3
    9cdb:	970c           	movi.n	a7, 9
    9cdd:	936540        	movnez	a6, a5, a4
    9ce0:	723730        	salt	a3, a7, a3
    9ce3:	832630        	moveqz	a2, a6, a3
    9ce6:	f01d           	retw.n

00009ce8 <equal_power>:
    9ce8:	004136        	entry	a1, 32
    9ceb:	c07450        	sub	a7, a4, a5
    9cee:	a34570        	movltz	a4, a5, a7
    9cf1:	1416a6        	blti	a6, 1, 9d09 <equal_power+0x21>
    9cf4:	a33270        	movltz	a3, a2, a7
    9cf7:	605170        	abs	a5, a7
    9cfa:	fcc322        	addi	a2, a3, -4
    9cfd:	088676        	loop	a6, 9d09 <equal_power+0x21>
    9d00:	601214        	ae_lq32f.iu	aeq0, a2, 4
    9d03:	3405a4        	ae_srlaq56	aeq0, aeq0, a5
    9d06:	620204        	ae_sq32f.i	aeq0, a2, 0

00009d09 <equal_power+0x21>:
    9d09:	042d           	mov.n	a2, a4
    9d0b:	f01d           	retw.n

00009d0d <equal_power+0x25>:
    9d0d:	000000                                        ...

00009d10 <fft_wo>:
    9d10:	008136        	entry	a1, 64
    9d13:	380242        	l8ui	a4, a2, 56
    9d16:	d9f351        	l32r	a5, 4e4 (e800 <fftorder_1024_12b>)
    9d19:	f0a072        	movi	a7, 240
    9d1c:	0c94b6        	bltui	a4, 10, 9d2c <fft_wo+0x1c>
    9d1f:	554b           	addi.n	a5, a5, 4
    9d21:	270c           	movi.n	a7, 2
    9d23:	00a442        	movi	a4, 0x400
    9d26:	e0a1c2        	movi	a12, 0x1e0
    9d29:	000806        	j	9d4d <fft_wo+0x3d>

00009d2c <fft_wo+0x1c>:
    9d2c:	416340        	srli	a6, a4, 3
    9d2f:	78a0c2        	movi	a12, 120
    9d32:	93c760        	movnez	a12, a7, a6
    9d35:	f58b           	addi.n	a15, a5, 8
    9d37:	10c552        	addi	a5, a5, 16
    9d3a:	00a282        	movi	a8, 0x200
    9d3d:	00a142        	movi	a4, 0x100
    9d40:	490c           	movi.n	a9, 4
    9d42:	870c           	movi.n	a7, 8
    9d44:	934860        	movnez	a4, a8, a6
    9d47:	937960        	movnez	a7, a9, a6
    9d4a:	935f60        	movnez	a5, a15, a6
    9d4d:	060c           	movi.n	a6, 0
    9d4f:	038d           	mov.n	a8, a3
    9d51:	098c76        	loop	a12, 9d5e <fft_wo+0x4e>
    9d54:	289d           	ae_l16si.n	a9, a8, 0
    9d56:	882b           	addi.n	a8, a8, 2
    9d58:	609190        	abs	a9, a9
    9d5b:	206960        	or	a6, a9, a6

00009d5e <fft_wo+0x4e>:
    9d5e:	40e690        	nsa	a9, a6
    9d61:	fc24a172ae 	{ l16si	a10, a2, 46; ae_zeroq56	aeq0 }
    9d66:	1187f0        	slli	a8, a7, 1
    9d69:	060c           	movi.n	a6, 0
    9d6b:	f0c972        	addi	a7, a9, -16
    9d6e:	25d2b2        	addmi	a11, a2, 0x2500
    9d71:	537760        	max	a7, a7, a6
    9d74:	02f8           	l32i.n	a15, a2, 0
    9d76:	7ca0e2        	movi	a14, 124
    9d79:	322b92        	l32i	a9, a11, 200
    9d7c:	5179           	s32i.n	a7, a1, 20
    9d7e:	4377a0        	min	a7, a7, a10
    9d81:	21dee2        	addmi	a14, a14, 0x2100
    9d84:	031674        	wur.ae_sar	a7
    9d87:	4502e4        	ae_lp16x2f.x	aep0, a2, a14
    9d8a:	a0a4f0        	addx4	a10, a4, a15
    9d8d:	41d240        	srli	a13, a4, 2
    9d90:	6179           	s32i.n	a7, a1, 24
    9d92:	80e2e0        	add	a14, a2, a14
    9d95:	04cab2        	addi	a11, a10, 4
    9d98:	f823ad190f 	{ ae_lp16x2f.i	aep1, a9, 0; ae_sllssp24s	aep0, aep0 }
    9d9d:	158d76        	loop	a13, 9db6 <fft_wo+0xa6>
    9da0:	e820edfe1f 	{ ae_lp16x2f.iu	aep7, a14, 4; ae_mulfp24s.hh	aeq1, aep0, aep1 }
    9da5:	eb21ed991f 	{ ae_lp16x2f.iu	aep1, a9, 4; ae_mulfp24s.ll	aeq3, aep0, aep1 }
    9daa:	f83fb85a6f 	{ ae_sq32f.x	aeq1, a10, a6; ae_sllssp24s	aep0, aep7 }
    9daf:	62bb64        	ae_sq32f.x	aeq3, a11, a6
    9db2:	256d           	ae_l16si.n	a6, a5, 0
    9db4:	558a           	add.n	a5, a5, a8
    9db6:	f842042fef 	{ movi	a14, 0x42f; ae_truncp24q48x2	aep0, aeq0, aeq0 }
    9dbb:	41f1c0        	srli	a15, a12, 1
    9dbe:	11eed0        	slli	a14, a14, 3
    9dc1:	c07df0        	sub	a7, a13, a15
    9dc4:	e2ea           	add.n	a14, a2, a14
    9dc6:	7149           	s32i.n	a4, a1, 28
    9dc8:	0217e6        	bgei	a7, 1, 9dce <fft_wo+0xbe>
    9dcb:	003846        	j	9eb0 <fft_wo+0x1a0>
    9dce:	41f9           	s32i.n	a15, a1, 16
    9dd0:	7ca0f2        	movi	a15, 124
    9dd3:	904c20        	addx2	a4, a12, a2
    9dd6:	21dfc2        	addmi	a12, a15, 0x2100
    9dd9:	7ca0f2        	movi	a15, 124
    9ddc:	21dff2        	addmi	a15, a15, 0x2100
    9ddf:	80c4c0        	add	a12, a4, a12
    9de2:	4524f4        	ae_lp16x2f.x	aep2, a4, a15
    9de5:	098776        	loop	a7, 9df2 <fft_wo+0xe2>
    9de8:	fc4873ae1f 	{ ae_sp16x2f.iu	aep2, a14, 4; ae_abssp24s	aep1, aep2 }
    9ded:	dc202dac1f 	{ ae_lp16x2f.iu	aep2, a12, 4; ae_orp48	aep0, aep0, aep1 }
    9df2:	41f8           	l32i.n	a15, a1, 16
    9df4:	4499f4        	ae_lp16x2f.iu	aep1, a9, -4
    9df7:	c04df0        	sub	a4, a13, a15
    9dfa:	0020f0        	nop
    9dfd:	1d8476        	loop	a4, 9e1e <fft_wo+0x10e>
    9e00:	f92bf3ae1f 	{ ae_sp16x2f.iu	aep2, a14, 4; ae_sllssp24s	aep3, aep2 }
    9e05:	013154        	ae_mulfp24s.hl	aeq0, aep3, aep1
    9e08:	e92ded99ff 	{ ae_lp16x2f.iu	aep1, a9, -4; ae_mulfp24s.lh	aeq3, aep3, aep1 }
    9e0d:	fe48384a6f 	{ ae_sq32f.x	aeq0, a10, a6; ae_abssp24s	aep4, aep2 }
    9e12:	dc80387b6f 	{ ae_sq32f.x	aeq3, a11, a6; ae_orp48	aep0, aep0, aep4 }
    9e17:	256d           	ae_l16si.n	a6, a5, 0
    9e19:	44ac14        	ae_lp16x2f.iu	aep2, a12, 4
    9e1c:	558a           	add.n	a5, a5, a8

00009e1e <fft_wo+0x10e>:
    9e1e:	0084d4        	ae_cvta32p24.h	a4, aep0
    9e21:	0007d4        	ae_cvta32p24.l	a7, aep0
    9e24:	51d8           	l32i.n	a13, a1, 20
    9e26:	204470        	or	a4, a4, a7
    9e29:	40e440        	nsa	a4, a4
    9e2c:	434d40        	min	a4, a13, a4
    9e2f:	175242        	s16i	a4, a2, 46
    9e32:	440304        	ae_lp16x2f.i	aep0, a3, 0
    9e35:	188f76        	loop	a15, 9e51 <fft_wo+0x141>
    9e38:	f923b38e1f 	{ ae_sp16x2f.iu	aep0, a14, 4; ae_sllssp24s	aep2, aep0 }
    9e3d:	ea28ad831f 	{ ae_lp16x2f.iu	aep0, a3, 4; ae_mulfp24s.hl	aeq0, aep2, aep1 }
    9e42:	e929ed99ff 	{ ae_lp16x2f.iu	aep1, a9, -4; ae_mulfp24s.lh	aeq3, aep2, aep1 }
    9e47:	628a64        	ae_sq32f.x	aeq0, a10, a6
    9e4a:	62bb64        	ae_sq32f.x	aeq3, a11, a6
    9e4d:	256d           	ae_l16si.n	a6, a5, 0
    9e4f:	558a           	add.n	a5, a5, a8

00009e51 <fft_wo+0x141>:
    9e51:	7158           	l32i.n	a5, a1, 28
    9e53:	0248           	l32i.n	a4, a2, 0
    9e55:	8c0c           	movi.n	a12, 8
    9e57:	413150        	srli	a3, a5, 1
    9e5a:	a0a540        	addx4	a10, a5, a4
    9e5d:	d9a241        	l32r	a4, 4e8 (c408 <sw_fft_32b_2811>)
    9e60:	1d0c           	movi.n	a13, 1
    9e62:	0e0c           	movi.n	a14, 0
    9e64:	03bd           	mov.n	a11, a3
    9e66:	0004e0        	callx8	a4
    9e69:	25d242        	addmi	a4, a2, 0x2500
    9e6c:	6168           	l32i.n	a6, a1, 24
    9e6e:	0258           	l32i.n	a5, a2, 0
    9e70:	2f2442        	l32i	a4, a4, 188
    9e73:	c066a0        	sub	a6, a6, a10
    9e76:	185262        	s16i	a6, a2, 48
    9e79:	057d           	mov.n	a7, a5
    9e7b:	f8c482        	addi	a8, a4, -8
    9e7e:	058376        	loop	a3, 9e87 <fft_wo+0x177>
    9e81:	5c8714        	ae_lp24x2f.iu	aep0, a7, 8
    9e84:	5e8814        	ae_sp24x2f.iu	aep0, a8, 8
    9e87:	1d1272        	l16ui	a7, a2, 58
    9e8a:	1136f0        	slli	a3, a6, 1
    9e8d:	1d0c           	movi.n	a13, 1
    9e8f:	13d2e2        	addmi	a14, a2, 0x1300
    9e92:	c03d30        	sub	a3, a13, a3
    9e95:	f73b           	addi.n	a15, a7, 3
    9e97:	fcc522        	addi	a2, a5, -4
    9e9a:	5c0404        	ae_lp24x2f.i	aep0, a4, 0
    9e9d:	7a5e32        	s16i	a3, a14, 244
    9ea0:	0a8f76        	loop	a15, 9eae <fft_wo+0x19e>
    9ea3:	f003af841f 	{ ae_lp24x2f.iu	aep0, a4, 8; ae_mulzaap24s.hh.ll	aeq0, aep0, aep0 }
    9ea8:	060834        	ae_roundsq32sym	aeq0, aeq0
    9eab:	624214        	ae_sq32f.iu	aeq0, a2, 4
    9eae:	f01d           	retw.n

00009eb0 <fft_wo+0x1a0>:
    9eb0:	4499f4        	ae_lp16x2f.iu	aep1, a9, -4
    9eb3:	ffd9c6        	j	9e1e <fft_wo+0x10e>

00009eb6 <fft_wo+0x1a6>:
	...

00009eb8 <NR_vad1>:
    9eb8:	008136        	entry	a1, 64
    9ebb:	3802c2        	l8ui	a12, a2, 56
    9ebe:	d9af81        	l32r	a8, 57c (f520 <wb_sb_ptn>)
    9ec1:	d9af91        	l32r	a9, 580 (f550 <nb_sb_ptn>)
    9ec4:	080c16        	beqz	a12, 9f48 <NR_vad1+0x90>
    9ec7:	97a0b2        	movi	a11, 151
    9eca:	02d8           	l32i.n	a13, a2, 0
    9ecc:	d9ae61        	l32r	a6, 584 (f580 <swb_sb_ptn>)
    9ecf:	4143c0        	srli	a4, a12, 3
    9ed2:	9a0c           	movi.n	a10, 9
    9ed4:	11bba0        	slli	a11, a11, 6
    9ed7:	13d232        	addmi	a3, a2, 0x1300
    9eda:	f2ba           	add.n	a15, a2, a11
    9edc:	939840        	movnez	a9, a8, a4
    9edf:	62eac0        	saltu	a14, a10, a12
    9ee2:	7139           	s32i.n	a3, a1, 28
    9ee4:	25d252        	addmi	a5, a2, 0x2500
    9ee7:	5129           	s32i.n	a2, a1, 20
    9ee9:	113ce0        	slli	a3, a12, 2
    9eec:	070c           	movi.n	a7, 0
    9eee:	61c9           	s32i.n	a12, a1, 24
    9ef0:	8369e0        	moveqz	a6, a9, a14
    9ef3:	41f9           	s32i.n	a15, a1, 16
    9ef5:	fd24bd0d3f 	{ ae_lq32f.i	aeq0, a13, 12; ae_zeroq56	aeq1 }
    9efa:	2dcb           	addi.n	a2, a13, 12

00009efc <NR_vad1+0x44>:
    9efc:	264d           	ae_l16si.n	a4, a6, 0
    9efe:	368d           	ae_l16si.n	a8, a6, 2
    9f00:	c04840        	sub	a4, a8, a4
    9f03:	0714a6        	blti	a4, 1, 9f0e <NR_vad1+0x56>
    9f06:	048476        	loop	a4, 9f0e <NR_vad1+0x56>
    9f09:	f96a3d121f 	{ ae_lq32f.iu	aeq0, a2, 4; ae_addq56	aeq1, aeq1, aeq0 }

00009f0e <NR_vad1+0x56>:
    9f0e:	7188           	l32i.n	a8, a1, 28
    9f10:	365404        	ae_nsaq56s	a4, aeq1
    9f13:	7a9882        	l16si	a8, a8, 244
    9f16:	f8c442        	addi	a4, a4, -8
    9f19:	fc24fe940f 	{ ae_slaasq56s	aeq0, aeq1, a4; nop }
    9f1e:	c0b840        	sub	a11, a8, a4
    9f21:	368a04        	ae_trunca32q48	a10, aeq0
    9f24:	d8b941        	l32r	a4, 208 (a24 <Log2_norm>)
    9f27:	0004e0        	callx8	a4
    9f2a:	fd24b3054e 	{ l32i	a4, a5, 192; ae_zeroq56	aeq1 }
    9f2f:	600204        	ae_lq32f.i	aeq0, a2, 0
    9f32:	662b           	addi.n	a6, a6, 2
    9f34:	847a           	add.n	a8, a4, a7
    9f36:	774b           	addi.n	a7, a7, 4
    9f38:	08a9           	s32i.n	a10, a8, 0
    9f3a:	be9377        	bne	a3, a7, 9efc <NR_vad1+0x44>
    9f3d:	61c8           	l32i.n	a12, a1, 24
    9f3f:	5128           	l32i.n	a2, a1, 20
    9f41:	41b8           	l32i.n	a11, a1, 16
    9f43:	0003c6        	j	9f56 <NR_vad1+0x9e>

00009f46 <NR_vad1+0x8e>:
	...

00009f48 <NR_vad1+0x90>:
    9f48:	25d232        	addmi	a3, a2, 0x2500
    9f4b:	97a052        	movi	a5, 151
    9f4e:	302342        	l32i	a4, a3, 192
    9f51:	1155a0        	slli	a5, a5, 6
    9f54:	b25a           	add.n	a11, a2, a5
    9f56:	d98561        	l32r	a6, 56c (f280 <NR_immediate_num>)
    9f59:	075c16        	beqz	a12, 9fd2 <NR_vad1+0x11a>
    9f5c:	039232        	l16si	a3, a2, 6
    9f5f:	f7a472        	movi	a7, 0x4f7
    9f62:	9fa082        	movi	a8, 159
    9f65:	4ca4a2        	movi	a10, 0x44c
    9f68:	74a452        	movi	a5, 0x474
    9f6b:	1177e0        	slli	a7, a7, 2
    9f6e:	1188b0        	slli	a8, a8, 5
    9f71:	113300        	slli	a3, a3, 16
    9f74:	360334        	ae_cvtq48a32s	aeq0, a3
    9f77:	604404        	ae_lq32f.i	aeq1, a4, 0
    9f7a:	030c           	movi.n	a3, 0
    9f7c:	60ba24        	ae_lq32f.xu	aeq2, a10, a2
    9f7f:	525a           	add.n	a5, a2, a5
    9f81:	727a           	add.n	a7, a2, a7
    9f83:	828a           	add.n	a8, a2, a8
    9f85:	338c76        	loop	a12, 9fbc <NR_vad1+0x104>
    9f88:	d6c813988f 	{ or	a9, a8, a8; ae_ltq56s	b0, aeq2, aeq1 }
    9f8d:	08ed           	mov.n	a14, a8
    9f8f:	f36b           	addi.n	a15, a3, 6
    9f91:	d39700        	movt	a9, a7, b0
    9f94:	440904        	ae_lp16x2f.i	aep0, a9, 0
    9f97:	c18064        	ae_mulzaafq32sp16s.lh	aeq2, aeq1, aep0, aeq2, aep0
    9f9a:	622a04        	ae_sq32f.i	aeq2, a10, 0
    9f9d:	60d514        	ae_lq32f.iu	aeq3, a5, 4
    9fa0:	09b104        	ae_ltq56s	b0, aeq1, aeq3
    9fa3:	d3e700        	movt	a14, a7, b0
    9fa6:	447e04        	ae_lp16x2f.i	aep7, a14, 0
    9fa9:	c1ff74        	ae_mulzaafq32sp16s.lh	aeq3, aeq1, aep7, aeq3, aep7
    9fac:	fab6f9b50f 	{ ae_sq32f.i	aeq3, a5, 0; ae_subq56	aeq2, aeq2, aeq3 }
    9fb1:	d6503d341f 	{ ae_lq32f.iu	aeq1, a4, 4; ae_ltq56s	b0, aeq0, aeq2 }
    9fb6:	609a14        	ae_lq32f.iu	aeq2, a10, 4
    9fb9:	d33f00        	movt	a3, a15, b0

00009fbc <NR_vad1+0x104>:
    9fbc:	050c           	movi.n	a5, 0
    9fbe:	0b48           	l32i.n	a4, a11, 0
    9fc0:	f68b           	addi.n	a15, a6, 8
    9fc2:	723530        	salt	a3, a5, a3
    9fc5:	66cb           	addi.n	a6, a6, 12
    9fc7:	936f30        	movnez	a6, a15, a3
    9fca:	8ccc           	bnez.n	a12, 9fd6 <NR_vad1+0x11e>
    9fcc:	000b46        	j	9ffd <NR_vad1+0x145>

00009fcf <NR_vad1+0x117>:
    9fcf:	000000                                        ...

00009fd2 <NR_vad1+0x11a>:
    9fd2:	66cb           	addi.n	a6, a6, 12
    9fd4:	5cac           	beqz.n	a12, 9ffd <NR_vad1+0x145>
    9fd6:	129232        	l16si	a3, a2, 36
    9fd9:	a4a452        	movi	a5, 0x4a4
    9fdc:	602254        	ae_lq32f.x	aeq0, a2, a5
    9fdf:	113300        	slli	a3, a3, 16
    9fe2:	440604        	ae_lp16x2f.i	aep0, a6, 0
    9fe5:	608404        	ae_lq32f.i	aeq2, a4, 0
    9fe8:	225a           	add.n	a2, a2, a5
    9fea:	364334        	ae_cvtq48a32s	aeq1, a3
    9fed:	0c8c76        	loop	a12, 9ffd <NR_vad1+0x145>
    9ff0:	0f003d121f 	{ ae_lq32f.iu	aeq0, a2, 4; ae_mulzaafq32sp16s.lh	aeq2, aeq2, aep0, aeq0, aep0 }
    9ff5:	fb773d541f 	{ ae_lq32f.iu	aeq2, a4, 4; ae_maxq56s	aeq3, aeq1, aeq2 }
    9ffa:	6232f4        	ae_sq32f.i	aeq3, a2, -4

00009ffd <NR_vad1+0x145>:
    9ffd:	f01d           	retw.n

00009fff <NR_vad1+0x147>:
	...

0000a000 <NR_vad2>:
    a000:	008136        	entry	a1, 64
    a003:	1a1232        	l16ui	a3, a2, 52
    a006:	021242        	l16ui	a4, a2, 4
    a009:	3802a2        	l8ui	a10, a2, 56
    a00c:	2ca3f2        	movi	a15, 0x32c
    a00f:	739347        	bne	a3, a4, a086 <NR_vad2+0x86>
    a012:	129232        	l16si	a3, a2, 36
    a015:	040c           	movi.n	a4, 0
    a017:	1a5242        	s16i	a4, a2, 52
    a01a:	71a9           	s32i.n	a10, a1, 28
    a01c:	9aac           	beqz.n	a10, a049 <NR_vad2+0x49>
    a01e:	d91051        	l32r	a5, 460 (6f68 <take_min_four>)
    a021:	7178           	l32i.n	a7, a1, 28
    a023:	08d332        	addmi	a3, a3, 0x800
    a026:	44a342        	movi	a4, 0x344
    a029:	d0a482        	movi	a8, 0x4d0
    a02c:	116300        	slli	a6, a3, 16
    a02f:	324a           	add.n	a3, a2, a4
    a031:	428a           	add.n	a4, a2, a8

0000a033 <NR_vad2+0x33>:
    a033:	cb0c           	movi.n	a11, 12
    a035:	03ad           	mov.n	a10, a3
    a037:	0005e0        	callx8	a5
    a03a:	5386a0        	max	a8, a6, a10
    a03d:	770b           	addi.n	a7, a7, -1
    a03f:	0489           	s32i.n	a8, a4, 0
    a041:	18c332        	addi	a3, a3, 24
    a044:	444b           	addi.n	a4, a4, 4
    a046:	fe9756        	bnez	a7, a033 <NR_vad2+0x33>
    a049:	370232        	l8ui	a3, a2, 55
    a04c:	71a8           	l32i.n	a10, a1, 28
    a04e:	331b           	addi.n	a3, a3, 1
    a050:	744030        	extui	a4, a3, 0, 8
    a053:	f4c442        	addi	a4, a4, -12
    a056:	934340        	movnez	a4, a3, a4
    a059:	a4a432        	movi	a3, 0x4a4
    a05c:	603324        	ae_lq32f.xu	aeq0, a3, a2
    a05f:	374242        	s8i	a4, a2, 55
    a062:	061a16        	beqz	a10, a0c7 <NR_vad2+0xc7>
    a065:	744040        	extui	a4, a4, 0, 8
    a068:	620154        	ae_sq32f.i	aeq0, a1, 20
    a06b:	2ca3f2        	movi	a15, 0x32c
    a06e:	904420        	addx2	a4, a4, a2
    a071:	604154        	ae_lq32f.i	aeq1, a1, 20
    a074:	44fa           	add.n	a4, a4, a15
    a076:	851c           	movi.n	a5, 24
    a078:	078a76        	loop	a10, a083 <NR_vad2+0x83>
    a07b:	f8ebbd331f 	{ ae_lq32f.iu	aeq1, a3, 4; ae_roundsp16q48sym	aep0, aeq1 }
    a080:	438454        	ae_sp16f.l.xu	aep0, a4, a5

0000a083 <NR_vad2+0x83>:
    a083:	0009c6        	j	a0ae <NR_vad2+0xae>

0000a086 <NR_vad2+0x86>:
    a086:	a4a432        	movi	a3, 0x4a4
    a089:	603324        	ae_lq32f.xu	aeq0, a3, a2
    a08c:	7abc           	beqz.n	a10, a0c7 <NR_vad2+0xc7>
    a08e:	620164        	ae_sq32f.i	aeq0, a1, 24
    a091:	370252        	l8ui	a5, a2, 55
    a094:	604164        	ae_lq32f.i	aeq1, a1, 24
    a097:	905520        	addx2	a5, a5, a2
    a09a:	45fa           	add.n	a4, a5, a15
    a09c:	851c           	movi.n	a5, 24
    a09e:	0c8a76        	loop	a10, a0ae <NR_vad2+0xae>
    a0a1:	f8ebda045f 	{ ae_lp16f.xu	aep0, a4, a5; ae_roundsp16q48sym	aep1, aeq1 }
    a0a6:	d822bd331f 	{ ae_lq32f.iu	aeq1, a3, 4; ae_minp24s	aep0, aep0, aep1 }
    a0ab:	420404        	ae_sp16f.l.i	aep0, a4, 0

0000a0ae <NR_vad2+0xae>:
    a0ae:	1a9232        	l16si	a3, a2, 52
    a0b1:	d84a41        	l32r	a4, 1dc (ccccd <_end+0xbd72d>)
    a0b4:	399444        	ae_movpa24x2	aep1, a4, a4
    a0b7:	331b           	addi.n	a3, a3, 1
    a0b9:	1a5232        	s16i	a3, a2, 52
    a0bc:	129ab6        	bltui	a10, 10, a0d2 <NR_vad2+0xd2>
    a0bf:	d80c31        	l32r	a3, f0 (f560 <swb_score_bands>)
    a0c2:	000906        	j	a0ea <NR_vad2+0xea>

0000a0c5 <NR_vad2+0xc5>:
	...

0000a0c7 <NR_vad2+0xc7>:
    a0c7:	1a9232        	l16si	a3, a2, 52
    a0ca:	331b           	addi.n	a3, a3, 1
    a0cc:	1a5232        	s16i	a3, a2, 52
    a0cf:	000386        	j	a0e1 <NR_vad2+0xe1>

0000a0d2 <NR_vad2+0xd2>:
    a0d2:	0b8ab6        	bltui	a10, 8, a0e1 <NR_vad2+0xe1>
    a0d5:	d92c31        	l32r	a3, 588 (e38e4 <_end+0xd4344>)
    a0d8:	399334        	ae_movpa24x2	aep1, a3, a3
    a0db:	d80631        	l32r	a3, f4 (f500 <wb_score_bands>)
    a0de:	000206        	j	a0ea <NR_vad2+0xea>

0000a0e1 <NR_vad2+0xe1>:
    a0e1:	d92a31        	l32r	a3, 58c (124925 <_end+0x115385>)
    a0e4:	399334        	ae_movpa24x2	aep1, a3, a3
    a0e7:	d92a31        	l32r	a3, 590 (f540 <nb_score_bands>)
    a0ea:	fd2480625e 	{ addi	a5, a2, 6; ae_zeroq56	aeq1 }
    a0ef:	fc208fe33e 	{ addi	a3, a3, -2; ae_zerop48	aep0 }
    a0f4:	049a16        	beqz	a10, a141 <NR_vad2+0x141>
    a0f7:	620144        	ae_sq32f.i	aeq0, a1, 16
    a0fa:	25d292        	addmi	a9, a2, 0x2500
    a0fd:	3129f2        	l32i	a15, a9, 196
    a100:	d0a462        	movi	a6, 0x4d0
    a103:	a4a482        	movi	a8, 0x4a4
    a106:	608144        	ae_lq32f.i	aeq2, a1, 16
    a109:	170c           	movi.n	a7, 1
    a10b:	60f624        	ae_lq32f.xu	aeq3, a6, a2
    a10e:	828a           	add.n	a8, a2, a8
    a110:	f8b6cfcf9e 	{ addi	a9, a15, -4; ae_subq56	aeq0, aeq2, aeq3 }
    a115:	288a76        	loop	a10, a141 <NR_vad2+0x141>
    a118:	40a514        	ae_lp16f.iu	aep2, a5, 2
    a11b:	ff4c00004f 	{ movi	a4, 0; ae_cvtq48p24s.l	aeq3, aep2 }
    a120:	d6c42ca31f 	{ ae_lp16f.iu	aep2, a3, 2; ae_ltq56s	b0, aeq3, aeq0 }
    a125:	faa6d6470f 	{ movt	a4, a7, b0; ae_subq56	aeq2, aeq0, aeq3 }
    a12a:	148c           	beqz.n	a4, a12f <NR_vad2+0x12f>
    a12c:	078204        	ae_addsp24s	aep0, aep0, aep2
    a12f:	f4c6fb20df 	{ ae_sraiq56	aeq3, aeq2, 1; ae_mulafq32sp24s.l	aeq1, aeq0, aep1 }
    a134:	f9de3d581f 	{ ae_lq32f.iu	aeq2, a8, 4; ae_truncp24q48x2	aep2, aeq3, aeq3 }
    a139:	60d614        	ae_lq32f.iu	aeq3, a6, 4
    a13c:	f8b6f4a91f 	{ ae_sp24f.l.iu	aep2, a9, 4; ae_subq56	aeq0, aeq2, aeq3 }

0000a141 <NR_vad2+0x141>:
    a141:	409514        	ae_lp16f.iu	aep1, a5, 2
    a144:	fc2c00004f 	{ movi	a4, 0; ae_cvtq48p24s.l	aeq0, aep1 }
    a149:	d64800015f 	{ movi	a5, 1; ae_ltq56s	b0, aeq0, aeq1 }
    a14e:	d34500        	movt	a4, a5, b0
    a151:	448c           	beqz.n	a4, a159 <NR_vad2+0x159>
    a153:	409314        	ae_lp16f.iu	aep1, a3, 2
    a156:	078104        	ae_addsp24s	aep0, aep0, aep1

0000a159 <NR_vad2+0x159>:
    a159:	32c222        	addi	a2, a2, 50
    a15c:	420204        	ae_sp16f.l.i	aep0, a2, 0
    a15f:	f01d           	retw.n

0000a161 <NR_vad2+0x161>:
    a161:	000000                                        ...

0000a164 <NR_vad2_low>:
    a164:	00a136        	entry	a1, 80
    a167:	02cd           	mov.n	a12, a2
    a169:	03dd           	mov.n	a13, a3
    a16b:	48c252        	addi	a5, a2, 72
    a16e:	7a24e6        	bgei	a4, 2, a1ec <NR_vad2_low+0x88>
    a171:	201c22        	l16ui	a2, a12, 64
    a174:	021c32        	l16ui	a3, a12, 4
    a177:	3c0c62        	l8ui	a6, a12, 60
    a17a:	a4a442        	movi	a4, 0x4a4
    a17d:	749237        	bne	a2, a3, a1f5 <NR_vad2_low+0x91>
    a180:	129c32        	l16si	a3, a12, 36
    a183:	020c           	movi.n	a2, 0
    a185:	205c22        	s16i	a2, a12, 64
    a188:	d8b621        	l32r	a2, 460 (6f68 <take_min_four>)
    a18b:	08d332        	addmi	a3, a3, 0x800
    a18e:	a1d9           	s32i.n	a13, a1, 40
    a190:	74cc42        	addi	a4, a12, 116
    a193:	48cc62        	addi	a6, a12, 72
    a196:	470c           	movi.n	a7, 4
    a198:	113300        	slli	a3, a3, 16
    a19b:	b1c9           	s32i.n	a12, a1, 44

0000a19d <NR_vad2_low+0x39>:
    a19d:	cb0c           	movi.n	a11, 12
    a19f:	04ad           	mov.n	a10, a4
    a1a1:	0002e0        	callx8	a2
    a1a4:	5383a0        	max	a8, a3, a10
    a1a7:	770b           	addi.n	a7, a7, -1
    a1a9:	0689           	s32i.n	a8, a6, 0
    a1ab:	18c442        	addi	a4, a4, 24
    a1ae:	664b           	addi.n	a6, a6, 4
    a1b0:	fe9756        	bnez	a7, a19d <NR_vad2_low+0x39>
    a1b3:	b1c8           	l32i.n	a12, a1, 44
    a1b5:	a4a432        	movi	a3, 0x4a4
    a1b8:	a1d8           	l32i.n	a13, a1, 40
    a1ba:	3c0c42        	l8ui	a4, a12, 60
    a1bd:	6033c4        	ae_lq32f.xu	aeq0, a3, a12
    a1c0:	470c           	movi.n	a7, 4
    a1c2:	441b           	addi.n	a4, a4, 1
    a1c4:	746040        	extui	a6, a4, 0, 8
    a1c7:	f4c662        	addi	a6, a6, -12
    a1ca:	936460        	movnez	a6, a4, a6
    a1cd:	744060        	extui	a4, a6, 0, 8
    a1d0:	9044c0        	addx2	a4, a4, a12
    a1d3:	821c           	movi.n	a2, 24
    a1d5:	604304        	ae_lq32f.i	aeq1, a3, 0
    a1d8:	5cc442        	addi	a4, a4, 92
    a1db:	3c4c62        	s8i	a6, a12, 60
    a1de:	078776        	loop	a7, a1e9 <NR_vad2_low+0x85>
    a1e1:	f8ebbd331f 	{ ae_lq32f.iu	aeq1, a3, 4; ae_roundsp16q48sym	aep0, aeq1 }
    a1e6:	438424        	ae_sp16f.l.xu	aep0, a4, a2

0000a1e9 <NR_vad2_low+0x85>:
    a1e9:	000a06        	j	a215 <NR_vad2_low+0xb1>

0000a1ec <NR_vad2_low+0x88>:
    a1ec:	a4a422        	movi	a2, 0x4a4
    a1ef:	602c24        	ae_lq32f.x	aeq0, a12, a2
    a1f2:	0009c6        	j	a21d <NR_vad2_low+0xb9>

0000a1f5 <NR_vad2_low+0x91>:
    a1f5:	6034c4        	ae_lq32f.xu	aeq0, a4, a12
    a1f8:	9036c0        	addx2	a3, a6, a12
    a1fb:	460c           	movi.n	a6, 4
    a1fd:	821c           	movi.n	a2, 24
    a1ff:	604404        	ae_lq32f.i	aeq1, a4, 0
    a202:	5cc332        	addi	a3, a3, 92
    a205:	0c8676        	loop	a6, a215 <NR_vad2_low+0xb1>
    a208:	f8ebda032f 	{ ae_lp16f.xu	aep0, a3, a2; ae_roundsp16q48sym	aep1, aeq1 }
    a20d:	d822bd341f 	{ ae_lq32f.iu	aeq1, a4, 4; ae_minp24s	aep0, aep0, aep1 }
    a212:	420304        	ae_sp16f.l.i	aep0, a3, 0

0000a215 <NR_vad2_low+0xb1>:
    a215:	209c22        	l16si	a2, a12, 64
    a218:	221b           	addi.n	a2, a2, 1
    a21a:	205c22        	s16i	a2, a12, 64

0000a21d <NR_vad2_low+0xb9>:
    a21d:	604504        	ae_lq32f.i	aeq1, a5, 0
    a220:	620134        	ae_sq32f.i	aeq0, a1, 12
    a223:	04a032        	movi	a3, 4
    a226:	a4a4f2        	movi	a15, 0x4a4
    a229:	600134        	ae_lq32f.i	aeq0, a1, 12
    a22c:	06cc42        	addi	a4, a12, 6
    a22f:	0cc162        	addi	a6, a1, 12
    a232:	802cf0        	add	a2, a12, a15
    a235:	188376        	loop	a3, a251 <NR_vad2_low+0xed>
    a238:	f826ec841f 	{ ae_lp16f.iu	aep0, a4, 2; ae_subq56	aeq0, aeq0, aeq1 }
    a23d:	0ac084        	ae_cvtq48p24s.l	aeq3, aep0
    a240:	010fc4        	ae_subq56	aeq0, aeq0, aeq3
    a243:	354074        	ae_sraiq56	aeq1, aeq0, 1
    a246:	fb4e7d121f 	{ ae_lq32f.iu	aeq0, a2, 4; ae_truncp24q48x2	aep7, aeq1, aeq1 }
    a24b:	605514        	ae_lq32f.iu	aeq1, a5, 4
    a24e:	52f614        	ae_sp24f.l.iu	aep7, a6, 4

0000a251 <NR_vad2_low+0xed>:
    a251:	4128           	l32i.n	a2, a1, 16
    a253:	5138           	l32i.n	a3, a1, 20
    a255:	040c           	movi.n	a4, 0
    a257:	0f12e6        	bgei	a2, 1, a26a <NR_vad2_low+0x106>
    a25a:	0c13e6        	bgei	a3, 1, a26a <NR_vad2_low+0x106>
    a25d:	6128           	l32i.n	a2, a1, 24
    a25f:	7138           	l32i.n	a3, a1, 28
    a261:	0512e6        	bgei	a2, 1, a26a <NR_vad2_low+0x106>
    a264:	0213e6        	bgei	a3, 1, a26a <NR_vad2_low+0x106>
    a267:	003946        	j	a350 <NR_vad2_low+0x1ec>

0000a26a <NR_vad2_low+0x106>:
    a26a:	140c           	movi.n	a4, 1
    a26c:	3f0c22        	l8ui	a2, a12, 63
    a26f:	66a652        	movi	a5, 0x666
    a272:	0ce216        	beqz	a2, a344 <NR_vad2_low+0x1e0>
    a275:	050c           	movi.n	a5, 0
    a277:	239c22        	l16si	a2, a12, 70
    a27a:	219c32        	l16si	a3, a12, 66
    a27d:	14a282        	movi	a8, 0x214
    a280:	926d           	ae_zext16	a6, a2
    a282:	939d           	ae_zext16	a9, a3
    a284:	7c8a           	add.n	a7, a12, a8
    a286:	281697        	beq	a6, a9, a2b2 <NR_vad2_low+0x14e>
    a289:	aca2a2        	movi	a10, 0x2ac
    a28c:	c02230        	sub	a2, a2, a3
    a28f:	acaa           	add.n	a10, a12, a10
    a291:	a3a720        	movltz	a10, a7, a2
    a294:	26a0b2        	movi	a11, 38
    a297:	603120        	abs	a3, a2
    a29a:	fccaa2        	addi	a10, a10, -4
    a29d:	088b76        	loop	a11, a2a9 <NR_vad2_low+0x145>
    a2a0:	601a14        	ae_lq32f.iu	aeq0, a10, 4
    a2a3:	3403a4        	ae_srlaq56	aeq0, aeq0, a3
    a2a6:	620a04        	ae_sq32f.i	aeq0, a10, 0

0000a2a9 <NR_vad2_low+0x145>:
    a2a9:	a36920        	movltz	a6, a9, a2
    a2ac:	215c62        	s16i	a6, a12, 66
    a2af:	235c62        	s16i	a6, a12, 70

0000a2b2 <NR_vad2_low+0x14e>:
    a2b2:	120c           	movi.n	a2, 1
    a2b4:	112210        	slli	a2, a2, 15
    a2b7:	fc2495225f 	{ sub	a2, a2, a5; ae_zeroq56	aeq0 }
    a2bc:	632c           	movi.n	a3, 38
    a2be:	a8a2f2        	movi	a15, 0x2a8
    a2c1:	606c84        	ae_lq32f.x	aeq1, a12, a8
    a2c4:	300524        	ae_cvtp24a16x2.ll	aep0, a5, a2
    a2c7:	8cfa           	add.n	a8, a12, a15
    a2c9:	188376        	loop	a3, a2e5 <NR_vad2_low+0x181>
    a2cc:	609814        	ae_lq32f.iu	aeq2, a8, 4
    a2cf:	b58c           	beqz.n	a5, a2de <NR_vad2_low+0x17a>
    a2d1:	0f00bd371f 	{ ae_lq32f.iu	aeq1, a7, 4; ae_mulzaafq32sp16s.lh	aeq2, aeq2, aep0, aeq1, aep0 }
    a2d6:	f87339a80f 	{ ae_sq32f.i	aeq2, a8, 0; ae_maxq56s	aeq0, aeq0, aeq2 }
    a2db:	000106        	j	a2e3 <NR_vad2_low+0x17f>

0000a2de <NR_vad2_low+0x17a>:
    a2de:	f8733d371f 	{ ae_lq32f.iu	aeq1, a7, 4; ae_maxq56s	aeq0, aeq0, aeq2 }
    a2e3:	f03d           	nop.n

0000a2e5 <NR_vad2_low+0x181>:
    a2e5:	364204        	ae_nsaq56s	a2, aeq0
    a2e8:	930c           	movi.n	a3, 9
    a2ea:	652c           	movi.n	a5, 38
    a2ec:	1d2237        	blt	a2, a3, a30d <NR_vad2_low+0x1a9>
    a2ef:	f8c222        	addi	a2, a2, -8
    a2f2:	c03620        	sub	a3, a6, a2
    a2f5:	aca2f2        	movi	a15, 0x2ac
    a2f8:	401200        	ssl	a2
    a2fb:	802cf0        	add	a2, a12, a15
    a2fe:	215c32        	s16i	a3, a12, 66
    a301:	088576        	loop	a5, a30d <NR_vad2_low+0x1a9>
    a304:	0238           	l32i.n	a3, a2, 0
    a306:	a13300        	sll	a3, a3
    a309:	0239           	s32i.n	a3, a2, 0
    a30b:	224b           	addi.n	a2, a2, 4

0000a30d <NR_vad2_low+0x1a9>:
    a30d:	0bdd22        	addmi	a2, a13, 0xb00
    a310:	362222        	l32i	a2, a2, 216
    a313:	7ca132        	movi	a3, 0x17c
    a316:	652c           	movi.n	a5, 38
    a318:	3c3a           	add.n	a3, a12, a3
    a31a:	0c8576        	loop	a5, a32a <NR_vad2_low+0x1c6>
    a31d:	0358           	l32i.n	a5, a3, 0
    a31f:	266352        	s32i	a5, a3, 152
    a322:	0258           	l32i.n	a5, a2, 0
    a324:	0359           	s32i.n	a5, a3, 0
    a326:	224b           	addi.n	a2, a2, 4
    a328:	334b           	addi.n	a3, a3, 4

0000a32a <NR_vad2_low+0x1c6>:
    a32a:	0cdde2        	addmi	a14, a13, 0xc00
    a32d:	3e0c22        	l8ui	a2, a12, 62
    a330:	229c32        	l16si	a3, a12, 68
    a333:	119ef2        	l16si	a15, a14, 34
    a336:	3e4c42        	s8i	a4, a12, 62
    a339:	235c32        	s16i	a3, a12, 70
    a33c:	3f4c22        	s8i	a2, a12, 63
    a33f:	225cf2        	s16i	a15, a12, 68
    a342:	f01d           	retw.n

0000a344 <NR_vad2_low+0x1e0>:
    a344:	f2d456        	bnez	a4, a275 <NR_vad2_low+0x111>
    a347:	3e0c22        	l8ui	a2, a12, 62
    a34a:	f29216        	beqz	a2, a277 <NR_vad2_low+0x113>
    a34d:	ffc906        	j	a275 <NR_vad2_low+0x111>

0000a350 <NR_vad2_low+0x1ec>:
    a350:	ffc606        	j	a26c <NR_vad2_low+0x108>

0000a353 <NR_vad2_low+0x1ef>:
	...

0000a354 <NR_NoiseEstimate>:
    a354:	004136        	entry	a1, 32
    a357:	380262        	l8ui	a6, a2, 56
    a35a:	940c           	movi.n	a4, 9
    a35c:	0258           	l32i.n	a5, a2, 0
    a35e:	00a482        	movi	a8, 0x400
    a361:	00a272        	movi	a7, 0x200
    a364:	624460        	saltu	a4, a4, a6
    a367:	1d1232        	l16ui	a3, a2, 58
    a36a:	937840        	movnez	a7, a8, a4
    a36d:	a08750        	addx4	a8, a7, a5
    a370:	a04380        	addx4	a4, a3, a8
    a373:	339c           	beqz.n	a3, a38a <NR_NoiseEstimate+0x36>
    a375:	1092b2        	l16si	a11, a2, 32
    a378:	090c           	movi.n	a9, 0
    a37a:	04ad           	mov.n	a10, a4
    a37c:	11bbc0        	slli	a11, a11, 4
    a37f:	078376        	loop	a3, a38a <NR_NoiseEstimate+0x36>
    a382:	08b9           	s32i.n	a11, a8, 0
    a384:	0a99           	s32i.n	a9, a10, 0
    a386:	884b           	addi.n	a8, a8, 4
    a388:	aa4b           	addi.n	a10, a10, 4

0000a38a <NR_NoiseEstimate+0x36>:
    a38a:	360282        	l8ui	a8, a2, 54
    a38d:	02ad           	mov.n	a10, a2
    a38f:	1912b2        	l16ui	a11, a2, 50
    a392:	14e817        	bbsi	a8, 1, a3aa <NR_NoiseEstimate+0x56>
    a395:	491c           	movi.n	a9, 20
    a397:	0b8d           	mov.n	a8, a11
    a399:	1839b7        	bltu	a9, a11, a3b5 <NR_NoiseEstimate+0x61>
    a39c:	0278b6        	bltui	a8, 7, a3a2 <NR_NoiseEstimate+0x4e>
    a39f:	002a46        	j	a44c <NR_NoiseEstimate+0xf8>
    a3a2:	f9a482        	movi	a8, 0x4f9
    a3a5:	002c86        	j	a45b <NR_NoiseEstimate+0x107>

0000a3a8 <NR_NoiseEstimate+0x54>:
	...

0000a3aa <NR_NoiseEstimate+0x56>:
    a3aa:	d87a31        	l32r	a3, 594 (a68 <PD_Noise_Est>)
    a3ad:	0003e0        	callx8	a3
    a3b0:	0258           	l32i.n	a5, a2, 0
    a3b2:	1d1232        	l16ui	a3, a2, 58
    a3b5:	13d262        	addmi	a6, a2, 0x1300
    a3b8:	7a9692        	l16si	a9, a6, 244
    a3bb:	7b96a2        	l16si	a10, a6, 246
    a3be:	75cb           	addi.n	a7, a5, 12
    a3c0:	998d           	ae_zext16	a8, a9
    a3c2:	9abd           	ae_zext16	a11, a10
    a3c4:	2718b7        	beq	a8, a11, a3ef <NR_NoiseEstimate+0x9b>
    a3c7:	c0a9a0        	sub	a10, a9, a10
    a3ca:	a38ba0        	movltz	a8, a11, a10
    a3cd:	839c           	beqz.n	a3, a3e9 <NR_NoiseEstimate+0x95>
    a3cf:	fca4b2        	movi	a11, 0x4fc
    a3d2:	b2ba           	add.n	a11, a2, a11
    a3d4:	a3b7a0        	movltz	a11, a7, a10
    a3d7:	6091a0        	abs	a9, a10
    a3da:	fccba2        	addi	a10, a11, -4
    a3dd:	088376        	loop	a3, a3e9 <NR_NoiseEstimate+0x95>
    a3e0:	601a14        	ae_lq32f.iu	aeq0, a10, 4
    a3e3:	3409a4        	ae_srlaq56	aeq0, aeq0, a9
    a3e6:	620a04        	ae_sq32f.i	aeq0, a10, 0

0000a3e9 <NR_NoiseEstimate+0x95>:
    a3e9:	7b5682        	s16i	a8, a6, 246
    a3ec:	7a5682        	s16i	a8, a6, 244

0000a3ef <NR_NoiseEstimate+0x9b>:
    a3ef:	fc2484f8ff 	{ movi	a15, 0x4f8; ae_zeroq56	aeq0 }
    a3f4:	83ac           	beqz.n	a3, a420 <NR_NoiseEstimate+0xcc>
    a3f6:	604534        	ae_lq32f.i	aeq1, a5, 12
    a3f9:	fcc442        	addi	a4, a4, -4
    a3fc:	52fa           	add.n	a5, a2, a15
    a3fe:	1e8376        	loop	a3, a420 <NR_NoiseEstimate+0xcc>
    a401:	448414        	ae_lp16x2f.iu	aep0, a4, 4
    a404:	448d           	ae_l16ui.n	a8, a4, 0
    a406:	609514        	ae_lq32f.iu	aeq2, a5, 4
    a409:	c18894        	ae_mulzaafq32sp16s.lh	aeq3, aeq2, aep0, aeq1, aep0
    a40c:	988c           	beqz.n	a8, a419 <NR_NoiseEstimate+0xc5>
    a40e:	f87b3d371f 	{ ae_lq32f.iu	aeq1, a7, 4; ae_maxq56s	aeq0, aeq0, aeq3 }
    a413:	623504        	ae_sq32f.i	aeq3, a5, 0
    a416:	000106        	j	a41e <NR_NoiseEstimate+0xca>

0000a419 <NR_NoiseEstimate+0xc5>:
    a419:	f8733d371f 	{ ae_lq32f.iu	aeq1, a7, 4; ae_maxq56s	aeq0, aeq0, aeq2 }
    a41e:	f03d           	nop.n

0000a420 <NR_NoiseEstimate+0xcc>:
    a420:	364404        	ae_nsaq56s	a4, aeq0
    a423:	950c           	movi.n	a5, 9
    a425:	fca472        	movi	a7, 0x4fc
    a428:	1e2457        	blt	a4, a5, a44a <NR_NoiseEstimate+0xf6>
    a42b:	7b9652        	l16si	a5, a6, 246
    a42e:	f8c442        	addi	a4, a4, -8
    a431:	227a           	add.n	a2, a2, a7
    a433:	c05540        	sub	a5, a5, a4
    a436:	7b5652        	s16i	a5, a6, 246
    a439:	d38c           	beqz.n	a3, a44a <NR_NoiseEstimate+0xf6>
    a43b:	401400        	ssl	a4
    a43e:	088376        	loop	a3, a44a <NR_NoiseEstimate+0xf6>
    a441:	0238           	l32i.n	a3, a2, 0
    a443:	a13300        	sll	a3, a3
    a446:	0239           	s32i.n	a3, a2, 0
    a448:	224b           	addi.n	a2, a2, 4
    a44a:	f01d           	retw.n

0000a44c <NR_NoiseEstimate+0xf8>:
    a44c:	08b8f6        	bgeui	a8, 16, a458 <NR_NoiseEstimate+0x104>
    a44f:	7da282        	movi	a8, 0x27d
    a452:	1188d0        	slli	a8, a8, 3
    a455:	000146        	j	a45e <NR_NoiseEstimate+0x10a>

0000a458 <NR_NoiseEstimate+0x104>:
    a458:	fba482        	movi	a8, 0x4fb
    a45b:	1188e0        	slli	a8, a8, 2
    a45e:	928a           	add.n	a9, a2, a8
    a460:	f51616        	beqz	a6, a3b5 <NR_NoiseEstimate+0x61>
    a463:	d847d1        	l32r	a13, 580 (f550 <nb_sb_ptn>)
    a466:	d845e1        	l32r	a14, 57c (f520 <wb_sb_ptn>)
    a469:	41b360        	srli	a11, a6, 3
    a46c:	d84681        	l32r	a8, 584 (f580 <swb_sb_ptn>)
    a46f:	93deb0        	movnez	a13, a14, a11
    a472:	9e0c           	movi.n	a14, 9
    a474:	62be60        	saltu	a11, a14, a6
    a477:	25d2f2        	addmi	a15, a2, 0x2500
    a47a:	838db0        	moveqz	a8, a13, a11
    a47d:	0998           	l32i.n	a9, a9, 0
    a47f:	312fb2        	l32i	a11, a15, 196
    a482:	c73a           	add.n	a12, a7, a3
    a484:	fa7c           	movi.n	a10, -1
    a486:	070c           	movi.n	a7, 0
    a488:	41a1a0        	srli	a10, a10, 1
    a48b:	a0cc50        	addx4	a12, a12, a5
    a48e:	000946        	j	a4b7 <NR_NoiseEstimate+0x163>

0000a491 <NR_NoiseEstimate+0x13d>:
    a491:	771b           	addi.n	a7, a7, 1
    a493:	90e780        	addx2	a14, a7, a8
    a496:	2fdd           	ae_l16si.n	a13, a15, 0
    a498:	2eed           	ae_l16si.n	a14, a14, 0
    a49a:	13ade7        	bge	a13, a14, a4b1 <NR_NoiseEstimate+0x15d>
    a49d:	c0eed0        	sub	a14, a14, a13
    a4a0:	a0ddc0        	addx4	a13, a13, a12
    a4a3:	0a8e76        	loop	a14, a4b1 <NR_NoiseEstimate+0x15d>
    a4a6:	0de8           	l32i.n	a14, a13, 0
    a4a8:	ee9a           	add.n	a14, a14, a9
    a4aa:	10eea0        	and	a14, a14, a10
    a4ad:	0de9           	s32i.n	a14, a13, 0
    a4af:	dd4b           	addi.n	a13, a13, 4

0000a4b1 <NR_NoiseEstimate+0x15d>:
    a4b1:	029767        	bne	a7, a6, a4b7 <NR_NoiseEstimate+0x163>
    a4b4:	ffbf46        	j	a3b5 <NR_NoiseEstimate+0x61>

0000a4b7 <NR_NoiseEstimate+0x163>:
    a4b7:	a0d7b0        	addx4	a13, a7, a11
    a4ba:	0dd8           	l32i.n	a13, a13, 0
    a4bc:	90f780        	addx2	a15, a7, a8
    a4bf:	ce1da6        	blti	a13, 1, a491 <NR_NoiseEstimate+0x13d>
    a4c2:	771b           	addi.n	a7, a7, 1
    a4c4:	fffa46        	j	a4b1 <NR_NoiseEstimate+0x15d>

0000a4c7 <NR_NoiseEstimate+0x173>:
	...

0000a4c8 <NR_NoiseWithGain>:
    a4c8:	004136        	entry	a1, 32
    a4cb:	380252        	l8ui	a5, a2, 56
    a4ce:	360282        	l8ui	a8, a2, 54
    a4d1:	0248           	l32i.n	a4, a2, 0
    a4d3:	970c           	movi.n	a7, 9
    a4d5:	00a462        	movi	a6, 0x400
    a4d8:	00a232        	movi	a3, 0x200
    a4db:	0a0c           	movi.n	a10, 0
    a4dd:	627750        	saltu	a7, a7, a5
    a4e0:	076817        	bbci	a8, 1, a4eb <NR_NoiseWithGain+0x23>
    a4e3:	d82d81        	l32r	a8, 598 (1064 <PD_Noise_Gain>)
    a4e6:	02ad           	mov.n	a10, a2
    a4e8:	0008e0        	callx8	a8

0000a4eb <NR_NoiseWithGain+0x23>:
    a4eb:	191282        	l16ui	a8, a2, 50
    a4ee:	933670        	movnez	a3, a6, a7
    a4f1:	d822b1        	l32r	a11, 57c (f520 <wb_sb_ptn>)
    a4f4:	6e78b6        	bltui	a8, 7, a566 <NR_NoiseWithGain+0x9e>
    a4f7:	6baa57        	bge	a10, a5, a566 <NR_NoiseWithGain+0x9e>
    a4fa:	d821c1        	l32r	a12, 580 (f550 <nb_sb_ptn>)
    a4fd:	1192e2        	l16si	a14, a2, 34
    a500:	419350        	srli	a9, a5, 3
    a503:	9d0c           	movi.n	a13, 9
    a505:	93cb90        	movnez	a12, a11, a9
    a508:	62bd50        	saltu	a11, a13, a5
    a50b:	de1b           	addi.n	a13, a14, 1
    a50d:	4191d0        	srli	a9, a13, 1
    a510:	5f1c           	movi.n	a15, 21
    a512:	d81c61        	l32r	a6, 584 (f580 <swb_sb_ptn>)
    a515:	6288f0        	saltu	a8, a8, a15
    a518:	40d992        	addmi	a9, a9, 0x4000
    a51b:	25d2f2        	addmi	a15, a2, 0x2500
    a51e:	839e80        	moveqz	a9, a14, a8
    a521:	312f82        	l32i	a8, a15, 196
    a524:	a07340        	addx4	a7, a3, a4
    a527:	836cb0        	moveqz	a6, a12, a11
    a52a:	300994        	ae_cvtp24a16x2.ll	aep0, a9, a9
    a52d:	a09a80        	addx4	a9, a10, a8
    a530:	0998           	l32i.n	a9, a9, 0
    a532:	90ca60        	addx2	a12, a10, a6
    a535:	2819a6        	blti	a9, 1, a561 <NR_NoiseWithGain+0x99>
    a538:	aa1b           	addi.n	a10, a10, 1
    a53a:	90ba60        	addx2	a11, a10, a6
    a53d:	2c9d           	ae_l16si.n	a9, a12, 0
    a53f:	2bbd           	ae_l16si.n	a11, a11, 0
    a541:	a0c970        	addx4	a12, a9, a7
    a544:	13a9b7        	bge	a9, a11, a55b <NR_NoiseWithGain+0x93>
    a547:	c0bb90        	sub	a11, a11, a9
    a54a:	fccc92        	addi	a9, a12, -4
    a54d:	0a8b76        	loop	a11, a55b <NR_NoiseWithGain+0x93>
    a550:	601914        	ae_lq32f.iu	aeq0, a9, 4
    a553:	030214        	ae_mulfq32sp16s.l	aeq0, aeq0, aep0
    a556:	368b04        	ae_trunca32q48	a11, aeq0
    a559:	09b9           	s32i.n	a11, a9, 0

0000a55b <NR_NoiseWithGain+0x93>:
    a55b:	ce9a57        	bne	a10, a5, a52d <NR_NoiseWithGain+0x65>
    a55e:	000106        	j	a566 <NR_NoiseWithGain+0x9e>

0000a561 <NR_NoiseWithGain+0x99>:
    a561:	aa1b           	addi.n	a10, a10, 1
    a563:	fffd06        	j	a55b <NR_NoiseWithGain+0x93>

0000a566 <NR_NoiseWithGain+0x9e>:
    a566:	13d262        	addmi	a6, a2, 0x1300
    a569:	7b9672        	l16si	a7, a6, 246
    a56c:	1d1252        	l16ui	a5, a2, 58
    a56f:	a03340        	addx4	a3, a3, a4
    a572:	776b           	addi.n	a7, a7, 6
    a574:	7c5672        	s16i	a7, a6, 248
    a577:	a59c           	beqz.n	a5, a595 <NR_NoiseWithGain+0xcd>
    a579:	fca462        	movi	a6, 0x4fc
    a57c:	426a           	add.n	a4, a2, a6
    a57e:	602264        	ae_lq32f.x	aeq0, a2, a6
    a581:	4c0304        	ae_lp24.i	aep0, a3, 0
    a584:	fcc322        	addi	a2, a3, -4
    a587:	0a8576        	loop	a5, a595 <NR_NoiseWithGain+0xcd>
    a58a:	f8e071831f 	{ ae_lp24.iu	aep0, a3, 4; ae_mulrfq32sp24s.l	aeq1, aeq0, aep0 }
    a58f:	601414        	ae_lq32f.iu	aeq0, a4, 4
    a592:	625214        	ae_sq32f.iu	aeq1, a2, 4

0000a595 <NR_NoiseWithGain+0xcd>:
    a595:	f01d           	retw.n

0000a597 <NR_NoiseWithGain+0xcf>:
	...

0000a598 <NR_WienerFilter>:
    a598:	00a136        	entry	a1, 80
    a59b:	13d242        	addmi	a4, a2, 0x1300
    a59e:	02a8           	l32i.n	a10, a2, 0
    a5a0:	1ba3e2        	movi	a14, 0x31b
    a5a3:	7a1482        	l16ui	a8, a4, 244
    a5a6:	8139           	s32i.n	a3, a1, 32
    a5a8:	113ee0        	slli	a3, a14, 2
    a5ab:	7d94b2        	l16si	a11, a4, 250
    a5ae:	13d2f2        	addmi	a15, a2, 0x1300
    a5b1:	a149           	s32i.n	a4, a1, 40
    a5b3:	d23a           	add.n	a13, a2, a3
    a5b5:	7c9432        	l16si	a3, a4, 248
    a5b8:	380262        	l8ui	a6, a2, 56
    a5bb:	eacb           	addi.n	a14, a10, 12
    a5bd:	9149           	s32i.n	a4, a1, 36
    a5bf:	884d           	ae_sext16	a4, a8
    a5c1:	0e9d           	mov.n	a9, a14
    a5c3:	537b40        	max	a7, a11, a4
    a5c6:	6149           	s32i.n	a4, a1, 24
    a5c8:	7244b0        	salt	a4, a4, a11
    a5cb:	25d252        	addmi	a5, a2, 0x2500
    a5ce:	31f9           	s32i.n	a15, a1, 12
    a5d0:	72f730        	salt	a15, a7, a3
    a5d3:	537730        	max	a7, a7, a3
    a5d6:	3c2532        	l32i	a3, a5, 240
    a5d9:	939d40        	movnez	a9, a13, a4
    a5dc:	940c           	movi.n	a4, 9
    a5de:	4139           	s32i.n	a3, a1, 16
    a5e0:	623460        	saltu	a3, a4, a6
    a5e3:	140c           	movi.n	a4, 1
    a5e5:	5169           	s32i.n	a6, a1, 20
    a5e7:	116440        	slli	a6, a4, 12
    a5ea:	140c           	movi.n	a4, 1
    a5ec:	114450        	slli	a4, a4, 11
    a5ef:	836430        	moveqz	a6, a4, a3
    a5f2:	1412c2        	l16ui	a12, a2, 40
    a5f5:	1d1252        	l16ui	a5, a2, 58
    a5f8:	21c9           	s32i.n	a12, a1, 8
    a5fa:	3a6a           	add.n	a3, a10, a6
    a5fc:	97cd           	ae_zext16	a12, a7
    a5fe:	9393f0        	movnez	a9, a3, a15
    a601:	b1a9           	s32i.n	a10, a1, 44
    a603:	71b9           	s32i.n	a11, a1, 28
    a605:	1159           	s32i.n	a5, a1, 4
    a607:	251c87        	beq	a12, a8, a630 <NR_WienerFilter+0x98>
    a60a:	71b8           	l32i.n	a11, a1, 28
    a60c:	05ac           	beqz.n	a5, a630 <NR_WienerFilter+0x98>
    a60e:	062182        	l32i	a8, a1, 24
    a611:	c0b780        	sub	a11, a7, a8
    a614:	a3e9b0        	movltz	a14, a9, a11
    a617:	6081b0        	abs	a8, a11
    a61a:	fcceb2        	addi	a11, a14, -4
    a61d:	088576        	loop	a5, a629 <NR_WienerFilter+0x91>
    a620:	601b14        	ae_lq32f.iu	aeq0, a11, 4
    a623:	3408a4        	ae_srlaq56	aeq0, aeq0, a8
    a626:	620b04        	ae_sq32f.i	aeq0, a11, 0

0000a629 <NR_WienerFilter+0x91>:
    a629:	3188           	l32i.n	a8, a1, 12
    a62b:	1158           	l32i.n	a5, a1, 4
    a62d:	7d18b2        	l16ui	a11, a8, 250

0000a630 <NR_WienerFilter+0x98>:
    a630:	d7d3f1        	l32r	a15, 57c (f520 <wb_sb_ptn>)
    a633:	d7d341        	l32r	a4, 580 (f550 <nb_sb_ptn>)
    a636:	9bed           	ae_zext16	a14, a11
    a638:	418350        	srli	a8, a5, 3
    a63b:	221ce7        	beq	a12, a14, a661 <NR_WienerFilter+0xc9>
    a63e:	1158           	l32i.n	a5, a1, 4
    a640:	8bbd           	ae_sext16	a11, a11
    a642:	c0e7b0        	sub	a14, a7, a11
    a645:	859c           	beqz.n	a5, a661 <NR_WienerFilter+0xc9>
    a647:	0dad           	mov.n	a10, a13
    a649:	a3a9e0        	movltz	a10, a9, a14
    a64c:	60b1e0        	abs	a11, a14
    a64f:	fccae2        	addi	a14, a10, -4
    a652:	0121a2        	l32i	a10, a1, 4
    a655:	088a76        	loop	a10, a661 <NR_WienerFilter+0xc9>
    a658:	601e14        	ae_lq32f.iu	aeq0, a14, 4
    a65b:	340ba4        	ae_srlaq56	aeq0, aeq0, a11
    a65e:	620e04        	ae_sq32f.i	aeq0, a14, 0

0000a661 <NR_WienerFilter+0xc9>:
    a661:	91a8           	l32i.n	a10, a1, 36
    a663:	1158           	l32i.n	a5, a1, 4
    a665:	d7c7b1        	l32r	a11, 584 (f580 <swb_sb_ptn>)
    a668:	7c1ae2        	l16ui	a14, a10, 248
    a66b:	934f80        	movnez	a4, a15, a8
    a66e:	9f0c           	movi.n	a15, 9
    a670:	628f50        	saltu	a8, a15, a5
    a673:	1f1ce7        	beq	a12, a14, a696 <NR_WienerFilter+0xfe>
    a676:	1158           	l32i.n	a5, a1, 4
    a678:	8ecd           	ae_sext16	a12, a14
    a67a:	11f8           	l32i.n	a15, a1, 4
    a67c:	659c           	beqz.n	a5, a696 <NR_WienerFilter+0xfe>
    a67e:	c0e7c0        	sub	a14, a7, a12
    a681:	b393e0        	movgez	a9, a3, a14
    a684:	60c1e0        	abs	a12, a14
    a687:	fcc992        	addi	a9, a9, -4
    a68a:	088f76        	loop	a15, a696 <NR_WienerFilter+0xfe>
    a68d:	601914        	ae_lq32f.iu	aeq0, a9, 4
    a690:	340ca4        	ae_srlaq56	aeq0, aeq0, a12
    a693:	620904        	ae_sq32f.i	aeq0, a9, 0
    a696:	934b80        	movnez	a4, a11, a8
    a699:	a158           	l32i.n	a5, a1, 40
    a69b:	31f8           	l32i.n	a15, a1, 12
    a69d:	b1b8           	l32i.n	a11, a1, 44
    a69f:	1198           	l32i.n	a9, a1, 4
    a6a1:	7d5f72        	s16i	a7, a15, 250
    a6a4:	fb8b           	addi.n	a15, a11, 8
    a6a6:	7a5572        	s16i	a7, a5, 244
    a6a9:	7c5a72        	s16i	a7, a10, 248
    a6ac:	12d916        	beqz	a9, a7dd <NR_WienerFilter+0x245>
    a6af:	3fa182        	movi	a8, 0x13f
    a6b2:	602b64        	ae_lq32f.x	aeq0, a11, a6
    a6b5:	1ba362        	movi	a6, 0x31b
    a6b8:	51e8           	l32i.n	a14, a1, 20
    a6ba:	2fa172        	movi	a7, 0x12f
    a6bd:	150c           	movi.n	a5, 1
    a6bf:	04ad           	mov.n	a10, a4
    a6c1:	1146e0        	slli	a4, a6, 2
    a6c4:	1188c0        	slli	a8, a8, 4
    a6c7:	09cd           	mov.n	a12, a9
    a6c9:	ffa0b2        	movi	a11, 255
    a6cc:	606244        	ae_lq32f.x	aeq1, a2, a4
    a6cf:	1177b0        	slli	a7, a7, 5
    a6d2:	115510        	slli	a5, a5, 15
    a6d5:	7fdb42        	addmi	a4, a11, 0x7f00
    a6d8:	0f6d           	mov.n	a6, a15
    a6da:	f96a1b028f 	{ ae_lp16x2f.x	aep0, a2, a8; ae_addq56	aeq1, aeq1, aeq0 }
    a6df:	0d9d           	mov.n	a9, a13
    a6e1:	3a8c76        	loop	a12, a71f <NR_WienerFilter+0x187>
    a6e4:	609614        	ae_lq32f.iu	aeq2, a6, 4
    a6e7:	0e00ff08af 	{ ae_nsaq56s	a8, aeq0; ae_mulzaafq32sp16s.lh	aeq1, aeq2, aep0, aeq1, aep0 }
    a6ec:	05cd           	mov.n	a12, a5
    a6ee:	365b04        	ae_nsaq56s	a11, aeq1
    a6f1:	4388b0        	min	a8, a8, a11
    a6f4:	e9c8b2        	addi	a11, a8, -23
    a6f7:	fc24fe9b4f 	{ ae_slaasq56s	aeq1, aeq1, a11; nop }
    a6fc:	369b04        	ae_trunca32q48	a11, aeq1
    a6ff:	38c882        	addi	a8, a8, 56
    a702:	340894        	ae_sllaq56	aeq0, aeq0, a8
    a705:	4b8c           	beqz.n	a11, a70d <NR_WienerFilter+0x175>
    a707:	368804        	ae_trunca32q48	a8, aeq0
    a70a:	d2c8b0        	quos	a12, a8, a11

0000a70d <NR_WienerFilter+0x175>:
    a70d:	09bd           	mov.n	a11, a9
    a70f:	c084c0        	sub	a8, a4, a12
    a712:	605b14        	ae_lq32f.iu	aeq1, a11, 4
    a715:	601314        	ae_lq32f.iu	aeq0, a3, 4
    a718:	f96a14098f 	{ s32i.n	a8, a9, 0; ae_addq56	aeq1, aeq1, aeq0 }
    a71d:	0b9d           	mov.n	a9, a11

0000a71f <NR_WienerFilter+0x187>:
    a71f:	1198           	l32i.n	a9, a1, 4
    a721:	79a042        	movi	a4, 121
    a724:	26c232        	addi	a3, a2, 38
    a727:	02b947        	bgeu	a9, a4, a72d <NR_WienerFilter+0x195>
    a72a:	003186        	j	a7f4 <NR_WienerFilter+0x25c>
    a72d:	25d242        	addmi	a4, a2, 0x2500
    a730:	729462        	l16si	a6, a4, 228
    a733:	21b8           	l32i.n	a11, a1, 8
    a735:	1c0c           	movi.n	a12, 1
    a737:	0d5d           	mov.n	a5, a13
    a739:	11cc50        	slli	a12, a12, 11
    a73c:	2616a6        	blti	a6, 1, a766 <NR_WienerFilter+0x1ce>
    a73f:	400304        	ae_lp16f.i	aep0, a3, 0
    a742:	602274        	ae_lq32f.x	aeq0, a2, a7
    a745:	d4e2031b8f 	{ movi	a8, 0x31b; ae_mulfq32sp16s.l	aeq0, aeq0, aep0 }
    a74a:	1178e0        	slli	a7, a8, 2
    a74d:	368504        	ae_trunca32q48	a5, aeq0
    a750:	378554        	ae_truncp24a32x2	aep0, a5, a5
    a753:	411274        	ae_lp16f.x	aep1, a2, a7
    a756:	0d5d           	mov.n	a5, a13
    a758:	078676        	loop	a6, a763 <NR_WienerFilter+0x1cb>
    a75b:	d9222c952f 	{ ae_lp16f.iu	aep1, a5, 4; ae_maxp24s	aep2, aep0, aep1 }
    a760:	5225f4        	ae_sp24f.l.i	aep2, a5, -4
    a763:	729462        	l16si	a6, a4, 228

0000a766 <NR_WienerFilter+0x1ce>:
    a766:	25d242        	addmi	a4, a2, 0x2500
    a769:	139282        	l16si	a8, a2, 38
    a76c:	739472        	l16si	a7, a4, 230
    a76f:	118800        	slli	a8, a8, 16
    a772:	c06760        	sub	a6, a7, a6
    a775:	378884        	ae_truncp24a32x2	aep0, a8, a8
    a778:	1016a6        	blti	a6, 1, a78c <NR_WienerFilter+0x1f4>
    a77b:	401504        	ae_lp16f.i	aep1, a5, 0
    a77e:	078676        	loop	a6, a789 <NR_WienerFilter+0x1f1>
    a781:	d9222c952f 	{ ae_lp16f.iu	aep1, a5, 4; ae_maxp24s	aep2, aep0, aep1 }
    a786:	5225f4        	ae_sp24f.l.i	aep2, a5, -4

0000a789 <NR_WienerFilter+0x1f1>:
    a789:	739472        	l16si	a7, a4, 230

0000a78c <NR_WienerFilter+0x1f4>:
    a78c:	dca042        	movi	a4, 220
    a78f:	25d442        	addmi	a4, a4, 0x2500
    a792:	603424        	ae_lq32f.xu	aeq0, a4, a2
    a795:	d4e2208a6e 	{ l16si	a6, a10, 16; ae_mulfq32sp16s.l	aeq0, aeq0, aep0 }
    a79a:	368804        	ae_trunca32q48	a8, aeq0
    a79d:	c07670        	sub	a7, a6, a7
    a7a0:	378884        	ae_truncp24a32x2	aep0, a8, a8
    a7a3:	1417a6        	blti	a7, 1, a7bb <NR_WienerFilter+0x223>
    a7a6:	401504        	ae_lp16f.i	aep1, a5, 0
    a7a9:	f03d           	nop.n
    a7ab:	f03d           	nop.n
    a7ad:	078776        	loop	a7, a7b8 <NR_WienerFilter+0x220>
    a7b0:	d9222c952f 	{ ae_lp16f.iu	aep1, a5, 4; ae_maxp24s	aep2, aep0, aep1 }
    a7b5:	5225f4        	ae_sp24f.l.i	aep2, a5, -4

0000a7b8 <NR_WienerFilter+0x220>:
    a7b8:	089a62        	l16si	a6, a10, 16

0000a7bb <NR_WienerFilter+0x223>:
    a7bb:	501404        	ae_lp24f.i	aep1, a4, 0
    a7be:	ea2195696f 	{ sub	a6, a9, a6; ae_mulfp24s.ll	aeq0, aep0, aep1 }
    a7c3:	368404        	ae_trunca32q48	a4, aeq0
    a7c6:	4f16a6        	blti	a6, 1, a819 <NR_WienerFilter+0x281>
    a7c9:	378444        	ae_truncp24a32x2	aep0, a4, a4
    a7cc:	401504        	ae_lp16f.i	aep1, a5, 0
    a7cf:	078676        	loop	a6, a7da <NR_WienerFilter+0x242>
    a7d2:	d9222c952f 	{ ae_lp16f.iu	aep1, a5, 4; ae_maxp24s	aep2, aep0, aep1 }
    a7d7:	5225f4        	ae_sp24f.l.i	aep2, a5, -4

0000a7da <NR_WienerFilter+0x242>:
    a7da:	000ec6        	j	a819 <NR_WienerFilter+0x281>

0000a7dd <NR_WienerFilter+0x245>:
    a7dd:	1392e2        	l16si	a14, a2, 38
    a7e0:	04ad           	mov.n	a10, a4
    a7e2:	21b8           	l32i.n	a11, a1, 8
    a7e4:	114e00        	slli	a4, a14, 16
    a7e7:	51e8           	l32i.n	a14, a1, 20
    a7e9:	1c0c           	movi.n	a12, 1
    a7eb:	26c232        	addi	a3, a2, 38
    a7ee:	11cc50        	slli	a12, a12, 11
    a7f1:	000906        	j	a819 <NR_WienerFilter+0x281>

0000a7f4 <NR_WienerFilter+0x25c>:
    a7f4:	234d           	ae_l16si.n	a4, a3, 0
    a7f6:	1ba352        	movi	a5, 0x31b
    a7f9:	21b8           	l32i.n	a11, a1, 8
    a7fb:	1c0c           	movi.n	a12, 1
    a7fd:	1155e0        	slli	a5, a5, 2
    a800:	114400        	slli	a4, a4, 16
    a803:	410254        	ae_lp16f.x	aep0, a2, a5
    a806:	0d5d           	mov.n	a5, a13
    a808:	379444        	ae_truncp24a32x2	aep1, a4, a4
    a80b:	11cc50        	slli	a12, a12, 11
    a80e:	078976        	loop	a9, a819 <NR_WienerFilter+0x281>
    a811:	d9062c852f 	{ ae_lp16f.iu	aep0, a5, 4; ae_maxp24s	aep2, aep1, aep0 }
    a816:	5225f4        	ae_sp24f.l.i	aep2, a5, -4

0000a819 <NR_WienerFilter+0x281>:
    a819:	25d272        	addmi	a7, a2, 0x2500
    a81c:	400304        	ae_lp16f.i	aep0, a3, 0
    a81f:	382732        	l32i	a3, a7, 224
    a822:	360334        	ae_cvtq48a32s	aeq0, a3
    a825:	d4e230028e 	{ l32i	a8, a2, 0; ae_mulfq32sp16s.l	aeq0, aeq0, aep0 }
    a82a:	f8e7831b5f 	{ movi	a5, 0x31b; ae_roundsp24q48sym	aep0, aeq0 }
    a82f:	fcc832        	addi	a3, a8, -4
    a832:	528314        	ae_sp24f.l.iu	aep0, a3, 4
    a835:	528314        	ae_sp24f.l.iu	aep0, a3, 4
    a838:	528314        	ae_sp24f.l.iu	aep0, a3, 4
    a83b:	11f916        	beqz	a9, a95e <NR_WienerFilter+0x3c6>
    a83e:	1155e0        	slli	a5, a5, 2
    a841:	510254        	ae_lp24f.x	aep0, a2, a5
    a844:	050c           	movi.n	a5, 0
    a846:	178976        	loop	a9, a861 <NR_WienerFilter+0x2c9>
    a849:	601f14        	ae_lq32f.iu	aeq0, a15, 4
    a84c:	080524        	ae_mulfq32sp24s.l	aeq0, aeq0, aep0
    a84f:	080514        	ae_mulrfq32sp24s.l	aeq0, aeq0, aep0
    a852:	368604        	ae_trunca32q48	a6, aeq0
    a855:	620d04        	ae_sq32f.i	aeq0, a13, 0
    a858:	528314        	ae_sp24f.l.iu	aep0, a3, 4
    a85b:	508d14        	ae_lp24f.iu	aep0, a13, 4
    a85e:	535560        	max	a5, a5, a6
    a861:	749eb6        	bltui	a14, 10, a8d9 <NR_WienerFilter+0x341>
    a864:	160c           	movi.n	a6, 1
    a866:	116620        	slli	a6, a6, 14
    a869:	170c           	movi.n	a7, 1
    a86b:	300664        	ae_cvtp24a16x2.ll	aep0, a6, a6
    a86e:	ea03209a6e 	{ l16si	a6, a10, 18; ae_mulfs32p16s.ll	aeq0, aep0, aep0 }
    a873:	117730        	slli	a7, a7, 13
    a876:	301774        	ae_cvtp24a16x2.ll	aep1, a7, a7
    a879:	dc06c1dbff 	{ movi	a15, 0x1db; ae_subsp24s	aep1, aep1, aep0 }
    a87e:	572f67        	blt	a15, a6, a8d9 <NR_WienerFilter+0x341>
    a881:	0278           	l32i.n	a7, a2, 0
    a883:	24ae82        	movi	a8, 0xfffffe24
    a886:	868a           	add.n	a8, a6, a8
    a888:	a07670        	addx4	a7, a6, a7
    a88b:	608080        	neg	a8, a8
    a88e:	350054        	ae_slliq56	aeq0, aeq0, 1
    a891:	160c           	movi.n	a6, 1
    a893:	fcc772        	addi	a7, a7, -4
    a896:	3f8876        	loop	a8, a8d9 <NR_WienerFilter+0x341>
    a899:	605714        	ae_lq32f.iu	aeq1, a7, 4
    a89c:	608714        	ae_lq32f.i	aeq2, a7, 4
    a89f:	f9ea3d672f 	{ ae_lq32f.i	aeq3, a7, 8; ae_addq56	aeq1, aeq1, aeq2 }
    a8a4:	f9ee3d673f 	{ ae_lq32f.i	aeq3, a7, 12; ae_addq56	aeq1, aeq1, aeq3 }
    a8a9:	f9ee00008f 	{ movi	a8, 0; ae_addq56	aeq1, aeq1, aeq3 }
    a8ae:	3550b4        	ae_sraiq56	aeq1, aeq1, 2
    a8b1:	1b9f24        	ae_roundsp16q48asym	aep2, aeq1
    a8b4:	198204        	ae_ltp24s	b0:b1, aep0, aep2
    a8b7:	d38610        	movt	a8, a6, b1
    a8ba:	389c           	beqz.n	a8, a8d1 <NR_WienerFilter+0x339>
    a8bc:	002a74        	ae_mulfs32p16s.ll	aeq1, aep2, aep2
    a8bf:	00a174        	ae_mulfs32p16s.ll	aeq2, aep2, aep1
    a8c2:	355054        	ae_slliq56	aeq1, aeq1, 1
    a8c5:	35a094        	ae_slliq56	aeq2, aeq2, 2
    a8c8:	015ac4        	ae_addq56	aeq1, aeq1, aeq2
    a8cb:	0158c4        	ae_addq56	aeq1, aeq1, aeq0
    a8ce:	1b9f24        	ae_roundsp16q48asym	aep2, aeq1

0000a8d1 <NR_WienerFilter+0x339>:
    a8d1:	362824        	ae_trunca16p24s.l	a8, aep2
    a8d4:	118800        	slli	a8, a8, 16
    a8d7:	3789           	s32i.n	a8, a7, 12

0000a8d9 <NR_WienerFilter+0x341>:
    a8d9:	7168           	l32i.n	a6, a1, 28
    a8db:	6178           	l32i.n	a7, a1, 24
    a8dd:	3188           	l32i.n	a8, a1, 12
    a8df:	1ba3a2        	movi	a10, 0x31b
    a8e2:	21a767        	bge	a7, a6, a907 <NR_WienerFilter+0x36f>
    a8e5:	40e560        	nsa	a6, a5
    a8e8:	7d9872        	l16si	a7, a8, 250
    a8eb:	11dae0        	slli	a13, a10, 2
    a8ee:	c05760        	sub	a5, a7, a6
    a8f1:	7d5852        	s16i	a5, a8, 250
    a8f4:	f98c           	beqz.n	a9, a907 <NR_WienerFilter+0x36f>
    a8f6:	52da           	add.n	a5, a2, a13
    a8f8:	401600        	ssl	a6
    a8fb:	088976        	loop	a9, a907 <NR_WienerFilter+0x36f>
    a8fe:	0568           	l32i.n	a6, a5, 0
    a900:	a16600        	sll	a6, a6
    a903:	0569           	s32i.n	a6, a5, 0
    a905:	554b           	addi.n	a5, a5, 4
    a907:	980c           	movi.n	a8, 9
    a909:	4153e0        	srli	a5, a14, 3
    a90c:	f60c           	movi.n	a6, 15
    a90e:	570c           	movi.n	a7, 5
    a910:	192c           	movi.n	a9, 33
    a912:	937650        	movnez	a7, a6, a5
    a915:	62f8e0        	saltu	a15, a8, a14
    a918:	8397f0        	moveqz	a9, a7, a15
    a91b:	378444        	ae_truncp24a32x2	aep0, a4, a4
    a91e:	028976        	loop	a9, a924 <NR_WienerFilter+0x38c>
    a921:	528314        	ae_sp24f.l.iu	aep0, a3, 4

0000a924 <NR_WienerFilter+0x38c>:
    a924:	930c           	movi.n	a3, 9
    a926:	0258           	l32i.n	a5, a2, 0
    a928:	6233e0        	saltu	a3, a3, a14
    a92b:	00a442        	movi	a4, 0x400
    a92e:	934c30        	movnez	a4, a12, a3
    a931:	654a           	add.n	a6, a5, a4
    a933:	2c3b26        	beqi	a11, 3, a963 <NR_WienerFilter+0x3cb>
    a936:	4b2b26        	beqi	a11, 2, a985 <NR_WienerFilter+0x3ed>
    a939:	7c1b66        	bnei	a11, 1, a9b9 <NR_WienerFilter+0x421>
    a93c:	5da242        	movi	a4, 0x25d
    a93f:	25d272        	addmi	a7, a2, 0x2500
    a942:	1144c0        	slli	a4, a4, 4
    a945:	3627a2        	l32i	a10, a7, 216
    a948:	324a           	add.n	a3, a2, a4
    a94a:	3427b2        	l32i	a11, a7, 208
    a94d:	d71341        	l32r	a4, 59c (abe8 <Mel_filter>)
    a950:	2e4c           	movi.n	a14, 66
    a952:	05cd           	mov.n	a12, a5
    a954:	06dd           	mov.n	a13, a6
    a956:	0004e0        	callx8	a4
    a959:	1f4c           	movi.n	a15, 65
    a95b:	001146        	j	a9a4 <NR_WienerFilter+0x40c>

0000a95e <NR_WienerFilter+0x3c6>:
    a95e:	050c           	movi.n	a5, 0
    a960:	ffbf46        	j	a861 <NR_WienerFilter+0x2c9>

0000a963 <NR_WienerFilter+0x3cb>:
    a963:	5da242        	movi	a4, 0x25d
    a966:	25d272        	addmi	a7, a2, 0x2500
    a969:	1144c0        	slli	a4, a4, 4
    a96c:	3627a2        	l32i	a10, a7, 216
    a96f:	324a           	add.n	a3, a2, a4
    a971:	3427b2        	l32i	a11, a7, 208
    a974:	d70a41        	l32r	a4, 59c (abe8 <Mel_filter>)
    a977:	2e1c           	movi.n	a14, 18
    a979:	05cd           	mov.n	a12, a5
    a97b:	06dd           	mov.n	a13, a6
    a97d:	0004e0        	callx8	a4
    a980:	1f1c           	movi.n	a15, 17
    a982:	000786        	j	a9a4 <NR_WienerFilter+0x40c>

0000a985 <NR_WienerFilter+0x3ed>:
    a985:	5da242        	movi	a4, 0x25d
    a988:	25d272        	addmi	a7, a2, 0x2500
    a98b:	1144c0        	slli	a4, a4, 4
    a98e:	3627a2        	l32i	a10, a7, 216
    a991:	324a           	add.n	a3, a2, a4
    a993:	3427b2        	l32i	a11, a7, 208
    a996:	d70141        	l32r	a4, 59c (abe8 <Mel_filter>)
    a999:	2e2c           	movi.n	a14, 34
    a99b:	05cd           	mov.n	a12, a5
    a99d:	06dd           	mov.n	a13, a6
    a99f:	0004e0        	callx8	a4
    a9a2:	1f2c           	movi.n	a15, 33
    a9a4:	25d242        	addmi	a4, a2, 0x2500
    a9a7:	03b8           	l32i.n	a11, a3, 0
    a9a9:	3324c2        	l32i	a12, a4, 204
    a9ac:	3524a2        	l32i	a10, a4, 212
    a9af:	d6fc31        	l32r	a3, 5a0 (acb8 <Mel_filter_inv>)
    a9b2:	06dd           	mov.n	a13, a6
    a9b4:	05ed           	mov.n	a14, a5
    a9b6:	0003e0        	callx8	a3
    a9b9:	360232        	l8ui	a3, a2, 54
    a9bc:	4148           	l32i.n	a4, a1, 16
    a9be:	25d252        	addmi	a5, a2, 0x2500
    a9c1:	1be307        	bbsi	a3, 0, a9e0 <NR_WienerFilter+0x448>
    a9c4:	03d442        	addmi	a4, a4, 0x300
    a9c7:	4b1442        	l16ui	a4, a4, 150
    a9ca:	2f25b2        	l32i	a11, a5, 188
    a9cd:	3802c2        	l8ui	a12, a2, 56
    a9d0:	0c1466        	bnei	a4, 1, a9e0 <NR_WienerFilter+0x448>
    a9d3:	d6f431        	l32r	a3, 5a4 (2e68 <aec_sub_post>)
    a9d6:	41a8           	l32i.n	a10, a1, 16
    a9d8:	0d0c           	movi.n	a13, 0
    a9da:	0003e0        	callx8	a3
    a9dd:	360232        	l8ui	a3, a2, 54
    a9e0:	52e327        	bbsi	a3, 2, aa36 <NR_WienerFilter+0x49e>
    a9e3:	380242        	l8ui	a4, a2, 56
    a9e6:	5fa732        	movi	a3, 0x75f
    a9e9:	970c           	movi.n	a7, 9
    a9eb:	1133e0        	slli	a3, a3, 2
    a9ee:	0298           	l32i.n	a9, a2, 0
    a9f0:	25d2f2        	addmi	a15, a2, 0x2500
    a9f3:	410234        	ae_lp16f.x	aep0, a2, a3
    a9f6:	323a           	add.n	a3, a2, a3
    a9f8:	2f2f22        	l32i	a2, a15, 188
    a9fb:	627740        	saltu	a7, a7, a4
    a9fe:	00a152        	movi	a5, 0x100
    aa01:	80a062        	movi	a6, 128
    aa04:	414340        	srli	a4, a4, 3
    aa07:	936540        	movnez	a6, a5, a4
    aa0a:	00a282        	movi	a8, 0x200
    aa0d:	fcc942        	addi	a4, a9, -4
    aa10:	838670        	moveqz	a8, a6, a7
    aa13:	5c2204        	ae_lp24x2f.i	aep2, a2, 0
    aa16:	509414        	ae_lp24f.iu	aep1, a4, 4
    aa19:	178876        	loop	a8, aa34 <NR_WienerFilter+0x49c>
    aa1c:	012054        	ae_mulfp24s.hl	aeq0, aep2, aep0
    aa1f:	ea09efa21f 	{ ae_lp24x2f.iu	aep2, a2, 8; ae_mulfp24s.ll	aeq1, aep2, aep0 }
    aa24:	f8e42c831f 	{ ae_lp16f.iu	aep0, a3, 2; ae_mulrfq32sp24s.l	aeq0, aeq0, aep1 }
    aa29:	f8e56e941f 	{ ae_lp24f.iu	aep1, a4, 4; ae_mulrfq32sp24s.l	aeq1, aeq1, aep1 }
    aa2e:	6202e4        	ae_sq32f.i	aeq0, a2, -8
    aa31:	6212f4        	ae_sq32f.i	aeq1, a2, -4

0000aa34 <NR_WienerFilter+0x49c>:
    aa34:	f01d           	retw.n

0000aa36 <NR_WienerFilter+0x49e>:
    aa36:	25d232        	addmi	a3, a2, 0x2500
    aa39:	3b2352        	l32i	a5, a3, 236
    aa3c:	25d292        	addmi	a9, a2, 0x2500
    aa3f:	0278           	l32i.n	a7, a2, 0
    aa41:	1fd532        	addmi	a3, a5, 0x1f00
    aa44:	02d582        	addmi	a8, a5, 0x200
    aa47:	2f2962        	l32i	a6, a9, 188
    aa4a:	222332        	l32i	a3, a3, 136
    aa4d:	6518a2        	l16ui	a10, a8, 202
    aa50:	5fa742        	movi	a4, 0x75f
    aa53:	519882        	l16si	a8, a8, 162
    aa56:	1144e0        	slli	a4, a4, 2
    aa59:	418424        	ae_lp16f.xu	aep0, a4, a2
    aa5c:	501704        	ae_lp24f.i	aep1, a7, 0
    aa5f:	5c4604        	ae_lp24x2f.i	aep4, a6, 0
    aa62:	402504        	ae_lp16f.i	aep2, a5, 0
    aa65:	5c3304        	ae_lp24x2f.i	aep3, a3, 0
    aa68:	451a26        	beqi	a10, 1, aab1 <NR_WienerFilter+0x519>
    aa6b:	4b2a66        	bnei	a10, 2, aaba <NR_WienerFilter+0x522>
    aa6e:	02d5a2        	addmi	a10, a5, 0x200
    aa71:	701aa2        	l16ui	a10, a10, 224
    aa74:	042a56        	bnez	a10, aaba <NR_WienerFilter+0x522>
    aa77:	0218e6        	bgei	a8, 1, aa7d <NR_WienerFilter+0x4e5>
    aa7a:	004546        	j	ab93 <NR_WienerFilter+0x5fb>
    aa7d:	fcc662        	addi	a6, a6, -4
    aa80:	057d           	mov.n	a7, a5
    aa82:	218876        	loop	a8, aaa7 <NR_WienerFilter+0x50f>
    aa85:	013254        	ae_mulfp24s.hl	aeq0, aep3, aep2
    aa88:	ea4deca71f 	{ ae_lp16f.iu	aep2, a7, 2; ae_mulfp24s.ll	aeq1, aep3, aep2 }
    aa8d:	d4e22fb31f 	{ ae_lp24x2f.iu	aep3, a3, 8; ae_mulfq32sp16s.l	aeq0, aeq0, aep0 }
    aa92:	d4e36c841f 	{ ae_lp16f.iu	aep0, a4, 2; ae_mulfq32sp16s.l	aeq1, aeq1, aep0 }
    aa97:	3500d4        	ae_slliq56	aeq0, aeq0, 3
    aa9a:	fc00fa907f 	{ ae_slliq56	aeq1, aeq1, 3; ae_satq48s	aeq0, aeq0 }
    aa9f:	ff04f9c61f 	{ ae_sq32f.iu	aeq0, a6, 4; ae_satq48s	aeq3, aeq1 }
    aaa4:	627614        	ae_sq32f.iu	aeq3, a6, 4

0000aaa7 <NR_WienerFilter+0x50f>:
    aaa7:	0278           	l32i.n	a7, a2, 0
    aaa9:	2f2962        	l32i	a6, a9, 188
    aaac:	082d           	mov.n	a2, a8
    aaae:	0038c6        	j	ab95 <NR_WienerFilter+0x5fd>

0000aab1 <NR_WienerFilter+0x519>:
    aab1:	02d5a2        	addmi	a10, a5, 0x200
    aab4:	701aa2        	l16ui	a10, a10, 224
    aab7:	06ea16        	beqz	a10, ab29 <NR_WienerFilter+0x591>
    aaba:	81a8           	l32i.n	a10, a1, 32
    aabc:	050a16        	beqz	a10, ab10 <NR_WienerFilter+0x578>
    aabf:	0cda82        	addmi	a8, a10, 0xc00
    aac2:	151882        	l16ui	a8, a8, 42
    aac5:	0cdab2        	addmi	a11, a10, 0xc00
    aac8:	0cdac2        	addmi	a12, a10, 0xc00
    aacb:	411866        	bnei	a8, 1, ab10 <NR_WienerFilter+0x578>
    aace:	141b82        	l16ui	a8, a11, 40
    aad1:	3b1866        	bnei	a8, 1, ab10 <NR_WienerFilter+0x578>
    aad4:	0f9c82        	l16si	a8, a12, 30
    aad7:	0218e6        	bgei	a8, 1, aadd <NR_WienerFilter+0x545>
    aada:	002d46        	j	ab93 <NR_WienerFilter+0x5fb>
    aadd:	fcc662        	addi	a6, a6, -4
    aae0:	057d           	mov.n	a7, a5
    aae2:	278876        	loop	a8, ab0d <NR_WienerFilter+0x575>
    aae5:	013254        	ae_mulfp24s.hl	aeq0, aep3, aep2
    aae8:	ea4deca71f 	{ ae_lp16f.iu	aep2, a7, 2; ae_mulfp24s.ll	aeq1, aep3, aep2 }
    aaed:	3500d4        	ae_slliq56	aeq0, aeq0, 3
    aaf0:	fc00fa907f 	{ ae_slliq56	aeq1, aeq1, 3; ae_satq48s	aeq0, aeq0 }
    aaf5:	fd04efb31f 	{ ae_lp24x2f.iu	aep3, a3, 8; ae_satq48s	aeq1, aeq1 }
    aafa:	030214        	ae_mulfq32sp16s.l	aeq0, aeq0, aep0
    aafd:	d4e36c841f 	{ ae_lp16f.iu	aep0, a4, 2; ae_mulfq32sp16s.l	aeq1, aeq1, aep0 }
    ab02:	060934        	ae_roundsq32asym	aeq0, aeq0
    ab05:	ff2c79c61f 	{ ae_sq32f.iu	aeq0, a6, 4; ae_roundsq32asym	aeq3, aeq1 }
    ab0a:	627614        	ae_sq32f.iu	aeq3, a6, 4

0000ab0d <NR_WienerFilter+0x575>:
    ab0d:	ffe586        	j	aaa7 <NR_WienerFilter+0x50f>

0000ab10 <NR_WienerFilter+0x578>:
    ab10:	03d522        	addmi	a2, a5, 0x300
    ab13:	1d0222        	l8ui	a2, a2, 29
    ab16:	9f0c           	movi.n	a15, 9
    ab18:	00a282        	movi	a8, 0x200
    ab1b:	625f20        	saltu	a5, a15, a2
    ab1e:	00a132        	movi	a3, 0x100
    ab21:	020c           	movi.n	a2, 0
    ab23:	933850        	movnez	a3, a8, a5
    ab26:	002706        	j	abc6 <NR_WienerFilter+0x62e>

0000ab29 <NR_WienerFilter+0x591>:
    ab29:	7718a6        	blti	a8, 1, aba4 <NR_WienerFilter+0x60c>
    ab2c:	aa2522        	l32i	a2, a5, 0x2a8
    ab2f:	190c           	movi.n	a9, 1
    ab31:	119910        	slli	a9, a9, 15
    ab34:	229a           	add.n	a2, a2, a9
    ab36:	312020        	srai	a2, a2, 16
    ab39:	c09920        	sub	a9, a9, a2
    ab3c:	304294        	ae_cvtp24a16x2.ll	aep4, a2, a9
    ab3f:	062d           	mov.n	a2, a6
    ab41:	601204        	ae_lq32f.iu	aeq0, a2, 0
    ab44:	059d           	mov.n	a9, a5
    ab46:	605214        	ae_lq32f.iu	aeq1, a2, 4
    ab49:	3f8876        	loop	a8, ab8c <NR_WienerFilter+0x5f4>
    ab4c:	01b254        	ae_mulfp24s.hl	aeq2, aep3, aep2
    ab4f:	01ba74        	ae_mulfp24s.ll	aeq3, aep3, aep2
    ab52:	031214        	ae_mulfq32sp16s.l	aeq0, aeq0, aep1
    ab55:	031a54        	ae_mulfq32sp16s.l	aeq1, aeq1, aep1
    ab58:	038294        	ae_mulfq32sp16s.l	aeq2, aeq2, aep0
    ab5b:	038ad4        	ae_mulfq32sp16s.l	aeq3, aeq3, aep0
    ab5e:	d4e23aa0bf 	{ ae_slliq56	aeq2, aeq2, 3; ae_mulfq32sp16s.l	aeq0, aeq0, aep0 }
    ab63:	d4e37ab0ff 	{ ae_slliq56	aeq3, aeq3, 3; ae_mulfq32sp16s.l	aeq1, aeq1, aep0 }
    ab68:	068a44        	ae_satq48s	aeq2, aeq2
    ab6b:	06cb44        	ae_satq48s	aeq3, aeq3
    ab6e:	c14424        	ae_mulzaafq32sp16s.lh	aeq0, aeq0, aep4, aeq2, aep4
    ab71:	c14c74        	ae_mulzaafq32sp16s.lh	aeq1, aeq1, aep4, aeq3, aep4
    ab74:	6202f4        	ae_sq32f.i	aeq0, a2, -4
    ab77:	621204        	ae_sq32f.i	aeq1, a2, 0
    ab7a:	601214        	ae_lq32f.iu	aeq0, a2, 4
    ab7d:	605214        	ae_lq32f.iu	aeq1, a2, 4
    ab80:	40a914        	ae_lp16f.iu	aep2, a9, 2
    ab83:	5cb314        	ae_lp24x2f.iu	aep3, a3, 8
    ab86:	408414        	ae_lp16f.iu	aep0, a4, 2
    ab89:	509714        	ae_lp24f.iu	aep1, a7, 4

0000ab8c <NR_WienerFilter+0x5f4>:
    ab8c:	082d           	mov.n	a2, a8
    ab8e:	000506        	j	aba6 <NR_WienerFilter+0x60e>

0000ab91 <NR_WienerFilter+0x5f9>:
	...

0000ab93 <NR_WienerFilter+0x5fb>:
    ab93:	020c           	movi.n	a2, 0
    ab95:	a07870        	addx4	a7, a8, a7
    ab98:	b06860        	addx8	a6, a8, a6
    ab9b:	5c4604        	ae_lp24x2f.i	aep4, a6, 0
    ab9e:	509704        	ae_lp24f.iu	aep1, a7, 0
    aba1:	0001c6        	j	abac <NR_WienerFilter+0x614>

0000aba4 <NR_WienerFilter+0x60c>:
    aba4:	020c           	movi.n	a2, 0
    aba6:	b06860        	addx8	a6, a8, a6
    aba9:	5c4604        	ae_lp24x2f.i	aep4, a6, 0
    abac:	03d532        	addmi	a3, a5, 0x300
    abaf:	1d0332        	l8ui	a3, a3, 29
    abb2:	9f0c           	movi.n	a15, 9
    abb4:	00a282        	movi	a8, 0x200
    abb7:	625f30        	saltu	a5, a15, a3
    abba:	00a132        	movi	a3, 0x100
    abbd:	933850        	movnez	a3, a8, a5
    abc0:	023237        	bltu	a2, a3, abc6 <NR_WienerFilter+0x62e>
    abc3:	ff9b46        	j	aa34 <NR_WienerFilter+0x49c>
    abc6:	c02320        	sub	a2, a3, a2
    abc9:	178276        	loop	a2, abe4 <NR_WienerFilter+0x64c>
    abcc:	014054        	ae_mulfp24s.hl	aeq0, aep4, aep0
    abcf:	ea11efc61f 	{ ae_lp24x2f.iu	aep4, a6, 8; ae_mulfp24s.ll	aeq1, aep4, aep0 }
    abd4:	f8e42c841f 	{ ae_lp16f.iu	aep0, a4, 2; ae_mulrfq32sp24s.l	aeq0, aeq0, aep1 }
    abd9:	f8e56e971f 	{ ae_lp24f.iu	aep1, a7, 4; ae_mulrfq32sp24s.l	aeq1, aeq1, aep1 }
    abde:	6206e4        	ae_sq32f.i	aeq0, a6, -8
    abe1:	6216f4        	ae_sq32f.i	aeq1, a6, -4

0000abe4 <NR_WienerFilter+0x64c>:
    abe4:	ff9306        	j	aa34 <NR_WienerFilter+0x49c>

0000abe7 <NR_WienerFilter+0x64f>:
	...

0000abe8 <Mel_filter>:
    abe8:	004136        	entry	a1, 32
    abeb:	fc24a0137e 	{ l16si	a7, a3, 2; ae_zeroq56	aeq0 }
    abf0:	239d           	ae_l16si.n	a9, a3, 0
    abf2:	fd044fe22e 	{ addi	a2, a2, -2; ae_movq56	aeq1, aeq0 }
    abf7:	fcc482        	addi	a8, a4, -4
    abfa:	c0a790        	sub	a10, a7, a9
    abfd:	fcc552        	addi	a5, a5, -4
    ac00:	085a16        	beqz	a10, ac89 <Mel_filter+0xa1>
    ac03:	408214        	ae_lp16f.iu	aep0, a2, 2
    ac06:	111aa6        	blti	a10, 1, ac1b <Mel_filter+0x33>
    ac09:	509814        	ae_lp24f.iu	aep1, a8, 4
    ac0c:	f03d           	nop.n
    ac0e:	098a76        	loop	a10, ac1b <Mel_filter+0x33>
    ac11:	cd402c821f 	{ ae_lp16f.iu	aep0, a2, 2; ae_sraip24	aep2, aep0, 8 }
    ac16:	e22a6e981f 	{ ae_lp24f.iu	aep1, a8, 4; ae_mulafp24s.hh	aeq1, aep2, aep1 }

0000ac1b <Mel_filter+0x33>:
    ac1b:	fd4c6023ae 	{ l16si	a10, a3, 4; ae_roundsq32sym	aeq1, aeq1 }
    ac20:	f87c           	movi.n	a8, -1
    ac22:	30b980        	xor	a11, a9, a8
    ac25:	8aba           	add.n	a8, a10, a11
    ac27:	625514        	ae_sq32f.iu	aeq1, a5, 4
    ac2a:	1418a6        	blti	a8, 1, ac42 <Mel_filter+0x5a>
    ac2d:	a08940        	addx4	a8, a9, a4
    ac30:	fbaa           	add.n	a15, a11, a10
    ac32:	509804        	ae_lp24f.iu	aep1, a8, 0
    ac35:	098f76        	loop	a15, ac42 <Mel_filter+0x5a>
    ac38:	cd402c821f 	{ ae_lp16f.iu	aep0, a2, 2; ae_sraip24	aep2, aep0, 8 }
    ac3d:	e22a2e981f 	{ ae_lp24f.iu	aep1, a8, 4; ae_mulafp24s.hh	aeq0, aep2, aep1 }
    ac42:	060834        	ae_roundsq32sym	aeq0, aeq0
    ac45:	624514        	ae_sq32f.iu	aeq0, a5, 4
    ac48:	6736a6        	blti	a6, 3, acb3 <Mel_filter+0xcb>

0000ac4b <Mel_filter+0x63>:
    ac4b:	334b           	addi.n	a3, a3, 4
    ac4d:	fc248fd66e 	{ addi	a6, a6, -3; ae_zeroq56	aeq0 }
    ac52:	338d           	ae_l16si.n	a8, a3, 2
    ac54:	c08870        	sub	a8, a8, a7
    ac57:	1728a6        	blti	a8, 2, ac72 <Mel_filter+0x8a>
    ac5a:	a07740        	addx4	a7, a7, a4
    ac5d:	880b           	addi.n	a8, a8, -1
    ac5f:	509704        	ae_lp24f.iu	aep1, a7, 0
    ac62:	0020f0        	nop
    ac65:	098876        	loop	a8, ac72 <Mel_filter+0x8a>
    ac68:	cd402c821f 	{ ae_lp16f.iu	aep0, a2, 2; ae_sraip24	aep2, aep0, 8 }
    ac6d:	e22a2e971f 	{ ae_lp24f.iu	aep1, a7, 4; ae_mulafp24s.hh	aeq0, aep2, aep1 }

0000ac72 <Mel_filter+0x8a>:
    ac72:	060834        	ae_roundsq32sym	aeq0, aeq0
    ac75:	fc24b9c51f 	{ ae_sq32f.iu	aeq0, a5, 4; ae_zeroq56	aeq0 }
    ac7a:	56bc           	beqz.n	a6, acb3 <Mel_filter+0xcb>
    ac7c:	237d           	ae_l16si.n	a7, a3, 0
    ac7e:	332b           	addi.n	a3, a3, 2
    ac80:	660b           	addi.n	a6, a6, -1
    ac82:	fff306        	j	ac52 <Mel_filter+0x6a>

0000ac85 <Mel_filter+0x9d>:
    ac85:	00000000                                ....

0000ac89 <Mel_filter+0xa1>:
    ac89:	0293a2        	l16si	a10, a3, 4
    ac8c:	624514        	ae_sq32f.iu	aeq0, a5, 4
    ac8f:	c09a90        	sub	a9, a10, a9
    ac92:	799c           	beqz.n	a9, acad <Mel_filter+0xc5>
    ac94:	408214        	ae_lp16f.iu	aep0, a2, 2
    ac97:	a719a6        	blti	a9, 1, ac42 <Mel_filter+0x5a>
    ac9a:	509814        	ae_lp24f.iu	aep1, a8, 4
    ac9d:	098976        	loop	a9, acaa <Mel_filter+0xc2>
    aca0:	cd402c821f 	{ ae_lp16f.iu	aep0, a2, 2; ae_sraip24	aep2, aep0, 8 }
    aca5:	e22a2e981f 	{ ae_lp24f.iu	aep1, a8, 4; ae_mulafp24s.hh	aeq0, aep2, aep1 }

0000acaa <Mel_filter+0xc2>:
    acaa:	ffe506        	j	ac42 <Mel_filter+0x5a>

0000acad <Mel_filter+0xc5>:
    acad:	624514        	ae_sq32f.iu	aeq0, a5, 4
    acb0:	9736e6        	bgei	a6, 3, ac4b <Mel_filter+0x63>
    acb3:	f01d           	retw.n

0000acb5 <Mel_filter+0xcd>:
    acb5:	000000                                        ...

0000acb8 <Mel_filter_inv>:
    acb8:	006136        	entry	a1, 48
    acbb:	538d           	ae_l16ui.n	a8, a3, 2
    acbd:	439d           	ae_l16ui.n	a9, a3, 0
    acbf:	3129           	s32i.n	a2, a1, 12
    acc1:	fcc662        	addi	a6, a6, -4
    acc4:	fec442        	addi	a4, a4, -2
    acc7:	171897        	beq	a8, a9, ace2 <Mel_filter_inv+0x2a>
    acca:	058d           	mov.n	a8, a5
    accc:	601804        	ae_lq32f.iu	aeq0, a8, 0
    accf:	408414        	ae_lp16f.iu	aep0, a4, 2
    acd2:	d46200088f 	{ movi	a8, 8; ae_mulfq32sp16s.h	aeq0, aeq0, aep0 }
    acd7:	fc24fe880f 	{ ae_slaasq56s	aeq0, aeq0, a8; nop }
    acdc:	1b8c74        	ae_roundsp24q48sym	aep7, aeq0
    acdf:	52f614        	ae_sp24f.l.iu	aep7, a6, 4

0000ace2 <Mel_filter_inv+0x2a>:
    ace2:	0217e6        	bgei	a7, 1, ace8 <Mel_filter_inv+0x30>
    ace5:	002746        	j	ad86 <Mel_filter_inv+0xce>
    ace8:	fd2081009f 	{ movi	a9, 0x100; ae_zerop48	aep2 }
    aced:	d62ea1        	l32r	a10, 5a8 (7fff00 <_end+0x7f0960>)
    acf0:	398994        	ae_movpa24x2	aep0, a9, a9
    acf3:	399aa4        	ae_movpa24x2	aep1, a10, a10
    acf6:	fec382        	addi	a8, a3, -2
    acf9:	b54b           	addi.n	a11, a5, 4
    acfb:	0c0c           	movi.n	a12, 0
    acfd:	890c           	movi.n	a9, 8
    acff:	1a0c           	movi.n	a10, 1
    ad01:	40b824        	ae_lp16f.iu	aep3, a8, 4
    ad04:	40c8f4        	ae_lp16f.iu	aep4, a8, -2
    ad07:	dd8ec000df 	{ movi	a13, 0; ae_subsp24s	aep3, aep3, aep4 }
    ad0c:	d24c00002f 	{ movi	a2, 0; ae_eqp24	b0:b1, aep3, aep2 }
    ad11:	d20c16da0f 	{ movt	a13, a10, b0; ae_eqp24	b0:b1, aep3, aep0 }
    ad16:	04dd56        	bnez	a13, ad67 <Mel_filter_inv+0xaf>
    ad19:	d32a00        	movt	a2, a10, b0
    ad1c:	047256        	bnez	a2, ad67 <Mel_filter_inv+0xaf>
    ad1f:	33ed           	ae_l16si.n	a14, a3, 2
    ad21:	23fd           	ae_l16si.n	a15, a3, 0
    ad23:	f27c           	movi.n	a2, -1
    ad25:	de0b           	addi.n	a13, a14, -1
    ad27:	3cafd7        	bge	a15, a13, ad67 <Mel_filter_inv+0xaf>
    ad2a:	30ff20        	xor	a15, a15, a2
    ad2d:	3128           	l32i.n	a2, a1, 12
    ad2f:	5cea           	add.n	a5, a12, a14
    ad31:	f8cbd2        	addi	a13, a11, -8
    ad34:	902c20        	addx2	a2, a12, a2
    ad37:	cf5a           	add.n	a12, a15, a5
    ad39:	ffea           	add.n	a15, a15, a14
    ad3b:	fec2e2        	addi	a14, a2, -2
    ad3e:	258f76        	loop	a15, ad67 <Mel_filter_inv+0xaf>
    ad41:	0d2d           	mov.n	a2, a13
    ad43:	601224        	ae_lq32f.iu	aeq0, a2, 8
    ad46:	40be14        	ae_lp16f.iu	aep3, a14, 2
    ad49:	de66bd32ff 	{ ae_lq32f.iu	aeq1, a2, -4; ae_subsp24s	aep4, aep1, aep3 }
    ad4e:	d4722ce41f 	{ ae_lp16f.iu	aep6, a4, 2; ae_mulfq32sp16s.h	aeq0, aeq0, aep4 }
    ad53:	033a44        	ae_mulfq32sp16s.h	aeq1, aeq1, aep3
    ad56:	061804        	ae_addsq56s	aeq0, aeq1, aeq0
    ad59:	036204        	ae_mulfq32sp16s.h	aeq0, aeq0, aep6
    ad5c:	fc24fe890f 	{ ae_slaasq56s	aeq0, aeq0, a9; nop }
    ad61:	1b8c74        	ae_roundsp24q48sym	aep7, aeq0
    ad64:	52f614        	ae_sp24f.l.iu	aep7, a6, 4

0000ad67 <Mel_filter_inv+0xaf>:
    ad67:	2b4b           	addi.n	a2, a11, 4
    ad69:	601b04        	ae_lq32f.iu	aeq0, a11, 0
    ad6c:	40b414        	ae_lp16f.iu	aep3, a4, 2
    ad6f:	d46e0ff77e 	{ addi	a7, a7, -1; ae_mulfq32sp16s.h	aeq0, aeq0, aep3 }
    ad74:	332b           	addi.n	a3, a3, 2
    ad76:	fc24fe890f 	{ ae_slaasq56s	aeq0, aeq0, a9; nop }
    ad7b:	fbe7d3b22f 	{ or	a11, a2, a2; ae_roundsp24q48sym	aep7, aeq0 }
    ad80:	52f614        	ae_sp24f.l.iu	aep7, a6, 4
    ad83:	f7a756        	bnez	a7, ad01 <Mel_filter_inv+0x49>

0000ad86 <Mel_filter_inv+0xce>:
    ad86:	f01d           	retw.n

0000ad88 <ifft_wo>:
    ad88:	006136        	entry	a1, 48
    ad8b:	0258           	l32i.n	a5, a2, 0
    ad8d:	060c           	movi.n	a6, 0
    ad8f:	25d282        	addmi	a8, a2, 0x2500
    ad92:	380272        	l8ui	a7, a2, 56
    ad95:	2f2882        	l32i	a8, a8, 188
    ad98:	1569           	s32i.n	a6, a5, 4
    ad9a:	0569           	s32i.n	a6, a5, 0
    ad9c:	d5d261        	l32r	a6, 4e4 (e800 <fftorder_1024_12b>)
    ad9f:	1097b6        	bltui	a7, 10, adb3 <ifft_wo+0x2b>
    ada2:	af7c           	movi.n	a15, -6
    ada4:	962b           	addi.n	a9, a6, 2
    ada6:	1a0c           	movi.n	a10, 1
    ada8:	11f9           	s32i.n	a15, a1, 4
    adaa:	00a462        	movi	a6, 0x400
    adad:	e0a172        	movi	a7, 0x1e0
    adb0:	000ac6        	j	addf <ifft_wo+0x57>

0000adb3 <ifft_wo+0x2b>:
    adb3:	41b370        	srli	a11, a7, 3
    adb6:	a64b           	addi.n	a10, a6, 4
    adb8:	968b           	addi.n	a9, a6, 8
    adba:	00a2d2        	movi	a13, 0x200
    adbd:	00a162        	movi	a6, 0x100
    adc0:	936db0        	movnez	a6, a13, a11
    adc3:	bd7c           	movi.n	a13, -5
    adc5:	cf7c           	movi.n	a15, -4
    adc7:	939ab0        	movnez	a9, a10, a11
    adca:	93fdb0        	movnez	a15, a13, a11
    adcd:	f0a0c2        	movi	a12, 240
    add0:	78a072        	movi	a7, 120
    add3:	2e0c           	movi.n	a14, 2
    add5:	4a0c           	movi.n	a10, 4
    add7:	937cb0        	movnez	a7, a12, a11
    adda:	93aeb0        	movnez	a10, a14, a11
    addd:	11f9           	s32i.n	a15, a1, 4
    addf:	d5e3c1        	l32r	a12, 56c (f280 <NR_immediate_num>)
    ade2:	1892b2        	l16si	a11, a2, 48
    ade5:	5c2804        	ae_lp24x2f.i	aep2, a8, 0
    ade8:	440c04        	ae_lp16x2f.i	aep0, a12, 0
    adeb:	441c14        	ae_lp16x2f.i	aep1, a12, 4
    adee:	443404        	ae_lp16x2f.i	aep3, a4, 0
    adf1:	00cb96        	bltz	a11, ae01 <ifft_wo+0x79>
    adf4:	0b0c           	movi.n	a11, 0
    adf6:	1892c2        	l16si	a12, a2, 48
    adf9:	21c9           	s32i.n	a12, a1, 8
    adfb:	0316b4        	wur.ae_sar	a11
    adfe:	0002c6        	j	ae0d <ifft_wo+0x85>

0000ae01 <ifft_wo+0x79>:
    ae01:	9bbd           	ae_zext16	a11, a11
    ae03:	60b0b0        	neg	a11, a11
    ae06:	0f0c           	movi.n	a15, 0
    ae08:	0316b4        	wur.ae_sar	a11
    ae0b:	21f9           	s32i.n	a15, a1, 8
    ae0d:	41c160        	srli	a12, a6, 1
    ae10:	f9afd3b44f 	{ or	a11, a4, a4; ae_srasp24	aep3, aep3 }
    ae15:	11aaf0        	slli	a10, a10, 1
    ae18:	1b8c76        	loop	a12, ae37 <ifft_wo+0xaf>
    ae1b:	df69be2b1f 	{ ae_selp24.hl	aep4, aep2, aep3; ae_selp24.lh	aep6, aep2, aep3 }
    ae20:	f012a009de 	{ l16si	a13, a9, 0; ae_mulzaafp24s.hh.ll	aeq0, aep4, aep0 }
    ae25:	f03aedfb1f 	{ ae_lp16x2f.iu	aep7, a11, 4; ae_mulzaafp24s.hh.ll	aeq1, aep6, aep1 }
    ae2a:	f9bfefa81f 	{ ae_lp24x2f.iu	aep2, a8, 8; ae_srasp24	aep3, aep7 }
    ae2f:	fa461099af 	{ add	a9, a9, a10; ae_truncp24q48x2	aep4, aeq0, aeq1 }
    ae34:	5f45d4        	ae_sp24x2f.x	aep4, a5, a13

0000ae37 <ifft_wo+0xaf>:
    ae37:	fc386dbbef 	{ ae_lp16x2f.iu	aep3, a11, -8; ae_negsp24s	aep1, aep1 }
    ae3c:	cc0b           	addi.n	a12, a12, -1
    ae3e:	f9afefa8ef 	{ ae_lp24x2f.iu	aep2, a8, -16; ae_srasp24	aep3, aep3 }
    ae43:	f03d           	nop.n
    ae45:	1b8c76        	loop	a12, ae64 <ifft_wo+0xdc>
    ae48:	df69be2b1f 	{ ae_selp24.hl	aep4, aep2, aep3; ae_selp24.lh	aep6, aep2, aep3 }
    ae4d:	f032a009ce 	{ l16si	a12, a9, 0; ae_mulzaafp24s.hh.ll	aeq0, aep4, aep1 }
    ae52:	f01aedfbff 	{ ae_lp16x2f.iu	aep7, a11, -4; ae_mulzaafp24s.hh.ll	aeq1, aep6, aep0 }
    ae57:	f9bfefa8ff 	{ ae_lp24x2f.iu	aep2, a8, -8; ae_srasp24	aep3, aep7 }
    ae5c:	fa461099af 	{ add	a9, a9, a10; ae_truncp24q48x2	aep4, aeq0, aeq1 }
    ae61:	5f45c4        	ae_sp24x2f.x	aep4, a5, a12
    ae64:	d5a181        	l32r	a8, 4e8 (c408 <sw_fft_32b_2811>)
    ae67:	8c0c           	movi.n	a12, 8
    ae69:	0d0c           	movi.n	a13, 0
    ae6b:	1e0c           	movi.n	a14, 1
    ae6d:	05ad           	mov.n	a10, a5
    ae6f:	06bd           	mov.n	a11, a6
    ae71:	0008e0        	callx8	a8
    ae74:	11d8           	l32i.n	a13, a1, 4
    ae76:	189282        	l16si	a8, a2, 48
    ae79:	25d292        	addmi	a9, a2, 0x2500
    ae7c:	3169           	s32i.n	a6, a1, 12
    ae7e:	c0b670        	sub	a11, a6, a7
    ae81:	076d           	mov.n	a6, a7
    ae83:	322972        	l32i	a7, a9, 200
    ae86:	0221f2        	l32i	a15, a1, 8
    ae89:	7fa2e2        	movi	a14, 0x27f
    ae8c:	80ada0        	add	a10, a13, a10
    ae8f:	11eed0        	slli	a14, a14, 3
    ae92:	c08a80        	sub	a8, a10, a8
    ae95:	600504        	ae_lq32f.i	aeq0, a5, 0
    ae98:	8098f0        	add	a9, a8, a15
    ae9b:	fec3c2        	addi	a12, a3, -2
    ae9e:	fec4d2        	addi	a13, a4, -2
    aea1:	605514        	ae_lq32f.iu	aeq1, a5, 4
    aea4:	80e2e0        	add	a14, a2, a14
    aea7:	fec7f2        	addi	a15, a7, -2
    aeaa:	90ab70        	addx2	a10, a11, a7
    aead:	2e8676        	loop	a6, aedf <ifft_wo+0x157>
    aeb0:	fc24fe880f 	{ ae_slaasq56s	aeq0, aeq0, a8; nop }
    aeb5:	fc447e994f 	{ ae_slaasq56s	aeq1, aeq1, a9; ae_roundsq32sym	aeq0, aeq0 }
    aeba:	fd4c6d8e1f 	{ ae_lp16x2f.iu	aep0, a14, 4; ae_roundsq32sym	aeq1, aeq1 }
    aebf:	409af4        	ae_lp16f.iu	aep1, a10, -2
    aec2:	eb20acaf1f 	{ ae_lp16f.iu	aep2, a15, 2; ae_mulfp24s.hl	aeq2, aep0, aep1 }
    aec7:	018974        	ae_mulfp24s.ll	aeq3, aep0, aep1
    aeca:	f58abd151f 	{ ae_lq32f.iu	aeq0, a5, 4; ae_mulafq32sp16s.l	aeq2, aeq0, aep2 }
    aecf:	f989fd351f 	{ ae_lq32f.iu	aeq1, a5, 4; ae_mulsfq32sp16s.l	aeq3, aeq1, aep2 }
    aed4:	1bae64        	ae_roundsp16q48sym	aep6, aeq2
    aed7:	fbfbf2ec1f 	{ ae_sp16f.l.iu	aep6, a12, 2; ae_roundsp16q48sym	aep7, aeq3 }
    aedc:	42fd14        	ae_sp16f.l.iu	aep7, a13, 2
    aedf:	31f8           	l32i.n	a15, a1, 12
    aee1:	1176f0        	slli	a7, a6, 1
    aee4:	ffa462        	movi	a6, 0x4ff
    aee7:	c0cf70        	sub	a12, a15, a7
    aeea:	3e1ca6        	blti	a12, 1, af2c <ifft_wo+0x1a4>
    aeed:	1166e0        	slli	a6, a6, 2
    aef0:	806260        	add	a6, a2, a6
    aef3:	907760        	addx2	a7, a7, a6
    aef6:	a0db60        	addx4	a13, a11, a6
    aef9:	fcc762        	addi	a6, a7, -4
    aefc:	400404        	ae_lp16f.i	aep0, a4, 0
    aeff:	401304        	ae_lp16f.i	aep1, a3, 0
    af02:	fccd72        	addi	a7, a13, -4
    af05:	238c76        	loop	a12, af2c <ifft_wo+0x1a4>
    af08:	fc2c2caaff 	{ ae_lp16f.iu	aep2, a10, -2; ae_cvtq48p24s.l	aeq0, aep1 }
    af0d:	fd0c2db71f 	{ ae_lp16x2f.iu	aep3, a7, 4; ae_cvtq48p24s.l	aeq1, aep0 }
    af12:	e24f2dc61f 	{ ae_lp16x2f.iu	aep4, a6, 4; ae_mulafp24s.hl	aeq0, aep3, aep2 }
    af17:	e24fec931f 	{ ae_lp16f.iu	aep1, a3, 2; ae_mulafp24s.ll	aeq1, aep3, aep2 }
    af1c:	fbe3ec841f 	{ ae_lp16f.iu	aep0, a4, 2; ae_roundsp16q48sym	aep7, aeq0 }
    af21:	f9ebf3470f 	{ ae_sp16x2f.i	aep4, a7, 0; ae_roundsp16q48sym	aep3, aeq1 }
    af26:	4273f4        	ae_sp16f.l.i	aep7, a3, -2
    af29:	4234f4        	ae_sp16f.l.i	aep3, a4, -2

0000af2c <ifft_wo+0x1a4>:
    af2c:	2a1ba6        	blti	a11, 1, af5a <ifft_wo+0x1d2>
    af2f:	faa032        	movi	a3, 250
    af32:	13d332        	addmi	a3, a3, 0x1300
    af35:	600504        	ae_lq32f.i	aeq0, a5, 0
    af38:	6045f4        	ae_lq32f.i	aeq1, a5, -4
    af3b:	223a           	add.n	a2, a2, a3
    af3d:	198b76        	loop	a11, af5a <ifft_wo+0x1d2>
    af40:	fc24fe988f 	{ ae_slaasq56s	aeq2, aeq1, a8; nop }
    af45:	f8f3be890f 	{ ae_slaasq56s	aeq0, aeq0, a9; ae_roundsp16q48sym	aep0, aeq2 }
    af4a:	ff10bd351f 	{ ae_lq32f.iu	aeq1, a5, 4; ae_negq56	aeq3, aeq0 }
    af4f:	f8fbf2821f 	{ ae_sp16f.l.iu	aep0, a2, 2; ae_roundsp16q48sym	aep1, aeq3 }
    af54:	601514        	ae_lq32f.iu	aeq0, a5, 4
    af57:	429214        	ae_sp16f.l.iu	aep1, a2, 2
    af5a:	f01d           	retw.n

0000af5c <target_power>:
    af5c:	004136        	entry	a1, 32
    af5f:	1615a6        	blti	a5, 1, af79 <target_power+0x1d>
    af62:	c03430        	sub	a3, a4, a3
    af65:	fcc222        	addi	a2, a2, -4
    af68:	0d8576        	loop	a5, af79 <target_power+0x1d>
    af6b:	601214        	ae_lq32f.iu	aeq0, a2, 4
    af6e:	fc24fe830f 	{ ae_slaasq56s	aeq0, aeq0, a3; nop }
    af73:	060844        	ae_satq48s	aeq0, aeq0
    af76:	620204        	ae_sq32f.i	aeq0, a2, 0

0000af79 <target_power+0x1d>:
    af79:	f01d           	retw.n

0000af7b <target_power+0x1f>:
	...

0000af7c <fft_wo2>:
    af7c:	008136        	entry	a1, 64
    af7f:	03d262        	addmi	a6, a2, 0x300
    af82:	1d0662        	l8ui	a6, a6, 29
    af85:	940c           	movi.n	a4, 9
    af87:	e0a152        	movi	a5, 0x1e0
    af8a:	f0a0d2        	movi	a13, 240
    af8d:	624460        	saltu	a4, a4, a6
    af90:	93d540        	movnez	a13, a5, a4
    af93:	280c           	movi.n	a8, 2
    af95:	470c           	movi.n	a7, 4
    af97:	937840        	movnez	a7, a8, a4
    af9a:	050c           	movi.n	a5, 0
    af9c:	034d           	mov.n	a4, a3
    af9e:	098d76        	loop	a13, afab <fft_wo2+0x2f>
    afa1:	248d           	ae_l16si.n	a8, a4, 0
    afa3:	442b           	addi.n	a4, a4, 2
    afa5:	608180        	abs	a8, a8
    afa8:	205850        	or	a5, a8, a5

0000afab <fft_wo2+0x2f>:
    afab:	03d2f2        	addmi	a15, a2, 0x300
    afae:	d54da1        	l32r	a10, 4e4 (e800 <fftorder_1024_12b>)
    afb1:	980c           	movi.n	a8, 9
    afb3:	40e590        	nsa	a9, a5
    afb6:	61f9           	s32i.n	a15, a1, 24
    afb8:	0a9ff2        	l16si	a15, a15, 20
    afbb:	626860        	saltu	a6, a8, a6
    afbe:	050c           	movi.n	a5, 0
    afc0:	f0c982        	addi	a8, a9, -16
    afc3:	1fd2c2        	addmi	a12, a2, 0x1f00
    afc6:	252c92        	l32i	a9, a12, 148
    afc9:	ca4b           	addi.n	a12, a10, 4
    afcb:	aa8b           	addi.n	a10, a10, 8
    afcd:	538850        	max	a8, a8, a5
    afd0:	00a242        	movi	a4, 0x200
    afd3:	00a4b2        	movi	a11, 0x400
    afd6:	bb22e2        	l32i	a14, a2, 0x2ec
    afd9:	934b60        	movnez	a4, a11, a6
    afdc:	69a3b2        	movi	a11, 0x369
    afdf:	93ac60        	movnez	a10, a12, a6
    afe2:	43c8f0        	min	a12, a8, a15
    afe5:	11bbd0        	slli	a11, a11, 3
    afe8:	69a3f2        	movi	a15, 0x369
    afeb:	0316c4        	wur.ae_sar	a12
    afee:	4502b4        	ae_lp16x2f.x	aep0, a2, a11
    aff1:	116fd0        	slli	a6, a15, 3
    aff4:	5189           	s32i.n	a8, a1, 20
    aff6:	a0b4e0        	addx4	a11, a4, a14
    aff9:	418240        	srli	a8, a4, 2
    affc:	0761c2        	s32i	a12, a1, 28
    afff:	1177f0        	slli	a7, a7, 1
    b002:	806260        	add	a6, a2, a6
    b005:	04cbc2        	addi	a12, a11, 4
    b008:	f823ad190f 	{ ae_lp16x2f.i	aep1, a9, 0; ae_sllssp24s	aep0, aep0 }
    b00d:	158876        	loop	a8, b026 <fft_wo2+0xaa>
    b010:	e820adf61f 	{ ae_lp16x2f.iu	aep7, a6, 4; ae_mulfp24s.hh	aeq0, aep0, aep1 }
    b015:	eb21ed991f 	{ ae_lp16x2f.iu	aep1, a9, 4; ae_mulfp24s.ll	aeq3, aep0, aep1 }
    b01a:	f83fb84b5f 	{ ae_sq32f.x	aeq0, a11, a5; ae_sllssp24s	aep0, aep7 }
    b01f:	62bc54        	ae_sq32f.x	aeq3, a12, a5
    b022:	2a5d           	ae_l16si.n	a5, a10, 0
    b024:	aa7a           	add.n	a10, a10, a7
    b026:	fc2486d1ff 	{ movi	a15, 0x6d1; ae_zeroq56	aeq0 }
    b02b:	4161d0        	srli	a6, a13, 1
    b02e:	11ffe0        	slli	a15, a15, 2
    b031:	f84215e86f 	{ sub	a14, a8, a6; ae_truncp24q48x2	aep0, aeq0, aeq0 }
    b036:	f2fa           	add.n	a15, a2, a15
    b038:	3169           	s32i.n	a6, a1, 12
    b03a:	591ea6        	blti	a14, 1, b097 <fft_wo2+0x11b>
    b03d:	906d20        	addx2	a6, a13, a2
    b040:	69a3d2        	movi	a13, 0x369
    b043:	046142        	s32i	a4, a1, 16
    b046:	114dd0        	slli	a4, a13, 3
    b049:	80d640        	add	a13, a6, a4
    b04c:	69a342        	movi	a4, 0x369
    b04f:	1144d0        	slli	a4, a4, 3
    b052:	452644        	ae_lp16x2f.x	aep2, a6, a4
    b055:	098e76        	loop	a14, b062 <fft_wo2+0xe6>
    b058:	fc4873af1f 	{ ae_sp16x2f.iu	aep2, a15, 4; ae_abssp24s	aep1, aep2 }
    b05d:	dc202dad1f 	{ ae_lp16x2f.iu	aep2, a13, 4; ae_orp48	aep0, aep0, aep1 }
    b062:	31e8           	l32i.n	a14, a1, 12
    b064:	4499f4        	ae_lp16x2f.iu	aep1, a9, -4
    b067:	c068e0        	sub	a6, a8, a14
    b06a:	0020f0        	nop
    b06d:	1d8676        	loop	a6, b08e <fft_wo2+0x112>
    b070:	f92bf3af1f 	{ ae_sp16x2f.iu	aep2, a15, 4; ae_sllssp24s	aep3, aep2 }
    b075:	013154        	ae_mulfp24s.hl	aeq0, aep3, aep1
    b078:	e92ded99ff 	{ ae_lp16x2f.iu	aep1, a9, -4; ae_mulfp24s.lh	aeq3, aep3, aep1 }
    b07d:	fe48384b5f 	{ ae_sq32f.x	aeq0, a11, a5; ae_abssp24s	aep4, aep2 }
    b082:	dc80387c5f 	{ ae_sq32f.x	aeq3, a12, a5; ae_orp48	aep0, aep0, aep4 }
    b087:	2a5d           	ae_l16si.n	a5, a10, 0
    b089:	44ad14        	ae_lp16x2f.iu	aep2, a13, 4
    b08c:	aa7a           	add.n	a10, a10, a7
    b08e:	4148           	l32i.n	a4, a1, 16
    b090:	000206        	j	b09c <fft_wo2+0x120>

0000b093 <fft_wo2+0x117>:
    b093:	00000000                                ....

0000b097 <fft_wo2+0x11b>:
    b097:	31e8           	l32i.n	a14, a1, 12
    b099:	4499f4        	ae_lp16x2f.iu	aep1, a9, -4
    b09c:	0086d4        	ae_cvta32p24.h	a6, aep0
    b09f:	0008d4        	ae_cvta32p24.l	a8, aep0
    b0a2:	51d8           	l32i.n	a13, a1, 20
    b0a4:	206680        	or	a6, a6, a8
    b0a7:	40e660        	nsa	a6, a6
    b0aa:	436d60        	min	a6, a13, a6
    b0ad:	61d8           	l32i.n	a13, a1, 24
    b0af:	0a5d62        	s16i	a6, a13, 20
    b0b2:	440304        	ae_lp16x2f.i	aep0, a3, 0
    b0b5:	188e76        	loop	a14, b0d1 <fft_wo2+0x155>
    b0b8:	f923b38f1f 	{ ae_sp16x2f.iu	aep0, a15, 4; ae_sllssp24s	aep2, aep0 }
    b0bd:	ea28ad831f 	{ ae_lp16x2f.iu	aep0, a3, 4; ae_mulfp24s.hl	aeq0, aep2, aep1 }
    b0c2:	e929ed99ff 	{ ae_lp16x2f.iu	aep1, a9, -4; ae_mulfp24s.lh	aeq3, aep2, aep1 }
    b0c7:	628b54        	ae_sq32f.x	aeq0, a11, a5
    b0ca:	62bc54        	ae_sq32f.x	aeq3, a12, a5
    b0cd:	2a5d           	ae_l16si.n	a5, a10, 0
    b0cf:	aa7a           	add.n	a10, a10, a7

0000b0d1 <fft_wo2+0x155>:
    b0d1:	bb2252        	l32i	a5, a2, 0x2ec
    b0d4:	413140        	srli	a3, a4, 1
    b0d7:	8c0c           	movi.n	a12, 8
    b0d9:	a0a450        	addx4	a10, a4, a5
    b0dc:	d50341        	l32r	a4, 4e8 (c408 <sw_fft_32b_2811>)
    b0df:	1d0c           	movi.n	a13, 1
    b0e1:	0e0c           	movi.n	a14, 0
    b0e3:	03bd           	mov.n	a11, a3
    b0e5:	0004e0        	callx8	a4
    b0e8:	1fd242        	addmi	a4, a2, 0x1f00
    b0eb:	7168           	l32i.n	a6, a1, 28
    b0ed:	222442        	l32i	a4, a4, 136
    b0f0:	bb2252        	l32i	a5, a2, 0x2ec
    b0f3:	03d272        	addmi	a7, a2, 0x300
    b0f6:	c066a0        	sub	a6, a6, a10
    b0f9:	0b5762        	s16i	a6, a7, 22
    b0fc:	057d           	mov.n	a7, a5
    b0fe:	f8c482        	addi	a8, a4, -8
    b101:	058376        	loop	a3, b10a <fft_wo2+0x18e>
    b104:	5c8714        	ae_lp24x2f.iu	aep0, a7, 8
    b107:	5e8814        	ae_sp24x2f.iu	aep0, a8, 8
    b10a:	03d2e2        	addmi	a14, a2, 0x300
    b10d:	0f1e72        	l16ui	a7, a14, 30
    b110:	1136f0        	slli	a3, a6, 1
    b113:	1c0c           	movi.n	a12, 1
    b115:	1bd2d2        	addmi	a13, a2, 0x1b00
    b118:	c03c30        	sub	a3, a12, a3
    b11b:	f73b           	addi.n	a15, a7, 3
    b11d:	fcc522        	addi	a2, a5, -4
    b120:	5c0404        	ae_lp24x2f.i	aep0, a4, 0
    b123:	205d32        	s16i	a3, a13, 64
    b126:	0a8f76        	loop	a15, b134 <fft_wo2+0x1b8>
    b129:	f003af841f 	{ ae_lp24x2f.iu	aep0, a4, 8; ae_mulzaap24s.hh.ll	aeq0, aep0, aep0 }
    b12e:	060834        	ae_roundsq32sym	aeq0, aeq0
    b131:	624214        	ae_sq32f.iu	aeq0, a2, 4
    b134:	f01d           	retw.n

0000b136 <fft_wo2+0x1ba>:
	...

0000b138 <WB_NR_IE_frame_process>:
    b138:	012136        	entry	a1, 144
    b13b:	25d262        	addmi	a6, a2, 0x2500
    b13e:	3b26f2        	l32i	a15, a6, 236
    b141:	03dd           	mov.n	a13, a3
    b143:	2f2632        	l32i	a3, a6, 188
    b146:	03dfa2        	addmi	a10, a15, 0x300
    b149:	1d0ae2        	l8ui	a14, a10, 29
    b14c:	0248           	l32i.n	a4, a2, 0
    b14e:	1461a2        	s32i	a10, a1, 80
    b151:	0f1aa2        	l16ui	a10, a10, 30
    b154:	03df72        	addmi	a7, a15, 0x300
    b157:	196142        	s32i	a4, a1, 100
    b15a:	3c26c2        	l32i	a12, a6, 240
    b15d:	166162        	s32i	a6, a1, 88
    b160:	03dfb2        	addmi	a11, a15, 0x300
    b163:	139242        	l16si	a4, a2, 38
    b166:	1fdf62        	addmi	a6, a15, 0x1f00
    b169:	81a9           	s32i.n	a10, a1, 32
    b16b:	950c           	movi.n	a5, 9
    b16d:	d50391        	l32r	a9, 57c (f520 <wb_sb_ptn>)
    b170:	d50481        	l32r	a8, 580 (f550 <nb_sb_ptn>)
    b173:	d504a1        	l32r	a10, 584 (f580 <swb_sb_ptn>)
    b176:	176132        	s32i	a3, a1, 92
    b179:	222632        	l32i	a3, a6, 136
    b17c:	1a61b2        	s32i	a11, a1, 104
    b17f:	095b42        	s16i	a4, a11, 18
    b182:	62b5e0        	saltu	a11, a5, a14
    b185:	1b6162        	s32i	a6, a1, 108
    b188:	106132        	s32i	a3, a1, 64
    b18b:	b179           	s32i.n	a7, a1, 44
    b18d:	f129           	s32i.n	a2, a1, 60
    b18f:	c1c9           	s32i.n	a12, a1, 48
    b191:	91f9           	s32i.n	a15, a1, 36
    b193:	1561d2        	s32i	a13, a1, 84
    b196:	1261b2        	s32i	a11, a1, 72
    b199:	076e16        	beqz	a14, b213 <WB_NR_IE_frame_process+0xdb>
    b19c:	bb2f22        	l32i	a2, a15, 0x2ec
    b19f:	4133e0        	srli	a3, a14, 3
    b1a2:	085d           	mov.n	a5, a8
    b1a4:	935930        	movnez	a5, a9, a3
    b1a7:	1bdf42        	addmi	a4, a15, 0x1b00
    b1aa:	a149           	s32i.n	a4, a1, 40
    b1ac:	fd24bd023f 	{ ae_lq32f.i	aeq0, a2, 12; ae_zeroq56	aeq1 }
    b1b1:	1fdf62        	addmi	a6, a15, 0x1f00
    b1b4:	0761e2        	s32i	a14, a1, 28
    b1b7:	117ee0        	slli	a7, a14, 2
    b1ba:	00a042        	movi	a4, 0
    b1bd:	935ab0        	movnez	a5, a10, a11
    b1c0:	0cc222        	addi	a2, a2, 12

0000b1c3 <WB_NR_IE_frame_process+0x8b>:
    b1c3:	353d           	ae_l16si.n	a3, a5, 2
    b1c5:	258d           	ae_l16si.n	a8, a5, 0
    b1c7:	c03380        	sub	a3, a3, a8
    b1ca:	0713a6        	blti	a3, 1, b1d5 <WB_NR_IE_frame_process+0x9d>
    b1cd:	048376        	loop	a3, b1d5 <WB_NR_IE_frame_process+0x9d>
    b1d0:	f96a3d121f 	{ ae_lq32f.iu	aeq0, a2, 4; ae_addq56	aeq1, aeq1, aeq0 }

0000b1d5 <WB_NR_IE_frame_process+0x9d>:
    b1d5:	a188           	l32i.n	a8, a1, 40
    b1d7:	365304        	ae_nsaq56s	a3, aeq1
    b1da:	209882        	l16si	a8, a8, 64
    b1dd:	f8c332        	addi	a3, a3, -8
    b1e0:	fc24fe930f 	{ ae_slaasq56s	aeq0, aeq1, a3; nop }
    b1e5:	c0b830        	sub	a11, a8, a3
    b1e8:	368a04        	ae_trunca32q48	a10, aeq0
    b1eb:	d40731        	l32r	a3, 208 (a24 <Log2_norm>)
    b1ee:	0003e0        	callx8	a3
    b1f1:	fd24b2363e 	{ l32i	a3, a6, 140; ae_zeroq56	aeq1 }
    b1f6:	600204        	ae_lq32f.i	aeq0, a2, 0
    b1f9:	552b           	addi.n	a5, a5, 2
    b1fb:	834a           	add.n	a8, a3, a4
    b1fd:	444b           	addi.n	a4, a4, 4
    b1ff:	08a9           	s32i.n	a10, a8, 0
    b201:	be9747        	bne	a7, a4, b1c3 <WB_NR_IE_frame_process+0x8b>
    b204:	f128           	l32i.n	a2, a1, 60
    b206:	c1c8           	l32i.n	a12, a1, 48
    b208:	91f8           	l32i.n	a15, a1, 36
    b20a:	1521d2        	l32i	a13, a1, 84
    b20d:	71e8           	l32i.n	a14, a1, 28
    b20f:	000186        	j	b219 <WB_NR_IE_frame_process+0xe1>

0000b212 <WB_NR_IE_frame_process+0xda>:
	...

0000b213 <WB_NR_IE_frame_process+0xdb>:
    b213:	1fdf32        	addmi	a3, a15, 0x1f00
    b216:	232332        	l32i	a3, a3, 140
    b219:	d4d4b1        	l32r	a11, 56c (f280 <NR_immediate_num>)
    b21c:	075e16        	beqz	a14, b295 <WB_NR_IE_frame_process+0x15d>
    b21f:	02df62        	addmi	a6, a15, 0x200
    b222:	7996a2        	l16si	a10, a6, 242
    b225:	65a382        	movi	a8, 0x365
    b228:	cba692        	movi	a9, 0x6cb
    b22b:	28a442        	movi	a4, 0x428
    b22e:	1199e0        	slli	a9, a9, 2
    b231:	50a472        	movi	a7, 0x450
    b234:	11aa00        	slli	a10, a10, 16
    b237:	1188d0        	slli	a8, a8, 3
    b23a:	6f7a           	add.n	a6, a15, a7
    b23c:	7f8a           	add.n	a7, a15, a8
    b23e:	600304        	ae_lq32f.i	aeq0, a3, 0
    b241:	050c           	movi.n	a5, 0
    b243:	60b4f4        	ae_lq32f.xu	aeq2, a4, a15
    b246:	364a34        	ae_cvtq48a32s	aeq1, a10
    b249:	038d           	mov.n	a8, a3
    b24b:	9f9a           	add.n	a9, a15, a9
    b24d:	338e76        	loop	a14, b284 <WB_NR_IE_frame_process+0x14c>
    b250:	d6c013a99f 	{ or	a10, a9, a9; ae_ltq56s	b0, aeq2, aeq0 }
    b255:	d3a700        	movt	a10, a7, b0
    b258:	440a04        	ae_lp16x2f.i	aep0, a10, 0
    b25b:	0d0213a99f 	{ or	a10, a9, a9; ae_mulzaafq32sp16s.lh	aeq2, aeq0, aep0, aeq2, aep0 }
    b260:	622404        	ae_sq32f.i	aeq2, a4, 0
    b263:	60d614        	ae_lq32f.iu	aeq3, a6, 4
    b266:	09b004        	ae_ltq56s	b0, aeq0, aeq3
    b269:	d3a700        	movt	a10, a7, b0
    b26c:	447a04        	ae_lp16x2f.i	aep7, a10, 0
    b26f:	0dfec065ae 	{ addi	a10, a5, 6; ae_mulzaafq32sp16s.lh	aeq3, aeq0, aep7, aeq3, aep7 }
    b274:	fab6f9b60f 	{ ae_sq32f.i	aeq3, a6, 0; ae_subq56	aeq2, aeq2, aeq3 }
    b279:	d6543d181f 	{ ae_lq32f.iu	aeq0, a8, 4; ae_ltq56s	b0, aeq1, aeq2 }
    b27e:	609414        	ae_lq32f.iu	aeq2, a4, 4
    b281:	d35a00        	movt	a5, a10, b0

0000b284 <WB_NR_IE_frame_process+0x14c>:
    b284:	040c           	movi.n	a4, 0
    b286:	724450        	salt	a4, a4, a5
    b289:	6b8b           	addi.n	a6, a11, 8
    b28b:	5bcb           	addi.n	a5, a11, 12
    b28d:	935640        	movnez	a5, a6, a4
    b290:	0000c6        	j	b297 <WB_NR_IE_frame_process+0x15f>

0000b293 <WB_NR_IE_frame_process+0x15b>:
	...

0000b295 <WB_NR_IE_frame_process+0x15d>:
    b295:	5bcb           	addi.n	a5, a11, 12
    b297:	80a482        	movi	a8, 0x480
    b29a:	03df42        	addmi	a4, a15, 0x300
    b29d:	9f8a           	add.n	a9, a15, a8
    b29f:	2eac           	beqz.n	a14, b2c5 <WB_NR_IE_frame_process+0x18d>
    b2a1:	089462        	l16si	a6, a4, 16
    b2a4:	440504        	ae_lp16x2f.i	aep0, a5, 0
    b2a7:	602f84        	ae_lq32f.x	aeq0, a15, a8
    b2aa:	11b600        	slli	a11, a6, 16
    b2ad:	608304        	ae_lq32f.i	aeq2, a3, 0
    b2b0:	364b34        	ae_cvtq48a32s	aeq1, a11
    b2b3:	095d           	mov.n	a5, a9
    b2b5:	0c8e76        	loop	a14, b2c5 <WB_NR_IE_frame_process+0x18d>
    b2b8:	0f003d151f 	{ ae_lq32f.iu	aeq0, a5, 4; ae_mulzaafq32sp16s.lh	aeq2, aeq2, aep0, aeq0, aep0 }
    b2bd:	fb773d531f 	{ ae_lq32f.iu	aeq2, a3, 4; ae_maxq56s	aeq3, aeq1, aeq2 }
    b2c2:	6235f4        	ae_sq32f.i	aeq3, a5, -4

0000b2c5 <WB_NR_IE_frame_process+0x18d>:
    b2c5:	142162        	l32i	a6, a1, 80
    b2c8:	02df52        	addmi	a5, a15, 0x200
    b2cb:	03df72        	addmi	a7, a15, 0x300
    b2ce:	0d1732        	l16ui	a3, a7, 26
    b2d1:	781552        	l16ui	a5, a5, 240
    b2d4:	1d06a2        	l8ui	a10, a6, 29
    b2d7:	0b0c           	movi.n	a11, 0
    b2d9:	021357        	beq	a3, a5, b2df <WB_NR_IE_frame_process+0x1a7>
    b2dc:	0023c6        	j	b36f <WB_NR_IE_frame_process+0x237>
    b2df:	089432        	l16si	a3, a4, 16
    b2e2:	7199           	s32i.n	a9, a1, 28
    b2e4:	d179           	s32i.n	a7, a1, 52
    b2e6:	0d57b2        	s16i	a11, a7, 26
    b2e9:	a1a9           	s32i.n	a10, a1, 40
    b2eb:	baac           	beqz.n	a10, b31a <WB_NR_IE_frame_process+0x1e2>
    b2ed:	9128           	l32i.n	a2, a1, 36
    b2ef:	d45c51        	l32r	a5, 460 (6f68 <take_min_four>)
    b2f2:	a168           	l32i.n	a6, a1, 40
    b2f4:	08d332        	addmi	a3, a3, 0x800
    b2f7:	aca442        	movi	a4, 0x4ac
    b2fa:	20a382        	movi	a8, 0x320
    b2fd:	117300        	slli	a7, a3, 16
    b300:	324a           	add.n	a3, a2, a4
    b302:	428a           	add.n	a4, a2, a8

0000b304 <WB_NR_IE_frame_process+0x1cc>:
    b304:	cb0c           	movi.n	a11, 12
    b306:	04ad           	mov.n	a10, a4
    b308:	0005e0        	callx8	a5
    b30b:	5387a0        	max	a8, a7, a10
    b30e:	660b           	addi.n	a6, a6, -1
    b310:	0389           	s32i.n	a8, a3, 0
    b312:	18c442        	addi	a4, a4, 24
    b315:	334b           	addi.n	a3, a3, 4
    b317:	fe9656        	bnez	a6, b304 <WB_NR_IE_frame_process+0x1cc>
    b31a:	91f8           	l32i.n	a15, a1, 36
    b31c:	a1a8           	l32i.n	a10, a1, 40
    b31e:	80a422        	movi	a2, 0x480
    b321:	03df42        	addmi	a4, a15, 0x300
    b324:	1c0432        	l8ui	a3, a4, 28
    b327:	602f24        	ae_lq32f.x	aeq0, a15, a2
    b32a:	d178           	l32i.n	a7, a1, 52
    b32c:	531b           	addi.n	a5, a3, 1
    b32e:	743050        	extui	a3, a5, 0, 8
    b331:	f4c332        	addi	a3, a3, -12
    b334:	933530        	movnez	a3, a5, a3
    b337:	1c4432        	s8i	a3, a4, 28
    b33a:	085a16        	beqz	a10, b3c3 <WB_NR_IE_frame_process+0x28b>
    b33d:	620124        	ae_sq32f.i	aeq0, a1, 8
    b340:	7198           	l32i.n	a9, a1, 28
    b342:	743030        	extui	a3, a3, 0, 8
    b345:	f128           	l32i.n	a2, a1, 60
    b347:	c1c8           	l32i.n	a12, a1, 48
    b349:	1521d2        	l32i	a13, a1, 84
    b34c:	d178           	l32i.n	a7, a1, 52
    b34e:	9063f0        	addx2	a6, a3, a15
    b351:	08a352        	movi	a5, 0x308
    b354:	604124        	ae_lq32f.i	aeq1, a1, 8
    b357:	465a           	add.n	a4, a6, a5
    b359:	831c           	movi.n	a3, 24
    b35b:	095d           	mov.n	a5, a9
    b35d:	078a76        	loop	a10, b368 <WB_NR_IE_frame_process+0x230>
    b360:	f8ebbd351f 	{ ae_lq32f.iu	aeq1, a5, 4; ae_roundsp16q48sym	aep0, aeq1 }
    b365:	438434        	ae_sp16f.l.xu	aep0, a4, a3

0000b368 <WB_NR_IE_frame_process+0x230>:
    b368:	000c46        	j	b39d <WB_NR_IE_frame_process+0x265>

0000b36b <WB_NR_IE_frame_process+0x233>:
    b36b:	00000000                                ....

0000b36f <WB_NR_IE_frame_process+0x237>:
    b36f:	602f84        	ae_lq32f.x	aeq0, a15, a8
    b372:	059a16        	beqz	a10, b3cf <WB_NR_IE_frame_process+0x297>
    b375:	620134        	ae_sq32f.i	aeq0, a1, 12
    b378:	03df42        	addmi	a4, a15, 0x300
    b37b:	1c0442        	l8ui	a4, a4, 28
    b37e:	08a352        	movi	a5, 0x308
    b381:	604134        	ae_lq32f.i	aeq1, a1, 12
    b384:	9044f0        	addx2	a4, a4, a15
    b387:	445a           	add.n	a4, a4, a5
    b389:	831c           	movi.n	a3, 24
    b38b:	095d           	mov.n	a5, a9
    b38d:	0c8a76        	loop	a10, b39d <WB_NR_IE_frame_process+0x265>
    b390:	f8ebda043f 	{ ae_lp16f.xu	aep0, a4, a3; ae_roundsp16q48sym	aep1, aeq1 }
    b395:	d822bd351f 	{ ae_lq32f.iu	aeq1, a5, 4; ae_minp24s	aep0, aep0, aep1 }
    b39a:	420404        	ae_sp16f.l.i	aep0, a4, 0

0000b39d <WB_NR_IE_frame_process+0x265>:
    b39d:	0d9732        	l16si	a3, a7, 26
    b3a0:	d38f41        	l32r	a4, 1dc (ccccd <_end+0xbd72d>)
    b3a3:	398444        	ae_movpa24x2	aep0, a4, a4
    b3a6:	331b           	addi.n	a3, a3, 1
    b3a8:	0d5732        	s16i	a3, a7, 26
    b3ab:	059ab6        	bltui	a10, 10, b3b4 <WB_NR_IE_frame_process+0x27c>
    b3ae:	d35031        	l32r	a3, f0 (f560 <swb_score_bands>)
    b3b1:	000a06        	j	b3dd <WB_NR_IE_frame_process+0x2a5>

0000b3b4 <WB_NR_IE_frame_process+0x27c>:
    b3b4:	1c8ab6        	bltui	a10, 8, b3d4 <WB_NR_IE_frame_process+0x29c>
    b3b7:	d47431        	l32r	a3, 588 (e38e4 <_end+0xd4344>)
    b3ba:	398334        	ae_movpa24x2	aep0, a3, a3
    b3bd:	d34d31        	l32r	a3, f4 (f500 <wb_score_bands>)
    b3c0:	000646        	j	b3dd <WB_NR_IE_frame_process+0x2a5>

0000b3c3 <WB_NR_IE_frame_process+0x28b>:
    b3c3:	f128           	l32i.n	a2, a1, 60
    b3c5:	c1c8           	l32i.n	a12, a1, 48
    b3c7:	0d1732        	l16ui	a3, a7, 26
    b3ca:	1521d2        	l32i	a13, a1, 84
    b3cd:	7198           	l32i.n	a9, a1, 28
    b3cf:	331b           	addi.n	a3, a3, 1
    b3d1:	0d5732        	s16i	a3, a7, 26
    b3d4:	d46e31        	l32r	a3, 58c (124925 <_end+0x115385>)
    b3d7:	398334        	ae_movpa24x2	aep0, a3, a3
    b3da:	d46d31        	l32r	a3, 590 (f540 <nb_score_bands>)
    b3dd:	fe2482f24f 	{ movi	a4, 0x2f2; ae_zeroq56	aeq2 }
    b3e2:	fd20cfe33e 	{ addi	a3, a3, -2; ae_zerop48	aep3 }
    b3e7:	fc20d04f4f 	{ add	a4, a15, a4; ae_zerop48	aep1 }
    b3ec:	fd2484ac5f 	{ movi	a5, 0x4ac; ae_zeroq56	aeq1 }
    b3f1:	044a16        	beqz	a10, b439 <WB_NR_IE_frame_process+0x301>
    b3f4:	620114        	ae_sq32f.i	aeq0, a1, 4
    b3f7:	1fdf72        	addmi	a7, a15, 0x1f00
    b3fa:	242782        	l32i	a8, a7, 144
    b3fd:	608114        	ae_lq32f.i	aeq2, a1, 4
    b400:	170c           	movi.n	a7, 1
    b402:	60f5f4        	ae_lq32f.xu	aeq3, a5, a15
    b405:	f8b6cfc88e 	{ addi	a8, a8, -4; ae_subq56	aeq0, aeq2, aeq3 }
    b40a:	288a76        	loop	a10, b436 <WB_NR_IE_frame_process+0x2fe>
    b40d:	40a414        	ae_lp16f.iu	aep2, a4, 2
    b410:	ff4c00006f 	{ movi	a6, 0; ae_cvtq48p24s.l	aeq3, aep2 }
    b415:	d6c42ca31f 	{ ae_lp16f.iu	aep2, a3, 2; ae_ltq56s	b0, aeq3, aeq0 }
    b41a:	faa6d6670f 	{ movt	a6, a7, b0; ae_subq56	aeq2, aeq0, aeq3 }
    b41f:	168c           	beqz.n	a6, b424 <WB_NR_IE_frame_process+0x2ec>
    b421:	079214        	ae_addsp24s	aep1, aep1, aep2
    b424:	f482fb20df 	{ ae_sraiq56	aeq3, aeq2, 1; ae_mulafq32sp16s.l	aeq1, aeq0, aep0 }
    b429:	f9de3d591f 	{ ae_lq32f.iu	aeq2, a9, 4; ae_truncp24q48x2	aep2, aeq3, aeq3 }
    b42e:	60d514        	ae_lq32f.iu	aeq3, a5, 4
    b431:	f8b6f4a81f 	{ ae_sp24f.l.iu	aep2, a8, 4; ae_subq56	aeq0, aeq2, aeq3 }

0000b436 <WB_NR_IE_frame_process+0x2fe>:
    b436:	0a9084        	ae_zeroq56	aeq2

0000b439 <WB_NR_IE_frame_process+0x301>:
    b439:	408414        	ae_lp16f.iu	aep0, a4, 2
    b43c:	fc0c00005f 	{ movi	a5, 0; ae_cvtq48p24s.l	aeq0, aep0 }
    b441:	d64800014f 	{ movi	a4, 1; ae_ltq56s	b0, aeq0, aeq1 }
    b446:	d35400        	movt	a5, a4, b0
    b449:	458c           	beqz.n	a5, b451 <WB_NR_IE_frame_process+0x319>
    b44b:	408314        	ae_lp16f.iu	aep0, a3, 2
    b44e:	079014        	ae_addsp24s	aep1, aep1, aep0
    b451:	360222        	l8ui	a2, a2, 54
    b454:	18a332        	movi	a3, 0x318
    b457:	4393f4        	ae_sp16f.l.xu	aep1, a3, a15
    b45a:	136132        	s32i	a3, a1, 76
    b45d:	0a6247        	bbci	a2, 4, b46b <WB_NR_IE_frame_process+0x333>
    b460:	02df22        	addmi	a2, a15, 0x200
    b463:	880222        	l8ui	a2, a2, 136
    b466:	140c           	movi.n	a4, 1
    b468:	01e267        	bbsi	a2, 6, b46d <WB_NR_IE_frame_process+0x335>
    b46b:	040c           	movi.n	a4, 0
    b46d:	d31731        	l32r	a3, cc (f59c <p_ecnr_mem>)
    b470:	f4a682        	movi	a8, 0x6f4
    b473:	b08880        	addx8	a8, a8, a8
    b476:	15ed16        	beqz	a13, b5d8 <WB_NR_IE_frame_process+0x4a0>
    b479:	142122        	l32i	a2, a1, 80
    b47c:	02df72        	addmi	a7, a15, 0x200
    b47f:	bb2fb2        	l32i	a11, a15, 0x2ec
    b482:	1d0252        	l8ui	a5, a2, 29
    b485:	920c           	movi.n	a2, 9
    b487:	03e8           	l32i.n	a14, a3, 0
    b489:	729772        	l16si	a7, a7, 228
    b48c:	00a262        	movi	a6, 0x200
    b48f:	00a1a2        	movi	a10, 0x100
    b492:	622250        	saltu	a2, a2, a5
    b495:	190c           	movi.n	a9, 1
    b497:	93a620        	movnez	a10, a6, a2
    b49a:	013930        	slli	a3, a9, 29
    b49d:	9e8a           	add.n	a9, a14, a8
    b49f:	118720        	slli	a8, a7, 14
    b4a2:	a1a9           	s32i.n	a10, a1, 40
    b4a4:	a0aab0        	addx4	a10, a10, a11
    b4a7:	683a           	add.n	a6, a8, a3
    b4a9:	fccaa2        	addi	a10, a10, -4
    b4ac:	12d416        	beqz	a4, b5dd <WB_NR_IE_frame_process+0x4a5>
    b4af:	0bdd42        	addmi	a4, a13, 0xb00
    b4b2:	7b1442        	l16ui	a4, a4, 246
    b4b5:	b178           	l32i.n	a7, a1, 44
    b4b7:	360634        	ae_cvtq48a32s	aeq0, a6
    b4ba:	0224f6        	bgeui	a4, 2, b4c0 <WB_NR_IE_frame_process+0x388>
    b4bd:	004ec6        	j	b5fc <WB_NR_IE_frame_process+0x4c4>
    b4c0:	d43071        	l32r	a7, 580 (f550 <nb_sb_ptn>)
    b4c3:	d42ec1        	l32r	a12, 57c (f520 <wb_sb_ptn>)
    b4c6:	414350        	srli	a4, a5, 3
    b4c9:	08ddf2        	addmi	a15, a13, 0x800
    b4cc:	937c40        	movnez	a7, a12, a4
    b4cf:	116162        	s32i	a6, a1, 68
    b4d2:	d40961        	l32r	a6, 4f8 (34ccccd <_end+0x34bd72d>)
    b4d5:	ff2f42        	l32i	a4, a15, 0x3fc
    b4d8:	0cddc2        	addmi	a12, a13, 0xc00
    b4db:	2cfd           	ae_l16si.n	a15, a12, 0
    b4dd:	180c           	movi.n	a8, 1
    b4df:	726640        	salt	a6, a6, a4
    b4e2:	018860        	slli	a8, a8, 26
    b4e5:	663b           	addi.n	a6, a6, 3
    b4e7:	724840        	salt	a4, a8, a4
    b4ea:	550c           	movi.n	a5, 5
    b4ec:	e169           	s32i.n	a6, a1, 56
    b4ee:	0c1fa6        	blti	a15, 1, b4fe <WB_NR_IE_frame_process+0x3c6>
    b4f1:	0cdd62        	addmi	a6, a13, 0xc00
    b4f4:	1688           	l32i.n	a8, a6, 4
    b4f6:	3668           	l32i.n	a6, a6, 12
    b4f8:	aea7f2        	movi	a15, 0x7ae
    b4fb:	012867        	blt	a8, a6, b500 <WB_NR_IE_frame_process+0x3c8>
    b4fe:	0f0c           	movi.n	a15, 0
    b500:	d42161        	l32r	a6, 584 (f580 <swb_sb_ptn>)
    b503:	0bdd82        	addmi	a8, a13, 0xb00
    b506:	7d0c           	movi.n	a13, 7
    b508:	937620        	movnez	a7, a6, a2
    b50b:	e168           	l32i.n	a6, a1, 56
    b50d:	dc7c           	movi.n	a12, -3
    b50f:	01cc90        	slli	a12, a12, 23
    b512:	936540        	movnez	a6, a5, a4
    b515:	e169           	s32i.n	a6, a1, 56
    b517:	3e2862        	l32i	a6, a8, 248
    b51a:	014da0        	slli	a4, a13, 22
    b51d:	d3f781        	l32r	a8, 4fc (d9999b <_end+0xd8a3fb>)
    b520:	72d640        	salt	a13, a6, a4
    b523:	93d6d0        	movnez	a13, a6, a13
    b526:	d169           	s32i.n	a6, a1, 52
    b528:	66da           	add.n	a6, a6, a13
    b52a:	46ca           	add.n	a4, a6, a12
    b52c:	4151f0        	srli	a5, a15, 1
    b52f:	120c           	movi.n	a2, 1
    b531:	472487        	blt	a4, a8, b57c <WB_NR_IE_frame_process+0x444>
    b534:	d3f3c1        	l32r	a12, 500 (fe266666 <_end+0xfe2570c6>)
    b537:	520c           	movi.n	a2, 5
    b539:	85fa           	add.n	a8, a5, a15
    b53b:	012240        	slli	a2, a2, 28
    b53e:	113800        	slli	a3, a8, 16
    b541:	360234        	ae_cvtq48a32s	aeq0, a2
    b544:	c02830        	sub	a2, a8, a3
    b547:	180c           	movi.n	a8, 1
    b549:	66ca           	add.n	a6, a6, a12
    b54b:	7129           	s32i.n	a2, a1, 28
    b54d:	c02680        	sub	a2, a6, a8
    b550:	d37c           	movi.n	a3, -3
    b552:	01c390        	slli	a12, a3, 23
    b555:	180c           	movi.n	a8, 1
    b557:	852720        	extui	a2, a2, 23, 9
    b55a:	f37c           	movi.n	a3, -1
    b55c:	536280        	max	a6, a2, a8
    b55f:	018310        	slli	a8, a3, 31
    b562:	7138           	l32i.n	a3, a1, 28
    b564:	120c           	movi.n	a2, 1
    b566:	838a           	add.n	a8, a3, a8
    b568:	01a032        	movi	a3, 1
    b56b:	013330        	slli	a3, a3, 29
    b56e:	308884        	ae_cvtp24a16x2.lh	aep0, a8, a8
    b571:	078676        	loop	a6, b57c <WB_NR_IE_frame_process+0x444>
    b574:	468a14        	ae_sp16x2f.iu	aep0, a10, 4
    b577:	624914        	ae_sq32f.iu	aeq0, a9, 4
    b57a:	221b           	addi.n	a2, a2, 1

0000b57c <WB_NR_IE_frame_process+0x444>:
    b57c:	e188           	l32i.n	a8, a1, 56
    b57e:	116f10        	slli	a6, a15, 15
    b581:	360334        	ae_cvtq48a32s	aeq0, a3
    b584:	903870        	addx2	a3, a8, a7
    b587:	f87c           	movi.n	a8, -1
    b589:	c05560        	sub	a5, a5, a6
    b58c:	018810        	slli	a8, a8, 31
    b58f:	558a           	add.n	a5, a5, a8
    b591:	308554        	ae_cvtp24a16x2.lh	aep0, a5, a5
    b594:	468a14        	ae_sp16x2f.iu	aep0, a10, 4
    b597:	624914        	ae_sq32f.iu	aeq0, a9, 4
    b59a:	fec332        	addi	a3, a3, -2
    b59d:	233d           	ae_l16si.n	a3, a3, 0
    b59f:	e9a372        	movi	a7, 0x3e9
    b5a2:	333b           	addi.n	a3, a3, 3
    b5a4:	013390        	slli	a3, a3, 23
    b5a7:	7139           	s32i.n	a3, a1, 28
    b5a9:	022347        	blt	a3, a4, b5af <WB_NR_IE_frame_process+0x477>
    b5ac:	020606        	j	bdc8 <WB_NR_IE_frame_process+0xc90>

0000b5af <WB_NR_IE_frame_process+0x477>:
    b5af:	b148           	l32i.n	a4, a1, 44
    b5b1:	c1c8           	l32i.n	a12, a1, 48
    b5b3:	91f8           	l32i.n	a15, a1, 36
    b5b5:	0f1432        	l16ui	a3, a4, 30
    b5b8:	e158           	l32i.n	a5, a1, 56
    b5ba:	fe24b1116e 	{ l32i	a6, a1, 68; ae_zeroq56	aeq2 }
    b5bf:	220b           	addi.n	a2, a2, -1
    b5c1:	50a237        	bge	a2, a3, b615 <WB_NR_IE_frame_process+0x4dd>
    b5c4:	360634        	ae_cvtq48a32s	aeq0, a6
    b5c7:	46ba14        	ae_sp16x2f.iu	aep3, a10, 4
    b5ca:	624914        	ae_sq32f.iu	aeq0, a9, 4
    b5cd:	0f1432        	l16ui	a3, a4, 30
    b5d0:	221b           	addi.n	a2, a2, 1
    b5d2:	f12237        	blt	a2, a3, b5c7 <WB_NR_IE_frame_process+0x48f>
    b5d5:	000f06        	j	b615 <WB_NR_IE_frame_process+0x4dd>

0000b5d8 <WB_NR_IE_frame_process+0x4a0>:
    b5d8:	020c           	movi.n	a2, 0
    b5da:	000e46        	j	b617 <WB_NR_IE_frame_process+0x4df>

0000b5dd <WB_NR_IE_frame_process+0x4a5>:
    b5dd:	b148           	l32i.n	a4, a1, 44
    b5df:	150c           	movi.n	a5, 1
    b5e1:	360634        	ae_cvtq48a32s	aeq0, a6
    b5e4:	0f1422        	l16ui	a2, a4, 30
    b5e7:	a2ac           	beqz.n	a2, b615 <WB_NR_IE_frame_process+0x4dd>
    b5e9:	020c           	movi.n	a2, 0
    b5eb:	46ba14        	ae_sp16x2f.iu	aep3, a10, 4
    b5ee:	624914        	ae_sq32f.iu	aeq0, a9, 4
    b5f1:	0f1432        	l16ui	a3, a4, 30
    b5f4:	221b           	addi.n	a2, a2, 1
    b5f6:	f13237        	bltu	a2, a3, b5eb <WB_NR_IE_frame_process+0x4b3>
    b5f9:	000606        	j	b615 <WB_NR_IE_frame_process+0x4dd>

0000b5fc <WB_NR_IE_frame_process+0x4c4>:
    b5fc:	150c           	movi.n	a5, 1
    b5fe:	0f1722        	l16ui	a2, a7, 30
    b601:	074d           	mov.n	a4, a7
    b603:	e28c           	beqz.n	a2, b615 <WB_NR_IE_frame_process+0x4dd>
    b605:	020c           	movi.n	a2, 0
    b607:	46ba14        	ae_sp16x2f.iu	aep3, a10, 4
    b60a:	624914        	ae_sq32f.iu	aeq0, a9, 4
    b60d:	0f1432        	l16ui	a3, a4, 30
    b610:	221b           	addi.n	a2, a2, 1
    b612:	f13237        	bltu	a2, a3, b607 <WB_NR_IE_frame_process+0x4cf>
    b615:	250b           	addi.n	a2, a5, -1
    b617:	142132        	l32i	a3, a1, 80
    b61a:	132152        	l32i	a5, a1, 76
    b61d:	03dc72        	addmi	a7, a12, 0x300
    b620:	1d0332        	l8ui	a3, a3, 29
    b623:	940c           	movi.n	a4, 9
    b625:	bb2f82        	l32i	a8, a15, 0x2ec
    b628:	455d           	ae_l16ui.n	a5, a5, 0
    b62a:	e179           	s32i.n	a7, a1, 56
    b62c:	00a262        	movi	a6, 0x200
    b62f:	00a192        	movi	a9, 0x100
    b632:	62b430        	saltu	a11, a4, a3
    b635:	4d9772        	l16si	a7, a7, 154
    b638:	9396b0        	movnez	a9, a6, a11
    b63b:	4a1c           	movi.n	a10, 20
    b63d:	a04980        	addx4	a4, a9, a8
    b640:	7a3a57        	bltu	a10, a5, b6be <WB_NR_IE_frame_process+0x586>
    b643:	0975f6        	bgeui	a5, 7, b650 <WB_NR_IE_frame_process+0x518>
    b646:	b3a152        	movi	a5, 0x1b3
    b649:	1155c0        	slli	a5, a5, 4
    b64c:	000486        	j	b662 <WB_NR_IE_frame_process+0x52a>

0000b64f <WB_NR_IE_frame_process+0x517>:
	...

0000b650 <WB_NR_IE_frame_process+0x518>:
    b650:	08b5f6        	bgeui	a5, 16, b65c <WB_NR_IE_frame_process+0x524>
    b653:	cda652        	movi	a5, 0x6cd
    b656:	1155e0        	slli	a5, a5, 2
    b659:	000146        	j	b662 <WB_NR_IE_frame_process+0x52a>

0000b65c <WB_NR_IE_frame_process+0x524>:
    b65c:	67a352        	movi	a5, 0x367
    b65f:	1155d0        	slli	a5, a5, 3
    b662:	5f5a           	add.n	a5, a15, a5
    b664:	56a237        	bge	a2, a3, b6be <WB_NR_IE_frame_process+0x586>
    b667:	d3c661        	l32r	a6, 580 (f550 <nb_sb_ptn>)
    b66a:	d3c4c1        	l32r	a12, 57c (f520 <wb_sb_ptn>)
    b66d:	1fdfa2        	addmi	a10, a15, 0x1f00
    b670:	d3c5e1        	l32r	a14, 584 (f580 <swb_sb_ptn>)
    b673:	419330        	srli	a9, a3, 3
    b676:	0558           	l32i.n	a5, a5, 0
    b678:	242aa2        	l32i	a10, a10, 144
    b67b:	936c90        	movnez	a6, a12, a9
    b67e:	fd7c           	movi.n	a13, -1
    b680:	936eb0        	movnez	a6, a14, a11
    b683:	4191d0        	srli	a9, a13, 1
    b686:	02bd           	mov.n	a11, a2
    b688:	000886        	j	b6ae <WB_NR_IE_frame_process+0x576>

0000b68b <WB_NR_IE_frame_process+0x553>:
    b68b:	bb1b           	addi.n	a11, a11, 1
    b68d:	90db60        	addx2	a13, a11, a6
    b690:	2ecd           	ae_l16si.n	a12, a14, 0
    b692:	2ddd           	ae_l16si.n	a13, a13, 0
    b694:	13acd7        	bge	a12, a13, b6ab <WB_NR_IE_frame_process+0x573>
    b697:	c0ddc0        	sub	a13, a13, a12
    b69a:	a0cc40        	addx4	a12, a12, a4
    b69d:	0a8d76        	loop	a13, b6ab <WB_NR_IE_frame_process+0x573>
    b6a0:	0cd8           	l32i.n	a13, a12, 0
    b6a2:	dd5a           	add.n	a13, a13, a5
    b6a4:	10dd90        	and	a13, a13, a9
    b6a7:	0cd9           	s32i.n	a13, a12, 0
    b6a9:	cc4b           	addi.n	a12, a12, 4

0000b6ab <WB_NR_IE_frame_process+0x573>:
    b6ab:	0f1b37        	beq	a11, a3, b6be <WB_NR_IE_frame_process+0x586>

0000b6ae <WB_NR_IE_frame_process+0x576>:
    b6ae:	a0cba0        	addx4	a12, a11, a10
    b6b1:	0cc8           	l32i.n	a12, a12, 0
    b6b3:	90eb60        	addx2	a14, a11, a6
    b6b6:	d11ca6        	blti	a12, 1, b68b <WB_NR_IE_frame_process+0x553>
    b6b9:	bb1b           	addi.n	a11, a11, 1
    b6bb:	fffb06        	j	b6ab <WB_NR_IE_frame_process+0x573>

0000b6be <WB_NR_IE_frame_process+0x586>:
    b6be:	0247d6        	bgez	a7, b6e6 <WB_NR_IE_frame_process+0x5ae>
    b6c1:	02df32        	addmi	a3, a15, 0x200
    b6c4:	890332        	l8ui	a3, a3, 137
    b6c7:	b158           	l32i.n	a5, a1, 44
    b6c9:	0b0c           	movi.n	a11, 0
    b6cb:	176307        	bbci	a3, 0, b6e6 <WB_NR_IE_frame_process+0x5ae>
    b6ce:	04ad           	mov.n	a10, a4
    b6d0:	0f1532        	l16ui	a3, a5, 30
    b6d3:	11c3f0        	slli	a12, a3, 1
    b6d6:	d2ab31        	l32r	a3, 184 (d6e8 <xt_memset>)
    b6d9:	0003e0        	callx8	a3
    b6dc:	fe24b091fe 	{ l32i	a15, a1, 36; ae_zeroq56	aeq2 }
    b6e1:	fd20fbbf8e 	{ l32i	a8, a15, 0x2ec; ae_zerop48	aep3 }
    b6e6:	1bdfc2        	addmi	a12, a15, 0x1b00
    b6e9:	1bdff2        	addmi	a15, a15, 0x1b00
    b6ec:	b1b8           	l32i.n	a11, a1, 44
    b6ee:	209c62        	l16si	a6, a12, 64
    b6f1:	219f72        	l16si	a7, a15, 66
    b6f4:	0f1b32        	l16ui	a3, a11, 30
    b6f7:	d275a1        	l32r	a10, cc (f59c <p_ecnr_mem>)
    b6fa:	89a1e2        	movi	a14, 0x189
    b6fd:	965d           	ae_zext16	a5, a6
    b6ff:	979d           	ae_zext16	a9, a7
    b701:	d8cb           	addi.n	a13, a8, 12
    b703:	11eed0        	slli	a14, a14, 3
    b706:	261597        	beq	a5, a9, b730 <WB_NR_IE_frame_process+0x5f8>
    b709:	c07670        	sub	a7, a6, a7
    b70c:	a35970        	movltz	a5, a9, a7
    b70f:	739c           	beqz.n	a3, b72a <WB_NR_IE_frame_process+0x5f2>
    b711:	9198           	l32i.n	a9, a1, 36
    b713:	606170        	abs	a6, a7
    b716:	99ea           	add.n	a9, a9, a14
    b718:	a39d70        	movltz	a9, a13, a7
    b71b:	fcc972        	addi	a7, a9, -4
    b71e:	088376        	loop	a3, b72a <WB_NR_IE_frame_process+0x5f2>
    b721:	601714        	ae_lq32f.iu	aeq0, a7, 4
    b724:	3406a4        	ae_srlaq56	aeq0, aeq0, a6
    b727:	620704        	ae_sq32f.i	aeq0, a7, 0

0000b72a <WB_NR_IE_frame_process+0x5f2>:
    b72a:	215f52        	s16i	a5, a15, 66
    b72d:	205c52        	s16i	a5, a12, 64

0000b730 <WB_NR_IE_frame_process+0x5f8>:
    b730:	00a162        	movi	a6, 0x100
    b733:	00a252        	movi	a5, 0x200
    b736:	a169           	s32i.n	a6, a1, 40
    b738:	33bc           	beqz.n	a3, b76f <WB_NR_IE_frame_process+0x637>
    b73a:	9198           	l32i.n	a9, a1, 36
    b73c:	11a372        	movi	a7, 0x311
    b73f:	1177e0        	slli	a7, a7, 2
    b742:	fcc442        	addi	a4, a4, -4
    b745:	600834        	ae_lq32f.i	aeq0, a8, 12
    b748:	0d6d           	mov.n	a6, a13
    b74a:	807970        	add	a7, a9, a7
    b74d:	1e8376        	loop	a3, b76f <WB_NR_IE_frame_process+0x637>
    b750:	448414        	ae_lp16x2f.iu	aep0, a4, 4
    b753:	449d           	ae_l16ui.n	a9, a4, 0
    b755:	605714        	ae_lq32f.iu	aeq1, a7, 4
    b758:	c18844        	ae_mulzaafq32sp16s.lh	aeq3, aeq1, aep0, aeq0, aep0
    b75b:	998c           	beqz.n	a9, b768 <WB_NR_IE_frame_process+0x630>
    b75d:	fafb3d161f 	{ ae_lq32f.iu	aeq0, a6, 4; ae_maxq56s	aeq2, aeq2, aeq3 }
    b762:	623704        	ae_sq32f.i	aeq3, a7, 0
    b765:	000106        	j	b76d <WB_NR_IE_frame_process+0x635>

0000b768 <WB_NR_IE_frame_process+0x630>:
    b768:	faeb3d161f 	{ ae_lq32f.iu	aeq0, a6, 4; ae_maxq56s	aeq2, aeq2, aeq1 }
    b76d:	f03d           	nop.n

0000b76f <WB_NR_IE_frame_process+0x637>:
    b76f:	122172        	l32i	a7, a1, 72
    b772:	a198           	l32i.n	a9, a1, 40
    b774:	366404        	ae_nsaq56s	a4, aeq2
    b777:	960c           	movi.n	a6, 9
    b779:	939570        	movnez	a9, a5, a7
    b77c:	a199           	s32i.n	a9, a1, 40
    b77e:	202467        	blt	a4, a6, b7a2 <WB_NR_IE_frame_process+0x66a>
    b781:	219f62        	l16si	a6, a15, 66
    b784:	f8c452        	addi	a5, a4, -8
    b787:	9178           	l32i.n	a7, a1, 36
    b789:	c04650        	sub	a4, a6, a5
    b78c:	215f42        	s16i	a4, a15, 66
    b78f:	f38c           	beqz.n	a3, b7a2 <WB_NR_IE_frame_process+0x66a>
    b791:	401500        	ssl	a5
    b794:	47ea           	add.n	a4, a7, a14
    b796:	088376        	loop	a3, b7a2 <WB_NR_IE_frame_process+0x66a>
    b799:	0438           	l32i.n	a3, a4, 0
    b79b:	a13300        	sll	a3, a3
    b79e:	0439           	s32i.n	a3, a4, 0
    b7a0:	444b           	addi.n	a4, a4, 4
    b7a2:	0a38           	l32i.n	a3, a10, 0
    b7a4:	d3a752        	movi	a5, 0x7d3
    b7a7:	1155d0        	slli	a5, a5, 3
    b7aa:	a148           	l32i.n	a4, a1, 40
    b7ac:	735a           	add.n	a7, a3, a5
    b7ae:	8158           	l32i.n	a5, a1, 32
    b7b0:	a06480        	addx4	a6, a4, a8
    b7b3:	073d           	mov.n	a3, a7
    b7b5:	e58c           	beqz.n	a5, b7c7 <WB_NR_IE_frame_process+0x68f>
    b7b7:	064d           	mov.n	a4, a6
    b7b9:	0a8576        	loop	a5, b7c7 <WB_NR_IE_frame_process+0x68f>
    b7bc:	0358           	l32i.n	a5, a3, 0
    b7be:	334b           	addi.n	a3, a3, 4
    b7c0:	215c50        	srai	a5, a5, 12
    b7c3:	0459           	s32i.n	a5, a4, 0
    b7c5:	444b           	addi.n	a4, a4, 4
    b7c7:	142132        	l32i	a3, a1, 80
    b7ca:	186172        	s32i	a7, a1, 96
    b7cd:	132172        	l32i	a7, a1, 76
    b7d0:	1d0392        	l8ui	a9, a3, 29
    b7d3:	950c           	movi.n	a5, 9
    b7d5:	473d           	ae_l16ui.n	a3, a7, 0
    b7d7:	41a390        	srli	a10, a9, 3
    b7da:	1261a2        	s32i	a10, a1, 72
    b7dd:	d368a1        	l32r	a10, 580 (f550 <nb_sb_ptn>)
    b7e0:	116162        	s32i	a6, a1, 68
    b7e3:	00a262        	movi	a6, 0x200
    b7e6:	00a142        	movi	a4, 0x100
    b7e9:	625590        	saltu	a5, a5, a9
    b7ec:	934650        	movnez	a4, a6, a5
    b7ef:	7873b6        	bltui	a3, 7, b86b <WB_NR_IE_frame_process+0x733>
    b7f2:	75a297        	bge	a2, a9, b86b <WB_NR_IE_frame_process+0x733>
    b7f5:	d36161        	l32r	a6, 57c (f520 <wb_sb_ptn>)
    b7f8:	122172        	l32i	a7, a1, 72
    b7fb:	71d9           	s32i.n	a13, a1, 28
    b7fd:	09dd           	mov.n	a13, a9
    b7ff:	93a670        	movnez	a10, a6, a7
    b802:	9178           	l32i.n	a7, a1, 36
    b804:	d36091        	l32r	a9, 584 (f580 <swb_sb_ptn>)
    b807:	03d762        	addmi	a6, a7, 0x300
    b80a:	079662        	l16si	a6, a6, 14
    b80d:	93a950        	movnez	a10, a9, a5
    b810:	591c           	movi.n	a9, 21
    b812:	623390        	saltu	a3, a3, a9
    b815:	961b           	addi.n	a9, a6, 1
    b817:	415190        	srli	a5, a9, 1
    b81a:	40d592        	addmi	a9, a5, 0x4000
    b81d:	839630        	moveqz	a9, a6, a3
    b820:	1fd772        	addmi	a7, a7, 0x1f00
    b823:	300994        	ae_cvtp24a16x2.ll	aep0, a9, a9
    b826:	0d9d           	mov.n	a9, a13
    b828:	242752        	l32i	a5, a7, 144
    b82b:	71d8           	l32i.n	a13, a1, 28
    b82d:	a03480        	addx4	a3, a4, a8

0000b830 <WB_NR_IE_frame_process+0x6f8>:
    b830:	a06250        	addx4	a6, a2, a5
    b833:	0668           	l32i.n	a6, a6, 0
    b835:	2d16a6        	blti	a6, 1, b866 <WB_NR_IE_frame_process+0x72e>
    b838:	9062a0        	addx2	a6, a2, a10
    b83b:	01c222        	addi	a2, a2, 1
    b83e:	9072a0        	addx2	a7, a2, a10
    b841:	266d           	ae_l16si.n	a6, a6, 0
    b843:	277d           	ae_l16si.n	a7, a7, 0
    b845:	16a677        	bge	a6, a7, b85f <WB_NR_IE_frame_process+0x727>
    b848:	c07760        	sub	a7, a7, a6
    b84b:	a06630        	addx4	a6, a6, a3
    b84e:	fcc662        	addi	a6, a6, -4
    b851:	0a8776        	loop	a7, b85f <WB_NR_IE_frame_process+0x727>
    b854:	601614        	ae_lq32f.iu	aeq0, a6, 4
    b857:	030214        	ae_mulfq32sp16s.l	aeq0, aeq0, aep0
    b85a:	368704        	ae_trunca32q48	a7, aeq0
    b85d:	0679           	s32i.n	a7, a6, 0

0000b85f <WB_NR_IE_frame_process+0x727>:
    b85f:	cd9297        	bne	a2, a9, b830 <WB_NR_IE_frame_process+0x6f8>
    b862:	000146        	j	b86b <WB_NR_IE_frame_process+0x733>

0000b865 <WB_NR_IE_frame_process+0x72d>:
	...

0000b866 <WB_NR_IE_frame_process+0x72e>:
    b866:	221b           	addi.n	a2, a2, 1
    b868:	fffcc6        	j	b85f <WB_NR_IE_frame_process+0x727>

0000b86b <WB_NR_IE_frame_process+0x733>:
    b86b:	219f22        	l16si	a2, a15, 66
    b86e:	91f8           	l32i.n	a15, a1, 36
    b870:	0f1b52        	l16ui	a5, a11, 30
    b873:	226b           	addi.n	a2, a2, 6
    b875:	1bdf32        	addmi	a3, a15, 0x1b00
    b878:	a04480        	addx4	a4, a4, a8
    b87b:	7139           	s32i.n	a3, a1, 28
    b87d:	225322        	s16i	a2, a3, 68
    b880:	759c           	beqz.n	a5, b89b <WB_NR_IE_frame_process+0x763>
    b882:	4c0404        	ae_lp24.i	aep0, a4, 0
    b885:	603ef4        	ae_lq32f.xu	aeq0, a14, a15
    b888:	fcc422        	addi	a2, a4, -4
    b88b:	043d           	mov.n	a3, a4
    b88d:	0a8576        	loop	a5, b89b <WB_NR_IE_frame_process+0x763>
    b890:	f8e071831f 	{ ae_lp24.iu	aep0, a3, 4; ae_mulrfq32sp24s.l	aeq1, aeq0, aep0 }
    b895:	601e14        	ae_lq32f.iu	aeq0, a14, 4
    b898:	625214        	ae_sq32f.iu	aeq1, a2, 4

0000b89b <WB_NR_IE_frame_process+0x763>:
    b89b:	02df22        	addmi	a2, a15, 0x200
    b89e:	601222        	l16ui	a2, a2, 192
    b8a1:	d199           	s32i.n	a9, a1, 52
    b8a3:	1fdf62        	addmi	a6, a15, 0x1f00
    b8a6:	281266        	bnei	a2, 1, b8d2 <WB_NR_IE_frame_process+0x79a>
    b8a9:	8158           	l32i.n	a5, a1, 32
    b8ab:	71e8           	l32i.n	a14, a1, 28
    b8ad:	02df22        	addmi	a2, a15, 0x200
    b8b0:	0f4516        	beqz	a5, b9a8 <WB_NR_IE_frame_process+0x870>
    b8b3:	d8a4a2        	movi	a10, 0x4d8
    b8b6:	3faa           	add.n	a3, a15, a10
    b8b8:	751222        	l16ui	a2, a2, 234
    b8bb:	300224        	ae_cvtp24a16x2.ll	aep0, a2, a2
    b8be:	601304        	ae_lq32f.iu	aeq0, a3, 0
    b8c1:	088576        	loop	a5, b8cd <WB_NR_IE_frame_process+0x795>
    b8c4:	030214        	ae_mulfq32sp16s.l	aeq0, aeq0, aep0
    b8c7:	620304        	ae_sq32f.i	aeq0, a3, 0
    b8ca:	601314        	ae_lq32f.iu	aeq0, a3, 4

0000b8cd <WB_NR_IE_frame_process+0x795>:
    b8cd:	0035c6        	j	b9a8 <WB_NR_IE_frame_process+0x870>

0000b8d0 <WB_NR_IE_frame_process+0x798>:
	...

0000b8d2 <WB_NR_IE_frame_process+0x79a>:
    b8d2:	209c32        	l16si	a3, a12, 64
    b8d5:	4c9652        	l16si	a5, a6, 152
    b8d8:	71e8           	l32i.n	a14, a1, 28
    b8da:	d8a422        	movi	a2, 0x4d8
    b8dd:	93bd           	ae_zext16	a11, a3
    b8df:	957d           	ae_zext16	a7, a5
    b8e1:	af2a           	add.n	a10, a15, a2
    b8e3:	281b77        	beq	a11, a7, b90f <WB_NR_IE_frame_process+0x7d7>
    b8e6:	8128           	l32i.n	a2, a1, 32
    b8e8:	c05350        	sub	a5, a3, a5
    b8eb:	a3b750        	movltz	a11, a7, a5
    b8ee:	729c           	beqz.n	a2, b909 <WB_NR_IE_frame_process+0x7d1>
    b8f0:	8198           	l32i.n	a9, a1, 32
    b8f2:	0a2d           	mov.n	a2, a10
    b8f4:	a32d50        	movltz	a2, a13, a5
    b8f7:	603150        	abs	a3, a5
    b8fa:	fcc252        	addi	a5, a2, -4
    b8fd:	088976        	loop	a9, b909 <WB_NR_IE_frame_process+0x7d1>
    b900:	601514        	ae_lq32f.iu	aeq0, a5, 4
    b903:	3403a4        	ae_srlaq56	aeq0, aeq0, a3
    b906:	620504        	ae_sq32f.i	aeq0, a5, 0

0000b909 <WB_NR_IE_frame_process+0x7d1>:
    b909:	4c56b2        	s16i	a11, a6, 152
    b90c:	205cb2        	s16i	a11, a12, 64

0000b90f <WB_NR_IE_frame_process+0x7d7>:
    b90f:	8198           	l32i.n	a9, a1, 32
    b911:	d4a422        	movi	a2, 0x4d4
    b914:	7f2a           	add.n	a7, a15, a2
    b916:	99ac           	beqz.n	a9, b943 <WB_NR_IE_frame_process+0x80b>
    b918:	02df22        	addmi	a2, a15, 0x200
    b91b:	749222        	l16si	a2, a2, 232
    b91e:	130c           	movi.n	a3, 1
    b920:	81b8           	l32i.n	a11, a1, 32
    b922:	113310        	slli	a3, a3, 15
    b925:	c03320        	sub	a3, a3, a2
    b928:	300234        	ae_cvtp24a16x2.ll	aep0, a2, a3
    b92b:	600834        	ae_lq32f.i	aeq0, a8, 12
    b92e:	073d           	mov.n	a3, a7
    b930:	0d5d           	mov.n	a5, a13
    b932:	0a8b76        	loop	a11, b940 <WB_NR_IE_frame_process+0x808>
    b935:	605314        	ae_lq32f.iu	aeq1, a3, 4
    b938:	0c017d151f 	{ ae_lq32f.iu	aeq0, a5, 4; ae_mulzaafq32sp16s.lh	aeq1, aeq1, aep0, aeq0, aep0 }
    b93d:	621304        	ae_sq32f.i	aeq1, a3, 0

0000b940 <WB_NR_IE_frame_process+0x808>:
    b940:	4c16b2        	l16ui	a11, a6, 152

0000b943 <WB_NR_IE_frame_process+0x80b>:
    b943:	229e32        	l16si	a3, a14, 68
    b946:	8b2d           	ae_sext16	a2, a11
    b948:	939d           	ae_zext16	a9, a3
    b94a:	2919b7        	beq	a9, a11, b977 <WB_NR_IE_frame_process+0x83f>
    b94d:	c05320        	sub	a5, a3, a2
    b950:	b3b950        	movgez	a11, a9, a5
    b953:	8198           	l32i.n	a9, a1, 32
    b955:	112122        	l32i	a2, a1, 68
    b958:	603150        	abs	a3, a5
    b95b:	299c           	beqz.n	a9, b971 <WB_NR_IE_frame_process+0x839>
    b95d:	a3a250        	movltz	a10, a2, a5
    b960:	fcca52        	addi	a5, a10, -4
    b963:	81a8           	l32i.n	a10, a1, 32
    b965:	088a76        	loop	a10, b971 <WB_NR_IE_frame_process+0x839>
    b968:	601514        	ae_lq32f.iu	aeq0, a5, 4
    b96b:	3403a4        	ae_srlaq56	aeq0, aeq0, a3
    b96e:	620504        	ae_sq32f.i	aeq0, a5, 0

0000b971 <WB_NR_IE_frame_process+0x839>:
    b971:	4c56b2        	s16i	a11, a6, 152
    b974:	225eb2        	s16i	a11, a14, 68

0000b977 <WB_NR_IE_frame_process+0x83f>:
    b977:	8158           	l32i.n	a5, a1, 32
    b979:	112132        	l32i	a3, a1, 68
    b97c:	02df22        	addmi	a2, a15, 0x200
    b97f:	e59c           	beqz.n	a5, b9a1 <WB_NR_IE_frame_process+0x869>
    b981:	731222        	l16ui	a2, a2, 230
    b984:	600304        	ae_lq32f.i	aeq0, a3, 0
    b987:	300224        	ae_cvtp24a16x2.ll	aep0, a2, a2
    b98a:	108576        	loop	a5, b99e <WB_NR_IE_frame_process+0x866>
    b98d:	605714        	ae_lq32f.iu	aeq1, a7, 4
    b990:	d4e37b009f 	{ ae_sraiq56	aeq2, aeq0, 1; ae_mulfq32sp16s.l	aeq1, aeq1, aep0 }
    b995:	601314        	ae_lq32f.iu	aeq0, a3, 4
    b998:	0152c4        	ae_maxq56s	aeq1, aeq2, aeq1
    b99b:	6213f4        	ae_sq32f.i	aeq1, a3, -4

0000b99e <WB_NR_IE_frame_process+0x866>:
    b99e:	221eb2        	l16ui	a11, a14, 68

0000b9a1 <WB_NR_IE_frame_process+0x869>:
    b9a1:	2b1b           	addi.n	a2, a11, 1
    b9a3:	b1b8           	l32i.n	a11, a1, 44
    b9a5:	225e22        	s16i	a2, a14, 68
    b9a8:	1bdf62        	addmi	a6, a15, 0x1b00
    b9ab:	201c22        	l16ui	a2, a12, 64
    b9ae:	239692        	l16si	a9, a6, 70
    b9b1:	229e32        	l16si	a3, a14, 68
    b9b4:	77a252        	movi	a5, 0x277
    b9b7:	82ad           	ae_sext16	a10, a2
    b9b9:	0f1b72        	l16ui	a7, a11, 30
    b9bc:	1155d0        	slli	a5, a5, 3
    b9bf:	53b9a0        	max	a11, a9, a10
    b9c2:	b169           	s32i.n	a6, a1, 44
    b9c4:	6f5a           	add.n	a6, a15, a5
    b9c6:	725a90        	salt	a5, a10, a9
    b9c9:	0dfd           	mov.n	a15, a13
    b9cb:	1361a2        	s32i	a10, a1, 76
    b9ce:	53ab30        	max	a10, a11, a3
    b9d1:	8199           	s32i.n	a9, a1, 32
    b9d3:	93f650        	movnez	a15, a6, a5
    b9d6:	729b30        	salt	a9, a11, a3
    b9d9:	9a5d           	ae_zext16	a5, a10
    b9db:	93f490        	movnez	a15, a4, a9
    b9de:	1c1527        	beq	a5, a2, b9fe <WB_NR_IE_frame_process+0x8c6>
    b9e1:	979c           	beqz.n	a7, b9fe <WB_NR_IE_frame_process+0x8c6>
    b9e3:	132122        	l32i	a2, a1, 76
    b9e6:	c02a20        	sub	a2, a10, a2
    b9e9:	a3df20        	movltz	a13, a15, a2
    b9ec:	605120        	abs	a5, a2
    b9ef:	fccd92        	addi	a9, a13, -4
    b9f2:	088776        	loop	a7, b9fe <WB_NR_IE_frame_process+0x8c6>
    b9f5:	601914        	ae_lq32f.iu	aeq0, a9, 4
    b9f8:	3405a4        	ae_srlaq56	aeq0, aeq0, a5
    b9fb:	620904        	ae_sq32f.i	aeq0, a9, 0

0000b9fe <WB_NR_IE_frame_process+0x8c6>:
    b9fe:	8128           	l32i.n	a2, a1, 32
    ba00:	069d           	mov.n	a9, a6
    ba02:	1b1a27        	beq	a10, a2, ba21 <WB_NR_IE_frame_process+0x8e9>
    ba05:	879c           	beqz.n	a7, ba21 <WB_NR_IE_frame_process+0x8e9>
    ba07:	8128           	l32i.n	a2, a1, 32
    ba09:	c02a20        	sub	a2, a10, a2
    ba0c:	a39f20        	movltz	a9, a15, a2
    ba0f:	605120        	abs	a5, a2
    ba12:	fcc992        	addi	a9, a9, -4
    ba15:	088776        	loop	a7, ba21 <WB_NR_IE_frame_process+0x8e9>
    ba18:	601914        	ae_lq32f.iu	aeq0, a9, 4
    ba1b:	3405a4        	ae_srlaq56	aeq0, aeq0, a5
    ba1e:	620904        	ae_sq32f.i	aeq0, a9, 0
    ba21:	19a3b7        	bge	a3, a11, ba3e <WB_NR_IE_frame_process+0x906>
    ba24:	679c           	beqz.n	a7, ba3e <WB_NR_IE_frame_process+0x906>
    ba26:	c02a30        	sub	a2, a10, a3
    ba29:	b3f420        	movgez	a15, a4, a2
    ba2c:	603120        	abs	a3, a2
    ba2f:	fccf52        	addi	a5, a15, -4
    ba32:	088776        	loop	a7, ba3e <WB_NR_IE_frame_process+0x906>
    ba35:	601514        	ae_lq32f.iu	aeq0, a5, 4
    ba38:	3403a4        	ae_srlaq56	aeq0, aeq0, a3
    ba3b:	620504        	ae_sq32f.i	aeq0, a5, 0
    ba3e:	b128           	l32i.n	a2, a1, 44
    ba40:	888b           	addi.n	a8, a8, 8
    ba42:	205ca2        	s16i	a10, a12, 64
    ba45:	225ea2        	s16i	a10, a14, 68
    ba48:	2352a2        	s16i	a10, a2, 70
    ba4b:	095716        	beqz	a7, bae4 <WB_NR_IE_frame_process+0x9ac>
    ba4e:	9198           	l32i.n	a9, a1, 36
    ba50:	d19f51        	l32r	a5, cc (f59c <p_ecnr_mem>)
    ba53:	77a232        	movi	a3, 0x277
    ba56:	1133d0        	slli	a3, a3, 3
    ba59:	0558           	l32i.n	a5, a5, 0
    ba5b:	02d9f2        	addmi	a15, a9, 0x200
    ba5e:	cfa622        	movi	a2, 0x6cf
    ba61:	606934        	ae_lq32f.x	aeq1, a9, a3
    ba64:	651f32        	l16ui	a3, a15, 202
    ba67:	ffa0d2        	movi	a13, 255
    ba6a:	1122e0        	slli	a2, a2, 2
    ba6d:	600404        	ae_lq32f.i	aeq0, a4, 0
    ba70:	02d9c2        	addmi	a12, a9, 0x200
    ba73:	7fddd2        	addmi	a13, a13, 0x7f00
    ba76:	08fd           	mov.n	a15, a8
    ba78:	f96a1b092f 	{ ae_lp16x2f.x	aep0, a9, a2; ae_addq56	aeq1, aeq1, aeq0 }
    ba7d:	06ed           	mov.n	a14, a6
    ba7f:	2cd5b2        	addmi	a11, a5, 0x2c00
    ba82:	5e8776        	loop	a7, bae4 <WB_NR_IE_frame_process+0x9ac>
    ba85:	609f14        	ae_lq32f.iu	aeq2, a15, 4
    ba88:	0e00ff02af 	{ ae_nsaq56s	a2, aeq0; ae_mulzaafq32sp16s.lh	aeq1, aeq2, aep0, aeq1, aep0 }
    ba8d:	365504        	ae_nsaq56s	a5, aeq1
    ba90:	435250        	min	a5, a2, a5
    ba93:	e9c522        	addi	a2, a5, -23
    ba96:	fc24fe924f 	{ ae_slaasq56s	aeq1, aeq1, a2; nop }
    ba9b:	369904        	ae_trunca32q48	a9, aeq1
    ba9e:	120c           	movi.n	a2, 1
    baa0:	112210        	slli	a2, a2, 15
    baa3:	a98c           	beqz.n	a9, bab1 <WB_NR_IE_frame_process+0x979>
    baa5:	38c522        	addi	a2, a5, 56
    baa8:	340294        	ae_sllaq56	aeq0, aeq0, a2
    baab:	368204        	ae_trunca32q48	a2, aeq0
    baae:	d22290        	quos	a2, a2, a9

0000bab1 <WB_NR_IE_frame_process+0x979>:
    bab1:	c05d20        	sub	a5, a13, a2
    bab4:	142326        	beqi	a3, 2, bacc <WB_NR_IE_frame_process+0x994>
    bab7:	252b92        	l32i	a9, a11, 148
    baba:	0cd922        	addmi	a2, a9, 0xc00
    babd:	151222        	l16ui	a2, a2, 42
    bac0:	0e1266        	bnei	a2, 1, bad2 <WB_NR_IE_frame_process+0x99a>
    bac3:	0cd922        	addmi	a2, a9, 0xc00
    bac6:	141222        	l16ui	a2, a2, 40
    bac9:	051266        	bnei	a2, 1, bad2 <WB_NR_IE_frame_process+0x99a>
    bacc:	409c22        	l16si	a2, a12, 128
    bacf:	535520        	max	a5, a5, a2
    bad2:	0e2d           	mov.n	a2, a14
    bad4:	115500        	slli	a5, a5, 16
    bad7:	605214        	ae_lq32f.iu	aeq1, a2, 4
    bada:	601414        	ae_lq32f.iu	aeq0, a4, 4
    badd:	f96a140e5f 	{ s32i.n	a5, a14, 0; ae_addq56	aeq1, aeq1, aeq0 }
    bae2:	02ed           	mov.n	a14, a2

0000bae4 <WB_NR_IE_frame_process+0x9ac>:
    bae4:	91b8           	l32i.n	a11, a1, 36
    bae6:	77a232        	movi	a3, 0x277
    bae9:	c198           	l32i.n	a9, a1, 48
    baeb:	bb2b22        	l32i	a2, a11, 0x2ec
    baee:	1221c2        	l32i	a12, a1, 72
    baf1:	1133d0        	slli	a3, a3, 3
    baf4:	fcc222        	addi	a2, a2, -4
    baf7:	52b214        	ae_sp24f.l.iu	aep3, a2, 4
    bafa:	52b214        	ae_sp24f.l.iu	aep3, a2, 4
    bafd:	52b214        	ae_sp24f.l.iu	aep3, a2, 4
    bb00:	2ba716        	beqz	a7, bdbe <WB_NR_IE_frame_process+0xc86>
    bb03:	510b34        	ae_lp24f.x	aep0, a11, a3
    bb06:	00a032        	movi	a3, 0
    bb09:	178776        	loop	a7, bb24 <WB_NR_IE_frame_process+0x9ec>
    bb0c:	601814        	ae_lq32f.iu	aeq0, a8, 4
    bb0f:	080524        	ae_mulfq32sp24s.l	aeq0, aeq0, aep0
    bb12:	080514        	ae_mulrfq32sp24s.l	aeq0, aeq0, aep0
    bb15:	368404        	ae_trunca32q48	a4, aeq0
    bb18:	620604        	ae_sq32f.i	aeq0, a6, 0
    bb1b:	528214        	ae_sp24f.l.iu	aep0, a2, 4
    bb1e:	508614        	ae_lp24f.iu	aep0, a6, 4
    bb21:	533340        	max	a3, a3, a4
    bb24:	8148           	l32i.n	a4, a1, 32
    bb26:	132152        	l32i	a5, a1, 76
    bb29:	b168           	l32i.n	a6, a1, 44
    bb2b:	22a547        	bge	a5, a4, bb51 <WB_NR_IE_frame_process+0xa19>
    bb2e:	40e340        	nsa	a4, a3
    bb31:	c03a40        	sub	a3, a10, a4
    bb34:	235632        	s16i	a3, a6, 70
    bb37:	679c           	beqz.n	a7, bb51 <WB_NR_IE_frame_process+0xa19>
    bb39:	77a232        	movi	a3, 0x277
    bb3c:	1133d0        	slli	a3, a3, 3
    bb3f:	803b30        	add	a3, a11, a3
    bb42:	401400        	ssl	a4
    bb45:	088776        	loop	a7, bb51 <WB_NR_IE_frame_process+0xa19>
    bb48:	0348           	l32i.n	a4, a3, 0
    bb4a:	a14400        	sll	a4, a4
    bb4d:	0349           	s32i.n	a4, a3, 0
    bb4f:	334b           	addi.n	a3, a3, 4
    bb51:	1a2182        	l32i	a8, a1, 104
    bb54:	fa0c           	movi.n	a10, 15
    bb56:	5d0c           	movi.n	a13, 5
    bb58:	93dac0        	movnez	a13, a10, a12
    bb5b:	d1a8           	l32i.n	a10, a1, 52
    bb5d:	192132        	l32i	a3, a1, 100
    bb60:	a158           	l32i.n	a5, a1, 40
    bb62:	099882        	l16si	a8, a8, 18
    bb65:	960c           	movi.n	a6, 9
    bb67:	1e2c           	movi.n	a14, 33
    bb69:	6266a0        	saltu	a6, a6, a10
    bb6c:	0cc372        	addi	a7, a3, 12
    bb6f:	b03530        	addx8	a3, a5, a3
    bb72:	11f800        	slli	a15, a8, 16
    bb75:	83ed60        	moveqz	a14, a13, a6
    bb78:	1145f0        	slli	a4, a5, 1
    bb7b:	378ff4        	ae_truncp24a32x2	aep0, a15, a15
    bb7e:	086132        	s32i	a3, a1, 32
    bb81:	028e76        	loop	a14, bb87 <WB_NR_IE_frame_process+0xa4f>
    bb84:	528214        	ae_sp24f.l.iu	aep0, a2, 4

0000bb87 <WB_NR_IE_frame_process+0xa4f>:
    bb87:	1b21f2        	l32i	a15, a1, 108
    bb8a:	00a122        	movi	a2, 0x100
    bb8d:	80a032        	movi	a3, 128
    bb90:	d168           	l32i.n	a6, a1, 52
    bb92:	9332c0        	movnez	a3, a2, a12
    bb95:	222f22        	l32i	a2, a15, 136
    bb98:	bb2b82        	l32i	a8, a11, 0x2ec
    bb9b:	9e0c           	movi.n	a14, 9
    bb9d:	00a252        	movi	a5, 0x200
    bba0:	626e60        	saltu	a6, a14, a6
    bba3:	601204        	ae_lq32f.iu	aeq0, a2, 0
    bba6:	835360        	moveqz	a5, a3, a6
    bba9:	fcc832        	addi	a3, a8, -4
    bbac:	605214        	ae_lq32f.iu	aeq1, a2, 4
    bbaf:	508314        	ae_lp24f.iu	aep0, a3, 4
    bbb2:	138576        	loop	a5, bbc9 <WB_NR_IE_frame_process+0xa91>
    bbb5:	080514        	ae_mulrfq32sp24s.l	aeq0, aeq0, aep0
    bbb8:	f8e16e831f 	{ ae_lp24f.iu	aep0, a3, 4; ae_mulrfq32sp24s.l	aeq1, aeq1, aep0 }
    bbbd:	6202f4        	ae_sq32f.i	aeq0, a2, -4
    bbc0:	621204        	ae_sq32f.i	aeq1, a2, 0
    bbc3:	601214        	ae_lq32f.iu	aeq0, a2, 4
    bbc6:	605214        	ae_lq32f.iu	aeq1, a2, 4
    bbc9:	03d922        	addmi	a2, a9, 0x300
    bbcc:	4b1252        	l16ui	a5, a2, 150
    bbcf:	d16231        	l32r	a3, 158 (d6fc <xt_memcpy>)
    bbd2:	1821a2        	l32i	a10, a1, 96
    bbd5:	1e1566        	bnei	a5, 1, bbf7 <WB_NR_IE_frame_process+0xabf>
    bbd8:	1121b2        	l32i	a11, a1, 68
    bbdb:	04cd           	mov.n	a12, a4
    bbdd:	0003e0        	callx8	a3
    bbe0:	142152        	l32i	a5, a1, 80
    bbe3:	c1a8           	l32i.n	a10, a1, 48
    bbe5:	1021b2        	l32i	a11, a1, 64
    bbe8:	1d05c2        	l8ui	a12, a5, 29
    bbeb:	d26e51        	l32r	a5, 5a4 (2e68 <aec_sub_post>)
    bbee:	1d0c           	movi.n	a13, 1
    bbf0:	0005e0        	callx8	a5
    bbf3:	91b8           	l32i.n	a11, a1, 36
    bbf5:	c198           	l32i.n	a9, a1, 48

0000bbf7 <WB_NR_IE_frame_process+0xabf>:
    bbf7:	e158           	l32i.n	a5, a1, 56
    bbf9:	396d           	ae_l16si.n	a6, a9, 2
    bbfb:	ff1982        	l16ui	a8, a9, 0x1fe
    bbfe:	4d9552        	l16si	a5, a5, 154
    bc01:	300884        	ae_cvtp24a16x2.ll	aep0, a8, a8
    bc04:	1021a2        	l32i	a10, a1, 64
    bc07:	132657        	blt	a6, a5, bc1e <WB_NR_IE_frame_process+0xae6>
    bc0a:	00a262        	movi	a6, 0x200
    bc0d:	601a04        	ae_lq32f.iu	aeq0, a10, 0
    bc10:	0a5d           	mov.n	a5, a10
    bc12:	088676        	loop	a6, bc1e <WB_NR_IE_frame_process+0xae6>
    bc15:	030204        	ae_mulfq32sp16s.h	aeq0, aeq0, aep0
    bc18:	624504        	ae_sq32f.iu	aeq0, a5, 0
    bc1b:	601514        	ae_lq32f.iu	aeq0, a5, 4

0000bc1e <WB_NR_IE_frame_process+0xae6>:
    bc1e:	02db52        	addmi	a5, a11, 0x200
    bc21:	429562        	l16si	a6, a5, 132
    bc24:	a42ba2        	l32i	a10, a11, 0x290
    bc27:	a87c           	movi.n	a8, -6
    bc29:	90c680        	addx2	a12, a6, a8
    bc2c:	07bd           	mov.n	a11, a7
    bc2e:	0003e0        	callx8	a3
    bc31:	91a8           	l32i.n	a10, a1, 36
    bc33:	429532        	l16si	a3, a5, 132
    bc36:	f198           	l32i.n	a9, a1, 60
    bc38:	a42ac2        	l32i	a12, a10, 0x290
    bc3b:	1f43a6        	blti	a3, 4, bc5e <WB_NR_IE_frame_process+0xb26>
    bc3e:	13d952        	addmi	a5, a9, 0x1300
    bc41:	7a9552        	l16si	a5, a5, 244
    bc44:	fdc362        	addi	a6, a3, -3
    bc47:	fccc32        	addi	a3, a12, -4
    bc4a:	fcc552        	addi	a5, a5, -4
    bc4d:	0d8676        	loop	a6, bc5e <WB_NR_IE_frame_process+0xb26>
    bc50:	601314        	ae_lq32f.iu	aeq0, a3, 4
    bc53:	fc24fe850f 	{ ae_slaasq56s	aeq0, aeq0, a5; nop }
    bc58:	060844        	ae_satq48s	aeq0, aeq0
    bc5b:	620304        	ae_sq32f.i	aeq0, a3, 0
    bc5e:	03da52        	addmi	a5, a10, 0x300
    bc61:	0b9532        	l16si	a3, a5, 22
    bc64:	1021f2        	l32i	a15, a1, 64
    bc67:	1521b2        	l32i	a11, a1, 84
    bc6a:	71d8           	l32i.n	a13, a1, 28
    bc6c:	fcaf62        	movi	a6, -4
    bc6f:	c03630        	sub	a3, a6, a3
    bc72:	fccf62        	addi	a6, a15, -4
    bc75:	0d8476        	loop	a4, bc86 <WB_NR_IE_frame_process+0xb4e>
    bc78:	601614        	ae_lq32f.iu	aeq0, a6, 4
    bc7b:	fc24fe830f 	{ ae_slaasq56s	aeq0, aeq0, a3; nop }
    bc80:	060844        	ae_satq48s	aeq0, aeq0
    bc83:	620604        	ae_sq32f.i	aeq0, a6, 0

0000bc86 <WB_NR_IE_frame_process+0xb4e>:
    bc86:	1d1982        	l16ui	a8, a9, 58
    bc89:	c37c           	movi.n	a3, -4
    bc8b:	f43030        	extui	a3, a3, 0, 16
    bc8e:	13d962        	addmi	a6, a9, 0x1300
    bc91:	0b5532        	s16i	a3, a5, 22
    bc94:	a89c           	beqz.n	a8, bcb2 <WB_NR_IE_frame_process+0xb7a>
    bc96:	7c9672        	l16si	a7, a6, 248
    bc99:	8158           	l32i.n	a5, a1, 32
    bc9b:	fcc772        	addi	a7, a7, -4
    bc9e:	fcc552        	addi	a5, a5, -4
    bca1:	0d8876        	loop	a8, bcb2 <WB_NR_IE_frame_process+0xb7a>
    bca4:	601514        	ae_lq32f.iu	aeq0, a5, 4
    bca7:	fc24fe870f 	{ ae_slaasq56s	aeq0, aeq0, a7; nop }
    bcac:	060844        	ae_satq48s	aeq0, aeq0
    bcaf:	620504        	ae_sq32f.i	aeq0, a5, 0

0000bcb2 <WB_NR_IE_frame_process+0xb7a>:
    bcb2:	189972        	l16si	a7, a9, 48
    bcb5:	1721f2        	l32i	a15, a1, 92
    bcb8:	450c           	movi.n	a5, 4
    bcba:	ce7c           	movi.n	a14, -4
    bcbc:	7c5652        	s16i	a5, a6, 248
    bcbf:	c05e70        	sub	a5, a14, a7
    bcc2:	fccf72        	addi	a7, a15, -4
    bcc5:	0d8476        	loop	a4, bcd6 <WB_NR_IE_frame_process+0xb9e>
    bcc8:	601714        	ae_lq32f.iu	aeq0, a7, 4
    bccb:	fc24fe850f 	{ ae_slaasq56s	aeq0, aeq0, a5; nop }
    bcd0:	060844        	ae_satq48s	aeq0, aeq0
    bcd3:	620704        	ae_sq32f.i	aeq0, a7, 0

0000bcd6 <WB_NR_IE_frame_process+0xb9e>:
    bcd6:	02da42        	addmi	a4, a10, 0x200
    bcd9:	441452        	l16ui	a5, a4, 136
    bcdc:	185932        	s16i	a3, a9, 48
    bcdf:	e138           	l32i.n	a3, a1, 56
    bce1:	136577        	bbci	a5, 7, bcf8 <WB_NR_IE_frame_process+0xbc0>
    bce4:	162182        	l32i	a8, a1, 88
    bce7:	4d9332        	l16si	a3, a3, 154
    bcea:	170c           	movi.n	a7, 1
    bcec:	0083d6        	bgez	a3, bcf8 <WB_NR_IE_frame_process+0xbc0>
    bcef:	3b2832        	l32i	a3, a8, 236
    bcf2:	02d332        	addmi	a3, a3, 0x200
    bcf5:	705372        	s16i	a7, a3, 224

0000bcf8 <WB_NR_IE_frame_process+0xbc0>:
    bcf8:	06fb16        	beqz	a11, bd6b <WB_NR_IE_frame_process+0xc33>
    bcfb:	162132        	l32i	a3, a1, 88
    bcfe:	0cdb72        	addmi	a7, a11, 0xc00
    bd01:	0cdb82        	addmi	a8, a11, 0xc00
    bd04:	3b2332        	l32i	a3, a3, 236
    bd07:	02d332        	addmi	a3, a3, 0x200
    bd0a:	701332        	l16ui	a3, a3, 224
    bd0d:	81b8           	l32i.n	a11, a1, 32
    bd0f:	058356        	bnez	a3, bd6b <WB_NR_IE_frame_process+0xc33>
    bd12:	151732        	l16ui	a3, a7, 42
    bd15:	052356        	bnez	a3, bd6b <WB_NR_IE_frame_process+0xc33>
    bd18:	181832        	l16ui	a3, a8, 48
    bd1b:	04c356        	bnez	a3, bd6b <WB_NR_IE_frame_process+0xc33>
    bd1e:	0e6517        	bbci	a5, 1, bd30 <WB_NR_IE_frame_process+0xbf8>
    bd21:	d22331        	l32r	a3, 5b0 (d008 <fn_low_bin_noise_est_iem2>)
    bd24:	1021d2        	l32i	a13, a1, 64
    bd27:	0003e0        	callx8	a3
    bd2a:	71d8           	l32i.n	a13, a1, 28
    bd2c:	91a8           	l32i.n	a10, a1, 36
    bd2e:	f198           	l32i.n	a9, a1, 60
    bd30:	1d1972        	l16ui	a7, a9, 58
    bd33:	8138           	l32i.n	a3, a1, 32
    bd35:	fbaf52        	movi	a5, -5
    bd38:	279c           	beqz.n	a7, bd4e <WB_NR_IE_frame_process+0xc16>
    bd3a:	fcc332        	addi	a3, a3, -4
    bd3d:	0d8776        	loop	a7, bd4e <WB_NR_IE_frame_process+0xc16>
    bd40:	601314        	ae_lq32f.iu	aeq0, a3, 4
    bd43:	fc24fe850f 	{ ae_slaasq56s	aeq0, aeq0, a5; nop }
    bd48:	060844        	ae_satq48s	aeq0, aeq0
    bd4b:	620304        	ae_sq32f.i	aeq0, a3, 0

0000bd4e <WB_NR_IE_frame_process+0xc16>:
    bd4e:	930c           	movi.n	a3, 9
    bd50:	7c5632        	s16i	a3, a6, 248
    bd53:	880432        	l8ui	a3, a4, 136
    bd56:	1721b2        	l32i	a11, a1, 92
    bd59:	1021c2        	l32i	a12, a1, 64
    bd5c:	0b6327        	bbci	a3, 2, bd6b <WB_NR_IE_frame_process+0xc33>
    bd5f:	d21531        	l32r	a3, 5b4 (d264 <fn_low_bin_compensate_phase_iem2>)
    bd62:	0003e0        	callx8	a3
    bd65:	71d8           	l32i.n	a13, a1, 28
    bd67:	91a8           	l32i.n	a10, a1, 36
    bd69:	f198           	l32i.n	a9, a1, 60

0000bd6b <WB_NR_IE_frame_process+0xc33>:
    bd6b:	4b1222        	l16ui	a2, a2, 150
    bd6e:	d0d731        	l32r	a3, cc (f59c <p_ecnr_mem>)
    bd71:	d3a742        	movi	a4, 0x7d3
    bd74:	441266        	bnei	a2, 1, bdbc <WB_NR_IE_frame_process+0xc84>
    bd77:	229dd2        	l16si	a13, a13, 68
    bd7a:	0338           	l32i.n	a3, a3, 0
    bd7c:	a1f8           	l32i.n	a15, a1, 40
    bd7e:	1144d0        	slli	a4, a4, 3
    bd81:	f4a6e2        	movi	a14, 0x6f4
    bd84:	c34a           	add.n	a12, a3, a4
    bd86:	b04ee0        	addx8	a4, a14, a14
    bd89:	fccd22        	addi	a2, a13, -4
    bd8c:	334a           	add.n	a3, a3, a4
    bd8e:	0d8f76        	loop	a15, bd9f <WB_NR_IE_frame_process+0xc67>
    bd91:	601314        	ae_lq32f.iu	aeq0, a3, 4
    bd94:	fc24fe820f 	{ ae_slaasq56s	aeq0, aeq0, a2; nop }
    bd99:	060844        	ae_satq48s	aeq0, aeq0
    bd9c:	620304        	ae_sq32f.i	aeq0, a3, 0

0000bd9f <WB_NR_IE_frame_process+0xc67>:
    bd9f:	71f8           	l32i.n	a15, a1, 28
    bda1:	02da32        	addmi	a3, a10, 0x200
    bda4:	420c           	movi.n	a2, 4
    bda6:	225f22        	s16i	a2, a15, 68
    bda9:	1d99e2        	l16si	a14, a9, 58
    bdac:	4093d2        	l16si	a13, a3, 128
    bdaf:	d1c221        	l32r	a2, 4b8 (2f3c <subband_comfort_noise>)
    bdb2:	c1a8           	l32i.n	a10, a1, 48
    bdb4:	1021b2        	l32i	a11, a1, 64
    bdb7:	1f0c           	movi.n	a15, 1
    bdb9:	0002e0        	callx8	a2

0000bdbc <WB_NR_IE_frame_process+0xc84>:
    bdbc:	f01d           	retw.n

0000bdbe <WB_NR_IE_frame_process+0xc86>:
    bdbe:	c198           	l32i.n	a9, a1, 48
    bdc0:	1221c2        	l32i	a12, a1, 72
    bdc3:	030c           	movi.n	a3, 0
    bdc5:	ff56c6        	j	bb24 <WB_NR_IE_frame_process+0x9ec>

0000bdc8 <WB_NR_IE_frame_process+0xc90>:
    bdc8:	1127c0        	slli	a2, a7, 4
    bdcb:	d1ce31        	l32r	a3, 504 (1eb851f <_end+0x1ea8f7f>)
    bdce:	370c           	movi.n	a7, 3
    bdd0:	390c           	movi.n	a9, 3
    bdd2:	115f00        	slli	a5, a15, 16
    bdd5:	4162f0        	srli	a6, a15, 2
    bdd8:	ee2a           	add.n	a14, a14, a2
    bdda:	012750        	slli	a2, a7, 27
    bddd:	364334        	ae_cvtq48a32s	aeq1, a3
    bde0:	013940        	slli	a3, a9, 28
    bde3:	d198           	l32i.n	a9, a1, 52
    bde5:	c05f50        	sub	a5, a15, a5
    bde8:	11a600        	slli	a10, a6, 16
    bdeb:	d1c5f1        	l32r	a15, 500 (fe266666 <_end+0xfe2570c6>)
    bdee:	368234        	ae_cvtq48a32s	aeq2, a2
    bdf1:	d1ee21        	l32r	a2, 5ac (fed9999a <_end+0xfed8a3fa>)
    bdf4:	c066a0        	sub	a6, a6, a10
    bdf7:	d1c441        	l32r	a4, 508 (4cccccd <_end+0x4cbd72d>)
    bdfa:	ba7c           	movi.n	a10, -5
    bdfc:	360434        	ae_cvtq48a32s	aeq0, a4
    bdff:	36c334        	ae_cvtq48a32s	aeq3, a3
    be02:	558a           	add.n	a5, a5, a8
    be04:	668a           	add.n	a6, a6, a8
    be06:	9079c0        	addx2	a7, a9, a12
    be09:	49ca           	add.n	a4, a9, a12
    be0b:	013aa0        	slli	a3, a10, 22
    be0e:	fc7c           	movi.n	a12, -1
    be10:	309664        	ae_cvtp24a16x2.lh	aep1, a6, a6
    be13:	4169c0        	srli	a6, a12, 9
    be16:	fc0c7a012f 	{ ae_sq56s.i	aeq0, a1, 16; ae_movq56	aeq0, aeq1 }
    be1b:	90f9f0        	addx2	a15, a9, a15
    be1e:	308554        	ae_cvtp24a16x2.lh	aep0, a5, a5
    be21:	892a           	add.n	a8, a9, a2
    be23:	c93a           	add.n	a12, a9, a3
    be25:	a158           	l32i.n	a5, a1, 40
    be27:	3cda           	add.n	a3, a12, a13
    be29:	24da           	add.n	a2, a4, a13
    be2b:	a095b0        	addx4	a9, a5, a11
    be2e:	315730        	srai	a5, a3, 23
    be31:	d1b7b1        	l32r	a11, 510 (2bfffff <_end+0x2bf0a5f>)
    be34:	a03590        	addx4	a3, a5, a9
    be37:	f8c3a2        	addi	a10, a3, -8
    be3a:	a095e0        	addx4	a9, a5, a14
    be3d:	46ba14        	ae_sp16x2f.iu	aep3, a10, 4
    be40:	022b27        	blt	a11, a2, be46 <WB_NR_IE_frame_process+0xd0e>
    be43:	610124        	ae_lq56.i	aeq0, a1, 16
    be46:	251b           	addi.n	a2, a5, 1
    be48:	38da           	add.n	a3, a8, a13
    be4a:	01b290        	slli	a11, a2, 23
    be4d:	624914        	ae_sq32f.iu	aeq0, a9, 4
    be50:	0aab37        	bge	a11, a3, be5e <WB_NR_IE_frame_process+0xd26>
    be53:	252b           	addi.n	a2, a5, 2
    be55:	469a14        	ae_sp16x2f.iu	aep1, a10, 4
    be58:	626914        	ae_sq32f.iu	aeq2, a9, 4
    be5b:	01b290        	slli	a11, a2, 23
    be5e:	3fda           	add.n	a3, a15, a13
    be60:	57da           	add.n	a5, a7, a13
    be62:	1aab37        	bge	a11, a3, be80 <WB_NR_IE_frame_process+0xd48>
    be65:	01b290        	slli	a11, a2, 23
    be68:	c033b0        	sub	a3, a3, a11
    be6b:	336a           	add.n	a3, a3, a6
    be6d:	853730        	extui	a3, a3, 23, 9
    be70:	1b0c           	movi.n	a11, 1
    be72:	5333b0        	max	a3, a3, a11
    be75:	078376        	loop	a3, be80 <WB_NR_IE_frame_process+0xd48>
    be78:	468a14        	ae_sp16x2f.iu	aep0, a10, 4
    be7b:	627914        	ae_sq32f.iu	aeq3, a9, 4
    be7e:	221b           	addi.n	a2, a2, 1

0000be80 <WB_NR_IE_frame_process+0xd48>:
    be80:	7138           	l32i.n	a3, a1, 28
    be82:	fc0c739a1f 	{ ae_sp16x2f.iu	aep1, a10, 4; ae_movq56	aeq0, aeq1 }
    be87:	626914        	ae_sq32f.iu	aeq2, a9, 4
    be8a:	02a357        	bge	a3, a5, be90 <WB_NR_IE_frame_process+0xd58>
    be8d:	fdc786        	j	b5af <WB_NR_IE_frame_process+0x477>
    be90:	9128           	l32i.n	a2, a1, 36
    be92:	d1a8           	l32i.n	a10, a1, 52
    be94:	bb22b2        	l32i	a11, a2, 0x2ec
    be97:	ddaa           	add.n	a13, a13, a10
    be99:	ffe206        	j	be25 <WB_NR_IE_frame_process+0xced>

0000be9c <airoha_divide>:
    be9c:	004136        	entry	a1, 32
    be9f:	204320        	or	a4, a3, a2
    bea2:	0d8416        	beqz	a4, bf7e <airoha_divide+0xe2>
    bea5:	0de216        	beqz	a2, bf87 <airoha_divide+0xeb>
    bea8:	0e2316        	beqz	a3, bf8e <airoha_divide+0xf2>
    beab:	609120        	abs	a9, a2
    beae:	60b130        	abs	a11, a3
    beb1:	055f90        	extui	a5, a9, 31, 1
    beb4:	056fb0        	extui	a6, a11, 31, 1
    beb7:	400500        	ssr	a5
    beba:	304320        	xor	a4, a3, a2
    bebd:	912090        	srl	a2, a9
    bec0:	400600        	ssr	a6
    bec3:	91c0b0        	srl	a12, a11
    bec6:	40e2d0        	nsa	a13, a2
    bec9:	40ec30        	nsa	a3, a12
    becc:	e31b           	addi.n	a14, a3, 1
    bece:	401d00        	ssl	a13
    bed1:	317fb0        	srai	a7, a11, 31
    bed4:	a13200        	sll	a3, a2
    bed7:	401e00        	ssl	a14
    beda:	a75a           	add.n	a10, a7, a5
    bedc:	a17c00        	sll	a7, a12
    bedf:	f55070        	extui	a5, a7, 16, 16
    bee2:	c26350        	quou	a6, a3, a5
    bee5:	829650        	mull	a9, a6, a5
    bee8:	978d           	ae_zext16	a8, a7
    beea:	c09390        	sub	a9, a3, a9
    beed:	828680        	mull	a8, a6, a8
    bef0:	c0fed0        	sub	a15, a14, a13
    bef3:	119900        	slli	a9, a9, 16
    bef6:	2afa           	add.n	a2, a10, a15
    bef8:	09b987        	bgeu	a9, a8, bf05 <airoha_divide+0x69>

0000befb <airoha_divide+0x5f>:
    befb:	997a           	add.n	a9, a9, a7
    befd:	660b           	addi.n	a6, a6, -1
    beff:	02b987        	bgeu	a9, a8, bf05 <airoha_divide+0x69>
    bf02:	f5b977        	bgeu	a9, a7, befb <airoha_divide+0x5f>
    bf05:	c0e980        	sub	a14, a9, a8
    bf08:	c25e50        	quou	a5, a14, a5
    bf0b:	11a600        	slli	a10, a6, 16
    bf0e:	623370        	saltu	a3, a3, a7
    bf11:	2b0c           	movi.n	a11, 2
    bf13:	c09b30        	sub	a9, a11, a3
    bf16:	5a5a           	add.n	a5, a10, a5
    bf18:	f5f060        	extui	a15, a6, 16, 16
    bf1b:	6265a0        	saltu	a6, a5, a10
    bf1e:	d59a           	add.n	a13, a5, a9
    bf20:	fc1c           	movi.n	a12, 31
    bf22:	6f6a           	add.n	a6, a15, a6
    bf24:	625d50        	saltu	a5, a13, a5
    bf27:	565a           	add.n	a5, a6, a5
    bf29:	400900        	ssr	a9
    bf2c:	3079c0        	xor	a7, a9, a12
    bf2f:	9180d0        	srl	a8, a13
    bf32:	401700        	ssl	a7
    bf35:	1165f0        	slli	a6, a5, 1
    bf38:	a16600        	sll	a6, a6
    bf3b:	400900        	ssr	a9
    bf3e:	0f0c           	movi.n	a15, 0
    bf40:	206860        	or	a6, a8, a6
    bf43:	915050        	srl	a5, a5
    bf46:	1e0c           	movi.n	a14, 1
    bf48:	7286f0        	salt	a8, a6, a15
    bf4b:	629f50        	saltu	a9, a15, a5
    bf4e:	1a0c           	movi.n	a10, 1
    bf50:	3073e0        	xor	a7, a3, a14
    bf53:	839850        	moveqz	a9, a8, a5
    bf56:	015a20        	slli	a5, a10, 30
    bf59:	d197b1        	l32r	a11, 5b8 (80000001 <_end+0x7fff0a61>)
    bf5c:	727a           	add.n	a7, a2, a7
    bf5e:	fc7c           	movi.n	a12, -1
    bf60:	835690        	moveqz	a5, a6, a9
    bf63:	4131c0        	srli	a3, a12, 1
    bf66:	60e050        	neg	a14, a5
    bf69:	d79a           	add.n	a13, a7, a9
    bf6b:	f23c           	movi.n	a2, 63
    bf6d:	c0cdf2        	addi	a15, a13, -64
    bf70:	a33b40        	movltz	a3, a11, a4
    bf73:	b3e540        	movgez	a14, a5, a4
    bf76:	932df0        	movnez	a2, a13, a15
    bf79:	933ef0        	movnez	a3, a14, a15
    bf7c:	f01d           	retw.n

0000bf7e <airoha_divide+0xe2>:
    bf7e:	f37c           	movi.n	a3, -1
    bf80:	020c           	movi.n	a2, 0
    bf82:	413130        	srli	a3, a3, 1
    bf85:	f01d           	retw.n

0000bf87 <airoha_divide+0xeb>:
    bf87:	030c           	movi.n	a3, 0
    bf89:	c1af22        	movi	a2, -63
    bf8c:	f01d           	retw.n

0000bf8e <airoha_divide+0xf2>:
    bf8e:	d18a31        	l32r	a3, 5b8 (80000001 <_end+0x7fff0a61>)
    bf91:	040c           	movi.n	a4, 0
    bf93:	f57c           	movi.n	a5, -1
    bf95:	724420        	salt	a4, a4, a2
    bf98:	415150        	srli	a5, a5, 1
    bf9b:	f23c           	movi.n	a2, 63
    bf9d:	933540        	movnez	a3, a5, a4
    bfa0:	f01d           	retw.n

0000bfa2 <airoha_divide+0x106>:
	...

0000bfa4 <airoha_divide_limit_1>:
    bfa4:	006136        	entry	a1, 48
    bfa7:	d0ad41        	l32r	a4, 25c (be9c <airoha_divide>)
    bfaa:	02ad           	mov.n	a10, a2
    bfac:	03bd           	mov.n	a11, a3
    bfae:	0004e0        	callx8	a4
    bfb1:	360b34        	ae_cvtq48a32s	aeq0, a11
    bfb4:	fc24fe8a0f 	{ ae_slaasq56s	aeq0, aeq0, a10; nop }
    bfb9:	060934        	ae_roundsq32asym	aeq0, aeq0
    bfbc:	620134        	ae_sq32f.i	aeq0, a1, 12
    bfbf:	3128           	l32i.n	a2, a1, 12
    bfc1:	f01d           	retw.n

0000bfc3 <airoha_divide_limit_1+0x1f>:
    bfc3:	00000000                                 .....

0000bfc8 <xtensa_fft_pass_32b>:
    bfc8:	00c136        	entry	a1, 96
    bfcb:	905330        	addx2	a5, a3, a3
    bfce:	1143c0        	slli	a4, a3, 4
    bfd1:	b05520        	addx8	a5, a5, a2
    bfd4:	602244        	ae_lq32f.x	aeq0, a2, a4
    bfd7:	604504        	ae_lq32f.i	aeq1, a5, 0
    bfda:	608204        	ae_lq32f.i	aeq2, a2, 0
    bfdd:	f8663a014f 	{ ae_sq56s.i	aeq0, a1, 32; ae_addq56	aeq0, aeq0, aeq1 }
    bfe2:	fa32fa216f 	{ ae_sq56s.i	aeq2, a1, 48; ae_subq56	aeq2, aeq2, aeq0 }
    bfe7:	824a           	add.n	a8, a2, a4
    bfe9:	fe547a111f 	{ ae_sq56s.i	aeq1, a1, 8; ae_roundsq32sym	aeq2, aeq2 }
    bfee:	630174        	ae_sq56s.i	aeq0, a1, 56
    bff1:	600514        	ae_lq32f.i	aeq0, a5, 4
    bff4:	604814        	ae_lq32f.i	aeq1, a8, 4
    bff7:	fa6a3a215f 	{ ae_sq56s.i	aeq2, a1, 40; ae_addq56	aeq2, aeq1, aeq0 }
    bffc:	631124        	ae_sq56s.i	aeq1, a1, 16
    bfff:	fcc842        	addi	a4, a8, -4
    c002:	60c214        	ae_lq32f.i	aeq3, a2, 4
    c005:	614154        	ae_lq56.i	aeq1, a1, 40
    c008:	f9baf9d41f 	{ ae_sq32f.iu	aeq1, a4, 4; ae_subq56	aeq1, aeq3, aeq2 }
    c00d:	fc4c7a013f 	{ ae_sq56s.i	aeq0, a1, 24; ae_roundsq32sym	aeq0, aeq1 }
    c012:	fbfa3a015f 	{ ae_sq56s.i	aeq0, a1, 40; ae_addq56	aeq3, aeq3, aeq2 }
    c017:	610174        	ae_lq56.i	aeq0, a1, 56
    c01a:	614164        	ae_lq56.i	aeq1, a1, 48
    c01d:	f86a3da15f 	{ ae_lq56.i	aeq1, a1, 40; ae_addq56	aeq0, aeq1, aeq0 }
    c022:	b06320        	addx8	a6, a3, a2
    c025:	fc444fc22e 	{ addi	a2, a2, -4; ae_roundsq32sym	aeq0, aeq0 }
    c02a:	fd5c79d41f 	{ ae_sq32f.iu	aeq1, a4, 4; ae_roundsq32sym	aeq1, aeq3 }
    c02f:	624214        	ae_sq32f.iu	aeq0, a2, 4
    c032:	618114        	ae_lq56.i	aeq2, a1, 8
    c035:	61c144        	ae_lq56.i	aeq3, a1, 32
    c038:	f8b6f9d21f 	{ ae_sq32f.iu	aeq1, a2, 4; ae_subq56	aeq0, aeq2, aeq3 }
    c03d:	618134        	ae_lq56.i	aeq2, a1, 24
    c040:	61c124        	ae_lq56.i	aeq3, a1, 16
    c043:	f9bafd460f 	{ ae_lq32f.i	aeq2, a6, 0; ae_subq56	aeq1, aeq3, aeq2 }
    c048:	fb36cfc55e 	{ addi	a5, a5, -4; ae_subq56	aeq3, aeq2, aeq1 }
    c04d:	f9763d461f 	{ ae_lq32f.i	aeq2, a6, 4; ae_addq56	aeq1, aeq2, aeq1 }
    c052:	ff5c4fc66e 	{ addi	a6, a6, -4; ae_roundsq32sym	aeq3, aeq3 }
    c057:	fb32f9f51f 	{ ae_sq32f.iu	aeq3, a5, 4; ae_subq56	aeq3, aeq2, aeq0 }
    c05c:	f8720100ff 	{ movi	a15, 0x100; ae_addq56	aeq0, aeq2, aeq0 }
    c061:	ff5c40027f 	{ movi	a7, 2; ae_roundsq32sym	aeq3, aeq3 }
    c066:	fd4c79f51f 	{ ae_sq32f.iu	aeq3, a5, 4; ae_roundsq32sym	aeq1, aeq1 }
    c06b:	fc4479d61f 	{ ae_sq32f.iu	aeq1, a6, 4; ae_roundsq32sym	aeq0, aeq0 }
    c070:	624614        	ae_sq32f.iu	aeq0, a6, 4
    c073:	052f37        	blt	a15, a3, c07c <xtensa_fft_pass_32b+0xb4>
    c076:	00a272        	movi	a7, 0x200
    c079:	d27730        	quos	a7, a7, a3

0000c07c <xtensa_fft_pass_32b+0xb4>:
    c07c:	d15081        	l32r	a8, 5bc (f000 <ROOTS_1024_Q16>)
    c07f:	0a0c           	movi.n	a10, 0
    c081:	1197f0        	slli	a9, a7, 1
    c084:	908780        	addx2	a8, a7, a8
    c087:	fcc872        	addi	a7, a8, -4
    c08a:	4587a4        	ae_lp16x2f.xu	aep0, a7, a10
    c08d:	218130        	srai	a8, a3, 1
    c090:	0223e6        	bgei	a3, 2, c096 <xtensa_fft_pass_32b+0xce>
    c093:	002e86        	j	c151 <xtensa_fft_pass_32b+0x189>
    c096:	b78876        	loop	a8, c151 <xtensa_fft_pass_32b+0x189>
    c099:	604414        	ae_lq32f.i	aeq1, a4, 4
    c09c:	608424        	ae_lq32f.i	aeq2, a4, 8
    c09f:	30033d651f 	{ ae_lq32f.i	aeq3, a5, 4; ae_mulzaaq32sp16u.lh	aeq0, aeq1, aep0, aeq2, aep0 }
    c0a4:	6300bd252f 	{ ae_lq32f.i	aeq1, a5, 8; ae_mulzasq32sp16u.lh	aeq2, aeq2, aep0, aeq1, aep0 }
    c0a9:	630114        	ae_sq56s.i	aeq0, a1, 8
    c0ac:	6301ba214f 	{ ae_sq56s.i	aeq2, a1, 32; ae_mulzasq32sp16u.lh	aeq2, aeq3, aep0, aeq1, aep0 }
    c0b1:	3103fd811f 	{ ae_lq56.i	aeq0, a1, 8; ae_mulzaaq32sp16u.lh	aeq3, aeq1, aep0, aeq3, aep0 }
    c0b6:	f8e23d221f 	{ ae_lq32f.i	aeq1, a2, 4; ae_addq56	aeq0, aeq0, aeq2 }
    c0bb:	fa2afa213f 	{ ae_sq56s.i	aeq2, a1, 24; ae_subq56	aeq2, aeq1, aeq0 }
    c0c0:	f86a3a212f 	{ ae_sq56s.i	aeq2, a1, 16; ae_addq56	aeq0, aeq1, aeq0 }
    c0c5:	618144        	ae_lq56.i	aeq2, a1, 32
    c0c8:	f8f63a016f 	{ ae_sq56s.i	aeq0, a1, 48; ae_addq56	aeq0, aeq2, aeq3 }
    c0cd:	633174        	ae_sq56s.i	aeq3, a1, 56
    c0d0:	61c124        	ae_lq56.i	aeq3, a1, 16
    c0d3:	ff5c7d222f 	{ ae_lq32f.i	aeq1, a2, 8; ae_roundsq32sym	aeq3, aeq3 }
    c0d8:	fb2afa312f 	{ ae_sq56s.i	aeq3, a1, 16; ae_subq56	aeq3, aeq1, aeq0 }
    c0dd:	f86a3a315f 	{ ae_sq56s.i	aeq3, a1, 40; ae_addq56	aeq0, aeq1, aeq0 }
    c0e2:	fc447de12f 	{ ae_lq56.i	aeq3, a1, 16; ae_roundsq32sym	aeq0, aeq0 }
    c0e7:	627414        	ae_sq32f.iu	aeq3, a4, 4
    c0ea:	61c154        	ae_lq56.i	aeq3, a1, 40
    c0ed:	ff5c5b879f 	{ ae_lp16x2f.xu	aep0, a7, a9; ae_roundsq32sym	aeq3, aeq3 }
    c0f2:	627414        	ae_sq32f.iu	aeq3, a4, 4
    c0f5:	61c164        	ae_lq56.i	aeq3, a1, 48
    c0f8:	fd5c7de11f 	{ ae_lq56.i	aeq3, a1, 8; ae_roundsq32sym	aeq1, aeq3 }
    c0fd:	625214        	ae_sq32f.iu	aeq1, a2, 4
    c100:	624214        	ae_sq32f.iu	aeq0, a2, 4
    c103:	614174        	ae_lq56.i	aeq1, a1, 56
    c106:	f836fd261f 	{ ae_lq32f.i	aeq1, a6, 4; ae_subq56	aeq0, aeq2, aeq1 }
    c10b:	0198c4        	ae_addq56	aeq2, aeq1, aeq0
    c10e:	f82afa212f 	{ ae_sq56s.i	aeq2, a1, 16; ae_subq56	aeq0, aeq1, aeq0 }
    c113:	fc447dc13f 	{ ae_lq56.i	aeq2, a1, 24; ae_roundsq32sym	aeq0, aeq0 }
    c118:	fbb6fdc12f 	{ ae_lq56.i	aeq2, a1, 16; ae_subq56	aeq3, aeq2, aeq3 }
    c11d:	fe547a314f 	{ ae_sq56s.i	aeq3, a1, 32; ae_roundsq32sym	aeq2, aeq2 }
    c122:	632114        	ae_sq56s.i	aeq2, a1, 8
    c125:	608624        	ae_lq32f.i	aeq2, a6, 8
    c128:	01ebc4        	ae_addq56	aeq3, aeq2, aeq3
    c12b:	633134        	ae_sq56s.i	aeq3, a1, 24
    c12e:	61c114        	ae_lq56.i	aeq3, a1, 8
    c131:	627614        	ae_sq32f.iu	aeq3, a6, 4
    c134:	61c134        	ae_lq56.i	aeq3, a1, 24
    c137:	06f834        	ae_roundsq32sym	aeq3, aeq3
    c13a:	633114        	ae_sq56s.i	aeq3, a1, 8
    c13d:	61c114        	ae_lq56.i	aeq3, a1, 8
    c140:	627614        	ae_sq32f.iu	aeq3, a6, 4
    c143:	61c144        	ae_lq56.i	aeq3, a1, 32
    c146:	f9b6f9c51f 	{ ae_sq32f.iu	aeq0, a5, 4; ae_subq56	aeq1, aeq2, aeq3 }
    c14b:	06d834        	ae_roundsq32sym	aeq3, aeq1
    c14e:	627514        	ae_sq32f.iu	aeq3, a5, 4

0000c151 <xtensa_fft_pass_32b+0x189>:
    c151:	0243e6        	bgei	a3, 4, c157 <xtensa_fft_pass_32b+0x18f>
    c154:	003146        	j	c21d <xtensa_fft_pass_32b+0x255>
    c157:	603090        	neg	a3, a9
    c15a:	1193f0        	slli	a9, a3, 1
    c15d:	880b           	addi.n	a8, a8, -1
    c15f:	458794        	ae_lp16x2f.xu	aep0, a7, a9
    c162:	b78876        	loop	a8, c21d <xtensa_fft_pass_32b+0x255>
    c165:	604424        	ae_lq32f.i	aeq1, a4, 8
    c168:	608414        	ae_lq32f.i	aeq2, a4, 4
    c16b:	30033d652f 	{ ae_lq32f.i	aeq3, a5, 8; ae_mulzaaq32sp16u.lh	aeq0, aeq1, aep0, aeq2, aep0 }
    c170:	9300bd251f 	{ ae_lq32f.i	aeq1, a5, 4; ae_mulzsaq32sp16u.lh	aeq2, aeq2, aep0, aeq1, aep0 }
    c175:	630114        	ae_sq56s.i	aeq0, a1, 8
    c178:	9301ba214f 	{ ae_sq56s.i	aeq2, a1, 32; ae_mulzsaq32sp16u.lh	aeq2, aeq3, aep0, aeq1, aep0 }
    c17d:	3103fd811f 	{ ae_lq56.i	aeq0, a1, 8; ae_mulzaaq32sp16u.lh	aeq3, aeq1, aep0, aeq3, aep0 }
    c182:	f8e23d221f 	{ ae_lq32f.i	aeq1, a2, 4; ae_addq56	aeq0, aeq0, aeq2 }
    c187:	fa2afa213f 	{ ae_sq56s.i	aeq2, a1, 24; ae_subq56	aeq2, aeq1, aeq0 }
    c18c:	f86a3a212f 	{ ae_sq56s.i	aeq2, a1, 16; ae_addq56	aeq0, aeq1, aeq0 }
    c191:	618144        	ae_lq56.i	aeq2, a1, 32
    c194:	f8f63a016f 	{ ae_sq56s.i	aeq0, a1, 48; ae_addq56	aeq0, aeq2, aeq3 }
    c199:	633174        	ae_sq56s.i	aeq3, a1, 56
    c19c:	61c124        	ae_lq56.i	aeq3, a1, 16
    c19f:	ff5c7d222f 	{ ae_lq32f.i	aeq1, a2, 8; ae_roundsq32sym	aeq3, aeq3 }
    c1a4:	fb2afa312f 	{ ae_sq56s.i	aeq3, a1, 16; ae_subq56	aeq3, aeq1, aeq0 }
    c1a9:	f86a3a315f 	{ ae_sq56s.i	aeq3, a1, 40; ae_addq56	aeq0, aeq1, aeq0 }
    c1ae:	fc447de12f 	{ ae_lq56.i	aeq3, a1, 16; ae_roundsq32sym	aeq0, aeq0 }
    c1b3:	627414        	ae_sq32f.iu	aeq3, a4, 4
    c1b6:	61c154        	ae_lq56.i	aeq3, a1, 40
    c1b9:	ff5c5b873f 	{ ae_lp16x2f.xu	aep0, a7, a3; ae_roundsq32sym	aeq3, aeq3 }
    c1be:	627414        	ae_sq32f.iu	aeq3, a4, 4
    c1c1:	61c164        	ae_lq56.i	aeq3, a1, 48
    c1c4:	fd5c7de11f 	{ ae_lq56.i	aeq3, a1, 8; ae_roundsq32sym	aeq1, aeq3 }
    c1c9:	625214        	ae_sq32f.iu	aeq1, a2, 4
    c1cc:	624214        	ae_sq32f.iu	aeq0, a2, 4
    c1cf:	614174        	ae_lq56.i	aeq1, a1, 56
    c1d2:	f836fd261f 	{ ae_lq32f.i	aeq1, a6, 4; ae_subq56	aeq0, aeq2, aeq1 }
    c1d7:	0198c4        	ae_addq56	aeq2, aeq1, aeq0
    c1da:	f82afa212f 	{ ae_sq56s.i	aeq2, a1, 16; ae_subq56	aeq0, aeq1, aeq0 }
    c1df:	fc447dc13f 	{ ae_lq56.i	aeq2, a1, 24; ae_roundsq32sym	aeq0, aeq0 }
    c1e4:	fbb6fdc12f 	{ ae_lq56.i	aeq2, a1, 16; ae_subq56	aeq3, aeq2, aeq3 }
    c1e9:	fe547a314f 	{ ae_sq56s.i	aeq3, a1, 32; ae_roundsq32sym	aeq2, aeq2 }
    c1ee:	632114        	ae_sq56s.i	aeq2, a1, 8
    c1f1:	608624        	ae_lq32f.i	aeq2, a6, 8
    c1f4:	01ebc4        	ae_addq56	aeq3, aeq2, aeq3
    c1f7:	633134        	ae_sq56s.i	aeq3, a1, 24
    c1fa:	61c114        	ae_lq56.i	aeq3, a1, 8
    c1fd:	627614        	ae_sq32f.iu	aeq3, a6, 4
    c200:	61c134        	ae_lq56.i	aeq3, a1, 24
    c203:	06f834        	ae_roundsq32sym	aeq3, aeq3
    c206:	633114        	ae_sq56s.i	aeq3, a1, 8
    c209:	61c114        	ae_lq56.i	aeq3, a1, 8
    c20c:	627614        	ae_sq32f.iu	aeq3, a6, 4
    c20f:	61c144        	ae_lq56.i	aeq3, a1, 32
    c212:	f9b6f9c51f 	{ ae_sq32f.iu	aeq0, a5, 4; ae_subq56	aeq1, aeq2, aeq3 }
    c217:	06d834        	ae_roundsq32sym	aeq3, aeq1
    c21a:	627514        	ae_sq32f.iu	aeq3, a5, 4
    c21d:	f01d           	retw.n

0000c21f <xtensa_fft_pass_32b+0x257>:
	...

0000c220 <real_split>:
    c220:	00a136        	entry	a1, 80
    c223:	216120        	srai	a6, a2, 1
    c226:	050c           	movi.n	a5, 0
    c228:	c0c260        	sub	a12, a2, a6
    c22b:	1388           	l32i.n	a8, a3, 4
    c22d:	0378           	l32i.n	a7, a3, 0
    c22f:	1459           	s32i.n	a5, a4, 4
    c231:	b05c30        	addx8	a5, a12, a3
    c234:	15e8           	l32i.n	a14, a5, 4
    c236:	787a           	add.n	a7, a8, a7
    c238:	0479           	s32i.n	a7, a4, 0
    c23a:	117ef0        	slli	a7, a14, 1
    c23d:	607070        	neg	a7, a7
    c240:	b0d640        	addx8	a13, a6, a4
    c243:	0558           	l32i.n	a5, a5, 0
    c245:	217170        	srai	a7, a7, 1
    c248:	00a1f2        	movi	a15, 0x100
    c24b:	1d79           	s32i.n	a7, a13, 4
    c24d:	270c           	movi.n	a7, 2
    c24f:	b169           	s32i.n	a6, a1, 44
    c251:	0d59           	s32i.n	a5, a13, 0
    c253:	052f27        	blt	a15, a2, c25c <real_split+0x3c>
    c256:	00a252        	movi	a5, 0x200
    c259:	d27520        	quos	a7, a5, a2

0000c25c <real_split+0x3c>:
    c25c:	01a182        	movi	a8, 0x101
    c25f:	728280        	salt	a8, a2, a8
    c262:	401800        	ssl	a8
    c265:	a17700        	sll	a7, a7
    c268:	fec782        	addi	a8, a7, -2
    c26b:	d0d451        	l32r	a5, 5bc (f000 <ROOTS_1024_Q16>)
    c26e:	11c8f0        	slli	a12, a8, 1
    c271:	41c2c0        	srli	a12, a12, 2
    c274:	1a0c           	movi.n	a10, 1
    c276:	ffa092        	movi	a9, 255
    c279:	a0cc50        	addx4	a12, a12, a5
    c27c:	11aa10        	slli	a10, a10, 15
    c27f:	729970        	salt	a9, a9, a7
    c282:	60b070        	neg	a11, a7
    c285:	441c04        	ae_lp16x2f.i	aep1, a12, 0
    c288:	02f7e6        	bgei	a7, 0x100, c28e <real_split+0x6e>
    c28b:	1a9194        	ae_selp24.lh	aep1, aep1, aep1
    c28e:	300aa4        	ae_cvtp24a16x2.ll	aep0, a10, a10
    c291:	937b90        	movnez	a7, a11, a9
    c294:	0242e6        	bgei	a2, 4, c29a <real_split+0x7a>
    c297:	0024c6        	j	c32e <real_split+0x10e>
    c29a:	b168           	l32i.n	a6, a1, 44
    c29c:	b0b230        	addx8	a11, a2, a3
    c29f:	14c3e2        	addi	a14, a3, 20
    c2a2:	ffc6f2        	addi	a15, a6, -1
    c2a5:	fccbd2        	addi	a13, a11, -4
    c2a8:	08c4c2        	addi	a12, a4, 8
    c2ab:	60c334        	ae_lq32f.i	aeq3, a3, 12
    c2ae:	604324        	ae_lq32f.i	aeq1, a3, 8
    c2b1:	902780fdaf 	{ movi	a10, 253; ae_mulzsaq32sp16u.lh	aeq0, aeq1, aep1, aeq3, aep1 }
    c2b6:	f8ceb2        	addi	a11, a14, -8
    c2b9:	718f76        	loop	a15, c32e <real_split+0x10e>
    c2bc:	608df4        	ae_lq32f.i	aeq2, a13, -4
    c2bf:	887a           	add.n	a8, a8, a7
    c2c1:	c225ba014f 	{ ae_sq56s.i	aeq0, a1, 32; ae_mulzssq32sp16u.lh	aeq0, aeq3, aep1, aeq1, aep1 }
    c2c6:	c30864        	ae_mulzaafq32sp16u.lh	aeq1, aeq1, aep0, aeq2, aep0
    c2c9:	630114        	ae_sq56s.i	aeq0, a1, 8
    c2cc:	600d04        	ae_lq32f.i	aeq0, a13, 0
    c2cf:	32247a113f 	{ ae_sq56s.i	aeq1, a1, 24; ae_mulzaaq32sp16u.lh	aeq1, aeq2, aep1, aeq0, aep1 }
    c2d4:	4b014fcdde 	{ addi	a13, a13, -4; ae_mulzasfq32sp16u.lh	aeq3, aeq3, aep0, aeq0, aep0 }
    c2d9:	90263dc11f 	{ ae_lq56.i	aeq2, a1, 8; ae_mulzsaq32sp16u.lh	aeq0, aeq0, aep1, aeq2, aep1 }
    c2de:	fafa3a112f 	{ ae_sq56s.i	aeq1, a1, 16; ae_addq56	aeq2, aeq3, aeq2 }
    c2e3:	f8723de14f 	{ ae_lq56.i	aeq3, a1, 32; ae_addq56	aeq0, aeq2, aeq0 }
    c2e8:	614134        	ae_lq56.i	aeq1, a1, 24
    c2eb:	fbee3da12f 	{ ae_lq56.i	aeq1, a1, 16; ae_addq56	aeq3, aeq1, aeq3 }
    c2f0:	f97e3b001f 	{ ae_sraiq56	aeq0, aeq0, 1; ae_addq56	aeq1, aeq3, aeq1 }
    c2f5:	1168f0        	slli	a6, a8, 1
    c2f8:	fc447b105f 	{ ae_sraiq56	aeq1, aeq1, 1; ae_roundsq32sym	aeq0, aeq0 }
    c2fd:	416260        	srli	a6, a6, 2
    c300:	72fa80        	salt	a15, a10, a8
    c303:	fd4c798c1f 	{ ae_sq32f.i	aeq0, a12, 4; ae_roundsq32sym	aeq1, aeq1 }
    c308:	a06650        	addx4	a6, a6, a5
    c30b:	3099f0        	xor	a9, a9, a15
    c30e:	621c04        	ae_sq32f.i	aeq1, a12, 0
    c311:	cc4b           	addi.n	a12, a12, 4
    c313:	60e070        	neg	a14, a7
    c316:	441604        	ae_lp16x2f.i	aep1, a6, 0
    c319:	19cc           	bnez.n	a9, c31e <real_split+0xfe>
    c31b:	1a9194        	ae_selp24.lh	aep1, aep1, aep1
    c31e:	604b14        	ae_lq32f.i	aeq1, a11, 4
    c321:	937ef0        	movnez	a7, a14, a15
    c324:	60db24        	ae_lq32f.iu	aeq3, a11, 8
    c327:	90278fcdde 	{ addi	a13, a13, -4; ae_mulzsaq32sp16u.lh	aeq0, aeq1, aep1, aeq3, aep1 }
    c32c:	cc4b           	addi.n	a12, a12, 4

0000c32e <real_split+0x10e>:
    c32e:	b168           	l32i.n	a6, a1, 44
    c330:	ef7c           	movi.n	a15, -2
    c332:	c08f70        	sub	a8, a15, a7
    c335:	b61b           	addi.n	a11, a6, 1
    c337:	1168f0        	slli	a6, a8, 1
    c33a:	fda0a2        	movi	a10, 253
    c33d:	416260        	srli	a6, a6, 2
    c340:	72ca80        	salt	a12, a10, a8
    c343:	a06650        	addx4	a6, a6, a5
    c346:	3099c0        	xor	a9, a9, a12
    c349:	441604        	ae_lp16x2f.i	aep1, a6, 0
    c34c:	498c           	beqz.n	a9, c354 <real_split+0x134>
    c34e:	0b2b27        	blt	a11, a2, c35d <real_split+0x13d>
    c351:	002b86        	j	c403 <real_split+0x1e3>

0000c354 <real_split+0x134>:
    c354:	1a9194        	ae_selp24.lh	aep1, aep1, aep1
    c357:	022b27        	blt	a11, a2, c35d <real_split+0x13d>
    c35a:	002946        	j	c403 <real_split+0x1e3>
    c35d:	b1f8           	l32i.n	a15, a1, 44
    c35f:	60a070        	neg	a10, a7
    c362:	93a7c0        	movnez	a10, a7, a12
    c365:	f77c           	movi.n	a7, -1
    c367:	b0ef30        	addx8	a14, a15, a3
    c36a:	307f70        	xor	a7, a15, a7
    c36d:	c062b0        	sub	a6, a2, a11
    c370:	b0db30        	addx8	a13, a11, a3
    c373:	b0c630        	addx8	a12, a6, a3
    c376:	14cee2        	addi	a14, a14, 20
    c379:	772a           	add.n	a7, a7, a2
    c37b:	b0bb40        	addx8	a11, a11, a4
    c37e:	fda042        	movi	a4, 253
    c381:	60cd14        	ae_lq32f.i	aeq3, a13, 4
    c384:	604d04        	ae_lq32f.i	aeq1, a13, 0
    c387:	3c4b           	addi.n	a3, a12, 4
    c389:	c0278f8e2e 	{ addi	a2, a14, -8; ae_mulzssq32sp16u.lh	aeq0, aeq1, aep1, aeq3, aep1 }
    c38e:	718776        	loop	a7, c403 <real_split+0x1e3>
    c391:	6083f4        	ae_lq32f.i	aeq2, a3, -4
    c394:	88aa           	add.n	a8, a8, a10
    c396:	9225ba014f 	{ ae_sq56s.i	aeq0, a1, 32; ae_mulzsaq32sp16u.lh	aeq0, aeq3, aep1, aeq1, aep1 }
    c39b:	1803404b6e 	{ addi	a6, a11, 4; ae_mulzaafq32sp16u.lh	aeq1, aeq1, aep0, aeq2, aep0 }
    c3a0:	630114        	ae_sq56s.i	aeq0, a1, 8
    c3a3:	600304        	ae_lq32f.i	aeq0, a3, 0
    c3a6:	62247a113f 	{ ae_sq56s.i	aeq1, a1, 24; ae_mulzasq32sp16u.lh	aeq1, aeq2, aep1, aeq0, aep1 }
    c3ab:	4b014fc33e 	{ addi	a3, a3, -4; ae_mulzasfq32sp16u.lh	aeq3, aeq3, aep0, aeq0, aep0 }
    c3b0:	c0263dc11f 	{ ae_lq56.i	aeq2, a1, 8; ae_mulzssq32sp16u.lh	aeq0, aeq0, aep1, aeq2, aep1 }
    c3b5:	fafa3a112f 	{ ae_sq56s.i	aeq1, a1, 16; ae_addq56	aeq2, aeq3, aeq2 }
    c3ba:	f8723de14f 	{ ae_lq56.i	aeq3, a1, 32; ae_addq56	aeq0, aeq2, aeq0 }
    c3bf:	614134        	ae_lq56.i	aeq1, a1, 24
    c3c2:	fbee3da12f 	{ ae_lq56.i	aeq1, a1, 16; ae_addq56	aeq3, aeq1, aeq3 }
    c3c7:	f97e3b001f 	{ ae_sraiq56	aeq0, aeq0, 1; ae_addq56	aeq1, aeq3, aeq1 }
    c3cc:	fc447b105f 	{ ae_sraiq56	aeq1, aeq1, 1; ae_roundsq32sym	aeq0, aeq0 }
    c3d1:	11c8f0        	slli	a12, a8, 1
    c3d4:	fd4c798b1f 	{ ae_sq32f.i	aeq0, a11, 4; ae_roundsq32sym	aeq1, aeq1 }
    c3d9:	41c2c0        	srli	a12, a12, 2
    c3dc:	621b04        	ae_sq32f.i	aeq1, a11, 0
    c3df:	72b480        	salt	a11, a4, a8
    c3e2:	a0cc50        	addx4	a12, a12, a5
    c3e5:	3099b0        	xor	a9, a9, a11
    c3e8:	6070a0        	neg	a7, a10
    c3eb:	441c04        	ae_lp16x2f.i	aep1, a12, 0
    c3ee:	19cc           	bnez.n	a9, c3f3 <real_split+0x1d3>
    c3f0:	1a9194        	ae_selp24.lh	aep1, aep1, aep1
    c3f3:	93a7b0        	movnez	a10, a7, a11
    c3f6:	604214        	ae_lq32f.i	aeq1, a2, 4
    c3f9:	60d224        	ae_lq32f.iu	aeq3, a2, 8
    c3fc:	c0278fc33e 	{ addi	a3, a3, -4; ae_mulzssq32sp16u.lh	aeq0, aeq1, aep1, aeq3, aep1 }
    c401:	b64b           	addi.n	a11, a6, 4

0000c403 <real_split+0x1e3>:
    c403:	f01d           	retw.n

0000c405 <real_split+0x1e5>:
    c405:	000000                                        ...

0000c408 <sw_fft_32b_2811>:
    c408:	006136        	entry	a1, 48
    c40b:	0f1666        	bnei	a6, 1, c41e <sw_fft_32b_2811+0x16>
    c40e:	80c372        	addi	a7, a3, -128
    c411:	118770        	slli	a8, a7, 9
    c414:	417770        	srli	a7, a7, 7
    c417:	0a8780        	depbits	a8, a7, 0, 9
    c41a:	000386        	j	c42c <sw_fft_32b_2811+0x24>

0000c41d <sw_fft_32b_2811+0x15>:
	...

0000c41e <sw_fft_32b_2811+0x16>:
    c41e:	06ec           	bnez.n	a6, c442 <sw_fft_32b_2811+0x3a>
    c420:	c0c372        	addi	a7, a3, -64
    c423:	118760        	slli	a8, a7, 10
    c426:	417670        	srli	a7, a7, 6
    c429:	0a9780        	depbits	a8, a7, 0, 10
    c42c:	176c           	movi.n	a7, -31
    c42e:	988d           	ae_zext16	a8, a8
    c430:	f47070        	extui	a7, a7, 0, 16
    c433:	0288b6        	bltui	a8, 8, c439 <sw_fft_32b_2811+0x31>
    c436:	005d06        	j	c5ae <sw_fft_32b_2811+0x1a6>
    c439:	8ba092        	movi	a9, 139
    c43c:	02d987        	bbs	a9, a8, c442 <sw_fft_32b_2811+0x3a>
    c43f:	005ac6        	j	c5ae <sw_fft_32b_2811+0x1a6>
    c442:	1173f0        	slli	a7, a3, 1
    c445:	877d           	ae_sext16	a7, a7
    c447:	1217a6        	blti	a7, 1, c45d <sw_fft_32b_2811+0x55>
    c44a:	979d           	ae_zext16	a9, a7
    c44c:	600204        	ae_lq32f.i	aeq0, a2, 0
    c44f:	028d           	mov.n	a8, a2
    c451:	088976        	loop	a9, c45d <sw_fft_32b_2811+0x55>
    c454:	3404b4        	ae_sraaq56	aeq0, aeq0, a4
    c457:	620804        	ae_sq32f.i	aeq0, a8, 0
    c45a:	601814        	ae_lq32f.iu	aeq0, a8, 4

0000c45d <sw_fft_32b_2811+0x55>:
    c45d:	451666        	bnei	a6, 1, c4a6 <sw_fft_32b_2811+0x9e>
    c460:	060c           	movi.n	a6, 0
    c462:	5bf3a6        	blti	a3, 0x100, c4c1 <sw_fft_32b_2811+0xb9>
    c465:	7df326        	beqi	a3, 0x100, c4e6 <sw_fft_32b_2811+0xde>
    c468:	00a282        	movi	a8, 0x200
    c46b:	029387        	bne	a3, a8, c471 <sw_fft_32b_2811+0x69>
    c46e:	002086        	j	c4f4 <sw_fft_32b_2811+0xec>
    c471:	00a492        	movi	a9, 0x400
    c474:	078d           	mov.n	a8, a7
    c476:	021397        	beq	a3, a9, c47c <sw_fft_32b_2811+0x74>
    c479:	003906        	j	c561 <sw_fft_32b_2811+0x159>
    c47c:	d05231        	l32r	a3, 5c4 (c62c <xtensa_fft512_32b>)
    c47f:	02ad           	mov.n	a10, a2
    c481:	0003e0        	callx8	a3
    c484:	d05131        	l32r	a3, 5c8 (c604 <xtensa_fft256_32b>)
    c487:	10d2a2        	addmi	a10, a2, 0x1000
    c48a:	0003e0        	callx8	a3
    c48d:	18d2a2        	addmi	a10, a2, 0x1800
    c490:	0003e0        	callx8	a3
    c493:	d04e31        	l32r	a3, 5cc (bfc8 <xtensa_fft_pass_32b>)
    c496:	00a1b2        	movi	a11, 0x100
    c499:	02ad           	mov.n	a10, a2
    c49b:	0003e0        	callx8	a3
    c49e:	180c           	movi.n	a8, 1
    c4a0:	118850        	slli	a8, a8, 11
    c4a3:	002e86        	j	c561 <sw_fft_32b_2811+0x159>

0000c4a6 <sw_fft_32b_2811+0x9e>:
    c4a6:	1163d0        	slli	a6, a3, 3
    c4a9:	c06260        	sub	a6, a2, a6
    c4ac:	2ae3a6        	blti	a3, 128, c4da <sw_fft_32b_2811+0xd2>
    c4af:	4fe326        	beqi	a3, 128, c502 <sw_fft_32b_2811+0xfa>
    c4b2:	52f326        	beqi	a3, 0x100, c508 <sw_fft_32b_2811+0x100>
    c4b5:	00a282        	movi	a8, 0x200
    c4b8:	679387        	bne	a3, a8, c523 <sw_fft_32b_2811+0x11b>
    c4bb:	d04281        	l32r	a8, 5c4 (c62c <xtensa_fft512_32b>)
    c4be:	001706        	j	c51e <sw_fft_32b_2811+0x116>

0000c4c1 <sw_fft_32b_2811+0xb9>:
    c4c1:	49b326        	beqi	a3, 16, c50e <sw_fft_32b_2811+0x106>
    c4c4:	078d           	mov.n	a8, a7
    c4c6:	02e326        	beqi	a3, 128, c4cc <sw_fft_32b_2811+0xc4>
    c4c9:	002506        	j	c561 <sw_fft_32b_2811+0x159>
    c4cc:	d03d31        	l32r	a3, 5c0 (c5dc <xtensa_fft128_32b>)
    c4cf:	02ad           	mov.n	a10, a2
    c4d1:	0003e0        	callx8	a3
    c4d4:	00a182        	movi	a8, 0x100
    c4d7:	002186        	j	c561 <sw_fft_32b_2811+0x159>

0000c4da <sw_fft_32b_2811+0xd2>:
    c4da:	3d8326        	beqi	a3, 8, c51b <sw_fft_32b_2811+0x113>
    c4dd:	42d366        	bnei	a3, 64, c523 <sw_fft_32b_2811+0x11b>
    c4e0:	d03d81        	l32r	a8, 5d4 (c994 <xtensa_fft64_32b>)
    c4e3:	000dc6        	j	c51e <sw_fft_32b_2811+0x116>

0000c4e6 <sw_fft_32b_2811+0xde>:
    c4e6:	d03831        	l32r	a3, 5c8 (c604 <xtensa_fft256_32b>)
    c4e9:	02ad           	mov.n	a10, a2
    c4eb:	0003e0        	callx8	a3
    c4ee:	00a282        	movi	a8, 0x200
    c4f1:	001b06        	j	c561 <sw_fft_32b_2811+0x159>

0000c4f4 <sw_fft_32b_2811+0xec>:
    c4f4:	d03431        	l32r	a3, 5c4 (c62c <xtensa_fft512_32b>)
    c4f7:	02ad           	mov.n	a10, a2
    c4f9:	0003e0        	callx8	a3
    c4fc:	00a482        	movi	a8, 0x400
    c4ff:	001786        	j	c561 <sw_fft_32b_2811+0x159>

0000c502 <sw_fft_32b_2811+0xfa>:
    c502:	d02f81        	l32r	a8, 5c0 (c5dc <xtensa_fft128_32b>)
    c505:	000546        	j	c51e <sw_fft_32b_2811+0x116>

0000c508 <sw_fft_32b_2811+0x100>:
    c508:	d03081        	l32r	a8, 5c8 (c604 <xtensa_fft256_32b>)
    c50b:	0003c6        	j	c51e <sw_fft_32b_2811+0x116>

0000c50e <sw_fft_32b_2811+0x106>:
    c50e:	d03031        	l32r	a3, 5d0 (c5b4 <xtensa_fft16_32b>)
    c511:	02ad           	mov.n	a10, a2
    c513:	0003e0        	callx8	a3
    c516:	082c           	movi.n	a8, 32
    c518:	001146        	j	c561 <sw_fft_32b_2811+0x159>

0000c51b <sw_fft_32b_2811+0x113>:
    c51b:	d02f81        	l32r	a8, 5d8 (c654 <xtensa_fft8_32b>)
    c51e:	02ad           	mov.n	a10, a2
    c520:	0008e0        	callx8	a8
    c523:	d02e81        	l32r	a8, 5dc (c220 <real_split>)
    c526:	03ad           	mov.n	a10, a3
    c528:	02bd           	mov.n	a11, a2
    c52a:	06cd           	mov.n	a12, a6
    c52c:	0008e0        	callx8	a8
    c52f:	0288           	l32i.n	a8, a2, 0
    c531:	1298           	l32i.n	a9, a2, 4
    c533:	0a0c           	movi.n	a10, 0
    c535:	12a9           	s32i.n	a10, a2, 4
    c537:	c08890        	sub	a8, a8, a9
    c53a:	0289           	s32i.n	a8, a2, 0
    c53c:	1c23a6        	blti	a3, 2, c55c <sw_fft_32b_2811+0x154>
    c53f:	b08320        	addx8	a8, a3, a2
    c542:	930b           	addi.n	a9, a3, -1
    c544:	668b           	addi.n	a6, a6, 8
    c546:	f8c882        	addi	a8, a8, -8
    c549:	0f8976        	loop	a9, c55c <sw_fft_32b_2811+0x154>
    c54c:	1698           	l32i.n	a9, a6, 4
    c54e:	06a8           	l32i.n	a10, a6, 0
    c550:	668b           	addi.n	a6, a6, 8
    c552:	609090        	neg	a9, a9
    c555:	08a9           	s32i.n	a10, a8, 0
    c557:	1899           	s32i.n	a9, a8, 4
    c559:	f8c882        	addi	a8, a8, -8

0000c55c <sw_fft_32b_2811+0x154>:
    c55c:	1183e0        	slli	a8, a3, 2
    c55f:	076d           	mov.n	a6, a7

0000c561 <sw_fft_32b_2811+0x159>:
    c561:	fd2493744f 	{ or	a7, a4, a4; ae_zeroq56	aeq1 }
    c566:	441566        	bnei	a5, 1, c5ae <sw_fft_32b_2811+0x1a6>
    c569:	1136e0        	slli	a3, a6, 2
    c56c:	c02230        	sub	a2, a2, a3
    c56f:	883d           	ae_sext16	a3, a8
    c571:	600204        	ae_lq32f.i	aeq0, a2, 0
    c574:	1113a6        	blti	a3, 1, c589 <sw_fft_32b_2811+0x181>
    c577:	986d           	ae_zext16	a6, a8
    c579:	fe0453522f 	{ or	a5, a2, a2; ae_movq56	aeq2, aeq0 }
    c57e:	078676        	loop	a6, c589 <sw_fft_32b_2811+0x181>
    c581:	ff80bd551f 	{ ae_lq32f.iu	aeq2, a5, 4; ae_absq56	aeq3, aeq2 }
    c586:	0179e4        	ae_orq56	aeq1, aeq1, aeq3

0000c589 <sw_fft_32b_2811+0x181>:
    c589:	621134        	ae_sq32f.i	aeq1, a1, 12
    c58c:	3168           	l32i.n	a6, a1, 12
    c58e:	050c           	movi.n	a5, 0
    c590:	989d           	ae_zext16	a9, a8
    c592:	40e670        	nsa	a7, a6
    c595:	b35760        	movgez	a5, a7, a6
    c598:	0f13a6        	blti	a3, 1, c5ab <sw_fft_32b_2811+0x1a3>
    c59b:	853d           	ae_sext16	a3, a5
    c59d:	0a8976        	loop	a9, c5ab <sw_fft_32b_2811+0x1a3>
    c5a0:	fc24fe830f 	{ ae_slaasq56s	aeq0, aeq0, a3; nop }
    c5a5:	620204        	ae_sq32f.i	aeq0, a2, 0
    c5a8:	601214        	ae_lq32f.iu	aeq0, a2, 4
    c5ab:	c07450        	sub	a7, a4, a5

0000c5ae <sw_fft_32b_2811+0x1a6>:
    c5ae:	872d           	ae_sext16	a2, a7
    c5b0:	f01d           	retw.n

0000c5b2 <sw_fft_32b_2811+0x1aa>:
	...

0000c5b4 <xtensa_fft16_32b>:
    c5b4:	004136        	entry	a1, 32
    c5b7:	d00831        	l32r	a3, 5d8 (c654 <xtensa_fft8_32b>)
    c5ba:	02ad           	mov.n	a10, a2
    c5bc:	0003e0        	callx8	a3
    c5bf:	d00831        	l32r	a3, 5e0 (c8f8 <xtensa_fft4_32b>)
    c5c2:	40c2a2        	addi	a10, a2, 64
    c5c5:	0003e0        	callx8	a3
    c5c8:	60c2a2        	addi	a10, a2, 96
    c5cb:	0003e0        	callx8	a3
    c5ce:	cfff31        	l32r	a3, 5cc (bfc8 <xtensa_fft_pass_32b>)
    c5d1:	4b0c           	movi.n	a11, 4
    c5d3:	02ad           	mov.n	a10, a2
    c5d5:	0003e0        	callx8	a3
    c5d8:	f01d           	retw.n

0000c5da <xtensa_fft16_32b+0x26>:
	...

0000c5dc <xtensa_fft128_32b>:
    c5dc:	004136        	entry	a1, 32
    c5df:	cffd31        	l32r	a3, 5d4 (c994 <xtensa_fft64_32b>)
    c5e2:	02ad           	mov.n	a10, a2
    c5e4:	0003e0        	callx8	a3
    c5e7:	cfff31        	l32r	a3, 5e4 (c9bc <xtensa_fft32_32b>)
    c5ea:	02d2a2        	addmi	a10, a2, 0x200
    c5ed:	0003e0        	callx8	a3
    c5f0:	03d2a2        	addmi	a10, a2, 0x300
    c5f3:	0003e0        	callx8	a3
    c5f6:	cff531        	l32r	a3, 5cc (bfc8 <xtensa_fft_pass_32b>)
    c5f9:	0b2c           	movi.n	a11, 32
    c5fb:	02ad           	mov.n	a10, a2
    c5fd:	0003e0        	callx8	a3
    c600:	f01d           	retw.n

0000c602 <xtensa_fft128_32b+0x26>:
	...

0000c604 <xtensa_fft256_32b>:
    c604:	004136        	entry	a1, 32
    c607:	cfee31        	l32r	a3, 5c0 (c5dc <xtensa_fft128_32b>)
    c60a:	02ad           	mov.n	a10, a2
    c60c:	0003e0        	callx8	a3
    c60f:	cff131        	l32r	a3, 5d4 (c994 <xtensa_fft64_32b>)
    c612:	04d2a2        	addmi	a10, a2, 0x400
    c615:	0003e0        	callx8	a3
    c618:	06d2a2        	addmi	a10, a2, 0x600
    c61b:	0003e0        	callx8	a3
    c61e:	cfeb31        	l32r	a3, 5cc (bfc8 <xtensa_fft_pass_32b>)
    c621:	0b4c           	movi.n	a11, 64
    c623:	02ad           	mov.n	a10, a2
    c625:	0003e0        	callx8	a3
    c628:	f01d           	retw.n

0000c62a <xtensa_fft256_32b+0x26>:
	...

0000c62c <xtensa_fft512_32b>:
    c62c:	004136        	entry	a1, 32
    c62f:	cfe631        	l32r	a3, 5c8 (c604 <xtensa_fft256_32b>)
    c632:	02ad           	mov.n	a10, a2
    c634:	0003e0        	callx8	a3
    c637:	cfe231        	l32r	a3, 5c0 (c5dc <xtensa_fft128_32b>)
    c63a:	08d2a2        	addmi	a10, a2, 0x800
    c63d:	0003e0        	callx8	a3
    c640:	0cd2a2        	addmi	a10, a2, 0xc00
    c643:	0003e0        	callx8	a3
    c646:	cfe131        	l32r	a3, 5cc (bfc8 <xtensa_fft_pass_32b>)
    c649:	80a0b2        	movi	a11, 128
    c64c:	02ad           	mov.n	a10, a2
    c64e:	0003e0        	callx8	a3
    c651:	f01d           	retw.n

0000c653 <xtensa_fft512_32b+0x27>:
	...

0000c654 <xtensa_fft8_32b>:
    c654:	022136        	entry	a1, 0x110
    c657:	600254        	ae_lq32f.i	aeq0, a2, 20
    c65a:	604274        	ae_lq32f.i	aeq1, a2, 28
    c65d:	fb663d426f 	{ ae_lq32f.i	aeq2, a2, 24; ae_addq56	aeq3, aeq0, aeq1 }
    c662:	f826fa315f 	{ ae_sq56s.i	aeq3, a1, 40; ae_subq56	aeq0, aeq0, aeq1 }
    c667:	630124        	ae_sq56s.i	aeq0, a1, 16
    c66a:	600244        	ae_lq32f.i	aeq0, a2, 16
    c66d:	f9723d620f 	{ ae_lq32f.i	aeq3, a2, 0; ae_addq56	aeq1, aeq2, aeq0 }
    c672:	f832c7816e 	{ addi	a6, a1, 120; ae_subq56	aeq0, aeq2, aeq0 }
    c677:	630134        	ae_sq56s.i	aeq0, a1, 24
    c67a:	600224        	ae_lq32f.i	aeq0, a2, 8
    c67d:	01b8c4        	ae_addq56	aeq2, aeq3, aeq0
    c680:	fa3afa211f 	{ ae_sq56s.i	aeq2, a1, 8; ae_subq56	aeq2, aeq3, aeq0 }
    c685:	61c114        	ae_lq56.i	aeq3, a1, 8
    c688:	f83efd621f 	{ ae_lq32f.i	aeq3, a2, 4; ae_subq56	aeq0, aeq3, aeq1 }
    c68d:	6306c4        	ae_sq56s.i	aeq0, a6, -32
    c690:	610124        	ae_lq56.i	aeq0, a1, 16
    c693:	fb723a314f 	{ ae_sq56s.i	aeq3, a1, 32; ae_addq56	aeq3, aeq2, aeq0 }
    c698:	fa32fd86cf 	{ ae_lq56.i	aeq0, a6, -32; ae_subq56	aeq2, aeq2, aeq0 }
    c69d:	6316e4        	ae_sq56s.i	aeq1, a6, -16
    c6a0:	620244        	ae_sq32f.i	aeq0, a2, 16
    c6a3:	604234        	ae_lq32f.i	aeq1, a2, 12
    c6a6:	610144        	ae_lq56.i	aeq0, a1, 32
    c6a9:	f8663a364f 	{ ae_sq56s.i	aeq3, a6, 32; ae_addq56	aeq0, aeq0, aeq1 }
    c6ae:	623224        	ae_sq32f.i	aeq3, a2, 8
    c6b1:	61c154        	ae_lq56.i	aeq3, a1, 40
    c6b4:	fba6fa06df 	{ ae_sq56s.i	aeq0, a6, -24; ae_subq56	aeq3, aeq0, aeq3 }
    c6b9:	610144        	ae_lq56.i	aeq0, a1, 32
    c6bc:	f826fa36ff 	{ ae_sq56s.i	aeq3, a6, -8; ae_subq56	aeq0, aeq0, aeq1 }
    c6c1:	623254        	ae_sq32f.i	aeq3, a2, 20
    c6c4:	61c134        	ae_lq56.i	aeq3, a1, 24
    c6c7:	f9e602023e 	{ addi	a3, a2, 32; ae_addq56	aeq1, aeq0, aeq3 }
    c6cc:	f8a6fa163f 	{ ae_sq56s.i	aeq1, a6, 24; ae_subq56	aeq0, aeq0, aeq3 }
    c6d1:	621234        	ae_sq32f.i	aeq1, a2, 12
    c6d4:	604304        	ae_lq32f.i	aeq1, a3, 0
    c6d7:	6316b4        	ae_sq56s.i	aeq1, a6, -40
    c6da:	632664        	ae_sq56s.i	aeq2, a6, 48
    c6dd:	622264        	ae_sq32f.i	aeq2, a2, 24
    c6e0:	608314        	ae_lq32f.i	aeq2, a3, 4
    c6e3:	630654        	ae_sq56s.i	aeq0, a6, 40
    c6e6:	620274        	ae_sq32f.i	aeq0, a2, 28
    c6e9:	600374        	ae_lq32f.i	aeq0, a3, 28
    c6ec:	01d142        	addmi	a4, a1, 0x100
    c6ef:	632134        	ae_sq56s.i	aeq2, a1, 24
    c6f2:	608324        	ae_lq32f.i	aeq2, a3, 8
    c6f5:	60c334        	ae_lq32f.i	aeq3, a3, 12
    c6f8:	604354        	ae_lq32f.i	aeq1, a3, 20
    c6fb:	630164        	ae_sq56s.i	aeq0, a1, 48
    c6fe:	6106b4        	ae_lq56.i	aeq0, a6, -40
    c701:	f8e23a312f 	{ ae_sq56s.i	aeq3, a1, 16; ae_addq56	aeq0, aeq0, aeq2 }
    c706:	60c344        	ae_lq32f.i	aeq3, a3, 16
    c709:	631144        	ae_sq56s.i	aeq1, a1, 32
    c70c:	604364        	ae_lq32f.i	aeq1, a3, 24
    c70f:	b0c442        	addi	a4, a4, -80
    c712:	01d152        	addmi	a5, a1, 0x100
    c715:	fb7e3a361f 	{ ae_sq56s.i	aeq3, a6, 8; ae_addq56	aeq3, aeq3, aeq1 }
    c71a:	632604        	ae_sq56s.i	aeq2, a6, 0
    c71d:	631624        	ae_sq56s.i	aeq1, a6, 16
    c720:	620404        	ae_sq32f.i	aeq0, a4, 0
    c723:	608404        	ae_lq32f.i	aeq2, a4, 0
    c726:	b4c552        	addi	a5, a5, -76
    c729:	6326a4        	ae_sq56s.i	aeq2, a6, -48
    c72c:	623504        	ae_sq32f.i	aeq3, a5, 0
    c72f:	01d1a2        	addmi	a10, a1, 0x100
    c732:	610134        	ae_lq56.i	aeq0, a1, 24
    c735:	61c124        	ae_lq56.i	aeq3, a1, 16
    c738:	f8e63d450f 	{ ae_lq32f.i	aeq2, a5, 0; ae_addq56	aeq0, aeq0, aeq3 }
    c73d:	b8ca42        	addi	a4, a10, -72
    c740:	632694        	ae_sq56s.i	aeq2, a6, -56
    c743:	620404        	ae_sq32f.i	aeq0, a4, 0
    c746:	01d1b2        	addmi	a11, a1, 0x100
    c749:	610144        	ae_lq56.i	aeq0, a1, 32
    c74c:	61c164        	ae_lq56.i	aeq3, a1, 48
    c74f:	f8e63d440f 	{ ae_lq32f.i	aeq2, a4, 0; ae_addq56	aeq0, aeq0, aeq3 }
    c754:	bccb52        	addi	a5, a11, -68
    c757:	632174        	ae_sq56s.i	aeq2, a1, 56
    c75a:	620504        	ae_sq32f.i	aeq0, a5, 0
    c75d:	01d1c2        	addmi	a12, a1, 0x100
    c760:	610114        	ae_lq56.i	aeq0, a1, 8
    c763:	61c6e4        	ae_lq56.i	aeq3, a6, -16
    c766:	f9e63d450f 	{ ae_lq32f.i	aeq2, a5, 0; ae_addq56	aeq1, aeq0, aeq3 }
    c76b:	c0cc42        	addi	a4, a12, -64
    c76e:	632114        	ae_sq56s.i	aeq2, a1, 8
    c771:	621404        	ae_sq32f.i	aeq1, a4, 0
    c774:	01d1d2        	addmi	a13, a1, 0x100
    c777:	61c154        	ae_lq56.i	aeq3, a1, 40
    c77a:	6146d4        	ae_lq56.i	aeq1, a6, -24
    c77d:	f9ee0c4d5e 	{ addi	a5, a13, -60; ae_addq56	aeq1, aeq1, aeq3 }
    c782:	60c404        	ae_lq32f.i	aeq3, a4, 0
    c785:	621504        	ae_sq32f.i	aeq1, a5, 0
    c788:	6186a4        	ae_lq56.i	aeq2, a6, -48
    c78b:	614694        	ae_lq56.i	aeq1, a6, -56
    c78e:	f9763d450f 	{ ae_lq32f.i	aeq2, a5, 0; ae_addq56	aeq1, aeq2, aeq1 }
    c793:	f83ec082bf 	{ movi	a11, 130; ae_subq56	aeq0, aeq3, aeq1 }
    c798:	f97e3a015f 	{ ae_sq56s.i	aeq0, a1, 40; ae_addq56	aeq1, aeq3, aeq1 }
    c79d:	610154        	ae_lq56.i	aeq0, a1, 40
    c7a0:	620304        	ae_sq32f.i	aeq0, a3, 0
    c7a3:	61c114        	ae_lq56.i	aeq3, a1, 8
    c7a6:	610174        	ae_lq56.i	aeq0, a1, 56
    c7a9:	fbe639920f 	{ ae_sq32f.i	aeq1, a2, 0; ae_addq56	aeq3, aeq0, aeq3 }
    c7ae:	016fc4        	ae_subq56	aeq1, aeq2, aeq3
    c7b1:	01d1e2        	addmi	a14, a1, 0x100
    c7b4:	f8f639931f 	{ ae_sq32f.i	aeq1, a3, 4; ae_addq56	aeq0, aeq2, aeq3 }
    c7b9:	c8ce42        	addi	a4, a14, -56
    c7bc:	6146c4        	ae_lq56.i	aeq1, a6, -32
    c7bf:	620214        	ae_sq32f.i	aeq0, a2, 4
    c7c2:	621404        	ae_sq32f.i	aeq1, a4, 0
    c7c5:	01d1f2        	addmi	a15, a1, 0x100
    c7c8:	cccf52        	addi	a5, a15, -52
    c7cb:	6186f4        	ae_lq56.i	aeq2, a6, -8
    c7ce:	600404        	ae_lq32f.i	aeq0, a4, 0
    c7d1:	622504        	ae_sq32f.i	aeq2, a5, 0
    c7d4:	614114        	ae_lq56.i	aeq1, a1, 8
    c7d7:	61c174        	ae_lq56.i	aeq3, a1, 56
    c7da:	f93efd450f 	{ ae_lq32f.i	aeq2, a5, 0; ae_subq56	aeq1, aeq3, aeq1 }
    c7df:	01cdc4        	ae_subq56	aeq3, aeq0, aeq1
    c7e2:	f86639b34f 	{ ae_sq32f.i	aeq3, a3, 16; ae_addq56	aeq0, aeq0, aeq1 }
    c7e7:	6146a4        	ae_lq56.i	aeq1, a6, -48
    c7ea:	61c694        	ae_lq56.i	aeq3, a6, -56
    c7ed:	f93ef9824f 	{ ae_sq32f.i	aeq0, a2, 16; ae_subq56	aeq1, aeq3, aeq1 }
    c7f2:	01edc4        	ae_subq56	aeq3, aeq2, aeq1
    c7f5:	f97639b35f 	{ ae_sq32f.i	aeq3, a3, 20; ae_addq56	aeq1, aeq2, aeq1 }
    c7fa:	01d172        	addmi	a7, a1, 0x100
    c7fd:	6186b4        	ae_lq56.i	aeq2, a6, -40
    c800:	61c604        	ae_lq56.i	aeq3, a6, 0
    c803:	f8b6cd074e 	{ addi	a4, a7, -48; ae_subq56	aeq0, aeq2, aeq3 }
    c808:	621254        	ae_sq32f.i	aeq1, a2, 20
    c80b:	620404        	ae_sq32f.i	aeq0, a4, 0
    c80e:	01d182        	addmi	a8, a1, 0x100
    c811:	610134        	ae_lq56.i	aeq0, a1, 24
    c814:	61c124        	ae_lq56.i	aeq3, a1, 16
    c817:	f9a6fd440f 	{ ae_lq32f.i	aeq2, a4, 0; ae_subq56	aeq1, aeq0, aeq3 }
    c81c:	d4c852        	addi	a5, a8, -44
    c81f:	632114        	ae_sq56s.i	aeq2, a1, 8
    c822:	621504        	ae_sq32f.i	aeq1, a5, 0
    c825:	01d192        	addmi	a9, a1, 0x100
    c828:	61c624        	ae_lq56.i	aeq3, a6, 16
    c82b:	614614        	ae_lq56.i	aeq1, a6, 8
    c82e:	f9aefd650f 	{ ae_lq32f.i	aeq3, a5, 0; ae_subq56	aeq1, aeq1, aeq3 }
    c833:	d8c942        	addi	a4, a9, -40
    c836:	633124        	ae_sq56s.i	aeq3, a1, 16
    c839:	621404        	ae_sq32f.i	aeq1, a4, 0
    c83c:	610144        	ae_lq56.i	aeq0, a1, 32
    c83f:	618164        	ae_lq56.i	aeq2, a1, 48
    c842:	faa2fd040f 	{ ae_lq32f.i	aeq0, a4, 0; ae_subq56	aeq2, aeq0, aeq2 }
    c847:	dcca52        	addi	a5, a10, -36
    c84a:	630134        	ae_sq56s.i	aeq0, a1, 24
    c84d:	622504        	ae_sq32f.i	aeq2, a5, 0
    c850:	78c172        	addi	a7, a1, 120
    c853:	600504        	ae_lq32f.i	aeq0, a5, 0
    c856:	614744        	ae_lq56.i	aeq1, a7, 32
    c859:	630164        	ae_sq56s.i	aeq0, a1, 48
    c85c:	621c84        	ae_sq32f.i	aeq1, a12, -32
    c85f:	618114        	ae_lq56.i	aeq2, a1, 8
    c862:	61c124        	ae_lq56.i	aeq3, a1, 16
    c865:	016bc4        	ae_addq56	aeq1, aeq2, aeq3
    c868:	fabafde13f 	{ ae_lq56.i	aeq3, a1, 24; ae_subq56	aeq2, aeq3, aeq2 }
    c86d:	f93afa115f 	{ ae_sq56s.i	aeq1, a1, 40; ae_subq56	aeq1, aeq3, aeq0 }
    c872:	632114        	ae_sq56s.i	aeq2, a1, 8
    c875:	610734        	ae_lq56.i	aeq0, a7, 24
    c878:	5adb42        	addmi	a4, a11, 0x5a00
    c87b:	608c84        	ae_lq32f.i	aeq2, a12, -32
    c87e:	631144        	ae_sq56s.i	aeq1, a1, 32
    c881:	620d94        	ae_sq32f.i	aeq0, a13, -28
    c884:	300444        	ae_cvtp24a16x2.ll	aep0, a4, a4
    c887:	610154        	ae_lq56.i	aeq0, a1, 40
    c88a:	0c00bda16f 	{ ae_lq56.i	aeq1, a1, 48; ae_mulzaafq32sp16s.lh	aeq0, aeq0, aep0, aeq1, aep0 }
    c88f:	015bc4        	ae_addq56	aeq1, aeq1, aeq3
    c892:	fb32fa112f 	{ ae_sq56s.i	aeq1, a1, 16; ae_subq56	aeq3, aeq2, aeq0 }
    c897:	f8723d2d9f 	{ ae_lq32f.i	aeq1, a13, -28; ae_addq56	aeq0, aeq2, aeq0 }
    c89c:	633134        	ae_sq56s.i	aeq3, a1, 24
    c89f:	61c134        	ae_lq56.i	aeq3, a1, 24
    c8a2:	623324        	ae_sq32f.i	aeq3, a3, 8
    c8a5:	61c124        	ae_lq56.i	aeq3, a1, 16
    c8a8:	618114        	ae_lq56.i	aeq2, a1, 8
    c8ab:	0f02ba016f 	{ ae_sq56s.i	aeq0, a1, 48; ae_mulzaafq32sp16s.lh	aeq2, aeq2, aep0, aeq3, aep0 }
    c8b0:	610164        	ae_lq56.i	aeq0, a1, 48
    c8b3:	f8aaf9822f 	{ ae_sq32f.i	aeq0, a2, 8; ae_subq56	aeq0, aeq1, aeq2 }
    c8b8:	f9ea3dc76f 	{ ae_lq56.i	aeq2, a7, 48; ae_addq56	aeq1, aeq1, aeq2 }
    c8bd:	621234        	ae_sq32f.i	aeq1, a2, 12
    c8c0:	620334        	ae_sq32f.i	aeq0, a3, 12
    c8c3:	614114        	ae_lq56.i	aeq1, a1, 8
    c8c6:	3c03b9aeaf 	{ ae_sq32f.i	aeq2, a14, -24; ae_mulzasfq32sp16s.lh	aeq0, aeq1, aep0, aeq3, aep0 }
    c8cb:	614154        	ae_lq56.i	aeq1, a1, 40
    c8ce:	61c144        	ae_lq56.i	aeq3, a1, 32
    c8d1:	3e01fde75f 	{ ae_lq56.i	aeq3, a7, 40; ae_mulzasfq32sp16s.lh	aeq1, aeq3, aep0, aeq1, aep0 }
    c8d6:	608ea4        	ae_lq32f.i	aeq2, a14, -24
    c8d9:	fb32f9bfbf 	{ ae_sq32f.i	aeq3, a15, -20; ae_subq56	aeq3, aeq2, aeq0 }
    c8de:	f8723d4fbf 	{ ae_lq32f.i	aeq2, a15, -20; ae_addq56	aeq0, aeq2, aeq0 }
    c8e3:	fb36f9b36f 	{ ae_sq32f.i	aeq3, a3, 24; ae_subq56	aeq3, aeq2, aeq1 }
    c8e8:	f97639826f 	{ ae_sq32f.i	aeq0, a2, 24; ae_addq56	aeq1, aeq2, aeq1 }
    c8ed:	623374        	ae_sq32f.i	aeq3, a3, 28
    c8f0:	621274        	ae_sq32f.i	aeq1, a2, 28
    c8f3:	f01d           	retw.n

0000c8f5 <xtensa_fft8_32b+0x2a1>:
    c8f5:	000000                                        ...

0000c8f8 <xtensa_fft4_32b>:
    c8f8:	00c136        	entry	a1, 96
    c8fb:	600254        	ae_lq32f.i	aeq0, a2, 20
    c8fe:	604274        	ae_lq32f.i	aeq1, a2, 28
    c901:	fa663d626f 	{ ae_lq32f.i	aeq3, a2, 24; ae_addq56	aeq2, aeq0, aeq1 }
    c906:	f826fa217f 	{ ae_sq56s.i	aeq2, a1, 56; ae_subq56	aeq0, aeq0, aeq1 }
    c90b:	630134        	ae_sq56s.i	aeq0, a1, 24
    c90e:	600244        	ae_lq32f.i	aeq0, a2, 16
    c911:	fa7a3d220f 	{ ae_lq32f.i	aeq1, a2, 0; ae_addq56	aeq2, aeq3, aeq0 }
    c916:	f83afa211f 	{ ae_sq56s.i	aeq2, a1, 8; ae_subq56	aeq0, aeq3, aeq0 }
    c91b:	630164        	ae_sq56s.i	aeq0, a1, 48
    c91e:	600224        	ae_lq32f.i	aeq0, a2, 8
    c921:	fb6a3dc11f 	{ ae_lq56.i	aeq2, a1, 8; ae_addq56	aeq3, aeq1, aeq0 }
    c926:	01bac4        	ae_addq56	aeq2, aeq3, aeq2
    c929:	f82afa212f 	{ ae_sq56s.i	aeq2, a1, 16; ae_subq56	aeq0, aeq1, aeq0 }
    c92e:	618124        	ae_lq56.i	aeq2, a1, 16
    c931:	622204        	ae_sq32f.i	aeq2, a2, 0
    c934:	618114        	ae_lq56.i	aeq2, a1, 8
    c937:	f9bafd621f 	{ ae_lq32f.i	aeq3, a2, 4; ae_subq56	aeq1, aeq3, aeq2 }
    c93c:	631114        	ae_sq56s.i	aeq1, a1, 8
    c93f:	614134        	ae_lq56.i	aeq1, a1, 24
    c942:	fb663a315f 	{ ae_sq56s.i	aeq3, a1, 40; ae_addq56	aeq3, aeq0, aeq1 }
    c947:	f826fd423f 	{ ae_lq32f.i	aeq2, a2, 12; ae_subq56	aeq0, aeq0, aeq1 }
    c94c:	633124        	ae_sq56s.i	aeq3, a1, 16
    c94f:	614114        	ae_lq56.i	aeq1, a1, 8
    c952:	61c154        	ae_lq56.i	aeq3, a1, 40
    c955:	630134        	ae_sq56s.i	aeq0, a1, 24
    c958:	f9fa39924f 	{ ae_sq32f.i	aeq1, a2, 16; ae_addq56	aeq1, aeq3, aeq2 }
    c95d:	632144        	ae_sq56s.i	aeq2, a1, 32
    c960:	618124        	ae_lq56.i	aeq2, a1, 16
    c963:	610174        	ae_lq56.i	aeq0, a1, 56
    c966:	fa6a39a22f 	{ ae_sq32f.i	aeq2, a2, 8; ae_addq56	aeq2, aeq1, aeq0 }
    c96b:	f82afa211f 	{ ae_sq56s.i	aeq2, a1, 8; ae_subq56	aeq0, aeq1, aeq0 }
    c970:	618134        	ae_lq56.i	aeq2, a1, 24
    c973:	622264        	ae_sq32f.i	aeq2, a2, 24
    c976:	618144        	ae_lq56.i	aeq2, a1, 32
    c979:	f9baf9825f 	{ ae_sq32f.i	aeq0, a2, 20; ae_subq56	aeq1, aeq3, aeq2 }
    c97e:	610164        	ae_lq56.i	aeq0, a1, 48
    c981:	fb6a3dc11f 	{ ae_lq56.i	aeq2, a1, 8; ae_addq56	aeq3, aeq1, aeq0 }
    c986:	f92af9a21f 	{ ae_sq32f.i	aeq2, a2, 4; ae_subq56	aeq1, aeq1, aeq0 }
    c98b:	623234        	ae_sq32f.i	aeq3, a2, 12
    c98e:	621274        	ae_sq32f.i	aeq1, a2, 28
    c991:	f01d           	retw.n

0000c993 <xtensa_fft4_32b+0x9b>:
	...

0000c994 <xtensa_fft64_32b>:
    c994:	004136        	entry	a1, 32
    c997:	cf1331        	l32r	a3, 5e4 (c9bc <xtensa_fft32_32b>)
    c99a:	02ad           	mov.n	a10, a2
    c99c:	0003e0        	callx8	a3
    c99f:	cf0c31        	l32r	a3, 5d0 (c5b4 <xtensa_fft16_32b>)
    c9a2:	01d2a2        	addmi	a10, a2, 0x100
    c9a5:	0003e0        	callx8	a3
    c9a8:	80a142        	movi	a4, 0x180
    c9ab:	a24a           	add.n	a10, a2, a4
    c9ad:	0003e0        	callx8	a3
    c9b0:	cf0731        	l32r	a3, 5cc (bfc8 <xtensa_fft_pass_32b>)
    c9b3:	0b1c           	movi.n	a11, 16
    c9b5:	02ad           	mov.n	a10, a2
    c9b7:	0003e0        	callx8	a3
    c9ba:	f01d           	retw.n

0000c9bc <xtensa_fft32_32b>:
    c9bc:	004136        	entry	a1, 32
    c9bf:	cf0431        	l32r	a3, 5d0 (c5b4 <xtensa_fft16_32b>)
    c9c2:	02ad           	mov.n	a10, a2
    c9c4:	0003e0        	callx8	a3
    c9c7:	80a032        	movi	a3, 128
    c9ca:	a23a           	add.n	a10, a2, a3
    c9cc:	cf0331        	l32r	a3, 5d8 (c654 <xtensa_fft8_32b>)
    c9cf:	0003e0        	callx8	a3
    c9d2:	c0a042        	movi	a4, 192
    c9d5:	a24a           	add.n	a10, a2, a4
    c9d7:	0003e0        	callx8	a3
    c9da:	cefc31        	l32r	a3, 5cc (bfc8 <xtensa_fft_pass_32b>)
    c9dd:	8b0c           	movi.n	a11, 8
    c9df:	02ad           	mov.n	a10, a2
    c9e1:	0003e0        	callx8	a3
    c9e4:	f01d           	retw.n

0000c9e6 <xtensa_fft32_32b+0x2a>:
	...

0000c9e8 <Pitch_2Mic>:
    c9e8:	012136        	entry	a1, 144
    c9eb:	0bd272        	addmi	a7, a2, 0xb00
    c9ee:	3827f2        	l32i	a15, a7, 224
    c9f1:	0bd282        	addmi	a8, a2, 0xb00
    c9f4:	e7a7d2        	movi	a13, 0x7e7
    c9f7:	372772        	l32i	a7, a7, 220
    c9fa:	362862        	l32i	a6, a8, 216
    c9fd:	126142        	s32i	a4, a1, 72
    ca00:	1bd3e2        	addmi	a14, a3, 0x1b00
    ca03:	114de0        	slli	a4, a13, 2
    ca06:	c159           	s32i.n	a5, a1, 48
    ca08:	334a           	add.n	a3, a3, a4
    ca0a:	553c           	movi.n	a5, 53
    ca0c:	0f4d           	mov.n	a4, a15
    ca0e:	e129           	s32i.n	a2, a1, 56
    ca10:	1361e2        	s32i	a14, a1, 76
    ca13:	1561f2        	s32i	a15, a1, 84
    ca16:	000446        	j	ca2b <Pitch_2Mic+0x43>

0000ca19 <Pitch_2Mic+0x31>:
    ca19:	0a0c           	movi.n	a10, 0
    ca1b:	550b           	addi.n	a5, a5, -1
    ca1d:	9f64a2        	s32i	a10, a4, 0x27c
    ca20:	334b           	addi.n	a3, a3, 4
    ca22:	774b           	addi.n	a7, a7, 4
    ca24:	444b           	addi.n	a4, a4, 4
    ca26:	664b           	addi.n	a6, a6, 4
    ca28:	059516        	beqz	a5, ca85 <Pitch_2Mic+0x9d>
    ca2b:	0788           	l32i.n	a8, a7, 0
    ca2d:	e128           	l32i.n	a2, a1, 56
    ca2f:	40e8a0        	nsa	a10, a8
    ca32:	099292        	l16si	a9, a2, 18
    ca35:	8aad           	ae_sext16	a10, a10
    ca37:	401a00        	ssl	a10
    ca3a:	c0b9a0        	sub	a11, a9, a10
    ca3d:	a1a800        	sll	a10, a8
    ca40:	cdf281        	l32r	a8, 208 (a24 <Log2_norm>)
    ca43:	0008e0        	callx8	a8
    ca46:	04a9           	s32i.n	a10, a4, 0
    ca48:	0698           	l32i.n	a9, a6, 0
    ca4a:	099282        	l16si	a8, a2, 18
    ca4d:	cdee21        	l32r	a2, 208 (a24 <Log2_norm>)
    ca50:	40e9f0        	nsa	a15, a9
    ca53:	8fad           	ae_sext16	a10, a15
    ca55:	401a00        	ssl	a10
    ca58:	c0b8a0        	sub	a11, a8, a10
    ca5b:	a1a900        	sll	a10, a9
    ca5e:	0002e0        	callx8	a2
    ca61:	c188           	l32i.n	a8, a1, 48
    ca63:	3564a2        	s32i	a10, a4, 212
    ca66:	132192        	l32i	a9, a1, 76
    ca69:	fac816        	beqz	a8, ca19 <Pitch_2Mic+0x31>
    ca6c:	0388           	l32i.n	a8, a3, 0
    ca6e:	209992        	l16si	a9, a9, 64
    ca71:	40e8a0        	nsa	a10, a8
    ca74:	8aad           	ae_sext16	a10, a10
    ca76:	401a00        	ssl	a10
    ca79:	c0b9a0        	sub	a11, a9, a10
    ca7c:	a1a800        	sll	a10, a8
    ca7f:	0002e0        	callx8	a2
    ca82:	ffe546        	j	ca1b <Pitch_2Mic+0x33>

0000ca85 <Pitch_2Mic+0x9d>:
    ca85:	152182        	l32i	a8, a1, 84
    ca88:	a8a122        	movi	a2, 0x1a8
    ca8b:	1221f2        	l32i	a15, a1, 72
    ca8e:	282a           	add.n	a2, a8, a2
    ca90:	84a242        	movi	a4, 0x284
    ca93:	146122        	s32i	a2, a1, 80
    ca96:	388b           	addi.n	a3, a8, 8
    ca98:	284a           	add.n	a2, a8, a4
    ca9a:	8323f0        	moveqz	a2, a3, a15
    ca9d:	721f66        	bnei	a15, 1, cb13 <Pitch_2Mic+0x12b>
    caa0:	fcc232        	addi	a3, a2, -4
    caa3:	ced121        	l32r	a2, 5e8 (cb333334 <_end+0xcb323d94>)
    caa6:	7ca262        	movi	a6, 0x27c
    caa9:	040c           	movi.n	a4, 0
    caab:	0e0c           	movi.n	a14, 0
    caad:	250c           	movi.n	a5, 2
    caaf:	373c           	movi.n	a7, 51
    cab1:	4d0c           	movi.n	a13, 4
    cab3:	686a           	add.n	a6, a8, a6
    cab5:	d149           	s32i.n	a4, a1, 52
    cab7:	2698           	l32i.n	a9, a6, 8
    cab9:	058d           	mov.n	a8, a5
    cabb:	551b           	addi.n	a5, a5, 1
    cabd:	482927        	blt	a9, a2, cb09 <Pitch_2Mic+0x121>
    cac0:	06a8           	l32i.n	a10, a6, 0
    cac2:	04c6b2        	addi	a11, a6, 4
    cac5:	068d76        	loop	a13, cacf <Pitch_2Mic+0xe7>
    cac8:	0bc8           	l32i.n	a12, a11, 0
    caca:	bb4b           	addi.n	a11, a11, 4
    cacc:	53aac0        	max	a10, a10, a12

0000cacf <Pitch_2Mic+0xe7>:
    cacf:	3699a7        	bne	a9, a10, cb09 <Pitch_2Mic+0x121>
    cad2:	884d           	ae_sext16	a4, a8
    cad4:	981b           	addi.n	a9, a8, 1
    cad6:	cec581        	l32r	a8, 5ec (cf28 <fractional_peak>)
    cad9:	89ad           	ae_sext16	a10, a9
    cadb:	03bd           	mov.n	a11, a3
    cadd:	c149           	s32i.n	a4, a1, 48
    cadf:	027d           	mov.n	a7, a2
    cae1:	0e2d           	mov.n	a2, a14
    cae3:	0d4d           	mov.n	a4, a13
    cae5:	0008e0        	callx8	a8
    cae8:	d198           	l32i.n	a9, a1, 52
    caea:	c1f8           	l32i.n	a15, a1, 48
    caec:	1421b2        	l32i	a11, a1, 80
    caef:	891b           	addi.n	a8, a9, 1
    caf1:	899d           	ae_sext16	a9, a9
    caf3:	6c2c           	movi.n	a12, 38
    caf5:	04dd           	mov.n	a13, a4
    caf7:	02ed           	mov.n	a14, a2
    caf9:	724fc0        	salt	a4, a15, a12
    cafc:	a099b0        	addx4	a9, a9, a11
    caff:	072d           	mov.n	a2, a7
    cb01:	373c           	movi.n	a7, 51
    cb03:	ee4a           	add.n	a14, a14, a4
    cb05:	d189           	s32i.n	a8, a1, 52
    cb07:	09a9           	s32i.n	a10, a9, 0

0000cb09 <Pitch_2Mic+0x121>:
    cb09:	664b           	addi.n	a6, a6, 4
    cb0b:	334b           	addi.n	a3, a3, 4
    cb0d:	a69577        	bne	a5, a7, cab7 <Pitch_2Mic+0xcf>
    cb10:	002946        	j	cbb9 <Pitch_2Mic+0x1d1>

0000cb13 <Pitch_2Mic+0x12b>:
    cb13:	ceb7f1        	l32r	a15, 5f0 (fb333334 <_end+0xfb323d94>)
    cb16:	d8a042        	movi	a4, 216
    cb19:	0c0c           	movi.n	a12, 0
    cb1b:	fcc232        	addi	a3, a2, -4
    cb1e:	0e0c           	movi.n	a14, 0
    cb20:	270c           	movi.n	a7, 2
    cb22:	363c           	movi.n	a6, 51
    cb24:	4d0c           	movi.n	a13, 4
    cb26:	d1c9           	s32i.n	a12, a1, 52
    cb28:	082d           	mov.n	a2, a8
    cb2a:	484a           	add.n	a4, a8, a4
    cb2c:	2298           	l32i.n	a9, a2, 8
    cb2e:	ceae51        	l32r	a5, 5e8 (cb333334 <_end+0xcb323d94>)
    cb31:	078d           	mov.n	a8, a7
    cb33:	771b           	addi.n	a7, a7, 1
    cb35:	742957        	blt	a9, a5, cbad <Pitch_2Mic+0x1c5>
    cb38:	02a8           	l32i.n	a10, a2, 0
    cb3a:	04c2b2        	addi	a11, a2, 4
    cb3d:	068d76        	loop	a13, cb47 <Pitch_2Mic+0x15f>
    cb40:	0bc8           	l32i.n	a12, a11, 0
    cb42:	bb4b           	addi.n	a11, a11, 4
    cb44:	53aac0        	max	a10, a10, a12

0000cb47 <Pitch_2Mic+0x15f>:
    cb47:	6299a7        	bne	a9, a10, cbad <Pitch_2Mic+0x1c5>
    cb4a:	3722a2        	l32i	a10, a2, 220
    cb4d:	04cd           	mov.n	a12, a4
    cb4f:	0d5d           	mov.n	a5, a13
    cb51:	c0a9a0        	sub	a10, a9, a10
    cb54:	552af7        	blt	a10, a15, cbad <Pitch_2Mic+0x1c5>
    cb57:	3522b2        	l32i	a11, a2, 212
    cb5a:	068d76        	loop	a13, cb64 <Pitch_2Mic+0x17c>
    cb5d:	0cd8           	l32i.n	a13, a12, 0
    cb5f:	cc4b           	addi.n	a12, a12, 4
    cb61:	53bbd0        	max	a11, a11, a13
    cb64:	dc7c           	movi.n	a12, -3
    cb66:	01cc60        	slli	a12, a12, 26
    cb69:	cbca           	add.n	a12, a11, a12
    cb6b:	05dd           	mov.n	a13, a5
    cb6d:	3cac97        	bge	a12, a9, cbad <Pitch_2Mic+0x1c5>
    cb70:	ce66c1        	l32r	a12, 508 (4cccccd <_end+0x4cbd72d>)
    cb73:	022ac7        	blt	a10, a12, cb79 <Pitch_2Mic+0x191>
    cb76:	33ab97        	bge	a11, a9, cbad <Pitch_2Mic+0x1c5>

0000cb79 <Pitch_2Mic+0x191>:
    cb79:	889d           	ae_sext16	a9, a8
    cb7b:	f81b           	addi.n	a15, a8, 1
    cb7d:	ce9b81        	l32r	a8, 5ec (cf28 <fractional_peak>)
    cb80:	8fad           	ae_sext16	a10, a15
    cb82:	03bd           	mov.n	a11, a3
    cb84:	136192        	s32i	a9, a1, 76
    cb87:	c1e9           	s32i.n	a14, a1, 48
    cb89:	0008e0        	callx8	a8
    cb8c:	1321c2        	l32i	a12, a1, 76
    cb8f:	6b2c           	movi.n	a11, 38
    cb91:	d198           	l32i.n	a9, a1, 52
    cb93:	72bcb0        	salt	a11, a12, a11
    cb96:	1421c2        	l32i	a12, a1, 80
    cb99:	c1e8           	l32i.n	a14, a1, 48
    cb9b:	891b           	addi.n	a8, a9, 1
    cb9d:	899d           	ae_sext16	a9, a9
    cb9f:	ce94f1        	l32r	a15, 5f0 (fb333334 <_end+0xfb323d94>)
    cba2:	a099c0        	addx4	a9, a9, a12
    cba5:	05dd           	mov.n	a13, a5
    cba7:	eeba           	add.n	a14, a14, a11
    cba9:	d189           	s32i.n	a8, a1, 52
    cbab:	09a9           	s32i.n	a10, a9, 0
    cbad:	444b           	addi.n	a4, a4, 4
    cbaf:	224b           	addi.n	a2, a2, 4
    cbb1:	334b           	addi.n	a3, a3, 4
    cbb3:	021767        	beq	a7, a6, cbb9 <Pitch_2Mic+0x1d1>
    cbb6:	ffdc86        	j	cb2c <Pitch_2Mic+0x144>
    cbb9:	060c           	movi.n	a6, 0
    cbbb:	8e2d           	ae_sext16	a2, a14
    cbbd:	9169           	s32i.n	a6, a1, 36
    cbbf:	a169           	s32i.n	a6, a1, 40
    cbc1:	0232e6        	bgei	a2, 3, cbc7 <Pitch_2Mic+0x1df>
    cbc4:	00aac6        	j	ce73 <Pitch_2Mic+0x48b>
    cbc7:	d138           	l32i.n	a3, a1, 52
    cbc9:	e148           	l32i.n	a4, a1, 56
    cbcb:	1521b2        	l32i	a11, a1, 84
    cbce:	933d           	ae_zext16	a3, a3
    cbd0:	66a082        	movi	a8, 102
    cbd3:	0bd452        	addmi	a5, a4, 0xb00
    cbd6:	9e2d           	ae_zext16	a2, a14
    cbd8:	1b6132        	s32i	a3, a1, 108
    cbdb:	46d832        	addmi	a3, a8, 0x4600
    cbde:	0bd442        	addmi	a4, a4, 0xb00
    cbe1:	1fa592        	movi	a9, 0x51f
    cbe4:	b8a6a2        	movi	a10, 0x6b8
    cbe7:	aca162        	movi	a6, 0x1ac
    cbea:	307334        	ae_cvtp24a16x2.ll	aep7, a3, a3
    cbed:	070c           	movi.n	a7, 0
    cbef:	106142        	s32i	a4, a1, 64
    cbf2:	300994        	ae_cvtp24a16x2.ll	aep0, a9, a9
    cbf5:	306aa4        	ae_cvtp24a16x2.ll	aep6, a10, a10
    cbf8:	4b6a           	add.n	a4, a11, a6
    cbfa:	320b           	addi.n	a3, a2, -1
    cbfc:	0c0c           	movi.n	a12, 0
    cbfe:	1421d2        	l32i	a13, a1, 80
    cc01:	0e0c           	movi.n	a14, 0
    cc03:	0f0c           	movi.n	a15, 0
    cc05:	186142        	s32i	a4, a1, 96
    cc08:	040c           	movi.n	a4, 0
    cc0a:	f159           	s32i.n	a5, a1, 60
    cc0c:	560114        	ae_sp24x2s.i	aep0, a1, 8
    cc0f:	566124        	ae_sp24x2s.i	aep6, a1, 16
    cc12:	567134        	ae_sp24x2s.i	aep7, a1, 24
    cc15:	9179           	s32i.n	a7, a1, 36
    cc17:	1661c2        	s32i	a12, a1, 88
    cc1a:	1261d2        	s32i	a13, a1, 72
    cc1d:	c1e9           	s32i.n	a14, a1, 48
    cc1f:	1161f2        	s32i	a15, a1, 68
    cc22:	176132        	s32i	a3, a1, 92
    cc25:	000846        	j	cc4a <Pitch_2Mic+0x262>

0000cc28 <Pitch_2Mic+0x240>:
    cc28:	162122        	l32i	a2, a1, 88
    cc2b:	192132        	l32i	a3, a1, 100
    cc2e:	1a2142        	l32i	a4, a1, 104
    cc31:	1221f2        	l32i	a15, a1, 72
    cc34:	221b           	addi.n	a2, a2, 1
    cc36:	1e0c           	movi.n	a14, 1
    cc38:	166122        	s32i	a2, a1, 88
    cc3b:	112e00        	slli	a2, a14, 16
    cc3e:	442a           	add.n	a4, a4, a2
    cc40:	330b           	addi.n	a3, a3, -1
    cc42:	2f4b           	addi.n	a2, a15, 4
    cc44:	126122        	s32i	a2, a1, 72
    cc47:	236316        	beqz	a3, ce81 <Pitch_2Mic+0x499>
    cc4a:	1721f2        	l32i	a15, a1, 92
    cc4d:	312040        	srai	a2, a4, 16
    cc50:	196132        	s32i	a3, a1, 100
    cc53:	1a6142        	s32i	a4, a1, 104
    cc56:	cea2f7        	bge	a2, a15, cc28 <Pitch_2Mic+0x240>
    cc59:	162122        	l32i	a2, a1, 88
    cc5c:	172132        	l32i	a3, a1, 92
    cc5f:	1821f2        	l32i	a15, a1, 96
    cc62:	822d           	ae_sext16	a2, a2
    cc64:	c04320        	sub	a4, a3, a2
    cc67:	a052f0        	addx4	a5, a2, a15
    cc6a:	000bc6        	j	cc9d <Pitch_2Mic+0x2b5>

0000cc6d <Pitch_2Mic+0x285>:
    cc6d:	540124        	ae_lp24x2.i	aep0, a1, 16
    cc70:	d4e200033f 	{ movi	a3, 3; ae_mulfq32sp16s.l	aeq0, aeq0, aep0 }
    cc75:	0133b0        	slli	a3, a3, 21
    cc78:	d64431114e 	{ l32i	a4, a1, 68; ae_ltq56s	b0, aeq1, aeq0 }
    cc7d:	323a           	add.n	a3, a2, a3
    cc7f:	d32300        	movt	a2, a3, b0
    cc82:	723420        	salt	a3, a4, a2
    cc85:	53f240        	max	a15, a2, a4
    cc88:	935630        	movnez	a5, a6, a3
    cc8b:	1161f2        	s32i	a15, a1, 68
    cc8e:	c159           	s32i.n	a5, a1, 48
    cc90:	132142        	l32i	a4, a1, 76
    cc93:	152152        	l32i	a5, a1, 84
    cc96:	440b           	addi.n	a4, a4, -1
    cc98:	554b           	addi.n	a5, a5, 4
    cc9a:	f8a416        	beqz	a4, cc28 <Pitch_2Mic+0x240>
    cc9d:	122122        	l32i	a2, a1, 72
    cca0:	331c           	movi.n	a3, 19
    cca2:	013380        	slli	a3, a3, 24
    cca5:	0228           	l32i.n	a2, a2, 0
    cca7:	ce53e1        	l32r	a14, 5f4 (ffe00001 <_end+0xffdf0a61>)
    ccaa:	ff7c           	movi.n	a15, -1
    ccac:	02a327        	bge	a3, a2, ccb2 <Pitch_2Mic+0x2ca>
    ccaf:	ffdd46        	j	cc28 <Pitch_2Mic+0x240>
    ccb2:	0538           	l32i.n	a3, a5, 0
    ccb4:	f77c           	movi.n	a7, -1
    ccb6:	136142        	s32i	a4, a1, 76
    ccb9:	156152        	s32i	a5, a1, 84
    ccbc:	014fb0        	slli	a4, a15, 21
    ccbf:	c32a           	add.n	a12, a3, a2
    ccc1:	c05230        	sub	a5, a2, a3
    ccc4:	0137a0        	slli	a3, a7, 22
    ccc7:	62ea           	add.n	a6, a2, a14
    ccc9:	924a           	add.n	a9, a2, a4
    cccb:	253a           	add.n	a2, a5, a3
    cccd:	60d120        	abs	a13, a2
    ccd0:	180c           	movi.n	a8, 1
    ccd2:	0a0c           	movi.n	a10, 0
    ccd4:	0b0c           	movi.n	a11, 0
    ccd6:	09ed           	mov.n	a14, a9
    ccd8:	60f0d0        	neg	a15, a13
    ccdb:	062d           	mov.n	a2, a6
    ccdd:	c048d0        	sub	a4, a8, a13
    cce0:	d23ed0        	quos	a3, a14, a13
    cce3:	828f30        	mull	a8, a15, a3
    cce6:	825430        	mull	a5, a4, a3
    cce9:	8e8a           	add.n	a8, a14, a8
    cceb:	728a80        	salt	a8, a10, a8
    ccee:	338a           	add.n	a3, a3, a8
    ccf0:	9033b0        	addx2	a3, a3, a11
    ccf3:	331b           	addi.n	a3, a3, 1
    ccf5:	558a           	add.n	a5, a5, a8
    ccf7:	938f80        	movnez	a8, a15, a8
    ccfa:	833d           	ae_sext16	a3, a3
    ccfc:	585a           	add.n	a5, a8, a5
    ccfe:	0173a0        	slli	a7, a3, 22
    cd01:	525a           	add.n	a5, a2, a5
    cd03:	607070        	neg	a7, a7
    cd06:	080c           	movi.n	a8, 0
    cd08:	23a757        	bge	a7, a5, cd2f <Pitch_2Mic+0x347>
    cd0b:	c178           	l32i.n	a7, a1, 48
    cd0d:	d28c30        	quos	a8, a12, a3
    cd10:	ce3a51        	l32r	a5, 5f8 (28f5e <_end+0x199be>)
    cd13:	c03870        	sub	a3, a8, a7
    cd16:	603130        	abs	a3, a3
    cd19:	02a357        	bge	a3, a5, cd1f <Pitch_2Mic+0x337>
    cd1c:	ffdc06        	j	cc90 <Pitch_2Mic+0x2a8>
    cd1f:	ce3731        	l32r	a3, 5fc (fe924dd3 <_end+0xfe915833>)
    cd22:	ce3751        	l32r	a5, 600 (4d24dd3 <_end+0x4d15833>)
    cd25:	070c           	movi.n	a7, 0
    cd27:	383a           	add.n	a3, a8, a3
    cd29:	623530        	saltu	a3, a5, a3
    cd2c:	938730        	movnez	a8, a7, a3
    cd2f:	bb1b           	addi.n	a11, a11, 1
    cd31:	064bf6        	bgeui	a11, 4, cd3b <Pitch_2Mic+0x353>
    cd34:	226a           	add.n	a2, a2, a6
    cd36:	ee9a           	add.n	a14, a14, a9
    cd38:	fa4816        	beqz	a8, cce0 <Pitch_2Mic+0x2f8>
    cd3b:	0218e6        	bgei	a8, 1, cd41 <Pitch_2Mic+0x359>
    cd3e:	ffd386        	j	cc90 <Pitch_2Mic+0x2a8>
    cd41:	d128           	l32i.n	a2, a1, 52
    cd43:	ce30f1        	l32r	a15, 604 (333334 <_end+0x323d94>)
    cd46:	1b2132        	l32i	a3, a1, 108
    cd49:	822d           	ae_sext16	a2, a2
    cd4b:	0212e6        	bgei	a2, 1, cd51 <Pitch_2Mic+0x369>
    cd4e:	004246        	j	ce5b <Pitch_2Mic+0x473>
    cd51:	1421d2        	l32i	a13, a1, 80
    cd54:	41b180        	srli	a11, a8, 1
    cd57:	020c           	movi.n	a2, 0
    cd59:	090c           	movi.n	a9, 0
    cd5b:	0c0c           	movi.n	a12, 0
    cd5d:	0a0c           	movi.n	a10, 0
    cd5f:	6d8376        	loop	a3, cdd0 <Pitch_2Mic+0x3e8>
    cd62:	0d48           	l32i.n	a4, a13, 0
    cd64:	cd3131        	l32r	a3, 228 (13ffffff <_end+0x13ff0a5f>)
    cd67:	0f6d           	mov.n	a6, a15
    cd69:	ce2751        	l32r	a5, 608 (effffff <_end+0xeff0a5f>)
    cd6c:	142347        	blt	a3, a4, cd84 <Pitch_2Mic+0x39c>
    cd6f:	ccfe61        	l32r	a6, 168 (2ccccd <_end+0x2bd72d>)
    cd72:	0e2547        	blt	a5, a4, cd84 <Pitch_2Mic+0x39c>
    cd75:	ce2531        	l32r	a3, 60c (77fffff <_end+0x77f0a5f>)
    cd78:	ce2661        	l32r	a6, 610 (21eb86 <_end+0x20f5e6>)
    cd7b:	ce2651        	l32r	a5, 614 (266667 <_end+0x2570c7>)
    cd7e:	723340        	salt	a3, a3, a4
    cd81:	936530        	movnez	a6, a5, a3
    cd84:	d23480        	quos	a3, a4, a8
    cd87:	825380        	mull	a5, a3, a8
    cd8a:	c05450        	sub	a5, a4, a5
    cd8d:	727b50        	salt	a7, a11, a5
    cd90:	e37a           	add.n	a14, a3, a7
    cd92:	937870        	movnez	a7, a8, a7
    cd95:	c05570        	sub	a5, a5, a7
    cd98:	7e6a           	add.n	a7, a14, a6
    cd9a:	603150        	abs	a3, a5
    cd9d:	2d2737        	blt	a7, a3, cdce <Pitch_2Mic+0x3e6>
    cda0:	213340        	srai	a3, a4, 3
    cda3:	aaea           	add.n	a10, a10, a14
    cda5:	1e1c           	movi.n	a14, 17
    cda7:	939a           	add.n	a9, a3, a9
    cda9:	013e80        	slli	a3, a14, 24
    cdac:	cc1b           	addi.n	a12, a12, 1
    cdae:	072347        	blt	a3, a4, cdb9 <Pitch_2Mic+0x3d1>
    cdb1:	130c           	movi.n	a3, 1
    cdb3:	013390        	slli	a3, a3, 23
    cdb6:	000486        	j	cdcc <Pitch_2Mic+0x3e4>

0000cdb9 <Pitch_2Mic+0x3d1>:
    cdb9:	531c           	movi.n	a3, 21
    cdbb:	013380        	slli	a3, a3, 24
    cdbe:	052347        	blt	a3, a4, cdc7 <Pitch_2Mic+0x3df>
    cdc1:	ce1531        	l32r	a3, 618 (666667 <_end+0x6570c7>)
    cdc4:	000106        	j	cdcc <Pitch_2Mic+0x3e4>

0000cdc7 <Pitch_2Mic+0x3df>:
    cdc7:	130c           	movi.n	a3, 1
    cdc9:	0133a0        	slli	a3, a3, 22
    cdcc:	223a           	add.n	a2, a2, a3
    cdce:	dd4b           	addi.n	a13, a13, 4

0000cdd0 <Pitch_2Mic+0x3e8>:
    cdd0:	8c3d           	ae_sext16	a3, a12
    cdd2:	0233e6        	bgei	a3, 3, cdd8 <Pitch_2Mic+0x3f0>
    cdd5:	002086        	j	ce5b <Pitch_2Mic+0x473>
    cdd8:	8a3d           	ae_sext16	a3, a10
    cdda:	d23930        	quos	a3, a9, a3
    cddd:	1163d0        	slli	a6, a3, 3
    cde0:	a169           	s32i.n	a6, a1, 40
    cde2:	0216e6        	bgei	a6, 1, cde8 <Pitch_2Mic+0x400>
    cde5:	ffa9c6        	j	cc90 <Pitch_2Mic+0x2a8>
    cde8:	ce0d31        	l32r	a3, 61c (399999a <_end+0x398a3fa>)
    cdeb:	850c           	movi.n	a5, 8
    cded:	433630        	min	a3, a6, a3
    cdf0:	40e340        	nsa	a4, a3
    cdf3:	844d           	ae_sext16	a4, a4
    cdf5:	401400        	ssl	a4
    cdf8:	a1a300        	sll	a10, a3
    cdfb:	cd0331        	l32r	a3, 208 (a24 <Log2_norm>)
    cdfe:	c0b540        	sub	a11, a5, a4
    ce01:	0003e0        	callx8	a3
    ce04:	21e2a0        	srai	a14, a10, 2
    ce07:	368e34        	ae_cvtq48a32s	aeq2, a14
    ce0a:	540134        	ae_lp24x2.i	aep0, a1, 24
    ce0d:	d7e23101fe 	{ l32i	a15, a1, 64; ae_mulfq32sp16s.l	aeq2, aeq2, aep0 }
    ce12:	e1d8           	l32i.n	a13, a1, 56
    ce14:	7fa152        	movi	a5, 0x17f
    ce17:	28c132        	addi	a3, a1, 40
    ce1a:	b1e9           	s32i.n	a14, a1, 44
    ce1c:	622314        	ae_sq32f.i	aeq2, a3, 4
    ce1f:	604304        	ae_lq32f.i	aeq1, a3, 0
    ce22:	1155d0        	slli	a5, a5, 3
    ce25:	b148           	l32i.n	a4, a1, 44
    ce27:	7b1f32        	l16ui	a3, a15, 246
    ce2a:	602d54        	ae_lq32f.x	aeq0, a13, a5
    ce2d:	f926f0711f 	{ ae_lp24x2.i	aep7, a1, 8; ae_subq56	aeq1, aeq0, aeq1 }
    ce32:	d5fe10242f 	{ add	a2, a4, a2; ae_mulfq32sp16s.l	aeq2, aeq0, aep7 }
    ce37:	fd0cb1114e 	{ l32i	a4, a1, 68; ae_abssq56s	aeq1, aeq1 }
    ce3c:	2223b6        	bltui	a3, 2, ce62 <Pitch_2Mic+0x47a>
    ce3f:	d65430c15e 	{ l32i	a5, a1, 48; ae_ltq56s	b0, aeq1, aeq2 }
    ce44:	030c           	movi.n	a3, 0
    ce46:	140c           	movi.n	a4, 1
    ce48:	d33400        	movt	a3, a4, b0
    ce4b:	e1e316        	beqz	a3, cc6d <Pitch_2Mic+0x285>
    ce4e:	130c           	movi.n	a3, 1
    ce50:	112142        	l32i	a4, a1, 68
    ce53:	013390        	slli	a3, a3, 23
    ce56:	223a           	add.n	a2, a2, a3
    ce58:	ff8986        	j	cc82 <Pitch_2Mic+0x29a>

0000ce5b <Pitch_2Mic+0x473>:
    ce5b:	020c           	movi.n	a2, 0
    ce5d:	a129           	s32i.n	a2, a1, 40
    ce5f:	ff8b46        	j	cc90 <Pitch_2Mic+0x2a8>

0000ce62 <Pitch_2Mic+0x47a>:
    ce62:	d65430c15e 	{ l32i	a5, a1, 48; ae_ltq56s	b0, aeq1, aeq2 }
    ce67:	021326        	beqi	a3, 1, ce6d <Pitch_2Mic+0x485>
    ce6a:	ff8506        	j	cc82 <Pitch_2Mic+0x29a>
    ce6d:	cdb531        	l32r	a3, 544 (266666 <_end+0x2570c6>)
    ce70:	ff8246        	j	cc7d <Pitch_2Mic+0x295>

0000ce73 <Pitch_2Mic+0x48b>:
    ce73:	e158           	l32i.n	a5, a1, 56
    ce75:	0bd5f2        	addmi	a15, a5, 0xb00
    ce78:	7b5f62        	s16i	a6, a15, 246
    ce7b:	3e6f62        	s32i	a6, a15, 248
    ce7e:	002786        	j	cf20 <Pitch_2Mic+0x538>

0000ce81 <Pitch_2Mic+0x499>:
    ce81:	cde721        	l32r	a2, 620 (299999a <_end+0x298a3fa>)
    ce84:	112162        	l32i	a6, a1, 68
    ce87:	c178           	l32i.n	a7, a1, 48
    ce89:	9179           	s32i.n	a7, a1, 36
    ce8b:	412627        	blt	a6, a2, ced0 <Pitch_2Mic+0x4e8>
    ce8e:	102122        	l32i	a2, a1, 64
    ce91:	e158           	l32i.n	a5, a1, 56
    ce93:	7fa142        	movi	a4, 0x17f
    ce96:	7b1222        	l16ui	a2, a2, 246
    ce99:	24c132        	addi	a3, a1, 36
    ce9c:	1144d0        	slli	a4, a4, 3
    ce9f:	602544        	ae_lq32f.x	aeq0, a5, a4
    cea2:	604304        	ae_lq32f.i	aeq1, a3, 0
    cea5:	4c22b6        	bltui	a2, 2, cef5 <Pitch_2Mic+0x50d>
    cea8:	36d054        	ae_sllisq56s	aeq3, aeq1, 1
    ceab:	fba6f0011f 	{ ae_lp24x2.i	aep0, a1, 8; ae_subq56	aeq3, aeq0, aeq3 }
    ceb0:	d5e200003f 	{ movi	a3, 0; ae_mulfq32sp16s.l	aeq2, aeq0, aep0 }
    ceb5:	ff8c80014f 	{ movi	a4, 1; ae_abssq56s	aeq3, aeq3 }
    ceba:	d6d43b10df 	{ ae_sraiq56	aeq3, aeq1, 1; ae_ltq56s	b0, aeq3, aeq2 }
    cebf:	080c           	movi.n	a8, 0
    cec1:	190c           	movi.n	a9, 1
    cec3:	fba6d6340f 	{ movt	a3, a4, b0; ae_subq56	aeq3, aeq0, aeq3 }
    cec8:	639c           	beqz.n	a3, cee2 <Pitch_2Mic+0x4fa>
    ceca:	1177f0        	slli	a7, a7, 1
    cecd:	0007c6        	j	cef0 <Pitch_2Mic+0x508>

0000ced0 <Pitch_2Mic+0x4e8>:
    ced0:	102132        	l32i	a3, a1, 64
    ced3:	f1f8           	l32i.n	a15, a1, 60
    ced5:	e158           	l32i.n	a5, a1, 56
    ced7:	020c           	movi.n	a2, 0
    ced9:	7b5322        	s16i	a2, a3, 246
    cedc:	3e6f22        	s32i	a2, a15, 248
    cedf:	000f46        	j	cf20 <Pitch_2Mic+0x538>

0000cee2 <Pitch_2Mic+0x4fa>:
    cee2:	06fb24        	ae_abssq56s	aeq3, aeq3
    cee5:	09a304        	ae_ltq56s	b0, aeq3, aeq2
    cee8:	d38900        	movt	a8, a9, b0
    ceeb:	688c           	beqz.n	a8, cef5 <Pitch_2Mic+0x50d>
    ceed:	217170        	srai	a7, a7, 1
    cef0:	9179           	s32i.n	a7, a1, 36
    cef2:	000946        	j	cf1b <Pitch_2Mic+0x533>

0000cef5 <Pitch_2Mic+0x50d>:
    cef5:	f926c6663f 	{ movi	a3, 0x666; ae_subq56	aeq1, aeq0, aeq1 }
    cefa:	fd0c98833f 	{ ae_cvtp24a16x2.ll	aep0, a3, a3; ae_abssq56s	aeq1, aeq1 }
    ceff:	d5e24000ff 	{ movi	a15, 0; ae_mulfq32sp16s.l	aeq3, aeq0, aep0 }
    cf04:	140c           	movi.n	a4, 1
    cf06:	d65c00122e 	{ addi	a2, a2, 1; ae_ltq56s	b0, aeq1, aeq3 }
    cf0b:	d3f400        	movt	a15, a4, b0
    cf0e:	1f8c           	beqz.n	a15, cf13 <Pitch_2Mic+0x52b>
    cf10:	000046        	j	cf15 <Pitch_2Mic+0x52d>

0000cf13 <Pitch_2Mic+0x52b>:
    cf13:	020c           	movi.n	a2, 0
    cf15:	102132        	l32i	a3, a1, 64
    cf18:	7b5322        	s16i	a2, a3, 246
    cf1b:	f128           	l32i.n	a2, a1, 60
    cf1d:	3e6272        	s32i	a7, a2, 248
    cf20:	08d522        	addmi	a2, a5, 0x800
    cf23:	ff6262        	s32i	a6, a2, 0x3fc
    cf26:	f01d           	retw.n

0000cf28 <fractional_peak>:
    cf28:	004136        	entry	a1, 32
    cf2b:	0358           	l32i.n	a5, a3, 0
    cf2d:	1368           	l32i.n	a6, a3, 4
    cf2f:	2378           	l32i.n	a7, a3, 8
    cf31:	66a642        	movi	a4, 0x666
    cf34:	c03650        	sub	a3, a6, a5
    cf37:	300444        	ae_cvtp24a16x2.ll	aep0, a4, a4
    cf3a:	360334        	ae_cvtq48a32s	aeq0, a3
    cf3d:	d5e215467f 	{ sub	a4, a6, a7; ae_mulfq32sp16s.l	aeq2, aeq0, aep0 }
    cf42:	364434        	ae_cvtq48a32s	aeq1, a4
    cf45:	d6540000ef 	{ movi	a14, 0; ae_ltq56s	b0, aeq1, aeq2 }
    cf4a:	1f0c           	movi.n	a15, 1
    cf4c:	223b           	addi.n	a2, a2, 3
    cf4e:	d3ef00        	movt	a14, a15, b0
    cf51:	012290        	slli	a2, a2, 23
    cf54:	4e8c           	beqz.n	a14, cf5c <fractional_peak+0x34>
    cf56:	cdb331        	l32r	a3, 624 (3eb852 <_end+0x3dc2b2>)
    cf59:	002946        	j	d002 <fractional_peak+0xda>

0000cf5c <fractional_peak+0x34>:
    cf5c:	215330        	srai	a5, a3, 3
    cf5f:	05a457        	bge	a4, a5, cf68 <fractional_peak+0x40>
    cf62:	cda831        	l32r	a3, 604 (333334 <_end+0x323d94>)
    cf65:	002646        	j	d002 <fractional_peak+0xda>

0000cf68 <fractional_peak+0x40>:
    cf68:	215230        	srai	a5, a3, 2
    cf6b:	05a457        	bge	a4, a5, cf74 <fractional_peak+0x4c>
    cf6e:	cda931        	l32r	a3, 614 (266667 <_end+0x2570c7>)
    cf71:	002346        	j	d002 <fractional_peak+0xda>

0000cf74 <fractional_peak+0x4c>:
    cf74:	353c           	movi.n	a5, 51
    cf76:	33d552        	addmi	a5, a5, 0x3300
    cf79:	301554        	ae_cvtp24a16x2.ll	aep1, a5, a5
    cf7c:	d5e60000ff 	{ movi	a15, 0; ae_mulfq32sp16s.l	aeq2, aeq0, aep1 }
    cf81:	160c           	movi.n	a6, 1
    cf83:	d654009a5f 	{ movi	a5, 154; ae_ltq56s	b0, aeq1, aeq2 }
    cf88:	cda871        	l32r	a7, 628 (19999a <_end+0x18a3fa>)
    cf8b:	59d552        	addmi	a5, a5, 0x5900
    cf8e:	d3f600        	movt	a15, a6, b0
    cf91:	3f8c           	beqz.n	a15, cf98 <fractional_peak+0x70>
    cf93:	073d           	mov.n	a3, a7
    cf95:	001a46        	j	d002 <fractional_peak+0xda>

0000cf98 <fractional_peak+0x70>:
    cf98:	d5e358a55f 	{ ae_cvtp24a16x2.ll	aep2, a5, a5; ae_mulfq32sp16s.l	aeq3, aeq1, aep0 }
    cf9d:	d5ea0000ff 	{ movi	a15, 0; ae_mulfq32sp16s.l	aeq2, aeq0, aep2 }
    cfa2:	d65840016f 	{ movi	a6, 1; ae_ltq56s	b1, aeq0, aeq3 }
    cfa7:	d65400005f 	{ movi	a5, 0; ae_ltq56s	b0, aeq1, aeq2 }
    cfac:	cc8c71        	l32r	a7, 1dc (ccccd <_end+0xbd72d>)
    cfaf:	180c           	movi.n	a8, 1
    cfb1:	d5e716f60f 	{ movt	a15, a6, b0; ae_mulfq32sp16s.l	aeq2, aeq1, aep1 }
    cfb6:	3f8c           	beqz.n	a15, cfbd <fractional_peak+0x95>
    cfb8:	073d           	mov.n	a3, a7
    cfba:	001106        	j	d002 <fractional_peak+0xda>

0000cfbd <fractional_peak+0x95>:
    cfbd:	d65016581f 	{ movt	a5, a8, b1; ae_ltq56s	b0, aeq0, aeq2 }
    cfc2:	458c           	beqz.n	a5, cfca <fractional_peak+0xa2>
    cfc4:	cd9a31        	l32r	a3, 62c (ffc147ae <_end+0xffc0520e>)
    cfc7:	000dc6        	j	d002 <fractional_peak+0xda>

0000cfca <fractional_peak+0xa2>:
    cfca:	215340        	srai	a5, a4, 3
    cfcd:	05a357        	bge	a3, a5, cfd6 <fractional_peak+0xae>
    cfd0:	cd9831        	l32r	a3, 630 (ffcccccc <_end+0xffcbd72c>)
    cfd3:	000ac6        	j	d002 <fractional_peak+0xda>

0000cfd6 <fractional_peak+0xae>:
    cfd6:	214240        	srai	a4, a4, 2
    cfd9:	05a347        	bge	a3, a4, cfe2 <fractional_peak+0xba>
    cfdc:	cd9631        	l32r	a3, 634 (ffd99999 <_end+0xffd8a3f9>)
    cfdf:	0007c6        	j	d002 <fractional_peak+0xda>

0000cfe2 <fractional_peak+0xba>:
    cfe2:	d4eb40003f 	{ movi	a3, 0; ae_mulfq32sp16s.l	aeq1, aeq1, aep2 }
    cfe7:	140c           	movi.n	a4, 1
    cfe9:	d64816340f 	{ movt	a3, a4, b0; ae_ltq56s	b0, aeq0, aeq1 }
    cfee:	438c           	beqz.n	a3, cff6 <fractional_peak+0xce>
    cff0:	cd9231        	l32r	a3, 638 (ffe66666 <_end+0xffe570c6>)
    cff3:	0002c6        	j	d002 <fractional_peak+0xda>

0000cff6 <fractional_peak+0xce>:
    cff6:	cd9141        	l32r	a4, 63c (fff33333 <_end+0xfff23d93>)
    cff9:	030430        	rsr.br	a3
    cffc:	043030        	extui	a3, a3, 0, 1
    cfff:	d33400        	movt	a3, a4, b0
    d002:	223a           	add.n	a2, a2, a3
    d004:	f01d           	retw.n

0000d006 <fractional_peak+0xde>:
	...

0000d008 <fn_low_bin_noise_est_iem2>:
    d008:	008136        	entry	a1, 64
    d00b:	02d272        	addmi	a7, a2, 0x200
    d00e:	429762        	l16si	a6, a7, 132
    d011:	880772        	l8ui	a7, a7, 136
    d014:	a32292        	l32i	a9, a2, 0x28c
    d017:	1186f0        	slli	a8, a6, 1
    d01a:	4189           	s32i.n	a8, a1, 16
    d01c:	2de757        	bbsi	a7, 5, d04d <fn_low_bin_noise_est_iem2+0x45>
    d01f:	02d272        	addmi	a7, a2, 0x200
    d022:	439772        	l16si	a7, a7, 134
    d025:	7169           	s32i.n	a6, a1, 28
    d027:	3199           	s32i.n	a9, a1, 12
    d029:	6149           	s32i.n	a4, a1, 24
    d02b:	5139           	s32i.n	a3, a1, 20
    d02d:	0217e6        	bgei	a7, 1, d033 <fn_low_bin_noise_est_iem2+0x2b>
    d030:	004146        	j	d139 <fn_low_bin_noise_est_iem2+0x131>
    d033:	978d           	ae_zext16	a8, a7
    d035:	11a8f0        	slli	a10, a8, 1
    d038:	070c           	movi.n	a7, 0
    d03a:	208550        	or	a8, a5, a5
    d03d:	098a76        	loop	a10, d04a <fn_low_bin_noise_est_iem2+0x42>
    d040:	0868           	l32i.n	a6, a8, 0
    d042:	0969           	s32i.n	a6, a9, 0
    d044:	884b           	addi.n	a8, a8, 4
    d046:	771b           	addi.n	a7, a7, 1
    d048:	994b           	addi.n	a9, a9, 4

0000d04a <fn_low_bin_noise_est_iem2+0x42>:
    d04a:	003b46        	j	d13b <fn_low_bin_noise_est_iem2+0x133>

0000d04d <fn_low_bin_noise_est_iem2+0x45>:
    d04d:	0216e6        	bgei	a6, 1, d053 <fn_low_bin_noise_est_iem2+0x4b>
    d050:	008346        	j	d261 <fn_low_bin_noise_est_iem2+0x259>
    d053:	5139           	s32i.n	a3, a1, 20
    d055:	cd7a31        	l32r	a3, 640 (7fffff00 <_end+0x7fff0960>)
    d058:	fc7c           	movi.n	a12, -1
    d05a:	1b0c           	movi.n	a11, 1
    d05c:	6149           	s32i.n	a4, a1, 24
    d05e:	02d222        	addmi	a2, a2, 0x200
    d061:	01cc10        	slli	a12, a12, 31
    d064:	3199           	s32i.n	a9, a1, 12
    d066:	09fd           	mov.n	a15, a9
    d068:	7169           	s32i.n	a6, a1, 28
    d06a:	ffa3d2        	movi	a13, 0x3ff
    d06d:	01bb90        	slli	a11, a11, 23
    d070:	0e0c           	movi.n	a14, 0
    d072:	ffaf42        	movi	a4, -1
    d075:	bd8676        	loop	a6, d136 <fn_low_bin_noise_est_iem2+0x12e>
    d078:	228d           	ae_l16si.n	a8, a2, 0
    d07a:	0578           	l32i.n	a7, a5, 0
    d07c:	222b           	addi.n	a2, a2, 2
    d07e:	118800        	slli	a8, a8, 16
    d081:	217870        	srai	a7, a7, 8
    d084:	218880        	srai	a8, a8, 8
    d087:	826870        	mull	a6, a8, a7
    d08a:	b27870        	mulsh	a7, a8, a7
    d08d:	459b60        	extui	a9, a6, 27, 5
    d090:	11a7b0        	slli	a10, a7, 5
    d093:	1166b0        	slli	a6, a6, 5
    d096:	9a9a           	add.n	a9, a10, a9
    d098:	a6ba           	add.n	a10, a6, a11
    d09a:	626a60        	saltu	a6, a10, a6
    d09d:	696a           	add.n	a6, a9, a6
    d09f:	75a8a0        	extui	a10, a10, 24, 8
    d0a2:	119680        	slli	a9, a6, 8
    d0a5:	9a9a           	add.n	a9, a10, a9
    d0a7:	31a860        	srai	a10, a6, 24
    d0aa:	f56060        	extui	a6, a6, 16, 16
    d0ad:	11aa80        	slli	a10, a10, 8
    d0b0:	0a76a0        	depbits	a10, a6, 0, 8
    d0b3:	727d70        	salt	a7, a13, a7
    d0b6:	116980        	slli	a6, a9, 8
    d0b9:	936c70        	movnez	a6, a12, a7
    d0bc:	93ae70        	movnez	a10, a14, a7
    d0bf:	7396c0        	maxu	a9, a6, a12
    d0c2:	7a1b           	addi.n	a7, a10, 1
    d0c4:	a36ca0        	movltz	a6, a12, a10
    d0c7:	836970        	moveqz	a6, a9, a7
    d0ca:	53aa40        	max	a10, a10, a4
    d0cd:	039d           	mov.n	a9, a3
    d0cf:	a396a0        	movltz	a9, a6, a10
    d0d2:	636630        	minu	a6, a6, a3
    d0d5:	9369a0        	movnez	a6, a9, a10
    d0d8:	0f69           	s32i.n	a6, a15, 0
    d0da:	1598           	l32i.n	a9, a5, 4
    d0dc:	558b           	addi.n	a5, a5, 8
    d0de:	21a890        	srai	a10, a9, 8
    d0e1:	827a80        	mull	a7, a10, a8
    d0e4:	b26a80        	mulsh	a6, a10, a8
    d0e7:	459b70        	extui	a9, a7, 27, 5
    d0ea:	11a6b0        	slli	a10, a6, 5
    d0ed:	1177b0        	slli	a7, a7, 5
    d0f0:	8a9a           	add.n	a8, a10, a9
    d0f2:	a7ba           	add.n	a10, a7, a11
    d0f4:	627a70        	saltu	a7, a10, a7
    d0f7:	787a           	add.n	a7, a8, a7
    d0f9:	7598a0        	extui	a9, a10, 24, 8
    d0fc:	118780        	slli	a8, a7, 8
    d0ff:	31a870        	srai	a10, a7, 24
    d102:	f57070        	extui	a7, a7, 16, 16
    d105:	11aa80        	slli	a10, a10, 8
    d108:	898a           	add.n	a8, a9, a8
    d10a:	0a77a0        	depbits	a10, a7, 0, 8
    d10d:	726d60        	salt	a6, a13, a6
    d110:	117880        	slli	a7, a8, 8
    d113:	93ae60        	movnez	a10, a14, a6
    d116:	937c60        	movnez	a7, a12, a6
    d119:	7387c0        	maxu	a8, a7, a12
    d11c:	6a1b           	addi.n	a6, a10, 1
    d11e:	a37ca0        	movltz	a7, a12, a10
    d121:	837860        	moveqz	a7, a8, a6
    d124:	539a40        	max	a9, a10, a4
    d127:	03ad           	mov.n	a10, a3
    d129:	a3a790        	movltz	a10, a7, a9
    d12c:	636730        	minu	a6, a7, a3
    d12f:	936a90        	movnez	a6, a10, a9
    d132:	1f69           	s32i.n	a6, a15, 4
    d134:	ff8b           	addi.n	a15, a15, 8

0000d136 <fn_low_bin_noise_est_iem2+0x12e>:
    d136:	002606        	j	d1d2 <fn_low_bin_noise_est_iem2+0x1ca>

0000d139 <fn_low_bin_noise_est_iem2+0x131>:
    d139:	070c           	movi.n	a7, 0
    d13b:	4168           	l32i.n	a6, a1, 16
    d13d:	02d232        	addmi	a3, a2, 0x200
    d140:	41c8           	l32i.n	a12, a1, 16
    d142:	022767        	blt	a7, a6, d148 <fn_low_bin_noise_est_iem2+0x140>
    d145:	002246        	j	d1d2 <fn_low_bin_noise_est_iem2+0x1ca>
    d148:	31d8           	l32i.n	a13, a1, 12
    d14a:	419362        	l16si	a6, a3, 130
    d14d:	c0e7c0        	sub	a14, a7, a12
    d150:	a027d0        	addx4	a2, a7, a13
    d153:	cd3bd1        	l32r	a13, 640 (7fffff00 <_end+0x7fff0960>)
    d156:	130c           	movi.n	a3, 1
    d158:	fb7c           	movi.n	a11, -1
    d15a:	60f0e0        	neg	a15, a14
    d15d:	116600        	slli	a6, a6, 16
    d160:	a05750        	addx4	a5, a7, a5
    d163:	013390        	slli	a3, a3, 23
    d166:	ffa392        	movi	a9, 0x3ff
    d169:	0a0c           	movi.n	a10, 0
    d16b:	01bb10        	slli	a11, a11, 31
    d16e:	fc7c           	movi.n	a12, -1
    d170:	21e860        	srai	a14, a6, 8
    d173:	5b8f76        	loop	a15, d1d2 <fn_low_bin_noise_est_iem2+0x1ca>
    d176:	0568           	l32i.n	a6, a5, 0
    d178:	554b           	addi.n	a5, a5, 4
    d17a:	216860        	srai	a6, a6, 8
    d17d:	827e60        	mull	a7, a14, a6
    d180:	b26e60        	mulsh	a6, a14, a6
    d183:	45fb70        	extui	a15, a7, 27, 5
    d186:	1177b0        	slli	a7, a7, 5
    d189:	1186b0        	slli	a8, a6, 5
    d18c:	473a           	add.n	a4, a7, a3
    d18e:	88fa           	add.n	a8, a8, a15
    d190:	627470        	saltu	a7, a4, a7
    d193:	787a           	add.n	a7, a8, a7
    d195:	75f840        	extui	a15, a4, 24, 8
    d198:	118780        	slli	a8, a7, 8
    d19b:	314870        	srai	a4, a7, 24
    d19e:	8f8a           	add.n	a8, a15, a8
    d1a0:	f57070        	extui	a7, a7, 16, 16
    d1a3:	11f480        	slli	a15, a4, 8
    d1a6:	0a77f0        	depbits	a15, a7, 0, 8
    d1a9:	726960        	salt	a6, a9, a6
    d1ac:	117880        	slli	a7, a8, 8
    d1af:	93fa60        	movnez	a15, a10, a6
    d1b2:	937b60        	movnez	a7, a11, a6
    d1b5:	7347b0        	maxu	a4, a7, a11
    d1b8:	8f1b           	addi.n	a8, a15, 1
    d1ba:	a37bf0        	movltz	a7, a11, a15
    d1bd:	837480        	moveqz	a7, a4, a8
    d1c0:	0d8d           	mov.n	a8, a13
    d1c2:	53ffc0        	max	a15, a15, a12
    d1c5:	a387f0        	movltz	a8, a7, a15
    d1c8:	6377d0        	minu	a7, a7, a13
    d1cb:	9378f0        	movnez	a7, a8, a15
    d1ce:	0279           	s32i.n	a7, a2, 0
    d1d0:	224b           	addi.n	a2, a2, 4

0000d1d2 <fn_low_bin_noise_est_iem2+0x1ca>:
    d1d2:	7168           	l32i.n	a6, a1, 28
    d1d4:	3178           	l32i.n	a7, a1, 12
    d1d6:	6148           	l32i.n	a4, a1, 24
    d1d8:	052132        	l32i	a3, a1, 20
    d1db:	0216e6        	bgei	a6, 1, d1e1 <fn_low_bin_noise_est_iem2+0x1d9>
    d1de:	001fc6        	j	d261 <fn_low_bin_noise_est_iem2+0x259>
    d1e1:	b05670        	addx8	a5, a6, a7
    d1e4:	202770        	or	a2, a7, a7
    d1e7:	5c8204        	ae_lp24x2f.iu	aep0, a2, 0
    d1ea:	fcc552        	addi	a5, a5, -4
    d1ed:	118676        	loop	a6, d202 <fn_low_bin_noise_est_iem2+0x1fa>
    d1f0:	040004        	ae_mulzaafp24s.hh.ll	aeq0, aep0, aep0
    d1f3:	360114        	ae_sllisq56s	aeq0, aeq0, 4
    d1f6:	060844        	ae_satq48s	aeq0, aeq0
    d1f9:	1b8d74        	ae_roundsp24q48asym	aep7, aeq0
    d1fc:	52f514        	ae_sp24f.l.iu	aep7, a5, 4
    d1ff:	5c8214        	ae_lp24x2f.iu	aep0, a2, 8

0000d202 <fn_low_bin_noise_est_iem2+0x1fa>:
    d202:	5b36a6        	blti	a6, 3, d261 <fn_low_bin_noise_est_iem2+0x259>
    d205:	583626        	beqi	a6, 3, d261 <fn_low_bin_noise_est_iem2+0x259>
    d208:	4128           	l32i.n	a2, a1, 16
    d20a:	fdc6a2        	addi	a10, a6, -3
    d20d:	cd0c61        	l32r	a6, 640 (7fffff00 <_end+0x7fff0960>)
    d210:	a09270        	addx4	a9, a2, a7
    d213:	ff7c           	movi.n	a15, -1
    d215:	012f10        	slli	a2, a15, 31
    d218:	f57c           	movi.n	a5, -1
    d21a:	170c           	movi.n	a7, 1
    d21c:	00a182        	movi	a8, 0x100
    d21f:	99cb           	addi.n	a9, a9, 12
    d221:	3c8a76        	loop	a10, d261 <fn_low_bin_noise_est_iem2+0x259>
    d224:	04a8           	l32i.n	a10, a4, 0
    d226:	09b8           	l32i.n	a11, a9, 0
    d228:	06fd           	mov.n	a15, a6
    d22a:	31cfa0        	srai	a12, a10, 31
    d22d:	31dfb0        	srai	a13, a11, 31
    d230:	62eab0        	saltu	a14, a10, a11
    d233:	c0ccd0        	sub	a12, a12, a13
    d236:	c0aab0        	sub	a10, a10, a11
    d239:	c0bce0        	sub	a11, a12, a14
    d23c:	73da20        	maxu	a13, a10, a2
    d23f:	eb1b           	addi.n	a14, a11, 1
    d241:	a3a2b0        	movltz	a10, a2, a11
    d244:	53bb50        	max	a11, a11, a5
    d247:	83ade0        	moveqz	a10, a13, a14
    d24a:	a3fab0        	movltz	a15, a10, a11
    d24d:	63aa60        	minu	a10, a10, a6
    d250:	93afb0        	movnez	a10, a15, a11
    d253:	72ba70        	salt	a11, a10, a7
    d256:	93a8b0        	movnez	a10, a8, a11
    d259:	03a9           	s32i.n	a10, a3, 0
    d25b:	444b           	addi.n	a4, a4, 4
    d25d:	994b           	addi.n	a9, a9, 4
    d25f:	334b           	addi.n	a3, a3, 4

0000d261 <fn_low_bin_noise_est_iem2+0x259>:
    d261:	f01d           	retw.n

0000d263 <fn_low_bin_noise_est_iem2+0x25b>:
	...

0000d264 <fn_low_bin_compensate_phase_iem2>:
    d264:	008136        	entry	a1, 64
    d267:	02d222        	addmi	a2, a2, 0x200
    d26a:	429252        	l16si	a5, a2, 132
    d26d:	160c           	movi.n	a6, 1
    d26f:	118610        	slli	a8, a6, 15
    d272:	0215e6        	bgei	a5, 1, d278 <fn_low_bin_compensate_phase_iem2+0x14>
    d275:	005b06        	j	d3e5 <fn_low_bin_compensate_phase_iem2+0x181>
    d278:	ffa072        	movi	a7, 255
    d27b:	360834        	ae_cvtq48a32s	aeq0, a8
    d27e:	046d           	mov.n	a6, a4
    d280:	5c9304        	ae_lp24x2f.iu	aep1, a3, 0
    d283:	7fd772        	addmi	a7, a7, 0x7f00
    d286:	630114        	ae_sq56s.i	aeq0, a1, 8
    d289:	050c           	movi.n	a5, 0
    d28b:	5c8604        	ae_lp24x2f.iu	aep0, a6, 0
    d28e:	000ec6        	j	d2cd <fn_low_bin_compensate_phase_iem2+0x69>

0000d291 <fn_low_bin_compensate_phase_iem2+0x2d>:
    d291:	0a0c           	movi.n	a10, 0
    d293:	f5a0a0        	extui	a10, a10, 16, 16
    d296:	300884        	ae_cvtp24a16x2.ll	aep0, a8, a8
    d299:	301aa4        	ae_cvtp24a16x2.ll	aep1, a10, a10
    d29c:	ea0598a99f 	{ ae_cvtp24a16x2.ll	aep2, a9, a9; ae_mulfp24s.ll	aeq0, aep1, aep0 }
    d2a1:	ea45e422fe 	{ l16si	a15, a2, 132; ae_mulfp24s.ll	aeq1, aep1, aep2 }
    d2a6:	3600d4        	ae_sllisq56s	aeq0, aeq0, 3
    d2a9:	fc00fad0ff 	{ ae_sllisq56s	aeq3, aeq1, 3; ae_satq48s	aeq0, aeq0 }
    d2ae:	fb6780155e 	{ addi	a5, a5, 1; ae_roundsp24q48asym	aep6, aeq0 }
    d2b3:	fc84c0844e 	{ addi	a4, a4, 8; ae_satq48s	aeq0, aeq3 }
    d2b8:	1b8d74        	ae_roundsp24q48asym	aep7, aeq0
    d2bb:	1aef84        	ae_selp24.hh	aep0, aep6, aep7
    d2be:	5e8304        	ae_sp24x2f.iu	aep0, a3, 0
    d2c1:	5c9314        	ae_lp24x2f.iu	aep1, a3, 8
    d2c4:	5c8614        	ae_lp24x2f.iu	aep0, a6, 8
    d2c7:	0225f7        	blt	a5, a15, d2cd <fn_low_bin_compensate_phase_iem2+0x69>
    d2ca:	0045c6        	j	d3e5 <fn_low_bin_compensate_phase_iem2+0x181>
    d2cd:	f0028007af 	{ movi	a10, 7; ae_mulzaafp24s.hh.ll	aeq0, aep0, aep0 }
    d2d2:	360054        	ae_sllisq56s	aeq0, aeq0, 1
    d2d5:	fc00f7112f 	{ ae_sp24x2s.i	aep1, a1, 16; ae_satq48s	aeq0, aeq0 }
    d2da:	368804        	ae_trunca32q48	a8, aeq0
    d2dd:	40e890        	nsa	a9, a8
    d2e0:	899d           	ae_sext16	a9, a9
    d2e2:	401900        	ssl	a9
    d2e5:	a1b800        	sll	a11, a8
    d2e8:	cb7881        	l32r	a8, c8 (9cc <HIFI_sqrt>)
    d2eb:	c0aa90        	sub	a10, a10, a9
    d2ee:	0008e0        	callx8	a8
    d2f1:	fcca82        	addi	a8, a10, -4
    d2f4:	118800        	slli	a8, a8, 16
    d2f7:	31c080        	srai	a12, a8, 16
    d2fa:	401c00        	ssl	a12
    d2fd:	60a0c0        	neg	a10, a12
    d300:	a1cb00        	sll	a12, a11
    d303:	400a00        	ssr	a10
    d306:	0d0c           	movi.n	a13, 0
    d308:	0498           	l32i.n	a9, a4, 0
    d30a:	728d80        	salt	a8, a13, a8
    d30d:	b1e0b0        	sra	a14, a11
    d310:	93ec80        	movnez	a14, a12, a8
    d313:	1f0c           	movi.n	a15, 1
    d315:	53aef0        	max	a10, a14, a15
    d318:	078d           	mov.n	a8, a7
    d31a:	26a9a7        	bge	a9, a10, d344 <fn_low_bin_compensate_phase_iem2+0xe0>
    d31d:	40ea80        	nsa	a8, a10
    d320:	360934        	ae_cvtq48a32s	aeq0, a9
    d323:	888d           	ae_sext16	a8, a8
    d325:	fc24fe880f 	{ ae_slaasq56s	aeq0, aeq0, a8; nop }
    d32a:	fc00feca7f 	{ ae_cvtq48a32s	aeq1, a10; ae_satq48s	aeq0, aeq0 }
    d32f:	f1c882        	addi	a8, a8, -15
    d332:	fc24fe984f 	{ ae_slaasq56s	aeq1, aeq1, a8; nop }
    d337:	fd04ff0eef 	{ ae_trunca32q48	a14, aeq0; ae_satq48s	aeq1, aeq1 }
    d33c:	369f04        	ae_trunca32q48	a15, aeq1
    d33f:	d28ef0        	quos	a8, a14, a15
    d342:	a88d           	ae_clamps16	a8, a8
    d344:	14b8           	l32i.n	a11, a4, 4
    d346:	079d           	mov.n	a9, a7
    d348:	540124        	ae_lp24x2.i	aep0, a1, 16
    d34b:	26aba7        	bge	a11, a10, d375 <fn_low_bin_compensate_phase_iem2+0x111>
    d34e:	40ea90        	nsa	a9, a10
    d351:	360b34        	ae_cvtq48a32s	aeq0, a11
    d354:	899d           	ae_sext16	a9, a9
    d356:	fc24fe890f 	{ ae_slaasq56s	aeq0, aeq0, a9; nop }
    d35b:	fc00feca7f 	{ ae_cvtq48a32s	aeq1, a10; ae_satq48s	aeq0, aeq0 }
    d360:	f1c992        	addi	a9, a9, -15
    d363:	fc24fe994f 	{ ae_slaasq56s	aeq1, aeq1, a9; nop }
    d368:	fd04ff0eef 	{ ae_trunca32q48	a14, aeq0; ae_satq48s	aeq1, aeq1 }
    d36d:	369f04        	ae_trunca32q48	a15, aeq1
    d370:	d29ef0        	quos	a9, a14, a15
    d373:	a99d           	ae_clamps16	a9, a9
    d375:	f002800fcf 	{ movi	a12, 15; ae_mulzaafp24s.hh.ll	aeq0, aep0, aep0 }
    d37a:	360054        	ae_sllisq56s	aeq0, aeq0, 1
    d37d:	060844        	ae_satq48s	aeq0, aeq0
    d380:	1b8d74        	ae_roundsp24q48asym	aep7, aeq0
    d383:	4e7174        	ae_sp24s.l.i	aep7, a1, 28
    d386:	71a8           	l32i.n	a10, a1, 28
    d388:	f05a16        	beqz	a10, d291 <fn_low_bin_compensate_phase_iem2+0x2d>
    d38b:	40eab0        	nsa	a11, a10
    d38e:	401b00        	ssl	a11
    d391:	c0bcb0        	sub	a11, a12, a11
    d394:	04c0b0        	extui	a12, a11, 0, 1
    d397:	a1da00        	sll	a13, a10
    d39a:	400c00        	ssr	a12
    d39d:	b1a0d0        	sra	a10, a13
    d3a0:	41e9a0        	srli	a14, a10, 9
    d3a3:	65a9a0        	extui	a10, a10, 25, 7
    d3a6:	cb4af1        	l32r	a15, d0 (f2a0 <TABLE_SQRT>)
    d3a9:	f0caa2        	addi	a10, a10, -16
    d3ac:	0d0c           	movi.n	a13, 0
    d3ae:	53aad0        	max	a10, a10, a13
    d3b1:	90aaf0        	addx2	a10, a10, a15
    d3b4:	4add           	ae_l16ui.n	a13, a10, 0
    d3b6:	3aad           	ae_l16si.n	a10, a10, 2
    d3b8:	300ee4        	ae_cvtp24a16x2.ll	aep0, a14, a14
    d3bb:	11ed00        	slli	a14, a13, 16
    d3be:	c0aad0        	sub	a10, a10, a13
    d3c1:	11aa00        	slli	a10, a10, 16
    d3c4:	bcba           	add.n	a11, a12, a11
    d3c6:	360e34        	ae_cvtq48a32s	aeq0, a14
    d3c9:	364a34        	ae_cvtq48a32s	aeq1, a10
    d3cc:	21f1b0        	srai	a15, a11, 1
    d3cf:	d4e10f9fae 	{ addi	a10, a15, -7; ae_mulaq32sp16u.l	aeq0, aeq1, aep0 }
    d3d4:	61c114        	ae_lq56.i	aeq3, a1, 8
    d3d7:	fc24fe8a0f 	{ ae_slaasq56s	aeq0, aeq0, a10; nop }
    d3dc:	010bc4        	ae_addq56	aeq0, aeq0, aeq3
    d3df:	368a04        	ae_trunca32q48	a10, aeq0
    d3e2:	ffab46        	j	d293 <fn_low_bin_compensate_phase_iem2+0x2f>

0000d3e5 <fn_low_bin_compensate_phase_iem2+0x181>:
    d3e5:	f01d           	retw.n

0000d3e7 <fn_low_bin_compensate_phase_iem2+0x183>:
	...

0000d3e8 <inear_VAD_detection_iem2>:
    d3e8:	004136        	entry	a1, 32
    d3eb:	bb2242        	l32i	a4, a2, 0x2ec
    d3ee:	a42232        	l32i	a3, a2, 0x290
    d3f1:	00a1c2        	movi	a12, 0x100
    d3f4:	b4cb           	addi.n	a11, a4, 12
    d3f6:	cb5841        	l32r	a4, 158 (d6fc <xt_memcpy>)
    d3f9:	03ad           	mov.n	a10, a3
    d3fb:	0004e0        	callx8	a4
    d3fe:	1bd242        	addmi	a4, a2, 0x1b00
    d401:	209442        	l16si	a4, a4, 64
    d404:	f51c           	movi.n	a5, 31
    d406:	bc1c           	movi.n	a12, 27
    d408:	c0b540        	sub	a11, a5, a4
    d40b:	cc8e41        	l32r	a4, 644 (af5c <target_power>)
    d40e:	80a0d2        	movi	a13, 128
    d411:	03ad           	mov.n	a10, a3
    d413:	0004e0        	callx8	a4
    d416:	02d252        	addmi	a5, a2, 0x200
    d419:	5d9552        	l16si	a5, a5, 186
    d41c:	140c           	movi.n	a4, 1
    d41e:	114410        	slli	a4, a4, 15
    d421:	046d           	mov.n	a6, a4
    d423:	0255e6        	bgei	a5, 5, d429 <inear_VAD_detection_iem2+0x41>
    d426:	002f46        	j	d4e7 <inear_VAD_detection_iem2+0xff>
    d429:	95ad           	ae_zext16	a10, a5
    d42b:	fdcaa2        	addi	a10, a10, -3
    d42e:	ba0b           	addi.n	a11, a10, -1
    d430:	cc8661        	l32r	a6, 648 (7ffffb00 <_end+0x7fff0560>)
    d433:	cc83a1        	l32r	a10, 640 (7fffff00 <_end+0x7fff0960>)
    d436:	f87c           	movi.n	a8, -1
    d438:	534b           	addi.n	a5, a3, 4
    d43a:	030c           	movi.n	a3, 0
    d43c:	00af72        	movi	a7, 0xffffff00
    d43f:	018810        	slli	a8, a8, 31
    d442:	ffaf92        	movi	a9, -1
    d445:	328b76        	loop	a11, d47b <inear_VAD_detection_iem2+0x93>
    d448:	05b8           	l32i.n	a11, a5, 0
    d44a:	31cf30        	srai	a12, a3, 31
    d44d:	0afd           	mov.n	a15, a10
    d44f:	43bb60        	min	a11, a11, a6
    d452:	04dbb2        	addmi	a11, a11, 0x400
    d455:	21b3b0        	srai	a11, a11, 3
    d458:	10bb70        	and	a11, a11, a7
    d45b:	eb3a           	add.n	a14, a11, a3
    d45d:	62beb0        	saltu	a11, a14, a11
    d460:	bcba           	add.n	a11, a12, a11
    d462:	73de80        	maxu	a13, a14, a8
    d465:	cb1b           	addi.n	a12, a11, 1
    d467:	a3e8b0        	movltz	a14, a8, a11
    d46a:	83edc0        	moveqz	a14, a13, a12
    d46d:	53bb90        	max	a11, a11, a9
    d470:	a3feb0        	movltz	a15, a14, a11
    d473:	633ea0        	minu	a3, a14, a10
    d476:	554b           	addi.n	a5, a5, 4
    d478:	933fb0        	movnez	a3, a15, a11

0000d47b <inear_VAD_detection_iem2+0x93>:
    d47b:	215830        	srai	a5, a3, 8
    d47e:	046d           	mov.n	a6, a4
    d480:	063516        	beqz	a5, d4e7 <inear_VAD_detection_iem2+0xff>
    d483:	40e560        	nsa	a6, a5
    d486:	661b           	addi.n	a6, a6, 1
    d488:	116600        	slli	a6, a6, 16
    d48b:	070c           	movi.n	a7, 0
    d48d:	316060        	srai	a6, a6, 16
    d490:	b37630        	movgez	a7, a6, a3
    d493:	fb0c           	movi.n	a11, 15
    d495:	d1a4c2        	movi	a12, 0x4d1
    d498:	401700        	ssl	a7
    d49b:	a1f500        	sll	a15, a5
    d49e:	116c50        	slli	a6, a12, 11
    d4a1:	c03b70        	sub	a3, a11, a7
    d4a4:	fd7c           	movi.n	a13, -1
    d4a6:	826360        	mull	a6, a3, a6
    d4a9:	cc6831        	l32r	a3, 64c (f200 <log_coef>)
    d4ac:	117d10        	slli	a7, a13, 15
    d4af:	f550f0        	extui	a5, a15, 16, 16
    d4b2:	305570        	xor	a5, a5, a7
    d4b5:	360634        	ae_cvtq48a32s	aeq0, a6
    d4b8:	301554        	ae_cvtp24a16x2.ll	aep1, a5, a5
    d4bb:	5e0c           	movi.n	a14, 5
    d4bd:	f966ac830f 	{ ae_lp16f.iu	aep0, a3, 0; ae_movp48	aep2, aep1 }
    d4c2:	350214        	ae_slliq56	aeq0, aeq0, 8
    d4c5:	0a8e76        	loop	a14, d4d3 <inear_VAD_detection_iem2+0xeb>
    d4c8:	012974        	ae_mulfp24s.ll	aeq1, aep2, aep1
    d4cb:	e6432c831f 	{ ae_lp16f.iu	aep0, a3, 2; ae_mulap24s.ll	aeq0, aep0, aep2 }
    d4d0:	1b9f24        	ae_roundsp16q48asym	aep2, aeq1
    d4d3:	f37c           	movi.n	a3, -1
    d4d5:	113300        	slli	a3, a3, 16
    d4d8:	3500f4        	ae_sraiq56	aeq0, aeq0, 3
    d4db:	364334        	ae_cvtq48a32s	aeq1, a3
    d4de:	0110e4        	ae_andq56	aeq0, aeq0, aeq1
    d4e1:	1b8f04        	ae_roundsp16q48asym	aep0, aeq0
    d4e4:	360624        	ae_trunca16p24s.l	a6, aep0

0000d4e7 <inear_VAD_detection_iem2+0xff>:
    d4e7:	cc5a71        	l32r	a7, 650 (d49a <inear_VAD_detection_iem2+0xb2>)
    d4ea:	866d           	ae_sext16	a6, a6
    d4ec:	02d232        	addmi	a3, a2, 0x200
    d4ef:	826670        	mull	a6, a6, a7
    d4f2:	4c9392        	l16si	a9, a3, 152
    d4f5:	464a           	add.n	a4, a6, a4
    d4f7:	94a252        	movi	a5, 0x294
    d4fa:	f56040        	extui	a6, a4, 16, 16
    d4fd:	314040        	srai	a4, a4, 16
    d500:	825a           	add.n	a8, a2, a5
    d502:	724490        	salt	a4, a4, a9
    d505:	5e9352        	l16si	a5, a3, 188
    d508:	936940        	movnez	a6, a9, a4
    d50b:	866d           	ae_sext16	a6, a6
    d50d:	5f93a2        	l16si	a10, a3, 190
    d510:	e88b           	addi.n	a14, a8, 8
    d512:	c86b           	addi.n	a12, a8, 6
    d514:	72f560        	salt	a15, a5, a6
    d517:	83cef0        	moveqz	a12, a14, a15
    d51a:	2c7d           	ae_l16si.n	a7, a12, 0
    d51c:	d8cb           	addi.n	a13, a8, 12
    d51e:	98ab           	addi.n	a9, a8, 10
    d520:	72fa60        	salt	a15, a10, a6
    d523:	c0e650        	sub	a14, a6, a5
    d526:	2cc842        	addi	a4, a8, 44
    d529:	ae8d           	ae_clamps16	a8, a14
    d52b:	839df0        	moveqz	a9, a13, a15
    d52e:	d17870        	mul16s	a7, a8, a7
    d531:	298d           	ae_l16si.n	a8, a9, 0
    d533:	c066a0        	sub	a6, a6, a10
    d536:	a66d           	ae_clamps16	a6, a6
    d538:	d16680        	mul16s	a6, a6, a8
    d53b:	40d772        	addmi	a7, a7, 0x4000
    d53e:	1177f0        	slli	a7, a7, 1
    d541:	40d662        	addmi	a6, a6, 0x4000
    d544:	317070        	srai	a7, a7, 16
    d547:	4a93b2        	l16si	a11, a3, 148
    d54a:	1166f0        	slli	a6, a6, 1
    d54d:	575a           	add.n	a5, a7, a5
    d54f:	316060        	srai	a6, a6, 16
    d552:	a55d           	ae_clamps16	a5, a5
    d554:	66aa           	add.n	a6, a6, a10
    d556:	5e5352        	s16i	a5, a3, 188
    d559:	55ba           	add.n	a5, a5, a11
    d55b:	a66d           	ae_clamps16	a6, a6
    d55d:	a55d           	ae_clamps16	a5, a5
    d55f:	5f5362        	s16i	a6, a3, 190
    d562:	0da567        	bge	a5, a6, d573 <inear_VAD_detection_iem2+0x18b>
    d565:	130c           	movi.n	a3, 1
    d567:	02d222        	addmi	a2, a2, 0x200
    d56a:	0f0c           	movi.n	a15, 0
    d56c:	643d           	ae_s16i.n	a3, a4, 0
    d56e:	6152f2        	s16i	a15, a2, 194
    d571:	f01d           	retw.n

0000d573 <inear_VAD_detection_iem2+0x18b>:
    d573:	02d232        	addmi	a3, a2, 0x200
    d576:	446d           	ae_l16ui.n	a6, a4, 0
    d578:	619352        	l16si	a5, a3, 194
    d57b:	02d222        	addmi	a2, a2, 0x200
    d57e:	0c1666        	bnei	a6, 1, d58e <inear_VAD_detection_iem2+0x1a6>
    d581:	4b9222        	l16si	a2, a2, 150
    d584:	06a257        	bge	a2, a5, d58e <inear_VAD_detection_iem2+0x1a6>
    d587:	020c           	movi.n	a2, 0
    d589:	642d           	ae_s16i.n	a2, a4, 0
    d58b:	000046        	j	d590 <inear_VAD_detection_iem2+0x1a8>

0000d58e <inear_VAD_detection_iem2+0x1a6>:
    d58e:	251b           	addi.n	a2, a5, 1
    d590:	615322        	s16i	a2, a3, 194
    d593:	f01d           	retw.n

0000d595 <inear_VAD_detection_iem2+0x1ad>:
    d595:	000000                                        ...

0000d598 <Wear_Detection_iem2>:
    d598:	004136        	entry	a1, 32
    d59b:	1bd2a2        	addmi	a10, a2, 0x1b00
    d59e:	02d272        	addmi	a7, a2, 0x200
    d5a1:	fc24a20ade 	{ l16si	a13, a10, 64; ae_zeroq56	aeq0 }
    d5a6:	8f1762        	l16ui	a6, a7, 0x11e
    d5a9:	691742        	l16ui	a4, a7, 210
    d5ac:	fd046687ae 	{ l16si	a10, a7, 208; ae_movq56	aeq1, aeq0 }
    d5b1:	bb2252        	l32i	a5, a2, 0x2ec
    d5b4:	6b9772        	l16si	a7, a7, 214
    d5b7:	c0f4a0        	sub	a15, a4, a10
    d5ba:	130c           	movi.n	a3, 1
    d5bc:	9f1b           	addi.n	a9, a15, 1
    d5be:	113310        	slli	a3, a3, 15
    d5c1:	f8cde2        	addi	a14, a13, -8
    d5c4:	899d           	ae_sext16	a9, a9
    d5c6:	c08370        	sub	a8, a3, a7
    d5c9:	558b           	addi.n	a5, a5, 8
    d5cb:	8e3d           	ae_sext16	a3, a14
    d5cd:	1a19a6        	blti	a9, 1, d5eb <Wear_Detection_iem2+0x53>
    d5d0:	a0aa50        	addx4	a10, a10, a5
    d5d3:	fccaa2        	addi	a10, a10, -4
    d5d6:	605a04        	ae_lq32f.iu	aeq1, a10, 0
    d5d9:	fd047e938f 	{ ae_slaasq56s	aeq2, aeq1, a3; ae_movq56	aeq1, aeq0 }
    d5de:	098976        	loop	a9, d5eb <Wear_Detection_iem2+0x53>
    d5e1:	f9ea3d7a1f 	{ ae_lq32f.iu	aeq3, a10, 4; ae_addq56	aeq1, aeq1, aeq2 }
    d5e6:	fc24feb38f 	{ ae_slaasq56s	aeq2, aeq3, a3; nop }

0000d5eb <Wear_Detection_iem2+0x53>:
    d5eb:	300874        	ae_cvtp24a16x2.ll	aep0, a8, a7
    d5ee:	998c           	beqz.n	a9, d5fb <Wear_Detection_iem2+0x63>
    d5f0:	369704        	ae_trunca32q48	a7, aeq1
    d5f3:	d27790        	quos	a7, a7, a9
    d5f6:	000186        	j	d600 <Wear_Detection_iem2+0x68>

0000d5f9 <Wear_Detection_iem2+0x61>:
	...

0000d5fb <Wear_Detection_iem2+0x63>:
    d5fb:	f77c           	movi.n	a7, -1
    d5fd:	417170        	srli	a7, a7, 1
    d600:	b62282        	l32i	a8, a2, 0x2d8
    d603:	364834        	ae_cvtq48a32s	aeq1, a8
    d606:	d4637ec7bf 	{ ae_cvtq48a32s	aeq2, a7; ae_mulfq32sp16s.h	aeq1, aeq1, aep0 }
    d60b:	f682d5664f 	{ sub	a6, a6, a4; ae_mulafq32sp16s.l	aeq1, aeq2, aep0 }
    d610:	661b           	addi.n	a6, a6, 1
    d612:	867d           	ae_sext16	a7, a6
    d614:	369604        	ae_trunca32q48	a6, aeq1
    d617:	b66262        	s32i	a6, a2, 0x2d8
    d61a:	1c17a6        	blti	a7, 1, d63a <Wear_Detection_iem2+0xa2>
    d61d:	844d           	ae_sext16	a4, a4
    d61f:	a04450        	addx4	a4, a4, a5
    d622:	fcc442        	addi	a4, a4, -4
    d625:	605404        	ae_lq32f.iu	aeq1, a4, 0
    d628:	fc24fe934f 	{ ae_slaasq56s	aeq1, aeq1, a3; nop }
    d62d:	098776        	loop	a7, d63a <Wear_Detection_iem2+0xa2>
    d630:	f8663d541f 	{ ae_lq32f.iu	aeq2, a4, 4; ae_addq56	aeq0, aeq0, aeq1 }
    d635:	fc24fea34f 	{ ae_slaasq56s	aeq1, aeq2, a3; nop }

0000d63a <Wear_Detection_iem2+0xa2>:
    d63a:	778c           	beqz.n	a7, d645 <Wear_Detection_iem2+0xad>
    d63c:	368304        	ae_trunca32q48	a3, aeq0
    d63f:	d23370        	quos	a3, a3, a7
    d642:	000106        	j	d64a <Wear_Detection_iem2+0xb2>

0000d645 <Wear_Detection_iem2+0xad>:
    d645:	f37c           	movi.n	a3, -1
    d647:	413130        	srli	a3, a3, 1
    d64a:	b72242        	l32i	a4, a2, 0x2dc
    d64d:	360434        	ae_cvtq48a32s	aeq0, a4
    d650:	d4623ec37f 	{ ae_cvtq48a32s	aeq1, a3; ae_mulfq32sp16s.h	aeq0, aeq0, aep0 }
    d655:	f4838347ff 	{ movi	a15, 0x347; ae_mulafq32sp16s.l	aeq0, aeq1, aep0 }
    d65a:	a04ff0        	addx4	a4, a15, a15
    d65d:	368304        	ae_trunca32q48	a3, aeq0
    d660:	b76232        	s32i	a3, a2, 0x2dc
    d663:	1f2647        	blt	a6, a4, d686 <Wear_Detection_iem2+0xee>
    d666:	02d242        	addmi	a4, a2, 0x200
    d669:	671442        	l16ui	a4, a4, 206
    d66c:	360634        	ae_cvtq48a32s	aeq0, a6
    d66f:	300444        	ae_cvtp24a16x2.ll	aep0, a4, a4
    d672:	d4e200015f 	{ movi	a5, 1; ae_mulfq32sp16s.l	aeq0, aeq0, aep0 }
    d677:	02d222        	addmi	a2, a2, 0x200
    d67a:	3500d4        	ae_slliq56	aeq0, aeq0, 3
    d67d:	368f04        	ae_trunca32q48	a15, aeq0
    d680:	02af37        	bge	a15, a3, d686 <Wear_Detection_iem2+0xee>
    d683:	705252        	s16i	a5, a2, 224
    d686:	f01d           	retw.n

0000d688 <__do_global_ctors_aux>:
    d688:	004136        	entry	a1, 32
    d68b:	cbf231        	l32r	a3, 654 (e4b0 <__CTOR_END__>)
    d68e:	fcc322        	addi	a2, a3, -4
    d691:	0228           	l32i.n	a2, a2, 0
    d693:	f8c332        	addi	a3, a3, -8
    d696:	0a0226        	beqi	a2, -1, d6a4 <__do_global_ctors_aux+0x1c>

0000d699 <__do_global_ctors_aux+0x11>:
    d699:	0002e0        	callx8	a2
    d69c:	0328           	l32i.n	a2, a3, 0
    d69e:	fcc332        	addi	a3, a3, -4
    d6a1:	f40266        	bnei	a2, -1, d699 <__do_global_ctors_aux+0x11>
    d6a4:	f01d           	retw.n

0000d6a6 <__do_global_ctors_aux+0x1e>:
	...

0000d6a8 <cal_wind_score>:
    d6a8:	006136        	entry	a1, 48
    d6ab:	116330        	slli	a6, a3, 13
    d6ae:	c05260        	sub	a5, a2, a6
    d6b1:	1f0c           	movi.n	a15, 1
    d6b3:	112f30        	slli	a2, a15, 13
    d6b6:	0815a6        	blti	a5, 1, d6c2 <cal_wind_score+0x1a>
    d6b9:	0ca567        	bge	a5, a6, d6c9 <cal_wind_score+0x21>
    d6bc:	d23530        	quos	a3, a5, a3
    d6bf:	000046        	j	d6c4 <cal_wind_score+0x1c>

0000d6c2 <cal_wind_score+0x1a>:
    d6c2:	030c           	movi.n	a3, 0
    d6c4:	3139           	s32i.n	a3, a1, 12
    d6c6:	0000c6        	j	d6cd <cal_wind_score+0x25>

0000d6c9 <cal_wind_score+0x21>:
    d6c9:	023d           	mov.n	a3, a2
    d6cb:	3129           	s32i.n	a2, a1, 12
    d6cd:	360234        	ae_cvtq48a32s	aeq0, a2
    d6d0:	364334        	ae_cvtq48a32s	aeq1, a3
    d6d3:	300444        	ae_cvtp24a16x2.ll	aep0, a4, a4
    d6d6:	030454        	ae_mulsfq32sp16s.l	aeq0, aeq1, aep0
    d6d9:	350054        	ae_slliq56	aeq0, aeq0, 1
    d6dc:	620134        	ae_sq32f.i	aeq0, a1, 12
    d6df:	069122        	l16si	a2, a1, 12
    d6e2:	f01d           	retw.n

0000d6e4 <cal_wind_score+0x3c>:
    d6e4:	00000000                                ....

0000d6e8 <xt_memset>:
    d6e8:	004136        	entry	a1, 32
    d6eb:	928c           	beqz.n	a2, d6f8 <xt_memset+0x10>
    d6ed:	748c           	beqz.n	a4, d6f8 <xt_memset+0x10>
    d6ef:	025d           	mov.n	a5, a2
    d6f1:	038476        	loop	a4, d6f8 <xt_memset+0x10>
    d6f4:	653d           	ae_s16i.n	a3, a5, 0
    d6f6:	552b           	addi.n	a5, a5, 2

0000d6f8 <xt_memset+0x10>:
    d6f8:	f01d           	retw.n

0000d6fa <xt_memset+0x12>:
	...

0000d6fc <xt_memcpy>:
    d6fc:	004136        	entry	a1, 32
    d6ff:	025d           	mov.n	a5, a2
    d701:	020c           	movi.n	a2, 0
    d703:	b5bc           	beqz.n	a5, d742 <xt_memcpy+0x46>
    d705:	93bc           	beqz.n	a3, d742 <xt_memcpy+0x46>
    d707:	24b357        	bgeu	a3, a5, d72f <xt_memcpy+0x33>
    d70a:	902430        	addx2	a2, a4, a3
    d70d:	1eb527        	bgeu	a5, a2, d72f <xt_memcpy+0x33>
    d710:	052d           	mov.n	a2, a5
    d712:	c4ac           	beqz.n	a4, d742 <xt_memcpy+0x46>
    d714:	240b           	addi.n	a2, a4, -1
    d716:	1122f0        	slli	a2, a2, 1
    d719:	332a           	add.n	a3, a3, a2
    d71b:	652a           	add.n	a6, a5, a2
    d71d:	0b8476        	loop	a4, d72c <xt_memcpy+0x30>
    d720:	232d           	ae_l16si.n	a2, a3, 0
    d722:	662d           	ae_s16i.n	a2, a6, 0
    d724:	fec332        	addi	a3, a3, -2
    d727:	052d           	mov.n	a2, a5
    d729:	fec662        	addi	a6, a6, -2

0000d72c <xt_memcpy+0x30>:
    d72c:	000486        	j	d742 <xt_memcpy+0x46>

0000d72f <xt_memcpy+0x33>:
    d72f:	052d           	mov.n	a2, a5
    d731:	d48c           	beqz.n	a4, d742 <xt_memcpy+0x46>
    d733:	056d           	mov.n	a6, a5
    d735:	098476        	loop	a4, d742 <xt_memcpy+0x46>
    d738:	232d           	ae_l16si.n	a2, a3, 0
    d73a:	662d           	ae_s16i.n	a2, a6, 0
    d73c:	332b           	addi.n	a3, a3, 2
    d73e:	052d           	mov.n	a2, a5
    d740:	662b           	addi.n	a6, a6, 2

0000d742 <xt_memcpy+0x46>:
    d742:	f01d           	retw.n

0000d744 <__udivdi3>:
    d744:	004136        	entry	a1, 32
    d747:	036d           	mov.n	a6, a3
    d749:	027d           	mov.n	a7, a2
    d74b:	0b5516        	beqz	a5, d804 <__udivdi3+0xc0>
    d74e:	030c           	movi.n	a3, 0
    d750:	020c           	movi.n	a2, 0
    d752:	02b657        	bgeu	a6, a5, d758 <__udivdi3+0x14>
    d755:	002a46        	j	d802 <__udivdi3+0xbe>
    d758:	40f580        	nsau	a8, a5
    d75b:	1b9816        	beqz	a8, d918 <__udivdi3+0x1d4>
    d75e:	022c           	movi.n	a2, 32
    d760:	401800        	ssl	a8
    d763:	c0b280        	sub	a11, a2, a8
    d766:	a1e500        	sll	a14, a5
    d769:	400b00        	ssr	a11
    d76c:	91f040        	srl	a15, a4
    d76f:	401800        	ssl	a8
    d772:	202fe0        	or	a2, a15, a14
    d775:	a14400        	sll	a4, a4
    d778:	400b00        	ssr	a11
    d77b:	91d060        	srl	a13, a6
    d77e:	401800        	ssl	a8
    d781:	f5a020        	extui	a10, a2, 16, 16
    d784:	a16600        	sll	a6, a6
    d787:	400b00        	ssr	a11
    d78a:	c2bda0        	quou	a11, a13, a10
    d78d:	91c070        	srl	a12, a7
    d790:	82eba0        	mull	a14, a11, a10
    d793:	205c60        	or	a5, a12, a6
    d796:	929d           	ae_zext16	a9, a2
    d798:	c0fde0        	sub	a15, a13, a14
    d79b:	f5d050        	extui	a13, a5, 16, 16
    d79e:	82cb90        	mull	a12, a11, a9
    d7a1:	0bffd0        	depbits	a13, a15, 16, 16
    d7a4:	0b6d           	mov.n	a6, a11
    d7a6:	401800        	ssl	a8
    d7a9:	10bdc7        	bgeu	a13, a12, d7bd <__udivdi3+0x79>
    d7ac:	dd2a           	add.n	a13, a13, a2
    d7ae:	ffcb62        	addi	a6, a11, -1
    d7b1:	083d27        	bltu	a13, a2, d7bd <__udivdi3+0x79>
    d7b4:	05bdc7        	bgeu	a13, a12, d7bd <__udivdi3+0x79>
    d7b7:	fecb62        	addi	a6, a11, -2
    d7ba:	80dd20        	add	a13, a13, a2

0000d7bd <__udivdi3+0x79>:
    d7bd:	c0cdc0        	sub	a12, a13, a12
    d7c0:	c2bca0        	quou	a11, a12, a10
    d7c3:	82aba0        	mull	a10, a11, a10
    d7c6:	828b90        	mull	a8, a11, a9
    d7c9:	c0fca0        	sub	a15, a12, a10
    d7cc:	0bff50        	depbits	a5, a15, 16, 16
    d7cf:	0b9d           	mov.n	a9, a11
    d7d1:	10b587        	bgeu	a5, a8, d7e5 <__udivdi3+0xa1>
    d7d4:	552a           	add.n	a5, a5, a2
    d7d6:	ffcb92        	addi	a9, a11, -1
    d7d9:	083527        	bltu	a5, a2, d7e5 <__udivdi3+0xa1>
    d7dc:	05b587        	bgeu	a5, a8, d7e5 <__udivdi3+0xa1>
    d7df:	fecb92        	addi	a9, a11, -2
    d7e2:	805520        	add	a5, a5, a2
    d7e5:	112600        	slli	a2, a6, 16
    d7e8:	202920        	or	a2, a9, a2
    d7eb:	a26240        	muluh	a6, a2, a4
    d7ee:	c05580        	sub	a5, a5, a8
    d7f1:	0b3567        	bltu	a5, a6, d800 <__udivdi3+0xbc>
    d7f4:	824240        	mull	a4, a2, a4
    d7f7:	a17700        	sll	a7, a7
    d7fa:	04b747        	bgeu	a7, a4, d802 <__udivdi3+0xbe>
    d7fd:	019567        	bne	a5, a6, d802 <__udivdi3+0xbe>
    d800:	220b           	addi.n	a2, a2, -1
    d802:	f01d           	retw.n

0000d804 <__udivdi3+0xc0>:
    d804:	40f430        	nsau	a3, a4
    d807:	7eb647        	bgeu	a6, a4, d889 <__udivdi3+0x145>
    d80a:	b39c           	beqz.n	a3, d829 <__udivdi3+0xe5>
    d80c:	022c           	movi.n	a2, 32
    d80e:	401300        	ssl	a3
    d811:	c02230        	sub	a2, a2, a3
    d814:	a14400        	sll	a4, a4
    d817:	a15600        	sll	a5, a6
    d81a:	400200        	ssr	a2
    d81d:	912070        	srl	a2, a7
    d820:	401300        	ssl	a3
    d823:	206250        	or	a6, a2, a5
    d826:	a17700        	sll	a7, a7
    d829:	f55040        	extui	a5, a4, 16, 16
    d82c:	c28650        	quou	a8, a6, a5
    d82f:	822850        	mull	a2, a8, a5
    d832:	943d           	ae_zext16	a3, a4
    d834:	c02620        	sub	a2, a6, a2
    d837:	f59070        	extui	a9, a7, 16, 16
    d83a:	826830        	mull	a6, a8, a3
    d83d:	0bf290        	depbits	a9, a2, 16, 16
    d840:	082d           	mov.n	a2, a8
    d842:	0fb967        	bgeu	a9, a6, d855 <__udivdi3+0x111>
    d845:	994a           	add.n	a9, a9, a4
    d847:	280b           	addi.n	a2, a8, -1
    d849:	083947        	bltu	a9, a4, d855 <__udivdi3+0x111>
    d84c:	05b967        	bgeu	a9, a6, d855 <__udivdi3+0x111>
    d84f:	fec822        	addi	a2, a8, -2
    d852:	809940        	add	a9, a9, a4
    d855:	c08960        	sub	a8, a9, a6
    d858:	c26850        	quou	a6, a8, a5
    d85b:	825650        	mull	a5, a6, a5
    d85e:	823630        	mull	a3, a6, a3
    d861:	c05850        	sub	a5, a8, a5
    d864:	0bf570        	depbits	a7, a5, 16, 16
    d867:	11b737        	bgeu	a7, a3, d87c <__udivdi3+0x138>
    d86a:	574a           	add.n	a5, a7, a4
    d86c:	623530        	saltu	a3, a5, a3
    d86f:	ff7c           	movi.n	a15, -1
    d871:	624540        	saltu	a4, a5, a4
    d874:	c03f30        	sub	a3, a15, a3
    d877:	933f40        	movnez	a3, a15, a4
    d87a:	636a           	add.n	a6, a3, a6
    d87c:	112200        	slli	a2, a2, 16
    d87f:	202620        	or	a2, a6, a2
    d882:	030c           	movi.n	a3, 0
    d884:	f01d           	retw.n

0000d886 <__udivdi3+0x142>:
    d886:	000000                                        ...

0000d889 <__udivdi3+0x145>:
    d889:	09c316        	beqz	a3, d929 <__udivdi3+0x1e5>
    d88c:	022c           	movi.n	a2, 32
    d88e:	401300        	ssl	a3
    d891:	c09230        	sub	a9, a2, a3
    d894:	a14400        	sll	a4, a4
    d897:	400900        	ssr	a9
    d89a:	91a060        	srl	a10, a6
    d89d:	401300        	ssl	a3
    d8a0:	f52040        	extui	a2, a4, 16, 16
    d8a3:	e57c           	movi.n	a5, -2
    d8a5:	a1e600        	sll	a14, a6
    d8a8:	400900        	ssr	a9
    d8ab:	c29a20        	quou	a9, a10, a2
    d8ae:	82b920        	mull	a11, a9, a2
    d8b1:	f45050        	extui	a5, a5, 0, 16
    d8b4:	91f070        	srl	a15, a7
    d8b7:	108450        	and	a8, a4, a5
    d8ba:	205fe0        	or	a5, a15, a14
    d8bd:	c0bab0        	sub	a11, a10, a11
    d8c0:	f5a050        	extui	a10, a5, 16, 16
    d8c3:	826980        	mull	a6, a9, a8
    d8c6:	0bfba0        	depbits	a10, a11, 16, 16
    d8c9:	401300        	ssl	a3
    d8cc:	093d           	mov.n	a3, a9
    d8ce:	0eba67        	bgeu	a10, a6, d8e0 <__udivdi3+0x19c>
    d8d1:	aa4a           	add.n	a10, a10, a4
    d8d3:	390b           	addi.n	a3, a9, -1
    d8d5:	073a47        	bltu	a10, a4, d8e0 <__udivdi3+0x19c>
    d8d8:	04ba67        	bgeu	a10, a6, d8e0 <__udivdi3+0x19c>
    d8db:	fec932        	addi	a3, a9, -2
    d8de:	aa4a           	add.n	a10, a10, a4
    d8e0:	c0aa60        	sub	a10, a10, a6
    d8e3:	c29a20        	quou	a9, a10, a2
    d8e6:	82b920        	mull	a11, a9, a2
    d8e9:	826980        	mull	a6, a9, a8
    d8ec:	c0fab0        	sub	a15, a10, a11
    d8ef:	0bff50        	depbits	a5, a15, 16, 16
    d8f2:	098d           	mov.n	a8, a9
    d8f4:	10b567        	bgeu	a5, a6, d908 <__udivdi3+0x1c4>
    d8f7:	554a           	add.n	a5, a5, a4
    d8f9:	ffc982        	addi	a8, a9, -1
    d8fc:	083547        	bltu	a5, a4, d908 <__udivdi3+0x1c4>
    d8ff:	05b567        	bgeu	a5, a6, d908 <__udivdi3+0x1c4>
    d902:	fec982        	addi	a8, a9, -2
    d905:	805540        	add	a5, a5, a4
    d908:	113300        	slli	a3, a3, 16
    d90b:	a17700        	sll	a7, a7
    d90e:	c05560        	sub	a5, a5, a6
    d911:	203830        	or	a3, a8, a3
    d914:	000646        	j	d931 <__udivdi3+0x1ed>

0000d917 <__udivdi3+0x1d3>:
	...

0000d918 <__udivdi3+0x1d4>:
    d918:	624740        	saltu	a4, a7, a4
    d91b:	1f0c           	movi.n	a15, 1
    d91d:	622560        	saltu	a2, a5, a6
    d920:	3044f0        	xor	a4, a4, a15
    d923:	202420        	or	a2, a4, a2
    d926:	f01d           	retw.n

0000d928 <__udivdi3+0x1e4>:
	...

0000d929 <__udivdi3+0x1e5>:
    d929:	c05640        	sub	a5, a6, a4
    d92c:	f52040        	extui	a2, a4, 16, 16
    d92f:	130c           	movi.n	a3, 1
    d931:	c28520        	quou	a8, a5, a2
    d934:	82a820        	mull	a10, a8, a2
    d937:	946d           	ae_zext16	a6, a4
    d939:	c0f5a0        	sub	a15, a5, a10
    d93c:	f59070        	extui	a9, a7, 16, 16
    d93f:	82a860        	mull	a10, a8, a6
    d942:	0bff90        	depbits	a9, a15, 16, 16
    d945:	085d           	mov.n	a5, a8
    d947:	0eb9a7        	bgeu	a9, a10, d959 <__udivdi3+0x215>
    d94a:	994a           	add.n	a9, a9, a4
    d94c:	580b           	addi.n	a5, a8, -1
    d94e:	073947        	bltu	a9, a4, d959 <__udivdi3+0x215>
    d951:	04b9a7        	bgeu	a9, a10, d959 <__udivdi3+0x215>
    d954:	fec852        	addi	a5, a8, -2
    d957:	994a           	add.n	a9, a9, a4
    d959:	c099a0        	sub	a9, a9, a10
    d95c:	c28920        	quou	a8, a9, a2
    d95f:	82e820        	mull	a14, a8, a2
    d962:	822860        	mull	a2, a8, a6
    d965:	c0f9e0        	sub	a15, a9, a14
    d968:	0bff70        	depbits	a7, a15, 16, 16
    d96b:	11b727        	bgeu	a7, a2, d980 <__udivdi3+0x23c>
    d96e:	674a           	add.n	a6, a7, a4
    d970:	622620        	saltu	a2, a6, a2
    d973:	ff7c           	movi.n	a15, -1
    d975:	624640        	saltu	a4, a6, a4
    d978:	c02f20        	sub	a2, a15, a2
    d97b:	932f40        	movnez	a2, a15, a4
    d97e:	828a           	add.n	a8, a2, a8
    d980:	112500        	slli	a2, a5, 16
    d983:	202820        	or	a2, a8, a2
    d986:	f01d           	retw.n

0000d988 <_fini>:
    d988:	008136        	entry	a1, 64
    d98b:	cb3381        	l32r	a8, 658 (674 <__do_global_dtors_aux>)
    d98e:	f03d           	nop.n
    d990:	0008e0        	callx8	a8

0000d993 <_fini+0xb>:
    d993:	f01d           	retw.n
