
Build/lib/pisplit_ecnr_inear_v2_swb_prcs_position_independent.splitload.lib:     file format elf32-xtensa-le


Disassembly of section .text:

00000000 <_init-0x65c>:
       0:	000006a8 0000d688 0000e4dc 00000000     ................
      10:	0000e4a8 00000000 0000e4c4 0000f598     ................
      20:	0000e55c 00006508 0000e576 00003460     \....e..v...`4..
      30:	0000e58d 00003358 0000e5a8 000031c4     ....X3.......1..
      40:	0000e5bf 000032a0 0000e5d6 000033b0     .....2.......3..
      50:	0000e5f4 000083f0 0000e60d 00006520     ............ e..
      60:	0000e61d 00003108 0000e637 00003420     .....1..7... 4..
      70:	0000e659 0000832c 0000e676 000049cc     Y...,...v....I..
      80:	0000e694 000049b4 0000e6b4 00003100     .....I.......1..
      90:	0000e6c7 000032fc 0000e6df 000049f8     .....2.......I..
      a0:	0000e6f7 000064f0 0000e718 00003430     .....d......04..
      b0:	0000e739 00003400 0000e75a 00006514     9....4..Z....e..
      c0:	0000e4f0 00009cc8 000009cc 0000f59c     ................
      d0:	0000f2a0 0000f310 00009c74 00009c70     ........t...p...
      e0:	00009c66 00009c64 00009c5c 00009c62     f...d...\...b...
      f0:	0000f560 0000f500 dacccccd 0dfffffe     `...............
     100:	00009c54 00b33333 fb4ccccd 00009c58     T...33....L.X...
     110:	000096a2 fcb33333 000096a4 0000969e     ....33..........
     120:	00009c6a 00009c6c 000096ca 000096cc     j...l...........
     130:	7fff0000 000096a6 0000d6a8 00001010     ................
     140:	33334ccd 00009c68 7fe70019 7e1401ec     .L33h..........~
     150:	00006f48 000096dc 0000d6fc 00009698     Ho..............
     160:	000010c4 004ccccd 002ccccd 006ccccd     ......L...,...l.
     170:	0059999a 00733333 0070a3d7 007e147b     ..Y.33s...p.{.~.
     180:	007fbe77 0000d6e8 00009744 00147ae1     w.......D....z..
     190:	000098ec 00009722 00002388 00009bb0     ...."....#......
     1a0:	00009bb2 0000c148 00466666 00533333     ....H...ffF.33S.
     1b0:	005851ec 005ae148 005ccccd 00009c04     .QX.H.Z...\.....
     1c0:	000096a8 00009bda 7ffffffe 0039999a     ..............9.
     1d0:	005d70a4 00666666 00014001 000ccccd     .p].fff..@......
     1e0:	000096b0 000096c4 0000d744 000aaaab     ........D.......
     1f0:	000096c6 000096c8 000096ce 000096bc     ................
     200:	000096b8 000096b4 00000a24 000096d0     ........$.......
     210:	000096d2 000096d4 00cccccd 0099999a     ................
     220:	00435e51 0159999a 13ffffff f570a3d7     Q^C...Y.......p.
     230:	2428f5c4 000021ce 005a8200 c28f0000     ..($.!....Z.....
     240:	cccd0000 e6660000 f3330000 0ccd0000     ......f...3.....
     250:	199a0000 33330000 3d710000 0000be9c     ......33..q=....
     260:	00002750 0000bfa4 000027b8 0000f210     P'.......'......
     270:	00002850 000028ec 00002990 00002a10     P(...(...)...*..
     280:	002aaa00 0000300c 01513cd0 00008664     ..*..0...<Q.d...
     290:	00009caa 0000c270 0000321c 000084e0     ....p....2......
     2a0:	00008828 0000348c 0000968c 0000c32c     (....4......,...
     2b0:	0000c2b4 00006574 000103dc 7fbe0042     ....te......B...
     2c0:	000103cc 000103d0 000103d6 0000c2b6     ................
     2d0:	0000c348 0000e780 00010588 00006690     H............f..
     2e0:	00003138 00006ccc 0000675c 00002498     81...l..\g...$..
     2f0:	00002a90 000103dd 000069b0 0001057c     .*.......i..|...
     300:	000103e0 00006800 00006b18 00006d88     .....h...k...m..
     310:	00006fd0 000072c8 000075d8 0000740c     .o...r...u...t..
     320:	00007a18 00007b90 00006ba0 00007e90     .z...{...k...~..
     330:	00007fe0 000103d4 00007868 00002d58     ........hx..X-..
     340:	00002de0 00002d9c 00002e24 00008878     .-...-..$...x...
     350:	00008530 00006bdc 00010a2e 00006c58     0....k......Xl..
     360:	00003180 000103da 000103d8 00004a24     .1..........$J..
     370:	00010a24 00010a20 00010a28 00010a2c     $... ...(...,...
     380:	000107d8 00010a18 00010a1c 00010a10     ................
     390:	00010a14 000107b8 000107f8 000109f8     ................
     3a0:	000109e0 00010778 000109fc 00006e48     ....x.......Hn..
     3b0:	000109e4 00010798 00010858 00006ed8     ........X....n..
     3c0:	00010870 00010a08 000109dc 0001096c     p...........l...
     3d0:	00006f10 00010888 000109a4 00010a04     .o..............
     3e0:	000108fa 00010818 00010a0c 00010838     ............8...
     3f0:	000107d4 00010834 00010774 000107f4     ....4...t.......
     400:	000107b4 00010794 00010814 000099d0     ................
     410:	000086f4 40004000 0000b9f4 7f800080     .....@.@........
     420:	78000800 00017fff 7c000400 0000f440     ...x.......|@...
     430:	0000f480 0006ffff 0000f4c0 0000f420     ............ ...
     440:	000103de 0000e7c0 000ccccc 00393e4b     ............K>9.
     450:	00155555 00175e97 00007254 000079c0     UU...^..Tr...y..
     460:	00006f68 c0010000 3fff0000 0000c2c8     ho.........?....
     470:	0000c2b8 0000c2a4 0000c2a8 00009c78     ............x...
     480:	0000c2ac 0000af7c 0000d3e8 0000d598     ....|...........
     490:	00001078 00009d10 00001c30 00009eb8     x.......0.......
     4a0:	0000a000 0000a354 0000a4c8 0000b138     ....T.......8...
     4b0:	0000a598 000007f0 00002f3c 0000ad88     ........</......
     4c0:	00009690 00008b70 0000a164 00009934     ....p...d...4...
     4d0:	75c30a3d 00009688 00009980 00009ce8     =..u............
     4e0:	0000965c 0000e800 0000c408 7f5c00a4     \.............\.
     4f0:	7ff00010 0000c9e8 034ccccd 00d9999b     ..........L.....
     500:	fe266666 01eb851f 04cccccd ffa66666     ff&.........ff..
     510:	02bfffff 0000e667 0000e001 46666666     ....g.......fffF
     520:	2666599a 1b333333 1e666666 7ccd0333     .Yf&333.fff.3..|
     530:	23333333 1ccccccd 00333333 7eb80148     333#....333.H..~
     540:	6666199a 00266666 599a2666 66666667     ..ffff&.f&.Ygfff
     550:	f6666666 0999999a 007ccccd 7f1b00e5     fff.......|.....
     560:	6ccd1333 799a0666 5999999a 0000f280     3..lf..y...Y....
     570:	10000001 00038e39 00035e51 0000f520     ....9...Q^.. ...
     580:	0000f550 0000f580 000e38e4 00124925     P........8..%I..
     590:	0000f540 00000a68 00001064 0000abe8     @...h...d.......
     5a0:	0000acb8 00002e68 007fff00 fed9999a     ....h...........
     5b0:	0000d008 0000d264 80000001 0000f000     ....d...........
     5c0:	0000c5dc 0000c62c 0000c604 0000bfc8     ....,...........
     5d0:	0000c5b4 0000c994 0000c654 0000c220     ........T... ...
     5e0:	0000c8f8 0000c9bc cb333334 0000cf28     ........433.(...
     5f0:	fb333334 ffe00001 00028f5e fe924dd3     433.....^....M..
     600:	04d24dd3 00333334 0effffff 077fffff     .M..433.........
     610:	0021eb86 00266667 00666667 0399999a     ..!.gf&.gff.....
     620:	0299999a 003eb852 0019999a ffc147ae     ....R.>......G..
     630:	ffcccccc ffd99999 ffe66666 fff33333     ........ff..33..
     640:	7fffff00 0000af5c 7ffffb00 0000f200     ....\...........
     650:	0000d49a 0000e4b0 00000674              ........t...

0000065c <_init>:
     65c:	008136        	entry	a1, 64
     65f:	fe6881        	l32r	a8, 0 (6a8 <frame_dummy>)
     662:	f03d           	nop.n
     664:	0008e0        	callx8	a8
     667:	fe6781        	l32r	a8, 4 (d688 <__do_global_ctors_aux>)
     66a:	f03d           	nop.n
     66c:	0008e0        	callx8	a8
     66f:	f01d           	retw.n

00000671 <_init+0x15>:
     671:	000000                                        ...

00000674 <__do_global_dtors_aux>:
     674:	004136        	entry	a1, 32
     677:	fe6421        	l32r	a2, 8 (e4dc <__do_global_dtors_aux.completed>)
     67a:	000232        	l8ui	a3, a2, 0
     67d:	23ec           	bnez.n	a3, 6a3 <__do_global_dtors_aux+0x2f>

0000067f <__do_global_dtors_aux+0xb>:
     67f:	1248           	l32i.n	a4, a2, 4
     681:	0438           	l32i.n	a3, a4, 0
     683:	444b           	addi.n	a4, a4, 4
     685:	738c           	beqz.n	a3, 690 <__do_global_dtors_aux+0x1c>
     687:	1249           	s32i.n	a4, a2, 4
     689:	0003e0        	callx8	a3
     68c:	fffbc6        	j	67f <__do_global_dtors_aux+0xb>

0000068f <__do_global_dtors_aux+0x1b>:
	...

00000690 <__do_global_dtors_aux+0x1c>:
     690:	fe5f31        	l32r	a3, c (0 <_text_start>)
     693:	fe5fa1        	l32r	a10, 10 (e4a8 <__FRAME_END__>)
     696:	438c           	beqz.n	a3, 69e <__do_global_dtors_aux+0x2a>
     698:	fe5d81        	l32r	a8, c (0 <_text_start>)
     69b:	0008e0        	callx8	a8
     69e:	130c           	movi.n	a3, 1
     6a0:	004232        	s8i	a3, a2, 0
     6a3:	f01d           	retw.n

000006a5 <__do_global_dtors_aux+0x31>:
     6a5:	000000                                        ...

000006a8 <frame_dummy>:
     6a8:	004136        	entry	a1, 32
     6ab:	fe5a21        	l32r	a2, 14 (0 <_text_start>)
     6ae:	fe58a1        	l32r	a10, 10 (e4a8 <__FRAME_END__>)
     6b1:	fe59b1        	l32r	a11, 18 (e4c4 <frame_dummy.object>)
     6b4:	428c           	beqz.n	a2, 6bc <frame_dummy+0x14>
     6b6:	fe5781        	l32r	a8, 14 (0 <_text_start>)
     6b9:	0008e0        	callx8	a8

000006bc <frame_dummy+0x14>:
     6bc:	f01d           	retw.n

000006be <frame_dummy+0x16>:
	...

000006c0 <_start>:
     6c0:	004136        	entry	a1, 32
     6c3:	0258           	l32i.n	a5, a2, 0
     6c5:	fe5621        	l32r	a2, 20 (e55c <export_parameter_array+0x6c>)
     6c8:	fe5731        	l32r	a3, 24 (6508 <dummy_EC_extNR_func>)
     6cb:	fe5441        	l32r	a4, 1c (f598 <printf_ptr>)
     6ce:	02ad           	mov.n	a10, a2
     6d0:	03bd           	mov.n	a11, a3
     6d2:	0459           	s32i.n	a5, a4, 0
     6d4:	0005e0        	callx8	a5
     6d7:	0458           	l32i.n	a5, a4, 0
     6d9:	02ad           	mov.n	a10, a2
     6db:	03bd           	mov.n	a11, a3
     6dd:	0005e0        	callx8	a5
     6e0:	0458           	l32i.n	a5, a4, 0
     6e2:	fe51a1        	l32r	a10, 28 (e576 <export_parameter_array+0x86>)
     6e5:	fe51b1        	l32r	a11, 2c (3460 <Voice_WB_TX_Prcs>)
     6e8:	0005e0        	callx8	a5
     6eb:	0458           	l32i.n	a5, a4, 0
     6ed:	fe50a1        	l32r	a10, 30 (e58d <export_parameter_array+0x9d>)
     6f0:	fe51b1        	l32r	a11, 34 (3358 <EC_REF_GAIN_READBACK>)
     6f3:	0005e0        	callx8	a5
     6f6:	0458           	l32i.n	a5, a4, 0
     6f8:	02ad           	mov.n	a10, a2
     6fa:	03bd           	mov.n	a11, a3
     6fc:	0005e0        	callx8	a5
     6ff:	0458           	l32i.n	a5, a4, 0
     701:	fe4da1        	l32r	a10, 38 (e5a8 <export_parameter_array+0xb8>)
     704:	fe4eb1        	l32r	a11, 3c (31c4 <Voice_NB_RX_Prcs>)
     707:	0005e0        	callx8	a5
     70a:	0458           	l32i.n	a5, a4, 0
     70c:	02ad           	mov.n	a10, a2
     70e:	03bd           	mov.n	a11, a3
     710:	0005e0        	callx8	a5
     713:	0458           	l32i.n	a5, a4, 0
     715:	fe4aa1        	l32r	a10, 40 (e5bf <export_parameter_array+0xcf>)
     718:	fe4bb1        	l32r	a11, 44 (32a0 <Voice_WB_RX_Prcs>)
     71b:	0005e0        	callx8	a5
     71e:	0458           	l32i.n	a5, a4, 0
     720:	fe4aa1        	l32r	a10, 48 (e5d6 <export_parameter_array+0xe6>)
     723:	fe4ab1        	l32r	a11, 4c (33b0 <EC_PreLim_Coef_READBACK>)
     726:	0005e0        	callx8	a5
     729:	0458           	l32i.n	a5, a4, 0
     72b:	fe49a1        	l32r	a10, 50 (e5f4 <export_parameter_array+0x104>)
     72e:	fe49b1        	l32r	a11, 54 (83f0 <AEC_NR_Write_FLASH>)
     731:	0005e0        	callx8	a5
     734:	0458           	l32i.n	a5, a4, 0
     736:	fe48a1        	l32r	a10, 58 (e60d <export_parameter_array+0x11d>)
     739:	fe48b1        	l32r	a11, 5c (6520 <EQ_update>)
     73c:	0005e0        	callx8	a5
     73f:	0458           	l32i.n	a5, a4, 0
     741:	fe47a1        	l32r	a10, 60 (e61d <export_parameter_array+0x12d>)
     744:	fe48b1        	l32r	a11, 64 (3108 <get_txnr_pitch_last>)
     747:	0005e0        	callx8	a5
     74a:	0458           	l32i.n	a5, a4, 0
     74c:	fe47a1        	l32r	a10, 68 (e637 <export_parameter_array+0x147>)
     74f:	fe47b1        	l32r	a11, 6c (3420 <DaulMIC_power_Coef_READBACK>)
     752:	0005e0        	callx8	a5
     755:	0458           	l32i.n	a5, a4, 0
     757:	fe46a1        	l32r	a10, 70 (e659 <export_parameter_array+0x169>)
     75a:	fe46b1        	l32r	a11, 74 (832c <TWO_MIC_WB_Write_FLASH>)
     75d:	0005e0        	callx8	a5
     760:	0458           	l32i.n	a5, a4, 0
     762:	fe45a1        	l32r	a10, 78 (e676 <export_parameter_array+0x186>)
     765:	fe45b1        	l32r	a11, 7c (49cc <IE_EC_REF_GAIN_READBACK>)
     768:	0005e0        	callx8	a5
     76b:	0458           	l32i.n	a5, a4, 0
     76d:	02ad           	mov.n	a10, a2
     76f:	03bd           	mov.n	a11, a3
     771:	0005e0        	callx8	a5
     774:	0458           	l32i.n	a5, a4, 0
     776:	fe42a1        	l32r	a10, 80 (e694 <export_parameter_array+0x1a4>)
     779:	fe42b1        	l32r	a11, 84 (49b4 <Voice_WB_TX_Inear_Prcs_V2>)
     77c:	0005e0        	callx8	a5
     77f:	0458           	l32i.n	a5, a4, 0
     781:	fe41a1        	l32r	a10, 88 (e6b4 <export_parameter_array+0x1c4>)
     784:	fe42b1        	l32r	a11, 8c (3100 <get_ECNR_SVN>)
     787:	0005e0        	callx8	a5
     78a:	0458           	l32i.n	a5, a4, 0
     78c:	02ad           	mov.n	a10, a2
     78e:	03bd           	mov.n	a11, a3
     790:	0005e0        	callx8	a5
     793:	0458           	l32i.n	a5, a4, 0
     795:	fe3ea1        	l32r	a10, 90 (e6c7 <export_parameter_array+0x1d7>)
     798:	fe3fb1        	l32r	a11, 94 (32fc <Voice_SWB_RX_Prcs>)
     79b:	0005e0        	callx8	a5
     79e:	0458           	l32i.n	a5, a4, 0
     7a0:	02ad           	mov.n	a10, a2
     7a2:	03bd           	mov.n	a11, a3
     7a4:	0005e0        	callx8	a5
     7a7:	0458           	l32i.n	a5, a4, 0
     7a9:	fe3ba1        	l32r	a10, 98 (e6df <export_parameter_array+0x1ef>)
     7ac:	fe3cb1        	l32r	a11, 9c (49f8 <Voice_SWB_TX_Prcs>)
     7af:	0005e0        	callx8	a5
     7b2:	0458           	l32i.n	a5, a4, 0
     7b4:	02ad           	mov.n	a10, a2
     7b6:	03bd           	mov.n	a11, a3
     7b8:	0005e0        	callx8	a5
     7bb:	0428           	l32i.n	a2, a4, 0
     7bd:	fe38a1        	l32r	a10, a0 (e6f7 <export_parameter_array+0x207>)
     7c0:	fe39b1        	l32r	a11, a4 (64f0 <Voice_SWB_TX_Inear_Prcs_V2>)
     7c3:	0002e0        	callx8	a2
     7c6:	0428           	l32i.n	a2, a4, 0
     7c8:	fe38a1        	l32r	a10, a8 (e718 <export_parameter_array+0x228>)
     7cb:	fe38b1        	l32r	a11, ac (3430 <BAND5_EC_REF_GAIN_READBACK>)
     7ce:	0002e0        	callx8	a2
     7d1:	0428           	l32i.n	a2, a4, 0
     7d3:	fe37a1        	l32r	a10, b0 (e739 <export_parameter_array+0x249>)
     7d6:	fe37b1        	l32r	a11, b4 (3400 <BAND5_PreLim_Coef_READBACK>)
     7d9:	0002e0        	callx8	a2
     7dc:	0428           	l32i.n	a2, a4, 0
     7de:	fe36a1        	l32r	a10, b8 (e75a <export_parameter_array+0x26a>)
     7e1:	fe36b1        	l32r	a11, bc (6514 <Assign_EC_RXNR_scratch_memory>)
     7e4:	0002e0        	callx8	a2
     7e7:	fe3621        	l32r	a2, c0 (e4f0 <export_parameter_array>)
     7ea:	f01d           	retw.n

000007ec <_start+0x12c>:
     7ec:	00000000                                ....

000007f0 <comfort_noise_gen_wb>:
     7f0:	00c136        	entry	a1, 96
     7f3:	13d2f2        	addmi	a15, a2, 0x1300
     7f6:	036d           	mov.n	a6, a3
     7f8:	7b9f32        	l16si	a3, a15, 246
     7fb:	c139           	s32i.n	a3, a1, 48
     7fd:	3802a2        	l8ui	a10, a2, 56
     800:	fe3131        	l32r	a3, c4 (9cc8 <get_sb_ptn_addr>)
     803:	fcc572        	addi	a7, a5, -4
     806:	0003e0        	callx8	a3
     809:	360232        	l8ui	a3, a2, 54
     80c:	02cd           	mov.n	a12, a2
     80e:	d1a9           	s32i.n	a10, a1, 52
     810:	1de327        	bbsi	a3, 2, 831 <comfort_noise_gen_wb+0x41>
     813:	020c           	movi.n	a2, 0
     815:	0b0c           	movi.n	a11, 0
     817:	0d0c           	movi.n	a13, 0
     819:	0e0c           	movi.n	a14, 0
     81b:	0f0c           	movi.n	a15, 0
     81d:	7129           	s32i.n	a2, a1, 28
     81f:	81b9           	s32i.n	a11, a1, 32
     821:	a1d9           	s32i.n	a13, a1, 40
     823:	b1e9           	s32i.n	a14, a1, 44
     825:	050c           	movi.n	a5, 0
     827:	030c           	movi.n	a3, 0
     829:	91f9           	s32i.n	a15, a1, 36
     82b:	05c456        	bnez	a4, 88b <comfort_noise_gen_wb+0x9b>
     82e:	001d06        	j	8a6 <comfort_noise_gen_wb+0xb6>

00000831 <comfort_noise_gen_wb+0x41>:
     831:	25dc32        	addmi	a3, a12, 0x2500
     834:	3b2332        	l32i	a3, a3, 236
     837:	0f0c           	movi.n	a15, 0
     839:	89a1d2        	movi	a13, 0x189
     83c:	02d352        	addmi	a5, a3, 0x200
     83f:	651552        	l16ui	a5, a5, 202
     842:	1bd3e2        	addmi	a14, a3, 0x1b00
     845:	219e22        	l16si	a2, a14, 66
     848:	048d           	mov.n	a8, a4
     84a:	069d           	mov.n	a9, a6
     84c:	114dd0        	slli	a4, a13, 3
     84f:	b129           	s32i.n	a2, a1, 44
     851:	81f9           	s32i.n	a15, a1, 32
     853:	0c2566        	bnei	a5, 2, 863 <comfort_noise_gen_wb+0x73>
     856:	02d952        	addmi	a5, a9, 0x200
     859:	701552        	l16ui	a5, a5, 224
     85c:	160c           	movi.n	a6, 1
     85e:	622560        	saltu	a2, a5, a6
     861:	8129           	s32i.n	a2, a1, 32
     863:	234a           	add.n	a2, a3, a4
     865:	a129           	s32i.n	a2, a1, 40
     867:	d8ac           	beqz.n	a8, 898 <comfort_noise_gen_wb+0xa8>
     869:	0cd832        	addmi	a3, a8, 0xc00
     86c:	151332        	l16ui	a3, a3, 42
     86f:	084d           	mov.n	a4, a8
     871:	050c           	movi.n	a5, 0
     873:	0c1366        	bnei	a3, 1, 883 <comfort_noise_gen_wb+0x93>
     876:	0cd432        	addmi	a3, a4, 0xc00
     879:	141332        	l16ui	a3, a3, 40
     87c:	120c           	movi.n	a2, 1
     87e:	330b           	addi.n	a3, a3, -1
     880:	625320        	saltu	a5, a3, a2
     883:	02d932        	addmi	a3, a9, 0x200
     886:	519322        	l16si	a2, a3, 162
     889:	7129           	s32i.n	a2, a1, 28
     88b:	0cd432        	addmi	a3, a4, 0xc00
     88e:	0f9322        	l16si	a2, a3, 30
     891:	053d           	mov.n	a3, a5
     893:	9129           	s32i.n	a2, a1, 36
     895:	000346        	j	8a6 <comfort_noise_gen_wb+0xb6>

00000898 <comfort_noise_gen_wb+0xa8>:
     898:	02d942        	addmi	a4, a9, 0x200
     89b:	519422        	l16si	a2, a4, 162
     89e:	0f0c           	movi.n	a15, 0
     8a0:	030c           	movi.n	a3, 0
     8a2:	7129           	s32i.n	a2, a1, 28
     8a4:	91f9           	s32i.n	a15, a1, 36
     8a6:	07c804        	ae_zerop48	aep0
     8a9:	468714        	ae_sp16x2f.iu	aep0, a7, 4
     8ac:	468714        	ae_sp16x2f.iu	aep0, a7, 4
     8af:	468714        	ae_sp16x2f.iu	aep0, a7, 4
     8b2:	1d1c42        	l16ui	a4, a12, 58
     8b5:	572b           	addi.n	a5, a7, 2
     8b7:	25dc22        	addmi	a2, a12, 0x2500
     8ba:	0f1416        	beqz	a4, 9af <comfort_noise_gen_wb+0x1bf>
     8bd:	3722e2        	l32i	a14, a2, 220
     8c0:	360e34        	ae_cvtq48a32s	aeq0, a14
     8c3:	f842003b8f 	{ movi	a8, 59; ae_truncp24q48x2	aep0, aeq0, aeq0 }
     8c8:	160c           	movi.n	a6, 1
     8ca:	30f360        	xor	a15, a3, a6
     8cd:	f88004fc4f 	{ movi	a4, 0x4fc; ae_mulfq32sp24s.l	aeq0, aeq0, aep0 }
     8d2:	25dc72        	addmi	a7, a12, 0x2500
     8d5:	f84237012f 	{ ae_sp24x2s.i	aep0, a1, 16; ae_truncp24q48x2	aep0, aeq0, aeq0 }
     8da:	118890        	slli	a8, a8, 7
     8dd:	f179           	s32i.n	a7, a1, 60
     8df:	6c4a           	add.n	a6, a12, a4
     8e1:	e1f9           	s32i.n	a15, a1, 56
     8e3:	070c           	movi.n	a7, 0
     8e5:	030c           	movi.n	a3, 0
     8e7:	4c8a           	add.n	a4, a12, a8
     8e9:	560114        	ae_sp24x2s.i	aep0, a1, 8
     8ec:	000c06        	j	920 <comfort_noise_gen_wb+0x130>

000008ef <comfort_noise_gen_wb+0xff>:
     8ef:	081524        	ae_mulfq32sp24s.l	aeq0, aeq0, aep1
     8f2:	301894        	ae_cvtp24a16x2.ll	aep1, a8, a9
     8f5:	d4e640133e 	{ addi	a3, a3, 1; ae_mulfq32sp16s.l	aeq1, aeq0, aep1 }
     8fa:	d56640477e 	{ addi	a7, a7, 4; ae_mulfq32sp16s.h	aeq3, aeq0, aep1 }
     8ff:	030a54        	ae_mulfq32sp16s.l	aeq1, aeq1, aep0
     902:	0302d4        	ae_mulfq32sp16s.l	aeq0, aeq3, aep0
     905:	fc20be9a4f 	{ ae_slaasq56s	aeq1, aeq1, a10; ae_zerop48	aep0 }
     90a:	fbebbe8a0f 	{ ae_slaasq56s	aeq0, aeq0, a10; ae_roundsp16q48sym	aep6, aeq1 }
     90f:	fbe3f2e51f 	{ ae_sp16f.l.iu	aep6, a5, 2; ae_roundsp16q48sym	aep7, aeq0 }
     914:	42f514        	ae_sp16f.l.iu	aep7, a5, 2
     917:	1d1cf2        	l16ui	a15, a12, 58
     91a:	0233f7        	bltu	a3, a15, 920 <comfort_noise_gen_wb+0x130>
     91d:	002386        	j	9af <comfort_noise_gen_wb+0x1bf>
     920:	7128           	l32i.n	a2, a1, 28
     922:	81f8           	l32i.n	a15, a1, 32
     924:	728320        	salt	a8, a3, a2
     927:	10bf80        	and	a11, a15, a8
     92a:	a188           	l32i.n	a8, a1, 40
     92c:	0bcc           	bnez.n	a11, 930 <comfort_noise_gen_wb+0x140>
     92e:	068d           	mov.n	a8, a6
     930:	e128           	l32i.n	a2, a1, 56
     932:	b1a8           	l32i.n	a10, a1, 44
     934:	209b20        	or	a9, a11, a2
     937:	0bcc           	bnez.n	a11, 93b <comfort_noise_gen_wb+0x14b>
     939:	c1a8           	l32i.n	a10, a1, 48
     93b:	9128           	l32i.n	a2, a1, 36
     93d:	a1d8           	l32i.n	a13, a1, 40
     93f:	72b320        	salt	a11, a3, a2
     942:	39cc           	bnez.n	a9, 949 <comfort_noise_gen_wb+0x159>
     944:	068d           	mov.n	a8, a6
     946:	938db0        	movnez	a8, a13, a11
     949:	0c2d           	mov.n	a2, a12
     94b:	59cc           	bnez.n	a9, 954 <comfort_noise_gen_wb+0x164>
     94d:	c1a8           	l32i.n	a10, a1, 48
     94f:	b198           	l32i.n	a9, a1, 44
     951:	93a9b0        	movnez	a10, a9, a11
     954:	887a           	add.n	a8, a8, a7
     956:	08b8           	l32i.n	a11, a8, 0
     958:	fddc81        	l32r	a8, c8 (9cc <HIFI_sqrt>)
     95b:	0008e0        	callx8	a8
     95e:	fddb81        	l32r	a8, cc (f59c <p_ecnr_mem>)
     961:	f1d8           	l32i.n	a13, a1, 60
     963:	75a0e2        	movi	a14, 117
     966:	0888           	l32i.n	a8, a8, 0
     968:	f1a3f2        	movi	a15, 0x3f1
     96b:	360b34        	ae_cvtq48a32s	aeq0, a11
     96e:	2cd8c2        	addmi	a12, a8, 0x2c00
     971:	239c92        	l16si	a9, a12, 70
     974:	bbde82        	addmi	a8, a14, 0xffffbb00
     977:	739dd2        	l16si	a13, a13, 230
     97a:	b0bff0        	addx8	a11, a15, a15
     97d:	828980        	mull	a8, a9, a8
     980:	8299b0        	mull	a9, a9, a11
     983:	235c92        	s16i	a9, a12, 70
     986:	408414        	ae_lp16f.iu	aep0, a4, 2
     989:	02cd           	mov.n	a12, a2
     98b:	02a3d7        	bge	a3, a13, 991 <comfort_noise_gen_wb+0x1a1>
     98e:	ffd806        	j	8f2 <comfort_noise_gen_wb+0x102>
     991:	1d1cb2        	l16ui	a11, a12, 58
     994:	d128           	l32i.n	a2, a1, 52
     996:	541114        	ae_lp24x2.i	aep1, a1, 8
     999:	0233b7        	bltu	a3, a11, 99f <comfort_noise_gen_wb+0x1af>
     99c:	ffd486        	j	8f2 <comfort_noise_gen_wb+0x102>
     99f:	0892b2        	l16si	a11, a2, 16
     9a2:	0223b7        	blt	a3, a11, 9a8 <comfort_noise_gen_wb+0x1b8>
     9a5:	ffd186        	j	8ef <comfort_noise_gen_wb+0xff>
     9a8:	541124        	ae_lp24x2.i	aep1, a1, 16
     9ab:	ffd006        	j	8ef <comfort_noise_gen_wb+0xff>

000009ae <comfort_noise_gen_wb+0x1be>:
	...

000009af <comfort_noise_gen_wb+0x1bf>:
     9af:	380c22        	l8ui	a2, a12, 56
     9b2:	930c           	movi.n	a3, 9
     9b4:	142c           	movi.n	a4, 33
     9b6:	622320        	saltu	a2, a3, a2
     9b9:	ff0c           	movi.n	a15, 15
     9bb:	93f420        	movnez	a15, a4, a2
     9be:	fec522        	addi	a2, a5, -2
     9c1:	028f76        	loop	a15, 9c7 <comfort_noise_gen_wb+0x1d7>
     9c4:	468214        	ae_sp16x2f.iu	aep0, a2, 4

000009c7 <comfort_noise_gen_wb+0x1d7>:
     9c7:	f01d           	retw.n

000009c9 <comfort_noise_gen_wb+0x1d9>:
     9c9:	000000                                        ...

000009cc <HIFI_sqrt>:
     9cc:	004136        	entry	a1, 32
     9cf:	4b13a6        	blti	a3, 1, a1e <HIFI_sqrt+0x52>
     9d2:	40e340        	nsa	a4, a3
     9d5:	c02240        	sub	a2, a2, a4
     9d8:	401400        	ssl	a4
     9db:	044020        	extui	a4, a2, 0, 1
     9de:	a1c300        	sll	a12, a3
     9e1:	400400        	ssr	a4
     9e4:	b130c0        	sra	a3, a12
     9e7:	656930        	extui	a6, a3, 25, 7
     9ea:	fdb9d1        	l32r	a13, d0 (f2a0 <TABLE_SQRT>)
     9ed:	050c           	movi.n	a5, 0
     9ef:	f0c662        	addi	a6, a6, -16
     9f2:	535650        	max	a5, a6, a5
     9f5:	9055d0        	addx2	a5, a5, a13
     9f8:	456d           	ae_l16ui.n	a6, a5, 0
     9fa:	355d           	ae_l16si.n	a5, a5, 2
     9fc:	413930        	srli	a3, a3, 9
     9ff:	11f600        	slli	a15, a6, 16
     a02:	c0e560        	sub	a14, a5, a6
     a05:	300334        	ae_cvtp24a16x2.ll	aep0, a3, a3
     a08:	113e00        	slli	a3, a14, 16
     a0b:	360f34        	ae_cvtq48a32s	aeq0, a15
     a0e:	364334        	ae_cvtq48a32s	aeq1, a3
     a11:	d4e110242f 	{ add	a2, a4, a2; ae_mulaq32sp16u.l	aeq0, aeq1, aep0 }
     a16:	212120        	srai	a2, a2, 1
     a19:	368304        	ae_trunca32q48	a3, aeq0
     a1c:	f01d           	retw.n

00000a1e <HIFI_sqrt+0x52>:
     a1e:	020c           	movi.n	a2, 0
     a20:	030c           	movi.n	a3, 0
     a22:	f01d           	retw.n

00000a24 <Log2_norm>:
     a24:	004136        	entry	a1, 32
     a27:	024d           	mov.n	a4, a2
     a29:	ff7c           	movi.n	a15, -1
     a2b:	012f10        	slli	a2, a15, 31
     a2e:	3214a6        	blti	a4, 1, a64 <Log2_norm+0x40>
     a31:	156c           	movi.n	a5, -31
     a33:	2d2357        	blt	a3, a5, a64 <Log2_norm+0x40>
     a36:	022c           	movi.n	a2, 32
     a38:	06a237        	bge	a2, a3, a42 <Log2_norm+0x1e>
     a3b:	f27c           	movi.n	a2, -1
     a3d:	412120        	srli	a2, a2, 1
     a40:	f01d           	retw.n

00000a42 <Log2_norm+0x1e>:
     a42:	fda451        	l32r	a5, d4 (f310 <TABLE_LOG2_1530>)
     a45:	552840        	extui	a2, a4, 24, 6
     a48:	1122e0        	slli	a2, a2, 2
     a4b:	603524        	ae_lq32f.xu	aeq0, a5, a2
     a4e:	604514        	ae_lq32f.i	aeq1, a5, 4
     a51:	f92ae2044f 	{ ae_movpa24x2	aep0, a4, a4; ae_subq56	aeq1, aeq1, aeq0 }
     a56:	030174        	ae_mulaq32sp16u.l	aeq0, aeq1, aep0
     a59:	013360        	slli	a3, a3, 26
     a5c:	368f04        	ae_trunca32q48	a15, aeq0
     a5f:	2125f0        	srai	a2, a15, 5
     a62:	223a           	add.n	a2, a2, a3
     a64:	f01d           	retw.n

00000a66 <Log2_norm+0x42>:
	...

00000a68 <PD_Noise_Est>:
     a68:	00e136        	entry	a1, 112
     a6b:	fd9831        	l32r	a3, cc (f59c <p_ecnr_mem>)
     a6e:	25d2c2        	addmi	a12, a2, 0x2500
     a71:	fd9c51        	l32r	a5, e4 (9c64 <two_mic_SWB_NR_proc+0x294>)
     a74:	03e8           	l32i.n	a14, a3, 0
     a76:	312c32        	l32i	a3, a12, 196
     a79:	fd98f1        	l32r	a15, dc (9c70 <two_mic_SWB_NR_proc+0x2a0>)
     a7c:	5ba272        	movi	a7, 0x25b
     a7f:	10c3d2        	addi	a13, a3, 16
     a82:	605d14        	ae_lq32f.iu	aeq1, a13, 4
     a85:	609d14        	ae_lq32f.iu	aeq2, a13, 4
     a88:	fd9881        	l32r	a8, e8 (9c5c <two_mic_SWB_NR_proc+0x28c>)
     a8b:	fd9541        	l32r	a4, e0 (9c66 <two_mic_SWB_NR_proc+0x296>)
     a8e:	f9ea3d7d1f 	{ ae_lq32f.iu	aeq3, a13, 4; ae_addq56	aeq1, aeq1, aeq2 }
     a93:	f9ee3d7d1f 	{ ae_lq32f.iu	aeq3, a13, 4; ae_addq56	aeq1, aeq1, aeq3 }
     a98:	1177a0        	slli	a7, a7, 6
     a9b:	f1c9           	s32i.n	a12, a1, 60
     a9d:	ce5a           	add.n	a12, a14, a5
     a9f:	5e7a           	add.n	a5, a14, a7
     aa1:	fd8d91        	l32r	a9, d8 (9c74 <two_mic_SWB_NR_proc+0x2a4>)
     aa4:	060c           	movi.n	a6, 0
     aa6:	f9ee3c0fef 	{ ae_lq32f.xu	aeq0, a15, a14; ae_addq56	aeq1, aeq1, aeq3 }
     aab:	3550b4        	ae_sraiq56	aeq1, aeq1, 2
     aae:	be4a           	add.n	a11, a14, a4
     ab0:	8e8a           	add.n	a8, a14, a8
     ab2:	05d8           	l32i.n	a13, a5, 0
     ab4:	3802a2        	l8ui	a10, a2, 56
     ab7:	2b7d           	ae_l16si.n	a7, a11, 0
     ab9:	d1c9           	s32i.n	a12, a1, 52
     abb:	6c6d           	ae_s16i.n	a6, a12, 0
     abd:	08c8           	l32i.n	a12, a8, 0
     abf:	f8663899ef 	{ ae_sq32f.xu	aeq1, a9, a14; ae_addq56	aeq0, aeq0, aeq1 }
     ac4:	350074        	ae_sraiq56	aeq0, aeq0, 1
     ac7:	8159           	s32i.n	a5, a1, 32
     ac9:	b189           	s32i.n	a8, a1, 44
     acb:	c199           	s32i.n	a9, a1, 48
     acd:	1061f2        	s32i	a15, a1, 64
     ad0:	620f04        	ae_sq32f.i	aeq0, a15, 0
     ad3:	151da6        	blti	a13, 1, aec <PD_Noise_Est+0x84>
     ad6:	152ca6        	blti	a12, 2, aef <PD_Noise_Est+0x87>
     ad9:	fd8431        	l32r	a3, ec (9c62 <two_mic_SWB_NR_proc+0x292>)
     adc:	f0c742        	addi	a4, a7, -16
     adf:	3e3a           	add.n	a3, a14, a3
     ae1:	233d           	ae_l16si.n	a3, a3, 0
     ae3:	1133f0        	slli	a3, a3, 1
     ae6:	435430        	min	a5, a4, a3
     ae9:	000c06        	j	b1d <PD_Noise_Est+0xb5>

00000aec <PD_Noise_Est+0x84>:
     aec:	121ca6        	blti	a12, 1, b02 <PD_Noise_Est+0x9a>
     aef:	c138           	l32i.n	a3, a1, 48
     af1:	f8c752        	addi	a5, a7, -8
     af4:	0338           	l32i.n	a3, a3, 0
     af6:	0213a6        	blti	a3, 1, afc <PD_Noise_Est+0x94>
     af9:	000806        	j	b1d <PD_Noise_Est+0xb5>

00000afc <PD_Noise_Est+0x94>:
     afc:	fec752        	addi	a5, a7, -2
     aff:	000686        	j	b1d <PD_Noise_Est+0xb5>

00000b02 <PD_Noise_Est+0x9a>:
     b02:	0348           	l32i.n	a4, a3, 0
     b04:	1338           	l32i.n	a3, a3, 4
     b06:	534a           	add.n	a5, a3, a4
     b08:	0415a6        	blti	a5, 1, b10 <PD_Noise_Est+0xa8>
     b0b:	572b           	addi.n	a5, a7, 2
     b0d:	000306        	j	b1d <PD_Noise_Est+0xb5>

00000b10 <PD_Noise_Est+0xa8>:
     b10:	0714e6        	bgei	a4, 1, b1b <PD_Noise_Est+0xb3>
     b13:	0413e6        	bgei	a3, 1, b1b <PD_Noise_Est+0xb3>
     b16:	570b           	addi.n	a5, a7, -1
     b18:	000046        	j	b1d <PD_Noise_Est+0xb5>

00000b1b <PD_Noise_Est+0xb3>:
     b1b:	571b           	addi.n	a5, a7, 1
     b1d:	2cde42        	addmi	a4, a14, 0x2c00
     b20:	080c           	movi.n	a8, 0
     b22:	249442        	l16si	a4, a4, 72
     b25:	f33c           	movi.n	a3, 63
     b27:	535580        	max	a5, a5, a8
     b2a:	433530        	min	a3, a5, a3
     b2d:	2cde92        	addmi	a9, a14, 0x2c00
     b30:	a1b9           	s32i.n	a11, a1, 40
     b32:	6b3d           	ae_s16i.n	a3, a11, 0
     b34:	0b0c           	movi.n	a11, 0
     b36:	068496        	bltz	a4, ba2 <PD_Noise_Est+0x13a>
     b39:	2699b2        	l16si	a11, a9, 76
     b3c:	111da6        	blti	a13, 1, b51 <PD_Noise_Est+0xe9>
     b3f:	169252        	l16si	a5, a2, 44
     b42:	159232        	l16si	a3, a2, 42
     b45:	fecb42        	addi	a4, a11, -2
     b48:	35a357        	bge	a3, a5, b81 <PD_Noise_Est+0x119>
     b4b:	d8cbb2        	addi	a11, a11, -40
     b4e:	001406        	j	ba2 <PD_Noise_Est+0x13a>

00000b51 <PD_Noise_Est+0xe9>:
     b51:	4d2ce6        	bgei	a12, 2, ba2 <PD_Noise_Est+0x13a>
     b54:	fd6741        	l32r	a4, f0 (f560 <swb_score_bands>)
     b57:	fd6751        	l32r	a5, f4 (f500 <wb_score_bands>)
     b5a:	930c           	movi.n	a3, 9
     b5c:	6233a0        	saltu	a3, a3, a10
     b5f:	935430        	movnez	a5, a4, a3
     b62:	903a50        	addx2	a3, a10, a5
     b65:	354d           	ae_l16si.n	a4, a5, 2
     b67:	029562        	l16si	a6, a5, 4
     b6a:	233d           	ae_l16si.n	a3, a3, 0
     b6c:	191272        	l16ui	a7, a2, 50
     b6f:	446a           	add.n	a4, a4, a6
     b71:	434a           	add.n	a4, a3, a4
     b73:	1ea747        	bge	a7, a4, b95 <PD_Noise_Est+0x12d>
     b76:	20a737        	bge	a7, a3, b9a <PD_Noise_Est+0x132>
     b79:	27ac           	beqz.n	a7, b9f <PD_Noise_Est+0x137>
     b7b:	fecbb2        	addi	a11, a11, -2
     b7e:	000806        	j	ba2 <PD_Noise_Est+0x13a>

00000b81 <PD_Noise_Est+0x119>:
     b81:	059537        	bne	a5, a3, b8a <PD_Noise_Est+0x122>
     b84:	facbb2        	addi	a11, a11, -6
     b87:	0005c6        	j	ba2 <PD_Noise_Est+0x13a>

00000b8a <PD_Noise_Est+0x122>:
     b8a:	330b           	addi.n	a3, a3, -1
     b8c:	c03350        	sub	a3, a3, a5
     b8f:	83b430        	moveqz	a11, a4, a3
     b92:	000306        	j	ba2 <PD_Noise_Est+0x13a>

00000b95 <PD_Noise_Est+0x12d>:
     b95:	bb2b           	addi.n	a11, a11, 2
     b97:	0001c6        	j	ba2 <PD_Noise_Est+0x13a>

00000b9a <PD_Noise_Est+0x132>:
     b9a:	bb1b           	addi.n	a11, a11, 1
     b9c:	000086        	j	ba2 <PD_Noise_Est+0x13a>

00000b9f <PD_Noise_Est+0x137>:
     b9f:	e8cbb2        	addi	a11, a11, -24
     ba2:	53fb80        	max	a15, a11, a8
     ba5:	ffa032        	movi	a3, 255
     ba8:	7129           	s32i.n	a2, a1, 28
     baa:	432f30        	min	a2, a15, a3
     bad:	fd4531        	l32r	a3, c4 (9cc8 <get_sb_ptn_addr>)
     bb0:	61e9           	s32i.n	a14, a1, 24
     bb2:	265922        	s16i	a2, a9, 76
     bb5:	0003e0        	callx8	a3
     bb8:	8138           	l32i.n	a3, a1, 32
     bba:	e1a9           	s32i.n	a10, a1, 56
     bbc:	fd5751        	l32r	a5, 118 (96a4 <two_mic_WB_NR_NSN_proc+0xb34>)
     bbf:	03c8           	l32i.n	a12, a3, 0
     bc1:	6148           	l32i.n	a4, a1, 24
     bc3:	7178           	l32i.n	a7, a1, 28
     bc5:	021ce6        	bgei	a12, 1, bcb <PD_Noise_Est+0x163>
     bc8:	005d46        	j	d41 <PD_Noise_Est+0x2d9>
     bcb:	7138           	l32i.n	a3, a1, 28
     bcd:	7158           	l32i.n	a5, a1, 28
     bcf:	cca462        	movi	a6, 0x4cc
     bd2:	169322        	l16si	a2, a3, 44
     bd5:	159332        	l16si	a3, a3, 42
     bd8:	fd4841        	l32r	a4, f8 (dacccccd <_end+0xdacbd72d>)
     bdb:	756a           	add.n	a7, a5, a6
     bdd:	022327        	blt	a3, a2, be3 <PD_Noise_Est+0x17b>
     be0:	007486        	j	db6 <PD_Noise_Est+0x34e>
     be3:	601714        	ae_lq32f.iu	aeq0, a7, 4
     be6:	605714        	ae_lq32f.iu	aeq1, a7, 4
     be9:	f8663d771f 	{ ae_lq32f.iu	aeq3, a7, 4; ae_addq56	aeq0, aeq0, aeq1 }
     bee:	f8e63d571f 	{ ae_lq32f.iu	aeq2, a7, 4; ae_addq56	aeq0, aeq0, aeq3 }
     bf3:	f8e23ec4ff 	{ ae_cvtq48a32s	aeq3, a4; ae_addq56	aeq0, aeq0, aeq2 }
     bf8:	3500b4        	ae_sraiq56	aeq0, aeq0, 2
     bfb:	d55830d15e 	{ l32i	a5, a1, 52; ae_leq56s	b0, aeq0, aeq3 }
     c00:	020c           	movi.n	a2, 0
     c02:	1e0c           	movi.n	a14, 1
     c04:	61a8           	l32i.n	a10, a1, 24
     c06:	5d0c           	movi.n	a13, 5
     c08:	0f0c           	movi.n	a15, 0
     c0a:	d32e00        	movt	a2, a14, b0
     c0d:	080c           	movi.n	a8, 0
     c0f:	65dd           	ae_s16i.n	a13, a5, 0
     c11:	91f9           	s32i.n	a15, a1, 36
     c13:	62ec           	bnez.n	a2, c3d <PD_Noise_Est+0x1d5>
     c15:	e3a422        	movi	a2, 0x4e3
     c18:	1122b0        	slli	a2, a2, 5
     c1b:	2a2a           	add.n	a2, a10, a2
     c1d:	222d           	ae_l16si.n	a2, a2, 0
     c1f:	f37c           	movi.n	a3, -1
     c21:	013310        	slli	a3, a3, 31
     c24:	114200        	slli	a4, a2, 16
     c27:	305230        	xor	a5, a2, a3
     c2a:	222b           	addi.n	a2, a2, 2
     c2c:	212220        	srai	a2, a2, 2
     c2f:	11f200        	slli	a15, a2, 16
     c32:	302230        	xor	a2, a2, a3
     c35:	c022f0        	sub	a2, a2, a15
     c38:	c08540        	sub	a8, a5, a4
     c3b:	9129           	s32i.n	a2, a1, 36
     c3d:	fd2f31        	l32r	a3, fc (dfffffe <_end+0xdff0a5e>)
     c40:	fd3041        	l32r	a4, 100 (9c54 <two_mic_SWB_NR_proc+0x284>)
     c43:	2c2b           	addi.n	a2, a12, 2
     c45:	21b220        	srai	a11, a2, 2
     c48:	723c30        	salt	a3, a12, a3
     c4b:	fa4a           	add.n	a15, a10, a4
     c4d:	f67c           	movi.n	a6, -1
     c4f:	933b30        	movnez	a3, a11, a3
     c52:	0fc8           	l32i.n	a12, a15, 0
     c54:	fd2c91        	l32r	a9, 104 (b33333 <_end+0xb23d93>)
     c57:	016660        	slli	a6, a6, 26
     c5a:	7b3a           	add.n	a7, a11, a3
     c5c:	fd2b21        	l32r	a2, 108 (fb4ccccd <_end+0xfb4bd72d>)
     c5f:	476a           	add.n	a4, a7, a6
     c61:	0c5d           	mov.n	a5, a12
     c63:	242497        	blt	a4, a9, c8b <PD_Noise_Est+0x223>
     c66:	fd29f1        	l32r	a15, 10c (9c58 <two_mic_SWB_NR_proc+0x288>)
     c69:	190c           	movi.n	a9, 1
     c6b:	572a           	add.n	a5, a7, a2
     c6d:	7afa           	add.n	a7, a10, a15
     c6f:	019980        	slli	a9, a9, 24
     c72:	559a           	add.n	a5, a5, a9
     c74:	0778           	l32i.n	a7, a7, 0
     c76:	759850        	extui	a9, a5, 24, 8
     c79:	0c5d           	mov.n	a5, a12
     c7b:	0c8976        	loop	a9, c8b <PD_Noise_Est+0x223>
     c7e:	0589           	s32i.n	a8, a5, 0
     c80:	0798           	l32i.n	a9, a7, 0
     c82:	554b           	addi.n	a5, a5, 4
     c84:	1199f0        	slli	a9, a9, 1
     c87:	0799           	s32i.n	a9, a7, 0
     c89:	774b           	addi.n	a7, a7, 4

00000c8b <PD_Noise_Est+0x223>:
     c8b:	e178           	l32i.n	a7, a1, 56
     c8d:	91f8           	l32i.n	a15, a1, 36
     c8f:	05f9           	s32i.n	a15, a5, 0
     c91:	059772        	l16si	a7, a7, 10
     c94:	90ab30        	addx2	a10, a11, a3
     c97:	e36a           	add.n	a14, a3, a6
     c99:	772b           	addi.n	a7, a7, 2
     c9b:	019780        	slli	a9, a7, 24
     c9e:	136192        	s32i	a9, a1, 76
     ca1:	02a947        	bge	a9, a4, ca7 <PD_Noise_Est+0x23f>
     ca4:	004386        	j	db6 <PD_Noise_Est+0x34e>
     ca7:	fd1a51        	l32r	a5, 110 (96a2 <two_mic_WB_NR_NSN_proc+0xb32>)
     caa:	61f8           	l32i.n	a15, a1, 24
     cac:	fd1891        	l32r	a9, 10c (9c58 <two_mic_SWB_NR_proc+0x288>)
     caf:	6a2a           	add.n	a6, a10, a2
     cb1:	af5a           	add.n	a10, a15, a5
     cb3:	1d0c           	movi.n	a13, 1
     cb5:	2a5d           	ae_l16si.n	a5, a10, 0
     cb7:	fd1741        	l32r	a4, 114 (fcb33333 <_end+0xfcb23d93>)
     cba:	012d80        	slli	a2, a13, 24
     cbd:	df9a           	add.n	a13, a15, a9
     cbf:	977c           	movi.n	a7, -7
     cc1:	116122        	s32i	a2, a1, 68
     cc4:	0d28           	l32i.n	a2, a13, 0
     cc6:	017790        	slli	a7, a7, 23
     cc9:	11f5e0        	slli	a15, a5, 2
     ccc:	434a           	add.n	a4, a3, a4
     cce:	737a           	add.n	a7, a3, a7
     cd0:	1261f2        	s32i	a15, a1, 72

00000cd3 <PD_Noise_Est+0x26b>:
     cd3:	5b7a           	add.n	a5, a11, a7
     cd5:	31a850        	srai	a10, a5, 24
     cd8:	a09ac0        	addx4	a9, a10, a12
     cdb:	0f0c           	movi.n	a15, 0
     cdd:	5a1b           	addi.n	a5, a10, 1
     cdf:	09f9           	s32i.n	a15, a9, 0
     ce1:	019580        	slli	a9, a5, 24
     ce4:	db4a           	add.n	a13, a11, a4
     ce6:	a03a20        	addx4	a3, a10, a2
     ce9:	1221f2        	l32i	a15, a1, 72
     cec:	03f9           	s32i.n	a15, a3, 0
     cee:	0ba9d7        	bge	a9, a13, cfd <PD_Noise_Est+0x295>
     cf1:	a035c0        	addx4	a3, a5, a12
     cf4:	9198           	l32i.n	a9, a1, 36
     cf6:	5a2b           	addi.n	a5, a10, 2
     cf8:	0399           	s32i.n	a9, a3, 0
     cfa:	019580        	slli	a9, a5, 24
     cfd:	a0a5c0        	addx4	a10, a5, a12
     d00:	252697        	blt	a6, a9, d29 <PD_Noise_Est+0x2c1>
     d03:	112192        	l32i	a9, a1, 68
     d06:	013580        	slli	a3, a5, 24
     d09:	c03630        	sub	a3, a6, a3
     d0c:	339a           	add.n	a3, a3, a9
     d0e:	753830        	extui	a3, a3, 24, 8
     d11:	1f0c           	movi.n	a15, 1
     d13:	5333f0        	max	a3, a3, a15
     d16:	a05520        	addx4	a5, a5, a2
     d19:	0c8376        	loop	a3, d29 <PD_Noise_Est+0x2c1>
     d1c:	0a89           	s32i.n	a8, a10, 0
     d1e:	0538           	l32i.n	a3, a5, 0
     d20:	aa4b           	addi.n	a10, a10, 4
     d22:	1133f0        	slli	a3, a3, 1
     d25:	0539           	s32i.n	a3, a5, 0
     d27:	554b           	addi.n	a5, a5, 4

00000d29 <PD_Noise_Est+0x2c1>:
     d29:	132152        	l32i	a5, a1, 76
     d2c:	eeba           	add.n	a14, a14, a11
     d2e:	9138           	l32i.n	a3, a1, 36
     d30:	fbea           	add.n	a15, a11, a14
     d32:	0a39           	s32i.n	a3, a10, 0
     d34:	44ba           	add.n	a4, a4, a11
     d36:	77ba           	add.n	a7, a7, a11
     d38:	66ba           	add.n	a6, a6, a11
     d3a:	95a5f7        	bge	a5, a15, cd3 <PD_Noise_Est+0x26b>
     d3d:	001d46        	j	db6 <PD_Noise_Est+0x34e>

00000d40 <PD_Noise_Est+0x2d8>:
	...

00000d41 <PD_Noise_Est+0x2d9>:
     d41:	345a           	add.n	a3, a4, a5
     d43:	233d           	ae_l16si.n	a3, a3, 0
     d45:	6168           	l32i.n	a6, a1, 24
     d47:	fcf141        	l32r	a4, 10c (9c58 <two_mic_SWB_NR_proc+0x288>)
     d4a:	682237        	blt	a2, a3, db6 <PD_Noise_Est+0x34e>
     d4d:	1d1732        	l16ui	a3, a7, 58
     d50:	b5a452        	movi	a5, 0x4b5
     d53:	1155b0        	slli	a5, a5, 5
     d56:	a39c           	beqz.n	a3, d74 <PD_Noise_Est+0x30c>
     d58:	464a           	add.n	a4, a6, a4
     d5a:	0448           	l32i.n	a4, a4, 0
     d5c:	410654        	ae_lp16f.x	aep0, a6, a5
     d5f:	4c1404        	ae_lp24.i	aep1, a4, 0
     d62:	020174        	ae_mulp24s.ll	aeq0, aep0, aep1
     d65:	368f04        	ae_trunca32q48	a15, aeq0
     d68:	5f2b           	addi.n	a5, a15, 2
     d6a:	215250        	srai	a5, a5, 2
     d6d:	038376        	loop	a3, d74 <PD_Noise_Est+0x30c>
     d70:	0459           	s32i.n	a5, a4, 0
     d72:	444b           	addi.n	a4, a4, 4

00000d74 <PD_Noise_Est+0x30c>:
     d74:	fcea41        	l32r	a4, 11c (969e <two_mic_WB_NR_NSN_proc+0xb2e>)
     d77:	6188           	l32i.n	a8, a1, 24
     d79:	fcea51        	l32r	a5, 124 (9c6c <two_mic_SWB_NR_proc+0x29c>)
     d7c:	464a           	add.n	a4, a6, a4
     d7e:	244d           	ae_l16si.n	a4, a4, 0
     d80:	260c           	movi.n	a6, 2
     d82:	fcdfe1        	l32r	a14, 100 (9c54 <two_mic_SWB_NR_proc+0x284>)
     d85:	2d2247        	blt	a2, a4, db6 <PD_Noise_Est+0x34e>
     d88:	a3ac           	beqz.n	a3, db6 <PD_Noise_Est+0x34e>
     d8a:	b128           	l32i.n	a2, a1, 44
     d8c:	fce541        	l32r	a4, 120 (9c6a <two_mic_SWB_NR_proc+0x29a>)
     d8f:	585a           	add.n	a5, a8, a5
     d91:	0228           	l32i.n	a2, a2, 0
     d93:	484a           	add.n	a4, a8, a4
     d95:	f77c           	movi.n	a7, -1
     d97:	722260        	salt	a2, a2, a6
     d9a:	835420        	moveqz	a5, a4, a2
     d9d:	254d           	ae_l16si.n	a4, a5, 0
     d9f:	f8ea           	add.n	a15, a8, a14
     da1:	017710        	slli	a7, a7, 31
     da4:	0f28           	l32i.n	a2, a15, 0
     da6:	115400        	slli	a5, a4, 16
     da9:	304470        	xor	a4, a4, a7
     dac:	c04450        	sub	a4, a4, a5
     daf:	038376        	loop	a3, db6 <PD_Noise_Est+0x34e>
     db2:	0249           	s32i.n	a4, a2, 0
     db4:	224b           	addi.n	a2, a2, 4
     db6:	71c8           	l32i.n	a12, a1, 28
     db8:	61d8           	l32i.n	a13, a1, 24
     dba:	e1b8           	l32i.n	a11, a1, 56
     dbc:	191c22        	l16ui	a2, a12, 50
     dbf:	431c           	movi.n	a3, 20
     dc1:	753327        	bltu	a3, a2, e3a <PD_Noise_Est+0x3d2>
     dc4:	0572f6        	bgeui	a2, 7, dcd <PD_Noise_Est+0x365>
     dc7:	f9a422        	movi	a2, 0x4f9
     dca:	000386        	j	ddc <PD_Noise_Est+0x374>

00000dcd <PD_Noise_Est+0x365>:
     dcd:	08b2f6        	bgeui	a2, 16, dd9 <PD_Noise_Est+0x371>
     dd0:	7da222        	movi	a2, 0x27d
     dd3:	1122d0        	slli	a2, a2, 3
     dd6:	000146        	j	ddf <PD_Noise_Est+0x377>

00000dd9 <PD_Noise_Est+0x371>:
     dd9:	fba422        	movi	a2, 0x4fb
     ddc:	1122e0        	slli	a2, a2, 2
     ddf:	d1f8           	l32i.n	a15, a1, 52
     de1:	4c2a           	add.n	a4, a12, a2
     de3:	380c32        	l8ui	a3, a12, 56
     de6:	2f2d           	ae_l16si.n	a2, a15, 0
     de8:	f158           	l32i.n	a5, a1, 60
     dea:	fcc571        	l32r	a7, 100 (9c54 <two_mic_SWB_NR_proc+0x284>)
     ded:	49a237        	bge	a2, a3, e3a <PD_Noise_Est+0x3d2>
     df0:	244d           	ae_l16si.n	a4, a4, 0
     df2:	312552        	l32i	a5, a5, 196
     df5:	f67c           	movi.n	a6, -1
     df7:	016610        	slli	a6, a6, 31
     dfa:	7d7a           	add.n	a7, a13, a7
     dfc:	000a86        	j	e2a <PD_Noise_Est+0x3c2>

00000dff <PD_Noise_Est+0x397>:
     dff:	221b           	addi.n	a2, a2, 1
     e01:	9092b0        	addx2	a9, a2, a11
     e04:	2a8d           	ae_l16si.n	a8, a10, 0
     e06:	299d           	ae_l16si.n	a9, a9, 0
     e08:	1ba897        	bge	a8, a9, e27 <PD_Noise_Est+0x3bf>
     e0b:	07a8           	l32i.n	a10, a7, 0
     e0d:	c09980        	sub	a9, a9, a8
     e10:	a088a0        	addx4	a8, a8, a10
     e13:	108976        	loop	a9, e27 <PD_Noise_Est+0x3bf>
     e16:	489d           	ae_l16ui.n	a9, a8, 0
     e18:	994a           	add.n	a9, a9, a4
     e1a:	11a900        	slli	a10, a9, 16
     e1d:	309960        	xor	a9, a9, a6
     e20:	c099a0        	sub	a9, a9, a10
     e23:	0899           	s32i.n	a9, a8, 0
     e25:	884b           	addi.n	a8, a8, 4

00000e27 <PD_Noise_Est+0x3bf>:
     e27:	0fa237        	bge	a2, a3, e3a <PD_Noise_Est+0x3d2>

00000e2a <PD_Noise_Est+0x3c2>:
     e2a:	a08250        	addx4	a8, a2, a5
     e2d:	0888           	l32i.n	a8, a8, 0
     e2f:	90a2b0        	addx2	a10, a2, a11
     e32:	c918a6        	blti	a8, 1, dff <PD_Noise_Est+0x397>
     e35:	221b           	addi.n	a2, a2, 1
     e37:	fffb06        	j	e27 <PD_Noise_Est+0x3bf>

00000e3a <PD_Noise_Est+0x3d2>:
     e3a:	fcbb21        	l32r	a2, 128 (96ca <two_mic_WB_NR_NSN_proc+0xb5a>)
     e3d:	f57c           	movi.n	a5, -1
     e3f:	4d2a           	add.n	a4, a13, a2
     e41:	442d           	ae_l16ui.n	a2, a4, 0
     e43:	823d           	ae_sext16	a3, a2
     e45:	015396        	bltz	a3, e5e <PD_Noise_Est+0x3f6>
     e48:	021c52        	l16ui	a5, a12, 4
     e4b:	631b           	addi.n	a6, a3, 1
     e4d:	90f550        	addx2	a15, a5, a5
     e50:	113fe0        	slli	a3, a15, 2
     e53:	622230        	saltu	a2, a2, a3
     e56:	f37c           	movi.n	a3, -1
     e58:	933620        	movnez	a3, a6, a2
     e5b:	000086        	j	e61 <PD_Noise_Est+0x3f9>

00000e5e <PD_Noise_Est+0x3f6>:
     e5e:	f43050        	extui	a3, a5, 0, 16
     e61:	8128           	l32i.n	a2, a1, 32
     e63:	fcb251        	l32r	a5, 12c (96cc <two_mic_WB_NR_NSN_proc+0xb5c>)
     e66:	fcb2b1        	l32r	a11, 130 (7fff0000 <_end+0x7ffe0a60>)
     e69:	0228           	l32i.n	a2, a2, 0
     e6b:	643d           	ae_s16i.n	a3, a4, 0
     e6d:	102142        	l32i	a4, a1, 64
     e70:	a28c           	beqz.n	a2, e7e <PD_Noise_Est+0x416>
     e72:	6d5a           	add.n	a6, a13, a5
     e74:	0448           	l32i.n	a4, a4, 0
     e76:	1584d6        	bgez	a4, fd2 <PD_Noise_Est+0x56a>
     e79:	464d           	ae_l16ui.n	a4, a6, 0
     e7b:	153456        	bnez	a4, fd2 <PD_Noise_Est+0x56a>
     e7e:	b148           	l32i.n	a4, a1, 44
     e80:	fc9b71        	l32r	a7, ec (9c62 <two_mic_SWB_NR_proc+0x292>)
     e83:	a168           	l32i.n	a6, a1, 40
     e85:	0448           	l32i.n	a4, a4, 0
     e87:	7d7a           	add.n	a7, a13, a7
     e89:	833d           	ae_sext16	a3, a3
     e8b:	0224a6        	blti	a4, 2, e91 <PD_Noise_Est+0x429>
     e8e:	005006        	j	fd2 <PD_Noise_Est+0x56a>
     e91:	266d           	ae_l16si.n	a6, a6, 0
     e93:	274d           	ae_l16si.n	a4, a7, 0
     e95:	1e0c           	movi.n	a14, 1
     e97:	11ee20        	slli	a14, a14, 14
     e9a:	022467        	blt	a4, a6, ea0 <PD_Noise_Est+0x438>
     e9d:	004c46        	j	fd2 <PD_Noise_Est+0x56a>
     ea0:	002396        	bltz	a3, ea6 <PD_Noise_Est+0x43e>
     ea3:	000a06        	j	ecf <PD_Noise_Est+0x467>

00000ea6 <PD_Noise_Est+0x43e>:
     ea6:	0a9c22        	l16si	a2, a12, 20
     ea9:	0b9c32        	l16si	a3, a12, 22
     eac:	0c9c42        	l16si	a4, a12, 24
     eaf:	fca1f1        	l32r	a15, 134 (96a6 <two_mic_WB_NR_NSN_proc+0xb36>)
     eb2:	c168           	l32i.n	a6, a1, 48
     eb4:	232a           	add.n	a2, a3, a2
     eb6:	224a           	add.n	a2, a2, a4
     eb8:	3dfa           	add.n	a3, a13, a15
     eba:	06a8           	l32i.n	a10, a6, 0
     ebc:	23cd           	ae_l16si.n	a12, a3, 0
     ebe:	045122        	s16i	a2, a1, 8
     ec1:	82bd           	ae_sext16	a11, a2
     ec3:	fc9d21        	l32r	a2, 138 (d6a8 <cal_wind_score>)
     ec6:	0002e0        	callx8	a2
     ec9:	8128           	l32i.n	a2, a1, 32
     ecb:	0aed           	mov.n	a14, a10
     ecd:	0228           	l32i.n	a2, a2, 0
     ecf:	ffa032        	movi	a3, 255
     ed2:	3fd332        	addmi	a3, a3, 0x3f00
     ed5:	a1a8           	l32i.n	a10, a1, 40
     ed7:	3e3a           	add.n	a3, a14, a3
     ed9:	045132        	s16i	a3, a1, 8
     edc:	09b216        	beqz	a2, f7b <PD_Noise_Est+0x513>
     edf:	7188           	l32i.n	a8, a1, 28
     ee1:	401144        	ae_lp16f.i	aep1, a1, 8
     ee4:	6198           	l32i.n	a9, a1, 24
     ee6:	20c822        	addi	a2, a8, 32
     ee9:	400204        	ae_lp16f.i	aep0, a2, 0
     eec:	e820802a6f 	{ movi	a6, 42; ae_mulfp24s.hh	aeq0, aep0, aep1 }
     ef1:	fc86f1        	l32r	a15, 10c (9c58 <two_mic_SWB_NR_proc+0x288>)
     ef4:	3502f4        	ae_sraiq56	aeq0, aeq0, 11
     ef7:	620134        	ae_sq32f.i	aeq0, a1, 12
     efa:	29fa           	add.n	a2, a9, a15
     efc:	0228           	l32i.n	a2, a2, 0
     efe:	032132        	l32i	a3, a1, 12
     f01:	038676        	loop	a6, f08 <PD_Noise_Est+0x4a0>
     f04:	0239           	s32i.n	a3, a2, 0
     f06:	224b           	addi.n	a2, a2, 4

00000f08 <PD_Noise_Est+0x4a0>:
     f08:	272d           	ae_l16si.n	a2, a7, 0
     f0a:	2a3d           	ae_l16si.n	a3, a10, 0
     f0c:	343c           	movi.n	a4, 51
     f0e:	5bd442        	addmi	a4, a4, 0x5b00
     f11:	d14240        	mul16s	a4, a2, a4
     f14:	113330        	slli	a3, a3, 13
     f17:	2fa437        	bge	a4, a3, f4a <PD_Noise_Est+0x4e2>
     f1a:	fc7931        	l32r	a3, 100 (9c54 <two_mic_SWB_NR_proc+0x284>)
     f1d:	13d822        	addmi	a2, a8, 0x1300
     f20:	25d842        	addmi	a4, a8, 0x2500
     f23:	f93a           	add.n	a15, a9, a3
     f25:	3922d2        	l32i	a13, a2, 228
     f28:	7294b2        	l16si	a11, a4, 228
     f2b:	0fa8           	l32i.n	a10, a15, 0
     f2d:	fc8321        	l32r	a2, 13c (1010 <wind_noise_alpha>)
     f30:	fc84c1        	l32r	a12, 140 (33334ccd <_end+0x3332572d>)
     f33:	0002e0        	callx8	a2
     f36:	61d8           	l32i.n	a13, a1, 24
     f38:	fc8321        	l32r	a2, 144 (9c68 <two_mic_SWB_NR_proc+0x298>)
     f3b:	2d2a           	add.n	a2, a13, a2
     f3d:	222d           	ae_l16si.n	a2, a2, 0
     f3f:	d12220        	mul16s	a2, a2, a2
     f42:	11b2f0        	slli	a11, a2, 1
     f45:	0021c6        	j	fd0 <PD_Noise_Est+0x568>

00000f48 <PD_Noise_Est+0x4e0>:
	...

00000f4a <PD_Noise_Est+0x4e2>:
     f4a:	112220        	slli	a2, a2, 14
     f4d:	5ea237        	bge	a2, a3, faf <PD_Noise_Est+0x547>
     f50:	fc6c31        	l32r	a3, 100 (9c54 <two_mic_SWB_NR_proc+0x284>)
     f53:	13d822        	addmi	a2, a8, 0x1300
     f56:	25d842        	addmi	a4, a8, 0x2500
     f59:	f93a           	add.n	a15, a9, a3
     f5b:	7294b2        	l16si	a11, a4, 228
     f5e:	3922c2        	l32i	a12, a2, 228
     f61:	3a22d2        	l32i	a13, a2, 232
     f64:	0fa8           	l32i.n	a10, a15, 0
     f66:	fc7521        	l32r	a2, 13c (1010 <wind_noise_alpha>)
     f69:	0002e0        	callx8	a2
     f6c:	61d8           	l32i.n	a13, a1, 24
     f6e:	fc7521        	l32r	a2, 144 (9c68 <two_mic_SWB_NR_proc+0x298>)
     f71:	2d2a           	add.n	a2, a13, a2
     f73:	222d           	ae_l16si.n	a2, a2, 0
     f75:	11b200        	slli	a11, a2, 16
     f78:	001506        	j	fd0 <PD_Noise_Est+0x568>

00000f7b <PD_Noise_Est+0x513>:
     f7b:	7188           	l32i.n	a8, a1, 28
     f7d:	6198           	l32i.n	a9, a1, 24
     f7f:	fc6341        	l32r	a4, 10c (9c58 <two_mic_SWB_NR_proc+0x288>)
     f82:	25d822        	addmi	a2, a8, 0x2500
     f85:	729232        	l16si	a3, a2, 228
     f88:	294a           	add.n	a2, a9, a4
     f8a:	400144        	ae_lp16f.i	aep0, a1, 8
     f8d:	0213e6        	bgei	a3, 1, f93 <PD_Noise_Est+0x52b>
     f90:	ffdd06        	j	f08 <PD_Noise_Est+0x4a0>
     f93:	936d           	ae_zext16	a6, a3
     f95:	0228           	l32i.n	a2, a2, 0
     f97:	600204        	ae_lq32f.i	aeq0, a2, 0
     f9a:	fcc232        	addi	a3, a2, -4
     f9d:	0b8676        	loop	a6, fac <PD_Noise_Est+0x544>
     fa0:	030214        	ae_mulfq32sp16s.l	aeq0, aeq0, aep0
     fa3:	354054        	ae_slliq56	aeq1, aeq0, 1
     fa6:	601214        	ae_lq32f.iu	aeq0, a2, 4
     fa9:	625314        	ae_sq32f.iu	aeq1, a3, 4

00000fac <PD_Noise_Est+0x544>:
     fac:	ffd606        	j	f08 <PD_Noise_Est+0x4a0>

00000faf <PD_Noise_Est+0x547>:
     faf:	fc5431        	l32r	a3, 100 (9c54 <two_mic_SWB_NR_proc+0x284>)
     fb2:	13d822        	addmi	a2, a8, 0x1300
     fb5:	25d842        	addmi	a4, a8, 0x2500
     fb8:	f93a           	add.n	a15, a9, a3
     fba:	7294b2        	l16si	a11, a4, 228
     fbd:	3a22c2        	l32i	a12, a2, 232
     fc0:	3b22d2        	l32i	a13, a2, 236
     fc3:	0fa8           	l32i.n	a10, a15, 0
     fc5:	fc5d21        	l32r	a2, 13c (1010 <wind_noise_alpha>)
     fc8:	0002e0        	callx8	a2
     fcb:	61d8           	l32i.n	a13, a1, 24
     fcd:	fc58b1        	l32r	a11, 130 (7fff0000 <_end+0x7ffe0a60>)
     fd0:	71c8           	l32i.n	a12, a1, 28
     fd2:	25dc42        	addmi	a4, a12, 0x2500
     fd5:	fc5c21        	l32r	a2, 148 (7fe70019 <_end+0x7fe60a79>)
     fd8:	4129           	s32i.n	a2, a1, 16
     fda:	3824a2        	l32i	a10, a4, 224
     fdd:	fc5c21        	l32r	a2, 150 (6f48 <siir_safr>)
     fe0:	fc5b31        	l32r	a3, 14c (7e1401ec <_end+0x7e130c4c>)
     fe3:	10c1c2        	addi	a12, a1, 16
     fe6:	5139           	s32i.n	a3, a1, 20
     fe8:	0d6d           	mov.n	a6, a13
     fea:	0002e0        	callx8	a2
     fed:	8128           	l32i.n	a2, a1, 32
     fef:	565a           	add.n	a5, a6, a5
     ff1:	25cd           	ae_l16si.n	a12, a5, 0
     ff3:	0238           	l32i.n	a3, a2, 0
     ff5:	3d0c           	movi.n	a13, 3
     ff7:	ec1b           	addi.n	a14, a12, 1
     ff9:	0f0c           	movi.n	a15, 0
     ffb:	2c0b           	addi.n	a2, a12, -1
     ffd:	3864a2        	s32i	a10, a4, 224
    1000:	5362f0        	max	a6, a2, a15
    1003:	434ed0        	min	a4, a14, a13
    1006:	936430        	movnez	a6, a4, a3
    1009:	020c           	movi.n	a2, 0
    100b:	656d           	ae_s16i.n	a6, a5, 0
    100d:	f01d           	retw.n

0000100f <PD_Noise_Est+0x5a7>:
	...

00001010 <wind_noise_alpha>:
    1010:	004136        	entry	a1, 32
    1013:	f77c           	movi.n	a7, -1
    1015:	017710        	slli	a7, a7, 31
    1018:	2213a6        	blti	a3, 1, 103e <wind_noise_alpha+0x2e>
    101b:	944d           	ae_zext16	a4, a4
    101d:	824460        	mull	a4, a4, a6
    1020:	414e40        	srli	a4, a4, 14
    1023:	948d           	ae_zext16	a8, a4
    1025:	114400        	slli	a4, a4, 16
    1028:	c08840        	sub	a8, a8, a4
    102b:	024d           	mov.n	a4, a2
    102d:	887a           	add.n	a8, a8, a7
    102f:	038376        	loop	a3, 1036 <wind_noise_alpha+0x26>
    1032:	0489           	s32i.n	a8, a4, 0
    1034:	444b           	addi.n	a4, a4, 4

00001036 <wind_noise_alpha+0x26>:
    1036:	942c           	movi.n	a4, 41
    1038:	04b437        	bgeu	a4, a3, 1040 <wind_noise_alpha+0x30>
    103b:	0008c6        	j	1062 <wind_noise_alpha+0x52>

0000103e <wind_noise_alpha+0x2e>:
    103e:	030c           	movi.n	a3, 0
    1040:	954d           	ae_zext16	a4, a5
    1042:	824460        	mull	a4, a4, a6
    1045:	d6c3d2        	addi	a13, a3, -42
    1048:	41fe40        	srli	a15, a4, 14
    104b:	a02320        	addx4	a2, a3, a2
    104e:	9f4d           	ae_zext16	a4, a15
    1050:	113f00        	slli	a3, a15, 16
    1053:	c03430        	sub	a3, a4, a3
    1056:	60e0d0        	neg	a14, a13
    1059:	337a           	add.n	a3, a3, a7
    105b:	038e76        	loop	a14, 1062 <wind_noise_alpha+0x52>
    105e:	0239           	s32i.n	a3, a2, 0
    1060:	224b           	addi.n	a2, a2, 4

00001062 <wind_noise_alpha+0x52>:
    1062:	f01d           	retw.n

00001064 <PD_Noise_Gain>:
    1064:	004136        	entry	a1, 32
    1067:	fc1921        	l32r	a2, cc (f59c <p_ecnr_mem>)
    106a:	fc1e31        	l32r	a3, e4 (9c64 <two_mic_SWB_NR_proc+0x294>)
    106d:	0228           	l32i.n	a2, a2, 0
    106f:	223a           	add.n	a2, a2, a3
    1071:	222d           	ae_l16si.n	a2, a2, 0
    1073:	f01d           	retw.n

00001075 <PD_Noise_Gain+0x11>:
    1075:	000000                                        ...

00001078 <PD_TD_prcs>:
    1078:	004136        	entry	a1, 32
    107b:	fc1431        	l32r	a3, cc (f59c <p_ecnr_mem>)
    107e:	fc3541        	l32r	a4, 154 (96dc <two_mic_WB_NR_NSN_proc+0xb6c>)
    1081:	fc3561        	l32r	a6, 158 (d6fc <xt_memcpy>)
    1084:	0328           	l32i.n	a2, a3, 0
    1086:	2c3c           	movi.n	a12, 50
    1088:	2cd252        	addmi	a5, a2, 0x2c00
    108b:	202552        	l32i	a5, a5, 128
    108e:	b24a           	add.n	a11, a2, a4
    1090:	9cc522        	addi	a2, a5, -100
    1093:	02ad           	mov.n	a10, a2
    1095:	0006e0        	callx8	a6
    1098:	0378           	l32i.n	a7, a3, 0
    109a:	fc3061        	l32r	a6, 15c (9698 <two_mic_WB_NR_NSN_proc+0xb28>)
    109d:	02ad           	mov.n	a10, a2
    109f:	b76a           	add.n	a11, a7, a6
    10a1:	fc2f71        	l32r	a7, 160 (10c4 <Pitch_by_Corel>)
    10a4:	0007e0        	callx8	a7
    10a7:	0328           	l32i.n	a2, a3, 0
    10a9:	d8c5a2        	addi	a10, a5, -40
    10ac:	b26a           	add.n	a11, a2, a6
    10ae:	0007e0        	callx8	a7
    10b1:	0328           	l32i.n	a2, a3, 0
    10b3:	14c5b2        	addi	a11, a5, 20
    10b6:	2c3c           	movi.n	a12, 50
    10b8:	a24a           	add.n	a10, a2, a4
    10ba:	fc2721        	l32r	a2, 158 (d6fc <xt_memcpy>)
    10bd:	0002e0        	callx8	a2
    10c0:	f01d           	retw.n

000010c2 <PD_TD_prcs+0x4a>:
	...

000010c4 <Pitch_by_Corel>:
    10c4:	01a136        	entry	a1, 208
    10c7:	08a562        	movi	a6, 0x508
    10ca:	18a542        	movi	a4, 0x518
    10cd:	636a           	add.n	a6, a3, a6
    10cf:	434a           	add.n	a4, a3, a4
    10d1:	05d3c2        	addmi	a12, a3, 0x500
    10d4:	f3f660        	wur.ae_cbegin0	a6
    10d7:	f3f740        	wur.ae_cend0	a4
    10da:	0c68           	l32i.n	a6, a12, 0
    10dc:	450c           	movi.n	a5, 4
    10de:	aca0e2        	movi	a14, 172
    10e1:	0678           	l32i.n	a7, a6, 0
    10e3:	fc24fb865f 	{ ae_lq32f.c	aeq0, a6, a5; nop }
    10e8:	0688           	l32i.n	a8, a6, 0
    10ea:	fc24fb865f 	{ ae_lq32f.c	aeq0, a6, a5; nop }
    10ef:	0698           	l32i.n	a9, a6, 0
    10f1:	fc24fb865f 	{ ae_lq32f.c	aeq0, a6, a5; nop }
    10f6:	06a8           	l32i.n	a10, a6, 0
    10f8:	fc24fb865f 	{ ae_lq32f.c	aeq0, a6, a5; nop }
    10fd:	fc24fb865f 	{ ae_lq32f.c	aeq0, a6, a5; nop }
    1102:	f3ea           	add.n	a15, a3, a14
    1104:	fc18d1        	l32r	a13, 164 (4ccccd <_end+0x4bd72d>)
    1107:	216132        	s32i	a3, a1, 132
    110a:	030c           	movi.n	a3, 0
    110c:	0c69           	s32i.n	a6, a12, 0
    110e:	398dd4        	ae_movpa24x2	aep0, a13, a13
    1111:	eb1c           	movi.n	a11, 30
    1113:	050c           	movi.n	a5, 0
    1115:	0c0c           	movi.n	a12, 0
    1117:	fc248622de 	{ addi	a13, a2, 98; ae_zeroq56	aeq0 }
    111c:	50c262        	addi	a6, a2, 80
    111f:	fccfe2        	addi	a14, a15, -4
    1122:	1f6132        	s32i	a3, a1, 124

00001125 <Pitch_by_Corel+0x61>:
    1125:	0dfd           	mov.n	a15, a13
    1127:	202660        	or	a2, a6, a6
    112a:	409f14        	ae_lp16f.iu	aep1, a15, 2
    112d:	078b76        	loop	a11, 1138 <Pitch_by_Corel+0x74>
    1130:	40a214        	ae_lp16f.iu	aep2, a2, 2
    1133:	e444ac9f1f 	{ ae_lp16f.iu	aep1, a15, 2; ae_mulafs56p24s.hh	aeq0, aep1, aep2 }

00001138 <Pitch_by_Corel+0x74>:
    1138:	350174        	ae_sraiq56	aeq0, aeq0, 5
    113b:	fc247d270f 	{ ae_lq32f.i	aeq1, a7, 0; ae_roundsq32asym	aeq0, aeq0 }
    1140:	f9667d480f 	{ ae_lq32f.i	aeq2, a8, 0; ae_addsq56s	aeq1, aeq0, aeq1 }
    1145:	f9ea7d690f 	{ ae_lq32f.i	aeq3, a9, 0; ae_addsq56s	aeq1, aeq1, aeq2 }
    114a:	f9ee7d6a0f 	{ ae_lq32f.i	aeq3, a10, 0; ae_addsq56s	aeq1, aeq1, aeq3 }
    114f:	f9ee4fec2e 	{ addi	a2, a12, -2; ae_addsq56s	aeq1, aeq1, aeq3 }
    1154:	f8603ad16f 	{ ae_sllisq56s	aeq1, aeq1, 6; ae_mulrfq32sp24s.h	aeq0, aeq0, aep0 }
    1159:	fd2c40264f 	{ movi	a4, 38; ae_roundsq32asym	aeq1, aeq1 }
    115e:	625e14        	ae_sq32f.iu	aeq1, a14, 4
    1161:	0ef8           	l32i.n	a15, a14, 0
    1163:	922d           	ae_zext16	a2, a2
    1165:	622240        	saltu	a2, a2, a4
    1168:	53ff30        	max	a15, a15, a3
    116b:	0ef9           	s32i.n	a15, a14, 0
    116d:	620704        	ae_sq32f.i	aeq0, a7, 0
    1170:	600804        	ae_lq32f.i	aeq0, a8, 0
    1173:	f860001cce 	{ addi	a12, a12, 1; ae_mulrfq32sp24s.h	aeq0, aeq0, aep0 }
    1178:	7245f0        	salt	a4, a5, a15
    117b:	620804        	ae_sq32f.i	aeq0, a8, 0
    117e:	600904        	ae_lq32f.i	aeq0, a9, 0
    1181:	f8600fe66e 	{ addi	a6, a6, -2; ae_mulrfq32sp24s.h	aeq0, aeq0, aep0 }
    1186:	83f540        	moveqz	a15, a5, a4
    1189:	620904        	ae_sq32f.i	aeq0, a9, 0
    118c:	600a04        	ae_lq32f.i	aeq0, a10, 0
    118f:	f86000477e 	{ addi	a7, a7, 4; ae_mulrfq32sp24s.h	aeq0, aeq0, aep0 }
    1194:	935f20        	movnez	a5, a15, a2
    1197:	af2c           	movi.n	a15, 42
    1199:	fc24b98a0f 	{ ae_sq32f.i	aeq0, a10, 0; ae_zeroq56	aeq0 }
    119e:	884b           	addi.n	a8, a8, 4
    11a0:	994b           	addi.n	a9, a9, 4
    11a2:	aa4b           	addi.n	a10, a10, 4
    11a4:	021cf7        	beq	a12, a15, 11aa <Pitch_by_Corel+0xe6>
    11a7:	ffde86        	j	1125 <Pitch_by_Corel+0x61>
    11aa:	212182        	l32i	a8, a1, 132
    11ad:	54a132        	movi	a3, 0x154
    11b0:	7cc162        	addi	a6, a1, 124
    11b3:	1f6152        	s32i	a5, a1, 124
    11b6:	603384        	ae_lq32f.xu	aeq0, a3, a8
    11b9:	604604        	ae_lq32f.i	aeq1, a6, 0
    11bc:	065814        	ae_subsq56s	aeq1, aeq1, aeq0
    11bf:	fbea41        	l32r	a4, 168 (2ccccd <_end+0x2bd72d>)
    11c2:	fd04e2044f 	{ ae_movpa24x2	aep0, a4, a4; ae_satq48s	aeq1, aeq1 }
    11c7:	d461b7016f 	{ ae_sp24x2s.i	aep0, a1, 48; ae_mularfq32sp24s.h	aeq0, aeq1, aep0 }
    11cc:	04d822        	addmi	a2, a8, 0x400
    11cf:	fc00f3e2fe 	{ l32i	a15, a2, 248; ae_satq48s	aeq0, aeq0 }
    11d4:	620304        	ae_sq32f.i	aeq0, a3, 0
    11d7:	552832        	l32i	a3, a8, 0x154
    11da:	286162        	s32i	a6, a1, 160
    11dd:	58a162        	movi	a6, 0x158
    11e0:	434f30        	min	a4, a15, a3
    11e3:	0a1832        	l16ui	a3, a8, 20
    11e6:	3e6242        	s32i	a4, a2, 248
    11e9:	872c           	movi.n	a7, 40
    11eb:	6173b6        	bltui	a3, 7, 1250 <Pitch_by_Corel+0x18c>
    11ee:	f8a432        	movi	a3, 0x4f8
    11f1:	686a           	add.n	a6, a8, a6
    11f3:	1e6142        	s32i	a4, a1, 120
    11f6:	068776        	loop	a7, 1200 <Pitch_by_Corel+0x13c>
    11f9:	0678           	l32i.n	a7, a6, 0
    11fb:	664b           	addi.n	a6, a6, 4
    11fd:	434740        	min	a4, a7, a4
    1200:	50a262        	movi	a6, 0x250
    1203:	1e6142        	s32i	a4, a1, 120
    1206:	78c192        	addi	a9, a1, 120
    1209:	58a1a2        	movi	a10, 0x158
    120c:	602834        	ae_lq32f.x	aeq0, a8, a3
    120f:	38aa           	add.n	a3, a8, a10
    1211:	604904        	ae_lq32f.i	aeq1, a9, 0
    1214:	60b684        	ae_lq32f.xu	aeq2, a6, a8
    1217:	fa5681f8cf 	{ movi	a12, 0x1f8; ae_subsq56s	aeq2, aeq2, aeq1 }
    121c:	fbd471        	l32r	a7, 16c (6ccccd <_end+0x6bd72d>)
    121f:	f3f630        	wur.ae_cbegin0	a3
    1222:	38ca           	add.n	a3, a8, a12
    1224:	05d8b2        	addmi	a11, a8, 0x500
    1227:	fe80e2077f 	{ ae_movpa24x2	aep0, a7, a7; ae_satq48s	aeq2, aeq2 }
    122c:	f3f730        	wur.ae_cend0	a3
    122f:	d660f01bee 	{ l32i	a14, a11, 4; ae_mularfq32sp24s.h	aeq1, aeq2, aep0 }
    1234:	4d0c           	movi.n	a13, 4
    1236:	fd04cfffff 	{ movi	a15, -1; ae_satq48s	aeq1, aeq1 }
    123b:	621604        	ae_sq32f.i	aeq1, a6, 0
    123e:	fc24f80edf 	{ ae_sq32f.c	aeq0, a14, a13; nop }
    1243:	4161f0        	srli	a6, a15, 1
    1246:	3e6262        	s32i	a6, a2, 248
    1249:	020c           	movi.n	a2, 0
    124b:	1be9           	s32i.n	a14, a11, 4
    124d:	000046        	j	1252 <Pitch_by_Corel+0x18e>

00001250 <Pitch_by_Corel+0x18c>:
    1250:	231b           	addi.n	a2, a3, 1
    1252:	50a232        	movi	a3, 0x250
    1255:	fbc6e1        	l32r	a14, 170 (59999a <_end+0x58a3fa>)
    1258:	607384        	ae_lq32f.xu	aeq1, a3, a8
    125b:	398ee4        	ae_movpa24x2	aep0, a14, a14
    125e:	0a5822        	s16i	a2, a8, 20
    1261:	f90102542f 	{ movi	a2, 0x254; ae_mulfq32sp24s.h	aeq2, aeq1, aep0 }
    1266:	603284        	ae_lq32f.xu	aeq0, a2, a8
    1269:	d6500000ff 	{ movi	a15, 0; ae_ltq56s	b0, aeq0, aeq2 }
    126e:	160c           	movi.n	a6, 1
    1270:	fbc171        	l32r	a7, 174 (733333 <_end+0x723d93>)
    1273:	d3f600        	movt	a15, a6, b0
    1276:	fbc061        	l32r	a6, 178 (70a3d7 <_end+0x6fae37>)
    1279:	78c142        	addi	a4, a1, 120
    127c:	1a6152        	s32i	a5, a1, 104
    127f:	5604b4        	ae_sp24x2s.i	aep0, a4, -40
    1282:	6f8c           	beqz.n	a15, 128c <Pitch_by_Corel+0x1c8>
    1284:	0368           	l32i.n	a6, a3, 0
    1286:	398774        	ae_movpa24x2	aep0, a7, a7
    1289:	0011c6        	j	12d4 <Pitch_by_Corel+0x210>

0000128c <Pitch_by_Corel+0x1c8>:
    128c:	398664        	ae_movpa24x2	aep0, a6, a6
    128f:	f90100004f 	{ movi	a4, 0; ae_mulfq32sp24s.h	aeq2, aeq1, aep0 }
    1294:	1f0c           	movi.n	a15, 1
    1296:	d65000018f 	{ movi	a8, 1; ae_ltq56s	b0, aeq0, aeq2 }
    129b:	fbb871        	l32r	a7, 17c (7e147b <_end+0x7d1edb>)
    129e:	398774        	ae_movpa24x2	aep0, a7, a7
    12a1:	d34f00        	movt	a4, a15, b0
    12a4:	348c           	beqz.n	a4, 12ab <Pitch_by_Corel+0x1e7>
    12a6:	0368           	l32i.n	a6, a3, 0
    12a8:	000a06        	j	12d4 <Pitch_by_Corel+0x210>

000012ab <Pitch_by_Corel+0x1e7>:
    12ab:	0138c0        	slli	a3, a8, 20
    12ae:	398334        	ae_movpa24x2	aep0, a3, a3
    12b1:	080a54        	ae_mularfq32sp24s.h	aeq1, aeq1, aep0
    12b4:	01d1f2        	addmi	a15, a1, 0x100
    12b7:	fd04c80f3e 	{ addi	a3, a15, -128; ae_satq48s	aeq1, aeq1 }
    12bc:	621304        	ae_sq32f.i	aeq1, a3, 0
    12bf:	202162        	l32i	a6, a1, 128
    12c2:	fbae31        	l32r	a3, 17c (7e147b <_end+0x7d1edb>)
    12c5:	398334        	ae_movpa24x2	aep0, a3, a3
    12c8:	022657        	blt	a6, a5, 12ce <Pitch_by_Corel+0x20a>
    12cb:	022846        	j	1b70 <Pitch_by_Corel+0xaac>
    12ce:	fbac31        	l32r	a3, 180 (7fbe77 <_end+0x7ec8d7>)
    12d1:	398334        	ae_movpa24x2	aep0, a3, a3
    12d4:	1a6162        	s32i	a6, a1, 104
    12d7:	68c132        	addi	a3, a1, 104
    12da:	604304        	ae_lq32f.i	aeq1, a3, 0
    12dd:	f84680ff4f 	{ movi	a4, 255; ae_subsq56s	aeq0, aeq0, aeq1 }
    12e2:	fc00c001ef 	{ movi	a14, 1; ae_satq48s	aeq0, aeq0 }
    12e7:	080a24        	ae_mulafq32sp24s.h	aeq1, aeq0, aep0
    12ea:	2a6162        	s32i	a6, a1, 168
    12ed:	060944        	ae_satq48s	aeq0, aeq1
    12f0:	064834        	ae_roundsq32sym	aeq1, aeq0
    12f3:	621204        	ae_sq32f.i	aeq1, a2, 0
    12f6:	02f8           	l32i.n	a15, a2, 0
    12f8:	116e20        	slli	a6, a14, 14
    12fb:	3fd442        	addmi	a4, a4, 0x3f00
    12fe:	364634        	ae_cvtq48a32s	aeq1, a6
    1301:	0124f7        	blt	a4, a15, 1306 <Pitch_by_Corel+0x242>
    1304:	0269           	s32i.n	a6, a2, 0
    1306:	fb7121        	l32r	a2, cc (f59c <p_ecnr_mem>)
    1309:	f86701148f 	{ movi	a8, 0x114; ae_maxq56s	aeq0, aeq1, aeq0 }
    130e:	9ca0d2        	movi	a13, 156
    1311:	0248           	l32i.n	a4, a2, 0
    1313:	eca0e2        	movi	a14, 236
    1316:	0b0c           	movi.n	a11, 0
    1318:	2cd432        	addmi	a3, a4, 0x2c00
    131b:	1f2362        	l32i	a6, a3, 124
    131e:	7c2c           	movi.n	a12, 39
    1320:	1b6152        	s32i	a5, a1, 108
    1323:	f68a           	add.n	a15, a6, a8
    1325:	fb9781        	l32r	a8, 184 (d6e8 <xt_memset>)
    1328:	06ad           	mov.n	a10, a6
    132a:	56da           	add.n	a5, a6, a13
    132c:	76ea           	add.n	a7, a6, a14
    132e:	630144        	ae_sq56s.i	aeq0, a1, 32
    1331:	2461f2        	s32i	a15, a1, 144
    1334:	020c           	movi.n	a2, 0
    1336:	732c           	movi.n	a3, 39
    1338:	0008e0        	callx8	a8
    133b:	226152        	s32i	a5, a1, 136
    133e:	05ad           	mov.n	a10, a5
    1340:	fb9151        	l32r	a5, 184 (d6e8 <xt_memset>)
    1343:	0b0c           	movi.n	a11, 0
    1345:	8c2c           	movi.n	a12, 40
    1347:	0005e0        	callx8	a5
    134a:	0b0c           	movi.n	a11, 0
    134c:	4c1c           	movi.n	a12, 20
    134e:	07ad           	mov.n	a10, a7
    1350:	a179           	s32i.n	a7, a1, 40
    1352:	0005e0        	callx8	a5
    1355:	2421a2        	l32i	a10, a1, 144
    1358:	0b0c           	movi.n	a11, 0
    135a:	4c1c           	movi.n	a12, 20
    135c:	0005e0        	callx8	a5
    135f:	fb8c71        	l32r	a7, 190 (98ec <two_mic_WB_NR_NSN_proc+0xd7c>)
    1362:	6cc1b2        	addi	a11, a1, 108
    1365:	fb8951        	l32r	a5, 18c (147ae1 <_end+0x138541>)
    1368:	398554        	ae_movpa24x2	aep0, a5, a5
    136b:	60cb04        	ae_lq32f.i	aeq3, a11, 0
    136e:	fb017bb47f 	{ ae_lq32f.x	aeq1, a4, a7; ae_mulfq32sp24s.h	aeq3, aeq3, aep0 }
    1373:	190c           	movi.n	a9, 1
    1375:	5da2a2        	movi	a10, 0x25d
    1378:	3499b4        	ae_sraaq56	aeq2, aeq1, a9
    137b:	fb83d1        	l32r	a13, 188 (9744 <two_mic_WB_NR_NSN_proc+0xbd4>)
    137e:	01d1c2        	addmi	a12, a1, 0x100
    1381:	f9ea4accce 	{ addi	a12, a12, -84; ae_addsq56s	aeq1, aeq1, aeq2 }
    1386:	11aaa0        	slli	a10, a10, 6
    1389:	f9ef3ec23f 	{ ae_cvtq48a32s	aeq0, a2; ae_maxq56s	aeq1, aeq3, aeq1 }
    138e:	f4aa           	add.n	a15, a4, a10
    1390:	630134        	ae_sq56s.i	aeq0, a1, 24
    1393:	150c           	movi.n	a5, 1
    1395:	580c           	movi.n	a8, 5
    1397:	070c           	movi.n	a7, 0
    1399:	94da           	add.n	a9, a4, a13
    139b:	2961b2        	s32i	a11, a1, 164
    139e:	006f22        	s32i	a2, a15, 0
    13a1:	1261c2        	s32i	a12, a1, 72
    13a4:	621c04        	ae_sq32f.i	aeq1, a12, 0
    13a7:	609914        	ae_lq32f.iu	aeq2, a9, 4
    13aa:	d6540000af 	{ movi	a10, 0; ae_ltq56s	b0, aeq1, aeq2 }
    13af:	01c222        	addi	a2, a2, 1
    13b2:	61c134        	ae_lq56.i	aeq3, a1, 24
    13b5:	d3a500        	movt	a10, a5, b0
    13b8:	da9c           	beqz.n	a10, 13d9 <Pitch_by_Corel+0x315>
    13ba:	f4c9a2        	addi	a10, a9, -12
    13bd:	058876        	loop	a8, 13c6 <Pitch_by_Corel+0x302>
    13c0:	601a14        	ae_lq32f.iu	aeq0, a10, 4
    13c3:	01f0c4        	ae_maxq56s	aeq3, aeq0, aeq3

000013c6 <Pitch_by_Corel+0x302>:
    13c6:	d4d80000af 	{ movi	a10, 0; ae_eqq56	b0, aeq2, aeq3 }
    13cb:	87bd           	ae_sext16	a11, a7
    13cd:	90cb60        	addx2	a12, a11, a6
    13d0:	d3a500        	movt	a10, a5, b0
    13d3:	2a8c           	beqz.n	a10, 13d9 <Pitch_by_Corel+0x315>
    13d5:	771b           	addi.n	a7, a7, 1
    13d7:	6c2d           	ae_s16i.n	a2, a12, 0

000013d9 <Pitch_by_Corel+0x315>:
    13d9:	ca9237        	bne	a2, a3, 13a7 <Pitch_by_Corel+0x2e3>
    13dc:	270b           	addi.n	a2, a7, -1
    13de:	70c1c2        	addi	a12, a1, 112
    13e1:	823d           	ae_sext16	a3, a2
    13e3:	10c172        	addi	a7, a1, 16
    13e6:	0a5122        	s16i	a2, a1, 20
    13e9:	2661c2        	s32i	a12, a1, 152
    13ec:	0213e6        	bgei	a3, 1, 13f2 <Pitch_by_Corel+0x32e>
    13ef:	003686        	j	14cd <Pitch_by_Corel+0x409>
    13f2:	120c           	movi.n	a2, 1
    13f4:	950c           	movi.n	a5, 9
    13f6:	112210        	slli	a2, a2, 15
    13f9:	115580        	slli	a5, a5, 8
    13fc:	fb66d1        	l32r	a13, 194 (9722 <two_mic_WB_NR_NSN_proc+0xbb2>)
    13ff:	368234        	ae_cvtq48a32s	aeq2, a2
    1402:	864b           	addi.n	a8, a6, 4
    1404:	398554        	ae_movpa24x2	aep0, a5, a5
    1407:	256182        	s32i	a8, a1, 148
    140a:	090c           	movi.n	a9, 0
    140c:	020c           	movi.n	a2, 0
    140e:	560174        	ae_sp24x2s.i	aep0, a1, 56
    1411:	632134        	ae_sq56s.i	aeq2, a1, 24
    1414:	001486        	j	146a <Pitch_by_Corel+0x3a6>

00001417 <Pitch_by_Corel+0x353>:
    1417:	9c0c           	movi.n	a12, 9
    1419:	afea           	add.n	a10, a15, a14
    141b:	fb5f81        	l32r	a8, 198 (2388 <Xfrac_num_pd_td32>)
    141e:	236122        	s32i	a2, a1, 140
    1421:	062d           	mov.n	a2, a6
    1423:	076d           	mov.n	a6, a7
    1425:	047d           	mov.n	a7, a4
    1427:	0d4d           	mov.n	a4, a13
    1429:	0008e0        	callx8	a8
    142c:	04dd           	mov.n	a13, a4
    142e:	074d           	mov.n	a4, a7
    1430:	067d           	mov.n	a7, a6
    1432:	026d           	mov.n	a6, a2
    1434:	232122        	l32i	a2, a1, 140
    1437:	2621c2        	l32i	a12, a1, 152
    143a:	618134        	ae_lq56.i	aeq2, a1, 24
    143d:	1c61a2        	s32i	a10, a1, 112
    1440:	600c04        	ae_lq32f.i	aeq0, a12, 0
    1443:	f8e3b2219e 	{ l32i	a9, a1, 136; ae_roundsp16q48sym	aep0, aeq0 }
    1448:	420704        	ae_sp16f.l.i	aep0, a7, 0
    144b:	0891b2        	l16si	a11, a1, 16
    144e:	828d           	ae_sext16	a8, a2
    1450:	a09890        	addx4	a9, a8, a9
    1453:	a1e8           	l32i.n	a14, a1, 40
    1455:	09a9           	s32i.n	a10, a9, 0
    1457:	a09b40        	addx4	a9, a11, a4
    145a:	99da           	add.n	a9, a9, a13
    145c:	49fd           	ae_l16ui.n	a15, a9, 0
    145e:	9088e0        	addx2	a8, a8, a14
    1461:	221b           	addi.n	a2, a2, 1
    1463:	059d           	mov.n	a9, a5
    1465:	68fd           	ae_s16i.n	a15, a8, 0
    1467:	66a537        	bge	a5, a3, 14d1 <Pitch_by_Corel+0x40d>
    146a:	591b           	addi.n	a5, a9, 1
    146c:	fc1451896f 	{ addx2	a8, a9, a6; ae_movq56	aeq0, aeq2 }
    1471:	90a560        	addx2	a10, a5, a6
    1474:	28bd           	ae_l16si.n	a11, a8, 0
    1476:	2a8d           	ae_l16si.n	a8, a10, 0
    1478:	fb44e1        	l32r	a14, 188 (9744 <two_mic_WB_NR_NSN_proc+0xbd4>)
    147b:	a0fb40        	addx4	a15, a11, a4
    147e:	c0a8b0        	sub	a10, a8, a11
    1481:	921a66        	bnei	a10, 1, 1417 <Pitch_by_Corel+0x353>
    1484:	28a537        	bge	a5, a3, 14b0 <Pitch_by_Corel+0x3ec>
    1487:	fc147251ae 	{ l32i	a10, a1, 148; ae_movq56	aeq0, aeq2 }
    148c:	c0b350        	sub	a11, a3, a5
    148f:	08ed           	mov.n	a14, a8
    1491:	9099a0        	addx2	a9, a9, a10
    1494:	05ad           	mov.n	a10, a5
    1496:	168b76        	loop	a11, 14b0 <Pitch_by_Corel+0x3ec>
    1499:	298d           	ae_l16si.n	a8, a9, 0
    149b:	8e5d           	ae_sext16	a5, a14
    149d:	992b           	addi.n	a9, a9, 2
    149f:	c0b850        	sub	a11, a8, a5
    14a2:	0a5d           	mov.n	a5, a10
    14a4:	081b66        	bnei	a11, 1, 14b0 <Pitch_by_Corel+0x3ec>
    14a7:	f8e2401aae 	{ addi	a10, a10, 1; ae_addsq56s	aeq0, aeq0, aeq2 }
    14ac:	035d           	mov.n	a5, a3
    14ae:	08ed           	mov.n	a14, a8

000014b0 <Pitch_by_Corel+0x3ec>:
    14b0:	908560        	addx2	a8, a5, a6
    14b3:	400804        	ae_lp16f.i	aep0, a8, 0
    14b6:	541174        	ae_lp24x2.i	aep1, a1, 56
    14b9:	d82100155e 	{ addi	a5, a5, 1; ae_addsp24s	aep0, aep0, aep1 }
    14be:	0a4884        	ae_cvtq48p24s.h	aeq1, aep0
    14c1:	061814        	ae_subsq56s	aeq0, aeq1, aeq0
    14c4:	620c04        	ae_sq32f.i	aeq0, a12, 0
    14c7:	1c21a2        	l32i	a10, a1, 112
    14ca:	ffdc86        	j	1440 <Pitch_by_Corel+0x37c>

000014cd <Pitch_by_Corel+0x409>:
    14cd:	020c           	movi.n	a2, 0
    14cf:	050c           	movi.n	a5, 0
    14d1:	419537        	bne	a5, a3, 1516 <Pitch_by_Corel+0x452>
    14d4:	903360        	addx2	a3, a3, a6
    14d7:	fb2cf1        	l32r	a15, 188 (9744 <two_mic_WB_NR_NSN_proc+0xbd4>)
    14da:	23bd           	ae_l16si.n	a11, a3, 0
    14dc:	fb2f51        	l32r	a5, 198 (2388 <Xfrac_num_pd_td32>)
    14df:	34fa           	add.n	a3, a4, a15
    14e1:	a0ab30        	addx4	a10, a11, a3
    14e4:	9c0c           	movi.n	a12, 9
    14e6:	0005e0        	callx8	a5
    14e9:	262182        	l32i	a8, a1, 152
    14ec:	1c61a2        	s32i	a10, a1, 112
    14ef:	222162        	l32i	a6, a1, 136
    14f2:	600804        	ae_lq32f.i	aeq0, a8, 0
    14f5:	f8e3b0a1fe 	{ l32i	a15, a1, 40; ae_roundsp16q48sym	aep0, aeq0 }
    14fa:	420704        	ae_sp16f.l.i	aep0, a7, 0
    14fd:	089172        	l16si	a7, a1, 16
    1500:	825d           	ae_sext16	a5, a2
    1502:	a06560        	addx4	a6, a5, a6
    1505:	a03730        	addx4	a3, a7, a3
    1508:	06a9           	s32i.n	a10, a6, 0
    150a:	dec332        	addi	a3, a3, -34
    150d:	9055f0        	addx2	a5, a5, a15
    1510:	433d           	ae_l16ui.n	a3, a3, 0
    1512:	221b           	addi.n	a2, a2, 1
    1514:	653d           	ae_s16i.n	a3, a5, 0
    1516:	fb2151        	l32r	a5, 19c (9bb0 <two_mic_SWB_NR_proc+0x1e0>)
    1519:	f67c           	movi.n	a6, -1
    151b:	82bd           	ae_sext16	a11, a2
    151d:	0166f0        	slli	a6, a6, 17
    1520:	74c132        	addi	a3, a1, 116
    1523:	021be6        	bgei	a11, 1, 1529 <Pitch_by_Corel+0x465>
    1526:	007206        	j	16f2 <Pitch_by_Corel+0x62e>
    1529:	242172        	l32i	a7, a1, 144
    152c:	160c           	movi.n	a6, 1
    152e:	038b76        	loop	a11, 1535 <Pitch_by_Corel+0x471>
    1531:	676d           	ae_s16i.n	a6, a7, 0
    1533:	772b           	addi.n	a7, a7, 2

00001535 <Pitch_by_Corel+0x471>:
    1535:	645a           	add.n	a6, a4, a5
    1537:	265d           	ae_l16si.n	a5, a6, 0
    1539:	170c           	movi.n	a7, 1
    153b:	117700        	slli	a7, a7, 16
    153e:	2761b2        	s32i	a11, a1, 156
    1541:	0215e6        	bgei	a5, 1, 1547 <Pitch_by_Corel+0x483>
    1544:	006d06        	j	16fc <Pitch_by_Corel+0x638>
    1547:	3f0c           	movi.n	a15, 3
    1549:	fb1c91        	l32r	a9, 1bc (9c04 <two_mic_SWB_NR_proc+0x234>)
    154c:	01ffb0        	slli	a15, a15, 21
    154f:	2721a2        	l32i	a10, a1, 156
    1552:	fb19e1        	l32r	a14, 1b8 (5ccccd <_end+0x5bd72d>)
    1555:	39eff4        	ae_movpa24x2	aep6, a15, a15
    1558:	78c1f2        	addi	a15, a1, 120
    155b:	f80c           	movi.n	a8, 15
    155d:	39dee4        	ae_movpa24x2	aep5, a14, a14
    1560:	566f94        	ae_sp24x2s.i	aep6, a15, -56
    1563:	2221e2        	l32i	a14, a1, 136
    1566:	2421f2        	l32i	a15, a1, 144
    1569:	360734        	ae_cvtq48a32s	aeq0, a7
    156c:	118810        	slli	a8, a8, 15
    156f:	fb0e71        	l32r	a7, 1a8 (466666 <_end+0x4570c6>)
    1572:	fb0eb1        	l32r	a11, 1ac (533333 <_end+0x523d93>)
    1575:	fb0ec1        	l32r	a12, 1b0 (5851ec <_end+0x575c4c>)
    1578:	fb0fd1        	l32r	a13, 1b4 (5ae148 <_end+0x59eba8>)
    157b:	949a           	add.n	a9, a4, a9
    157d:	399774        	ae_movpa24x2	aep1, a7, a7
    1580:	39cdd4        	ae_movpa24x2	aep4, a13, a13
    1583:	955d           	ae_zext16	a5, a5
    1585:	630134        	ae_sq56s.i	aeq0, a1, 24
    1588:	236192        	s32i	a9, a1, 140
    158b:	398884        	ae_movpa24x2	aep0, a8, a8
    158e:	aa0b           	addi.n	a10, a10, -1
    1590:	070c           	movi.n	a7, 0
    1592:	39abb4        	ae_movpa24x2	aep2, a11, a11
    1595:	39bcc4        	ae_movpa24x2	aep3, a12, a12
    1598:	1d0c           	movi.n	a13, 1

0000159a <Pitch_by_Corel+0x4d6>:
    159a:	600e04        	ae_lq32f.i	aeq0, a14, 0
    159d:	d4620ff5be 	{ addi	a11, a5, -1; ae_mulfq32sp16s.h	aeq0, aeq0, aep0 }
    15a2:	0e58           	l32i.n	a5, a14, 0
    15a4:	614134        	ae_lq56.i	aeq1, a1, 24
    15a7:	f86b32318e 	{ l32i	a8, a1, 140; ae_maxq56s	aeq0, aeq0, aeq1 }
    15ac:	29a7b7        	bge	a7, a11, 15d9 <Pitch_by_Corel+0x515>
    15af:	fd10959b7f 	{ sub	a9, a11, a7; ae_negq56	aeq1, aeq0 }
    15b4:	07cd           	mov.n	a12, a7
    15b6:	a08780        	addx4	a8, a7, a8
    15b9:	1c8976        	loop	a9, 15d9 <Pitch_by_Corel+0x515>
    15bc:	0878           	l32i.n	a7, a8, 0
    15be:	090c           	movi.n	a9, 0
    15c0:	884b           	addi.n	a8, a8, 4
    15c2:	c07750        	sub	a7, a7, a5
    15c5:	1d6172        	s32i	a7, a1, 116
    15c8:	608304        	ae_lq32f.i	aeq2, a3, 0
    15cb:	d654137ccf 	{ or	a7, a12, a12; ae_ltq56s	b0, aeq1, aeq2 }
    15d0:	cc1b           	addi.n	a12, a12, 1
    15d2:	d39d00        	movt	a9, a13, b0
    15d5:	09cc           	bnez.n	a9, 15d9 <Pitch_by_Corel+0x515>
    15d7:	0b7d           	mov.n	a7, a11

000015d9 <Pitch_by_Corel+0x515>:
    15d9:	faf891        	l32r	a9, 1bc (9c04 <two_mic_SWB_NR_proc+0x234>)
    15dc:	a08740        	addx4	a8, a7, a4
    15df:	0c0c           	movi.n	a12, 0
    15e1:	889a           	add.n	a8, a8, a9
    15e3:	0888           	l32i.n	a8, a8, 0
    15e5:	c05850        	sub	a5, a8, a5
    15e8:	605150        	abs	a5, a5
    15eb:	1d6152        	s32i	a5, a1, 116
    15ee:	604304        	ae_lq32f.i	aeq1, a3, 0
    15f1:	d54411574f 	{ addx2	a5, a7, a4; ae_leq56s	b0, aeq1, aeq0 }
    15f6:	faf281        	l32r	a8, 1c0 (96a8 <two_mic_WB_NR_NSN_proc+0xb38>)
    15f9:	faf2b1        	l32r	a11, 1c4 (9bda <two_mic_SWB_NR_proc+0x20a>)
    15fc:	d3cd00        	movt	a12, a13, b0
    15ff:	04ac16        	beqz	a12, 164d <Pitch_by_Corel+0x589>
    1602:	417484        	ae_lp16f.x	aep7, a4, a8
    1605:	4165b4        	ae_lp16f.x	aep6, a5, a11
    1608:	e9dc8d8fce 	{ addi	a12, a15, -40; ae_mulfp24s.hh	aeq2, aep7, aep6 }
    160d:	407c04        	ae_lp16f.i	aep7, a12, 0
    1610:	ffe430616f 	{ ae_lp24x2.i	aep6, a1, 48; ae_cvtq48p24s.h	aeq3, aep7 }
    1615:	fbf7fa017f 	{ ae_sq56s.i	aeq0, a1, 56; ae_roundsp24q48sym	aep7, aeq2 }
    161a:	e8f8bb309f 	{ ae_sraiq56	aeq2, aeq3, 1; ae_mulfp24s.hh	aeq0, aep6, aep7 }
    161f:	e9e4c0009f 	{ movi	a9, 0; ae_mulfp24s.hh	aeq3, aep1, aep7 }
    1624:	d6c000018f 	{ movi	a8, 1; ae_ltq56s	b0, aeq2, aeq0 }
    1629:	d6d84000bf 	{ movi	a11, 0; ae_ltq56s	b1, aeq2, aeq3 }
    162e:	01bf44        	ae_mulfp24s.hh	aeq3, aep3, aep7
    1631:	e8e8969d0f 	{ movt	a9, a13, b0; ae_mulfp24s.hh	aeq0, aep2, aep7 }
    1636:	066956        	bnez	a9, 16a0 <Pitch_by_Corel+0x5dc>
    1639:	d6c016bd1f 	{ movt	a11, a13, b1; ae_ltq56s	b0, aeq2, aeq0 }
    163e:	5b9c           	beqz.n	a11, 1657 <Pitch_by_Corel+0x593>
    1640:	fad881        	l32r	a8, 1a0 (9bb2 <two_mic_SWB_NR_proc+0x1e2>)
    1643:	558a           	add.n	a5, a5, a8
    1645:	255d           	ae_l16si.n	a5, a5, 0
    1647:	fbc552        	addi	a5, a5, -5
    164a:	001346        	j	169b <Pitch_by_Corel+0x5d7>

0000164d <Pitch_by_Corel+0x589>:
    164d:	150c           	movi.n	a5, 1
    164f:	6f5d           	ae_s16i.n	a5, a15, 0
    1651:	059a56        	bnez	a10, 16ae <Pitch_by_Corel+0x5ea>
    1654:	002a86        	j	1702 <Pitch_by_Corel+0x63e>

00001657 <Pitch_by_Corel+0x593>:
    1657:	d6d840008f 	{ movi	a8, 0; ae_ltq56s	b1, aeq2, aeq3 }
    165c:	e8f0968d0f 	{ movt	a8, a13, b0; ae_mulfp24s.hh	aeq0, aep4, aep7 }
    1661:	b88c           	beqz.n	a8, 1670 <Pitch_by_Corel+0x5ac>
    1663:	facf81        	l32r	a8, 1a0 (9bb2 <two_mic_SWB_NR_proc+0x1e2>)
    1666:	558a           	add.n	a5, a5, a8
    1668:	255d           	ae_l16si.n	a5, a5, 0
    166a:	fcc552        	addi	a5, a5, -4
    166d:	000a86        	j	169b <Pitch_by_Corel+0x5d7>

00001670 <Pitch_by_Corel+0x5ac>:
    1670:	d6c000008f 	{ movi	a8, 0; ae_ltq56s	b0, aeq2, aeq0 }
    1675:	e8f4968d1f 	{ movt	a8, a13, b1; ae_mulfp24s.hh	aeq0, aep5, aep7 }
    167a:	b88c           	beqz.n	a8, 1689 <Pitch_by_Corel+0x5c5>
    167c:	fac981        	l32r	a8, 1a0 (9bb2 <two_mic_SWB_NR_proc+0x1e2>)
    167f:	558a           	add.n	a5, a5, a8
    1681:	255d           	ae_l16si.n	a5, a5, 0
    1683:	fec552        	addi	a5, a5, -2
    1686:	000446        	j	169b <Pitch_by_Corel+0x5d7>

00001689 <Pitch_by_Corel+0x5c5>:
    1689:	080c           	movi.n	a8, 0
    168b:	d6c0568d0f 	{ movt	a8, a13, b0; ae_ltq56s	b1, aeq2, aeq0 }
    1690:	58ac           	beqz.n	a8, 16b9 <Pitch_by_Corel+0x5f5>
    1692:	fac381        	l32r	a8, 1a0 (9bb2 <two_mic_SWB_NR_proc+0x1e2>)
    1695:	558a           	add.n	a5, a5, a8
    1697:	255d           	ae_l16si.n	a5, a5, 0
    1699:	550b           	addi.n	a5, a5, -1
    169b:	180c           	movi.n	a8, 1
    169d:	538580        	max	a8, a5, a8
    16a0:	6f8d           	ae_s16i.n	a8, a15, 0
    16a2:	265d           	ae_l16si.n	a5, a6, 0
    16a4:	550b           	addi.n	a5, a5, -1
    16a6:	725750        	salt	a5, a7, a5
    16a9:	775a           	add.n	a7, a7, a5
    16ab:	053a16        	beqz	a10, 1702 <Pitch_by_Corel+0x63e>
    16ae:	265d           	ae_l16si.n	a5, a6, 0
    16b0:	ff2b           	addi.n	a15, a15, 2
    16b2:	aa0b           	addi.n	a10, a10, -1
    16b4:	ee4b           	addi.n	a14, a14, 4
    16b6:	ffb806        	j	159a <Pitch_by_Corel+0x4d6>

000016b9 <Pitch_by_Corel+0x5f5>:
    16b9:	080c           	movi.n	a8, 0
    16bb:	d38d10        	movt	a8, a13, b1
    16be:	888c           	beqz.n	a8, 16ca <Pitch_by_Corel+0x606>
    16c0:	fab881        	l32r	a8, 1a0 (9bb2 <two_mic_SWB_NR_proc+0x1e2>)
    16c3:	558a           	add.n	a5, a5, a8
    16c5:	458d           	ae_l16ui.n	a8, a5, 0
    16c7:	fff546        	j	16a0 <Pitch_by_Corel+0x5dc>

000016ca <Pitch_by_Corel+0x606>:
    16ca:	78c1b2        	addi	a11, a1, 120
    16cd:	546b94        	ae_lp24x2.i	aep6, a11, -56
    16d0:	610174        	ae_lq56.i	aeq0, a1, 56
    16d3:	f81800008f 	{ movi	a8, 0; ae_mulfq32sp24s.h	aeq0, aeq0, aep6 }
    16d8:	fab291        	l32r	a9, 1a0 (9bb2 <two_mic_SWB_NR_proc+0x1e2>)
    16db:	d5440010cf 	{ movi	a12, 16; ae_leq56s	b0, aeq1, aeq0 }
    16e0:	559a           	add.n	a5, a5, a9
    16e2:	255d           	ae_l16si.n	a5, a5, 0
    16e4:	d38d00        	movt	a8, a13, b0
    16e7:	fae816        	beqz	a8, 1699 <Pitch_by_Corel+0x5d5>
    16ea:	551b           	addi.n	a5, a5, 1
    16ec:	4385c0        	min	a8, a5, a12
    16ef:	ffeb46        	j	16a0 <Pitch_by_Corel+0x5dc>

000016f2 <Pitch_by_Corel+0x62e>:
    16f2:	545a           	add.n	a5, a4, a5
    16f4:	360634        	ae_cvtq48a32s	aeq0, a6
    16f7:	652d           	ae_s16i.n	a2, a5, 0
    16f9:	003a86        	j	17e7 <Pitch_by_Corel+0x723>

000016fc <Pitch_by_Corel+0x638>:
    16fc:	360734        	ae_cvtq48a32s	aeq0, a7
    16ff:	630134        	ae_sq56s.i	aeq0, a1, 24
    1702:	faa751        	l32r	a5, 1a0 (9bb2 <two_mic_SWB_NR_proc+0x1e2>)
    1705:	2421b2        	l32i	a11, a1, 144
    1708:	fa9481        	l32r	a8, 158 (d6fc <xt_memcpy>)
    170b:	745a           	add.n	a7, a4, a5
    170d:	272152        	l32i	a5, a1, 156
    1710:	07ad           	mov.n	a10, a7
    1712:	05cd           	mov.n	a12, a5
    1714:	0008e0        	callx8	a8
    1717:	8fa382        	movi	a8, 0x38f
    171a:	1221a2        	l32i	a10, a1, 72
    171d:	390c           	movi.n	a9, 3
    171f:	7fd882        	addmi	a8, a8, 0x7f00
    1722:	36c834        	ae_cvtq48a32s	aeq3, a8
    1725:	fc7c           	movi.n	a12, -1
    1727:	119900        	slli	a9, a9, 16
    172a:	662d           	ae_s16i.n	a2, a6, 0
    172c:	012cf0        	slli	a2, a12, 17
    172f:	604a04        	ae_lq32f.i	aeq1, a10, 0
    1732:	1a0c           	movi.n	a10, 1
    1734:	a1f8           	l32i.n	a15, a1, 40
    1736:	633174        	ae_sq56s.i	aeq3, a1, 56
    1739:	78c1c2        	addi	a12, a1, 120
    173c:	36c934        	ae_cvtq48a32s	aeq3, a9
    173f:	fa99e1        	l32r	a14, 1a4 (c148 <xtensa_fft_pass_32b+0x180>)
    1742:	633cd4        	ae_sq56s.i	aeq3, a12, -24
    1745:	35d074        	ae_sraiq56	aeq3, aeq1, 1
    1748:	1d0c           	movi.n	a13, 1
    174a:	01aaf0        	slli	a10, a10, 17
    174d:	05bd           	mov.n	a11, a5
    174f:	360234        	ae_cvtq48a32s	aeq0, a2
    1752:	112d20        	slli	a2, a13, 14
    1755:	368e34        	ae_cvtq48a32s	aeq2, a14
    1758:	633ca4        	ae_sq56s.i	aeq3, a12, -48
    175b:	36ca34        	ae_cvtq48a32s	aeq3, a10
    175e:	300224        	ae_cvtp24a16x2.ll	aep0, a2, a2
    1761:	920c           	movi.n	a2, 9
    1763:	51cb           	addi.n	a5, a1, 12
    1765:	632c94        	ae_sq56s.i	aeq2, a12, -56
    1768:	fecf62        	addi	a6, a15, -2
    176b:	01a082        	movi	a8, 1
    176e:	633cc4        	ae_sq56s.i	aeq3, a12, -32
    1771:	728b76        	loop	a11, 17e7 <Pitch_by_Corel+0x723>
    1774:	279d           	ae_l16si.n	a9, a7, 0
    1776:	409614        	ae_lp16f.iu	aep1, a6, 2
    1779:	fe240000af 	{ movi	a10, 0; ae_cvtq48p24s.h	aeq2, aep1 }
    177e:	1a39a6        	blti	a9, 3, 179c <Pitch_by_Corel+0x6d8>
    1781:	392927        	blt	a9, a2, 17be <Pitch_by_Corel+0x6fa>
    1784:	36d094        	ae_sllisq56s	aeq3, aeq1, 2
    1787:	fb5e80009f 	{ movi	a9, 0; ae_subsq56s	aeq3, aeq3, aeq1 }
    178c:	d6d40781ae 	{ addi	a10, a1, 120; ae_ltq56s	b0, aeq3, aeq2 }
    1791:	d39800        	movt	a9, a8, b0
    1794:	99ac           	beqz.n	a9, 17c1 <Pitch_by_Corel+0x6fd>
    1796:	618ad4        	ae_lq56.i	aeq2, a10, -24
    1799:	001086        	j	17df <Pitch_by_Corel+0x71b>

0000179c <Pitch_by_Corel+0x6d8>:
    179c:	151966        	bnei	a9, 1, 17b5 <Pitch_by_Corel+0x6f1>
    179f:	36d054        	ae_sllisq56s	aeq3, aeq1, 1
    17a2:	f503c7819e 	{ addi	a9, a1, 120; ae_mulafq32sp16s.h	aeq3, aeq1, aep0 }
    17a7:	09b204        	ae_ltq56s	b0, aeq2, aeq3
    17aa:	d3a800        	movt	a10, a8, b0
    17ad:	4a8c           	beqz.n	a10, 17b5 <Pitch_by_Corel+0x6f1>
    17af:	618994        	ae_lq56.i	aeq2, a9, -56
    17b2:	000086        	j	17b8 <Pitch_by_Corel+0x6f4>

000017b5 <Pitch_by_Corel+0x6f1>:
    17b5:	618174        	ae_lq56.i	aeq2, a1, 56
    17b8:	060a14        	ae_subsq56s	aeq0, aeq0, aeq2
    17bb:	0008c6        	j	17e2 <Pitch_by_Corel+0x71e>

000017be <Pitch_by_Corel+0x6fa>:
    17be:	1a69a6        	blti	a9, 6, 17dc <Pitch_by_Corel+0x718>
    17c1:	78c1d2        	addi	a13, a1, 120
    17c4:	61cda4        	ae_lq56.i	aeq3, a13, -48
    17c7:	fb7e40009f 	{ movi	a9, 0; ae_addsq56s	aeq3, aeq3, aeq1 }
    17cc:	d6d40781fe 	{ addi	a15, a1, 120; ae_ltq56s	b0, aeq3, aeq2 }
    17d1:	d39800        	movt	a9, a8, b0
    17d4:	498c           	beqz.n	a9, 17dc <Pitch_by_Corel+0x718>
    17d6:	618fc4        	ae_lq56.i	aeq2, a15, -32
    17d9:	000086        	j	17df <Pitch_by_Corel+0x71b>

000017dc <Pitch_by_Corel+0x718>:
    17dc:	618134        	ae_lq56.i	aeq2, a1, 24
    17df:	060a04        	ae_addsq56s	aeq0, aeq0, aeq2
    17e2:	772b           	addi.n	a7, a7, 2
    17e4:	620504        	ae_sq32f.i	aeq0, a5, 0

000017e7 <Pitch_by_Corel+0x723>:
    17e7:	fa4061        	l32r	a6, e8 (9c5c <two_mic_SWB_NR_proc+0x28c>)
    17ea:	f8e381412e 	{ addi	a2, a1, 20; ae_roundsp16q48sym	aep0, aeq0 }
    17ef:	420204        	ae_sp16f.l.i	aep0, a2, 0
    17f2:	0a9122        	l16si	a2, a1, 20
    17f5:	646a           	add.n	a6, a4, a6
    17f7:	850c           	movi.n	a5, 8
    17f9:	06a8           	l32i.n	a10, a6, 0
    17fb:	877c           	movi.n	a7, -8
    17fd:	432250        	min	a2, a2, a5
    1800:	532270        	max	a2, a2, a7
    1803:	22aa           	add.n	a2, a2, a10
    1805:	0c1c           	movi.n	a12, 16
    1807:	4352c0        	min	a5, a2, a12
    180a:	020c           	movi.n	a2, 0
    180c:	fa6cd1        	l32r	a13, 1bc (9c04 <two_mic_SWB_NR_proc+0x234>)
    180f:	fa6ee1        	l32r	a14, 1c8 (7ffffffe <_end+0x7fff0a5e>)
    1812:	535520        	max	a5, a5, a2
    1815:	0659           	s32i.n	a5, a6, 0
    1817:	11fbf0        	slli	a15, a11, 1
    181a:	0b5d           	mov.n	a5, a11
    181c:	2221b2        	l32i	a11, a1, 136
    181f:	fa4e61        	l32r	a6, 158 (d6fc <xt_memcpy>)
    1822:	a4da           	add.n	a10, a4, a13
    1824:	10cfe0        	and	a12, a15, a14
    1827:	0006e0        	callx8	a6
    182a:	fa6671        	l32r	a7, 1c4 (9bda <two_mic_SWB_NR_proc+0x20a>)
    182d:	a1b8           	l32i.n	a11, a1, 40
    182f:	05cd           	mov.n	a12, a5
    1831:	a47a           	add.n	a10, a4, a7
    1833:	0006e0        	callx8	a6
    1836:	fa2541        	l32r	a4, cc (f59c <p_ecnr_mem>)
    1839:	a50c           	movi.n	a5, 10
    183b:	0448           	l32i.n	a4, a4, 0
    183d:	2cd442        	addmi	a4, a4, 0x2c00
    1840:	1f2472        	l32i	a7, a4, 124
    1843:	074d           	mov.n	a4, a7
    1845:	038576        	loop	a5, 184c <Pitch_by_Corel+0x788>
    1848:	0429           	s32i.n	a2, a4, 0
    184a:	444b           	addi.n	a4, a4, 4

0000184c <Pitch_by_Corel+0x788>:
    184c:	2121a2        	l32i	a10, a1, 132
    184f:	fa4a61        	l32r	a6, 178 (70a3d7 <_end+0x6fae37>)
    1852:	f8a142        	movi	a4, 0x1f8
    1855:	a52c           	movi.n	a5, 42
    1857:	28c722        	addi	a2, a7, 40
    185a:	4a4a           	add.n	a4, a10, a4
    185c:	61c144        	ae_lq56.i	aeq3, a1, 32
    185f:	078576        	loop	a5, 186a <Pitch_by_Corel+0x7a6>
    1862:	245d           	ae_l16si.n	a5, a4, 0
    1864:	625d           	ae_s16i.n	a5, a2, 0
    1866:	442b           	addi.n	a4, a4, 2
    1868:	222b           	addi.n	a2, a2, 2
    186a:	102ad2        	l32i	a13, a10, 64
    186d:	fa4121        	l32r	a2, 174 (733333 <_end+0x723d93>)
    1870:	fa57e1        	l32r	a14, 1cc (39999a <_end+0x38a3fa>)
    1873:	aca052        	movi	a5, 172
    1876:	fca1f2        	movi	a15, 0x1fc
    1879:	399224        	ae_movpa24x2	aep1, a2, a2
    187c:	39aee4        	ae_movpa24x2	aep2, a14, a14
    187f:	398664        	ae_movpa24x2	aep0, a6, a6
    1882:	2ac742        	addi	a4, a7, 42
    1885:	280c           	movi.n	a8, 2
    1887:	892c           	movi.n	a9, 40
    1889:	5b0c           	movi.n	a11, 5
    188b:	1c0c           	movi.n	a12, 1
    188d:	020c           	movi.n	a2, 0
    188f:	2361d2        	s32i	a13, a1, 140
    1892:	6ad9           	s32i.n	a13, a10, 24
    1894:	da5a           	add.n	a13, a10, a5
    1896:	eafa           	add.n	a14, a10, a15

00001898 <Pitch_by_Corel+0x7d4>:
    1898:	4e5d           	ae_l16ui.n	a5, a14, 0
    189a:	0dfd           	mov.n	a15, a13
    189c:	060c           	movi.n	a6, 0
    189e:	068b76        	loop	a11, 18a8 <Pitch_by_Corel+0x7e4>
    18a1:	0fa8           	l32i.n	a10, a15, 0
    18a3:	ff4b           	addi.n	a15, a15, 4
    18a5:	536a60        	max	a6, a10, a6

000018a8 <Pitch_by_Corel+0x7e4>:
    18a8:	2121a2        	l32i	a10, a1, 132
    18ab:	600d24        	ae_lq32f.i	aeq0, a13, 8
    18ae:	3580f4        	ae_sraiq56	aeq2, aeq0, 3
    18b1:	403a04        	ae_lp16f.i	aep3, a10, 0
    18b4:	d66fc000af 	{ movi	a10, 0; ae_mulfq32sp16u.h	aeq1, aeq3, aep3 }
    18b9:	0f0c           	movi.n	a15, 0
    18bb:	09a104        	ae_ltq56s	b0, aeq1, aeq2
    18be:	d3ac00        	movt	a10, a12, b0
    18c1:	08ea16        	beqz	a10, 1953 <Pitch_by_Corel+0x88f>
    18c4:	2da8           	l32i.n	a10, a13, 8
    18c6:	021a67        	beq	a10, a6, 18cc <Pitch_by_Corel+0x808>
    18c9:	002186        	j	1953 <Pitch_by_Corel+0x88f>
    18cc:	54ad           	ae_l16ui.n	a10, a4, 2
    18ce:	056d           	mov.n	a6, a5
    18d0:	0adc           	bnez.n	a10, 18e4 <Pitch_by_Corel+0x820>
    18d2:	246d           	ae_l16si.n	a6, a4, 0
    18d4:	0a0c           	movi.n	a10, 0
    18d6:	0a16e6        	bgei	a6, 1, 18e4 <Pitch_by_Corel+0x820>
    18d9:	029462        	l16si	a6, a4, 4
    18dc:	72aa60        	salt	a10, a10, a6
    18df:	9356a0        	movnez	a5, a6, a10
    18e2:	056d           	mov.n	a6, a5

000018e4 <Pitch_by_Corel+0x820>:
    18e4:	282152        	l32i	a5, a1, 160
    18e7:	2121a2        	l32i	a10, a1, 132
    18ea:	60c504        	ae_lq32f.i	aeq3, a5, 0
    18ed:	403a24        	ae_lp16f.i	aep3, a10, 4
    18f0:	d76f8000af 	{ movi	a10, 0; ae_mulfq32sp16u.h	aeq2, aeq3, aep3 }
    18f5:	925d           	ae_zext16	a5, a2
    18f7:	d66ed1557f 	{ addx2	a5, a5, a7; ae_mulfq32sp16u.h	aeq1, aeq2, aep3 }
    18fc:	098214        	ae_ltq56s	b1, aeq2, aeq0
    18ff:	f8017a113f 	{ ae_sq56s.i	aeq1, a1, 24; ae_mulfq32sp24s.h	aeq1, aeq1, aep0 }
    1904:	d6443da13f 	{ ae_lq56.i	aeq1, a1, 24; ae_ltq56s	b0, aeq1, aeq0 }
    1909:	d64416ac0f 	{ movt	a10, a12, b0; ae_ltq56s	b0, aeq1, aeq0 }
    190e:	ea8c           	beqz.n	a10, 1920 <Pitch_by_Corel+0x85c>
    1910:	0a0c           	movi.n	a10, 0
    1912:	f80556ac1f 	{ movt	a10, a12, b1; ae_mulfq32sp24s.h	aeq1, aeq1, aep1 }
    1917:	658d           	ae_s16i.n	a8, a5, 0
    1919:	fa9c           	beqz.n	a10, 193c <Pitch_by_Corel+0x878>
    191b:	662b           	addi.n	a6, a6, 2
    191d:	000986        	j	1947 <Pitch_by_Corel+0x883>

00001920 <Pitch_by_Corel+0x85c>:
    1920:	fa0940005f 	{ movi	a5, 0; ae_mulfq32sp24s.h	aeq1, aeq3, aep2 }
    1925:	d6443de14f 	{ ae_lq56.i	aeq3, a1, 32; ae_ltq56s	b0, aeq1, aeq0 }
    192a:	86ad           	ae_sext16	a10, a6
    192c:	d35c00        	movt	a5, a12, b0
    192f:	05ac           	beqz.n	a5, 1953 <Pitch_by_Corel+0x88f>
    1931:	fbca52        	addi	a5, a10, -5
    1934:	0f0c           	movi.n	a15, 0
    1936:	53ff50        	max	a15, a15, a5
    1939:	000586        	j	1953 <Pitch_by_Corel+0x88f>

0000193c <Pitch_by_Corel+0x878>:
    193c:	050c           	movi.n	a5, 0
    193e:	d648565c0f 	{ movt	a5, a12, b0; ae_ltq56s	b1, aeq0, aeq1 }
    1943:	f59c           	beqz.n	a5, 1966 <Pitch_by_Corel+0x8a2>
    1945:	661b           	addi.n	a6, a6, 1
    1947:	61c144        	ae_lq56.i	aeq3, a1, 32
    194a:	865d           	ae_sext16	a5, a6
    194c:	4f1c           	movi.n	a15, 20
    194e:	221b           	addi.n	a2, a2, 1
    1950:	43f5f0        	min	a15, a5, a15
    1953:	881b           	addi.n	a8, a8, 1
    1955:	6efd           	ae_s16i.n	a15, a14, 0
    1957:	dd4b           	addi.n	a13, a13, 4
    1959:	ee2b           	addi.n	a14, a14, 2
    195b:	442b           	addi.n	a4, a4, 2
    195d:	021897        	beq	a8, a9, 1963 <Pitch_by_Corel+0x89f>
    1960:	ffcd06        	j	1898 <Pitch_by_Corel+0x7d4>
    1963:	0005c6        	j	197e <Pitch_by_Corel+0x8ba>

00001966 <Pitch_by_Corel+0x8a2>:
    1966:	050c           	movi.n	a5, 0
    1968:	61c144        	ae_lq56.i	aeq3, a1, 32
    196b:	d35c10        	movt	a5, a12, b1
    196e:	fd8516        	beqz	a5, 194a <Pitch_by_Corel+0x886>
    1971:	865d           	ae_sext16	a5, a6
    1973:	fec552        	addi	a5, a5, -2
    1976:	0f0c           	movi.n	a15, 0
    1978:	536f50        	max	a6, a15, a5
    197b:	fff2c6        	j	194a <Pitch_by_Corel+0x886>

0000197e <Pitch_by_Corel+0x8ba>:
    197e:	2121d2        	l32i	a13, a1, 132
    1981:	fa1341        	l32r	a4, 1d0 (5d70a4 <_end+0x5c7b04>)
    1984:	399444        	ae_movpa24x2	aep1, a4, a4
    1987:	400d04        	ae_lp16f.i	aep0, a13, 0
    198a:	d663ac7d1f 	{ ae_lp16f.i	aep7, a13, 2; ae_mulfq32sp16u.h	aeq0, aeq3, aep0 }
    198f:	2621f2        	l32i	a15, a1, 152
    1992:	d57e8fffef 	{ movi	a14, -1; ae_mulfq32sp16u.h	aeq2, aeq0, aep7 }
    1997:	f4e0e0        	extui	a14, a14, 0, 16
    199a:	fa6479a30f 	{ ae_sq32f.i	aeq2, a3, 0; ae_mulrfq32sp24s.h	aeq1, aeq2, aep1 }
    199f:	282142        	l32i	a4, a1, 160
    19a2:	621f04        	ae_sq32f.i	aeq1, a15, 0
    19a5:	028e27        	bany	a14, a2, 19ab <Pitch_by_Corel+0x8e7>
    19a8:	005046        	j	1aed <Pitch_by_Corel+0xa29>
    19ab:	0f0c           	movi.n	a15, 0
    19ad:	150c           	movi.n	a5, 1
    19af:	600404        	ae_lq32f.i	aeq0, a4, 0
    19b2:	35c134        	ae_sraiq56	aeq3, aeq0, 4
    19b5:	d5d800008f 	{ movi	a8, 0; ae_leq56s	b0, aeq2, aeq3 }
    19ba:	d55c40016f 	{ movi	a6, 1; ae_leq56s	b1, aeq1, aeq3 }
    19bf:	091d42        	l16ui	a4, a13, 18
    19c2:	d3f500        	movt	a15, a5, b0
    19c5:	afcc           	bnez.n	a15, 19d3 <Pitch_by_Corel+0x90f>
    19c7:	d38610        	movt	a8, a6, b1
    19ca:	128816        	beqz	a8, 1af6 <Pitch_by_Corel+0xa32>
    19cd:	0224f6        	bgeui	a4, 2, 19d3 <Pitch_by_Corel+0x90f>
    19d0:	004886        	j	1af6 <Pitch_by_Corel+0xa32>
    19d3:	fa00e1        	l32r	a14, 1d4 (666666 <_end+0x6570c6>)
    19d6:	398ee4        	ae_movpa24x2	aep0, a14, a14
    19d9:	78c1e2        	addi	a14, a1, 120
    19dc:	547eb4        	ae_lp24x2.i	aep7, a14, -40
    19df:	f81c31b1ae 	{ l32i	a10, a1, 108; ae_mulfq32sp24s.h	aeq0, aeq0, aep7 }
    19e4:	2a21e2        	l32i	a14, a1, 168
    19e7:	04ddb2        	addmi	a11, a13, 0x400
    19ea:	1d21c2        	l32i	a12, a1, 116
    19ed:	92fd           	ae_zext16	a15, a2
    19ef:	060c           	movi.n	a6, 0
    19f1:	c1b9           	s32i.n	a11, a1, 48
    19f3:	2561c2        	s32i	a12, a1, 148
    19f6:	560134        	ae_sp24x2s.i	aep0, a1, 24
    19f9:	630154        	ae_sq56s.i	aeq0, a1, 40
    19fc:	272d           	ae_l16si.n	a2, a7, 0
    19fe:	aca052        	movi	a5, 172
    1a01:	9042d0        	addx2	a4, a2, a13
    1a04:	fc1442        	l16ui	a4, a4, 0x1f8
    1a07:	226142        	s32i	a4, a1, 136
    1a0a:	614154        	ae_lq56.i	aeq1, a1, 40
    1a0d:	0264f6        	bgeui	a4, 6, 1a13 <Pitch_by_Corel+0x94f>
    1a10:	002d46        	j	1ac9 <Pitch_by_Corel+0xa05>
    1a13:	a042d0        	addx4	a4, a2, a13
    1a16:	603454        	ae_lq32f.xu	aeq0, a4, a5
    1a19:	d64400008f 	{ movi	a8, 0; ae_ltq56s	b0, aeq1, aeq0 }
    1a1e:	1c0c           	movi.n	a12, 1
    1a20:	929d           	ae_zext16	a9, a2
    1a22:	d38c00        	movt	a8, a12, b0
    1a25:	0a0816        	beqz	a8, 1ac9 <Pitch_by_Corel+0xa05>
    1a28:	8199           	s32i.n	a9, a1, 32
    1a2a:	f9db81        	l32r	a8, 198 (2388 <Xfrac_num_pd_td32>)
    1a2d:	9c0c           	movi.n	a12, 9
    1a2f:	04ad           	mov.n	a10, a4
    1a31:	02bd           	mov.n	a11, a2
    1a33:	035d           	mov.n	a5, a3
    1a35:	0f3d           	mov.n	a3, a15
    1a37:	0008e0        	callx8	a8
    1a3a:	2321c2        	l32i	a12, a1, 140
    1a3d:	f9e691        	l32r	a9, 1d8 (14001 <_end+0x4a61>)
    1a40:	c1b8           	l32i.n	a11, a1, 48
    1a42:	0bec16        	beqz	a12, 1b04 <Pitch_by_Corel+0xa40>
    1a45:	c08ca0        	sub	a8, a12, a10
    1a48:	02a897        	bge	a8, a9, 1a4e <Pitch_by_Corel+0x98a>
    1a4b:	002d46        	j	1b04 <Pitch_by_Corel+0xa40>
    1a4e:	2121d2        	l32i	a13, a1, 132
    1a51:	be0c           	movi.n	a14, 11
    1a53:	7e1b82        	l16ui	a8, a11, 252
    1a56:	af0c           	movi.n	a15, 10
    1a58:	980b           	addi.n	a9, a8, -1
    1a5a:	90b9d0        	addx2	a11, a9, a13
    1a5d:	fc1bb2        	l16ui	a11, a11, 0x1f8
    1a60:	0fbbe7        	bgeu	a11, a14, 1a73 <Pitch_by_Corel+0x9af>
    1a63:	981b           	addi.n	a9, a8, 1
    1a65:	90b9d0        	addx2	a11, a9, a13
    1a68:	fc1bb2        	l16ui	a11, a11, 0x1f8
    1a6b:	62bfb0        	saltu	a11, a15, a11
    1a6e:	9389b0        	movnez	a8, a9, a11
    1a71:	089d           	mov.n	a9, a8
    1a73:	998d           	ae_zext16	a8, a9
    1a75:	9098d0        	addx2	a9, a8, a13
    1a78:	fc1992        	l16ui	a9, a9, 0x1f8
    1a7b:	03fd           	mov.n	a15, a3
    1a7d:	053d           	mov.n	a3, a5
    1a7f:	02b9e7        	bgeu	a9, a14, 1a85 <Pitch_by_Corel+0x9c1>
    1a82:	0020c6        	j	1b09 <Pitch_by_Corel+0xa45>
    1a85:	a088d0        	addx4	a8, a8, a13
    1a88:	04b8           	l32i.n	a11, a4, 0
    1a8a:	2b28c2        	l32i	a12, a8, 172
    1a8d:	02ed           	mov.n	a14, a2
    1a8f:	252152        	l32i	a5, a1, 148
    1a92:	332bc7        	blt	a11, a12, 1ac9 <Pitch_by_Corel+0xa05>
    1a95:	21b5b0        	srai	a11, a11, 5
    1a98:	02ed           	mov.n	a14, a2
    1a9a:	2b2b57        	blt	a11, a5, 1ac9 <Pitch_by_Corel+0xa05>
    1a9d:	222152        	l32i	a5, a1, 136
    1aa0:	600404        	ae_lq32f.i	aeq0, a4, 0
    1aa3:	540134        	ae_lp24x2.i	aep0, a1, 24
    1aa6:	026526        	beqi	a5, 6, 1aac <Pitch_by_Corel+0x9e8>
    1aa9:	003206        	j	1b75 <Pitch_by_Corel+0xab1>
    1aac:	02a9f6        	bgeui	a9, 12, 1ab2 <Pitch_by_Corel+0x9ee>
    1aaf:	003086        	j	1b75 <Pitch_by_Corel+0xab1>
    1ab2:	f86000acbf 	{ movi	a11, 172; ae_mulrfq32sp24s.h	aeq0, aeq0, aep0 }
    1ab7:	6068b4        	ae_lq32f.x	aeq1, a8, a11
    1aba:	d6480000cf 	{ movi	a12, 0; ae_ltq56s	b0, aeq0, aeq1 }
    1abf:	150c           	movi.n	a5, 1
    1ac1:	02ed           	mov.n	a14, a2
    1ac3:	d3c500        	movt	a12, a5, b0
    1ac6:	0b1c16        	beqz	a12, 1b7b <Pitch_by_Corel+0xab7>
    1ac9:	661b           	addi.n	a6, a6, 1
    1acb:	772b           	addi.n	a7, a7, 2
    1acd:	02b6f7        	bgeu	a6, a15, 1ad3 <Pitch_by_Corel+0xa0f>
    1ad0:	ffca06        	j	19fc <Pitch_by_Corel+0x938>
    1ad3:	472d           	ae_l16ui.n	a2, a7, 0
    1ad5:	8129           	s32i.n	a2, a1, 32
    1ad7:	1a61e2        	s32i	a14, a1, 104
    1ada:	822d           	ae_sext16	a2, a2
    1adc:	9022d0        	addx2	a2, a2, a13
    1adf:	fc1252        	l16ui	a5, a2, 0x1f8
    1ae2:	2321c2        	l32i	a12, a1, 140
    1ae5:	fe7c           	movi.n	a14, -1
    1ae7:	f4e0e0        	extui	a14, a14, 0, 16
    1aea:	000986        	j	1b14 <Pitch_by_Corel+0xa50>

00001aed <Pitch_by_Corel+0xa29>:
    1aed:	091d22        	l16ui	a2, a13, 18
    1af0:	09e256        	bnez	a2, 1b92 <Pitch_by_Corel+0xace>
    1af3:	000086        	j	1af9 <Pitch_by_Corel+0xa35>

00001af6 <Pitch_by_Corel+0xa32>:
    1af6:	098456        	bnez	a4, 1b92 <Pitch_by_Corel+0xace>
    1af9:	04dd22        	addmi	a2, a13, 0x400
    1afc:	040c           	movi.n	a4, 0
    1afe:	7e5242        	s16i	a4, a2, 252
    1b01:	002346        	j	1b92 <Pitch_by_Corel+0xace>

00001b04 <Pitch_by_Corel+0xa40>:
    1b04:	053d           	mov.n	a3, a5
    1b06:	2121d2        	l32i	a13, a1, 132
    1b09:	222152        	l32i	a5, a1, 136
    1b0c:	fe7c           	movi.n	a14, -1
    1b0e:	f4e0e0        	extui	a14, a14, 0, 16
    1b11:	1a6122        	s32i	a2, a1, 104
    1b14:	1b61a2        	s32i	a10, a1, 108
    1b17:	6b75b6        	bltui	a5, 7, 1b86 <Pitch_by_Corel+0xac2>
    1b1a:	c05ca0        	sub	a5, a12, a10
    1b1d:	540c           	movi.n	a4, 5
    1b1f:	091d22        	l16ui	a2, a13, 18
    1b22:	114420        	slli	a4, a4, 14
    1b25:	8168           	l32i.n	a6, a1, 32
    1b27:	605150        	abs	a5, a5
    1b2a:	065162        	s16i	a6, a1, 12
    1b2d:	042457        	blt	a4, a5, 1b35 <Pitch_by_Corel+0xa71>
    1b30:	221b           	addi.n	a2, a2, 1
    1b32:	000c86        	j	1b68 <Pitch_by_Corel+0xaa4>

00001b35 <Pitch_by_Corel+0xa71>:
    1b35:	2832b6        	bltui	a2, 3, 1b61 <Pitch_by_Corel+0xa9d>
    1b38:	4151a0        	srli	a5, a10, 1
    1b3b:	c05c50        	sub	a5, a12, a5
    1b3e:	605150        	abs	a5, a5
    1b41:	1c2457        	blt	a4, a5, 1b61 <Pitch_by_Corel+0xa9d>
    1b44:	292142        	l32i	a4, a1, 164
    1b47:	221b           	addi.n	a2, a2, 1
    1b49:	095d22        	s16i	a2, a13, 18
    1b4c:	600404        	ae_lq32f.i	aeq0, a4, 0
    1b4f:	350074        	ae_sraiq56	aeq0, aeq0, 1
    1b52:	1b8e04        	ae_roundsp16q48sym	aep0, aeq0
    1b55:	420164        	ae_sp16f.l.i	aep0, a1, 12
    1b58:	069142        	l16si	a4, a1, 12
    1b5b:	f7c4c2        	addi	a12, a4, -9
    1b5e:	000d46        	j	1b97 <Pitch_by_Corel+0xad3>

00001b61 <Pitch_by_Corel+0xa9d>:
    1b61:	c148           	l32i.n	a4, a1, 48
    1b63:	020c           	movi.n	a2, 0
    1b65:	7e5422        	s16i	a2, a4, 252
    1b68:	095d22        	s16i	a2, a13, 18
    1b6b:	81c8           	l32i.n	a12, a1, 32
    1b6d:	000a46        	j	1b9a <Pitch_by_Corel+0xad6>

00001b70 <Pitch_by_Corel+0xaac>:
    1b70:	056d           	mov.n	a6, a5
    1b72:	fdd846        	j	12d7 <Pitch_by_Corel+0x213>

00001b75 <Pitch_by_Corel+0xab1>:
    1b75:	1a6122        	s32i	a2, a1, 104
    1b78:	ffd986        	j	1ae2 <Pitch_by_Corel+0xa1e>

00001b7b <Pitch_by_Corel+0xab7>:
    1b7b:	fe7c           	movi.n	a14, -1
    1b7d:	f4e0e0        	extui	a14, a14, 0, 16
    1b80:	1a6122        	s32i	a2, a1, 104
    1b83:	1b61a2        	s32i	a10, a1, 108
    1b86:	091d22        	l16ui	a2, a13, 18
    1b89:	c148           	l32i.n	a4, a1, 48
    1b8b:	050c           	movi.n	a5, 0
    1b8d:	12cc           	bnez.n	a2, 1b92 <Pitch_by_Corel+0xace>
    1b8f:	7e5452        	s16i	a5, a4, 252
    1b92:	0c0c           	movi.n	a12, 0
    1b94:	095dc2        	s16i	a12, a13, 18
    1b97:	0651c2        	s16i	a12, a1, 12
    1b9a:	04dd42        	addmi	a4, a13, 0x400
    1b9d:	7e1452        	l16ui	a5, a4, 252
    1ba0:	020c           	movi.n	a2, 0
    1ba2:	0a0c           	movi.n	a10, 0
    1ba4:	061556        	bnez	a5, 1c09 <Pitch_by_Corel+0xb45>
    1ba7:	f8a182        	movi	a8, 0x1f8
    1baa:	060c           	movi.n	a6, 0
    1bac:	b92c           	movi.n	a9, 43
    1bae:	070c           	movi.n	a7, 0
    1bb0:	050c           	movi.n	a5, 0
    1bb2:	8d8a           	add.n	a8, a13, a8
    1bb4:	6d69           	s32i.n	a6, a13, 24
    1bb6:	0e8976        	loop	a9, 1bc8 <Pitch_by_Corel+0xb04>
    1bb9:	489d           	ae_l16ui.n	a9, a8, 0
    1bbb:	882b           	addi.n	a8, a8, 2
    1bbd:	62a790        	saltu	a10, a7, a9
    1bc0:	9356a0        	movnez	a5, a6, a10
    1bc3:	737790        	maxu	a7, a7, a9
    1bc6:	661b           	addi.n	a6, a6, 1

00001bc8 <Pitch_by_Corel+0xb04>:
    1bc8:	0a0c           	movi.n	a10, 0
    1bca:	3b47b6        	bltui	a7, 4, 1c09 <Pitch_by_Corel+0xb45>
    1bcd:	f98361        	l32r	a6, 1dc (ccccd <_end+0xbd72d>)
    1bd0:	85bd           	ae_sext16	a11, a5
    1bd2:	600304        	ae_lq32f.i	aeq0, a3, 0
    1bd5:	398664        	ae_movpa24x2	aep0, a6, a6
    1bd8:	d46080ac3f 	{ movi	a3, 172; ae_mularfq32sp24s.h	aeq0, aeq0, aep0 }
    1bdd:	a05bd0        	addx4	a5, a11, a13
    1be0:	fc00fbb53f 	{ ae_lq32f.x	aeq1, a5, a3; ae_satq48s	aeq0, aeq0 }
    1be5:	355134        	ae_sraiq56	aeq1, aeq1, 4
    1be8:	d6480000ff 	{ movi	a15, 0; ae_ltq56s	b0, aeq0, aeq1 }
    1bed:	170c           	movi.n	a7, 1
    1bef:	0c6d           	mov.n	a6, a12
    1bf1:	d3f700        	movt	a15, a7, b0
    1bf4:	1f9c           	beqz.n	a15, 1c09 <Pitch_by_Corel+0xb45>
    1bf6:	a53a           	add.n	a10, a5, a3
    1bf8:	f96831        	l32r	a3, 198 (2388 <Xfrac_num_pd_td32>)
    1bfb:	9c0c           	movi.n	a12, 9
    1bfd:	0e5d           	mov.n	a5, a14
    1bff:	0003e0        	callx8	a3
    1c02:	2121d2        	l32i	a13, a1, 132
    1c05:	06cd           	mov.n	a12, a6
    1c07:	05ed           	mov.n	a14, a5

00001c09 <Pitch_by_Corel+0xb45>:
    1c09:	7da9           	s32i.n	a10, a13, 28
    1c0b:	7e54c2        	s16i	a12, a4, 252
    1c0e:	160ec7        	bnone	a14, a12, 1c28 <Pitch_by_Corel+0xb64>
    1c11:	9cbd           	ae_zext16	a11, a12
    1c13:	aca022        	movi	a2, 172
    1c16:	a03bd0        	addx4	a3, a11, a13
    1c19:	a32a           	add.n	a10, a3, a2
    1c1b:	f95f21        	l32r	a2, 198 (2388 <Xfrac_num_pd_td32>)
    1c1e:	9c0c           	movi.n	a12, 9
    1c20:	0002e0        	callx8	a2
    1c23:	2121d2        	l32i	a13, a1, 132
    1c26:	0a2d           	mov.n	a2, a10
    1c28:	106d22        	s32i	a2, a13, 64
    1c2b:	f01d           	retw.n

00001c2d <Pitch_by_Corel+0xb69>:
    1c2d:	000000                                        ...

00001c30 <pitch_by_harmonic>:
    1c30:	012136        	entry	a1, 144
    1c33:	f926d1        	l32r	a13, cc (f59c <p_ecnr_mem>)
    1c36:	f96af1        	l32r	a15, 1e0 (96b0 <two_mic_WB_NR_NSN_proc+0xb40>)
    1c39:	126142        	s32i	a4, a1, 72
    1c3c:	0d78           	l32i.n	a7, a13, 0
    1c3e:	f96991        	l32r	a9, 1e4 (96c4 <two_mic_WB_NR_NSN_proc+0xb54>)
    1c41:	5ba262        	movi	a6, 0x25b
    1c44:	47fa           	add.n	a4, a7, a15
    1c46:	8149           	s32i.n	a4, a1, 32
    1c48:	0448           	l32i.n	a4, a4, 0
    1c4a:	0e0c           	movi.n	a14, 0
    1c4c:	1166a0        	slli	a6, a6, 6
    1c4f:	a139           	s32i.n	a3, a1, 40
    1c51:	1652e2        	s16i	a14, a2, 44
    1c54:	136172        	s32i	a7, a1, 76
    1c57:	089416        	beqz	a4, 1ce4 <pitch_by_harmonic+0xb4>
    1c5a:	fb7c           	movi.n	a11, -1
    1c5c:	196122        	s32i	a2, a1, 100
    1c5f:	f96221        	l32r	a2, 1e8 (d744 <__udivdi3>)
    1c62:	11c420        	slli	a12, a4, 14
    1c65:	d5d240        	extui	a13, a4, 18, 14
    1c68:	01bb10        	slli	a11, a11, 31
    1c6b:	0a0c           	movi.n	a10, 0
    1c6d:	093d           	mov.n	a3, a9
    1c6f:	0002e0        	callx8	a2
    1c72:	132172        	l32i	a7, a1, 76
    1c75:	540c           	movi.n	a4, 5
    1c77:	d1a9           	s32i.n	a10, a1, 52
    1c79:	276a           	add.n	a2, a7, a6
    1c7b:	0228           	l32i.n	a2, a2, 0
    1c7d:	f73a           	add.n	a15, a7, a3
    1c7f:	6f4d           	ae_s16i.n	a4, a15, 0
    1c81:	0212e6        	bgei	a2, 1, 1c87 <pitch_by_harmonic+0x57>
    1c84:	004c46        	j	1db9 <pitch_by_harmonic+0x189>
    1c87:	34c132        	addi	a3, a1, 52
    1c8a:	f95841        	l32r	a4, 1ec (aaaab <_end+0x9b50b>)
    1c8d:	602764        	ae_lq32f.x	aeq0, a7, a6
    1c90:	604304        	ae_lq32f.i	aeq1, a3, 0
    1c93:	f94aa2044f 	{ ae_movpa24x2	aep0, a4, a4; ae_subsq56s	aeq1, aeq1, aeq0 }
    1c98:	fd04c000df 	{ movi	a13, 0; ae_satq48s	aeq1, aeq1 }
    1c9d:	f8000001ef 	{ movi	a14, 1; ae_mulfq32sp24s.h	aeq0, aeq0, aep0 }
    1ca2:	fd0c93866f 	{ or	a8, a6, a6; ae_abssq56s	aeq1, aeq1 }
    1ca7:	d64800346f 	{ movi	a6, 52; ae_ltq56s	b0, aeq0, aeq1 }
    1cac:	f951f1        	l32r	a15, 1f0 (96c6 <two_mic_WB_NR_NSN_proc+0xb56>)
    1caf:	f95141        	l32r	a4, 1f4 (96c8 <two_mic_WB_NR_NSN_proc+0xb58>)
    1cb2:	d3de00        	movt	a13, a14, b0
    1cb5:	37fa           	add.n	a3, a7, a15
    1cb7:	127d16        	beqz	a13, 1de2 <pitch_by_harmonic+0x1b2>
    1cba:	636d           	ae_s16i.n	a6, a3, 0
    1cbc:	474a           	add.n	a4, a7, a4
    1cbe:	244d           	ae_l16si.n	a4, a4, 0
    1cc0:	0334a6        	blti	a4, 3, 1cc7 <pitch_by_harmonic+0x97>
    1cc3:	02ad           	mov.n	a10, a2
    1cc5:	d129           	s32i.n	a2, a1, 52

00001cc7 <pitch_by_harmonic+0x97>:
    1cc7:	f94c21        	l32r	a2, 1f8 (96ce <two_mic_WB_NR_NSN_proc+0xb5e>)
    1cca:	f94cd1        	l32r	a13, 1fc (96bc <two_mic_WB_NR_NSN_proc+0xb4c>)
    1ccd:	f94ce1        	l32r	a14, 200 (96b8 <two_mic_WB_NR_NSN_proc+0xb48>)
    1cd0:	130c           	movi.n	a3, 1
    1cd2:	272a           	add.n	a2, a7, a2
    1cd4:	623d           	ae_s16i.n	a3, a2, 0
    1cd6:	37ea           	add.n	a3, a7, a14
    1cd8:	21faa0        	srai	a15, a10, 10
    1cdb:	27da           	add.n	a2, a7, a13
    1cdd:	03a9           	s32i.n	a10, a3, 0
    1cdf:	02f9           	s32i.n	a15, a2, 0
    1ce1:	004806        	j	1e05 <pitch_by_harmonic+0x1d5>

00001ce4 <pitch_by_harmonic+0xb4>:
    1ce4:	f94831        	l32r	a3, 204 (96b4 <two_mic_WB_NR_NSN_proc+0xb44>)
    1ce7:	fb7c           	movi.n	a11, -1
    1ce9:	01bb10        	slli	a11, a11, 31
    1cec:	373a           	add.n	a3, a7, a3
    1cee:	0338           	l32i.n	a3, a3, 0
    1cf0:	0a0c           	movi.n	a10, 0
    1cf2:	f94341        	l32r	a4, 200 (96b8 <two_mic_WB_NR_NSN_proc+0xb48>)
    1cf5:	586316        	beqz	a3, 227f <pitch_by_harmonic+0x64f>
    1cf8:	196122        	s32i	a2, a1, 100
    1cfb:	f93b21        	l32r	a2, 1e8 (d744 <__udivdi3>)
    1cfe:	11c320        	slli	a12, a3, 14
    1d01:	d5d230        	extui	a13, a3, 18, 14
    1d04:	093d           	mov.n	a3, a9
    1d06:	0002e0        	callx8	a2
    1d09:	132172        	l32i	a7, a1, 76
    1d0c:	34c122        	addi	a2, a1, 52
    1d0f:	d1a9           	s32i.n	a10, a1, 52
    1d11:	600204        	ae_lq32f.i	aeq0, a2, 0
    1d14:	606764        	ae_lq32f.x	aeq1, a7, a6
    1d17:	358074        	ae_sraiq56	aeq2, aeq0, 1
    1d1a:	fb568001ef 	{ movi	a14, 1; ae_subsq56s	aeq3, aeq2, aeq1 }
    1d1f:	ff84d3933f 	{ or	a9, a3, a3; ae_satq48s	aeq3, aeq3 }
    1d24:	013e70        	slli	a3, a14, 25
    1d27:	ff8cba013f 	{ ae_sq56s.i	aeq0, a1, 24; ae_abssq56s	aeq3, aeq3 }
    1d2c:	360334        	ae_cvtq48a32s	aeq0, a3
    1d2f:	d6c40000ff 	{ movi	a15, 0; ae_ltq56s	b0, aeq3, aeq0 }
    1d34:	140c           	movi.n	a4, 1
    1d36:	351074        	ae_sraiq56	aeq0, aeq1, 1
    1d39:	d3f400        	movt	a15, a4, b0
    1d3c:	0fec           	bnez.n	a15, 1d60 <pitch_by_harmonic+0x130>
    1d3e:	618134        	ae_lq56.i	aeq2, a1, 24
    1d41:	f85280013f 	{ movi	a3, 1; ae_subsq56s	aeq0, aeq2, aeq0 }
    1d46:	fc00c000ff 	{ movi	a15, 0; ae_satq48s	aeq0, aeq0 }
    1d4b:	013380        	slli	a3, a3, 24
    1d4e:	fc08bec3ff 	{ ae_cvtq48a32s	aeq3, a3; ae_abssq56s	aeq0, aeq0 }
    1d53:	d65800014f 	{ movi	a4, 1; ae_ltq56s	b0, aeq0, aeq3 }
    1d58:	d3f400        	movt	a15, a4, b0
    1d5b:	4f8c           	beqz.n	a15, 1d63 <pitch_by_harmonic+0x133>
    1d5d:	36a054        	ae_sllisq56s	aeq2, aeq2, 1
    1d60:	622204        	ae_sq32f.i	aeq2, a2, 0
    1d63:	00a782        	movi	a8, 0x700
    1d66:	600204        	ae_lq32f.i	aeq0, a2, 0
    1d69:	398884        	ae_movpa24x2	aep0, a8, a8
    1d6c:	f80010479f 	{ add	a4, a7, a9; ae_mulfq32sp24s.h	aeq0, aeq0, aep0 }
    1d71:	9c0c           	movi.n	a12, 9
    1d73:	360154        	ae_sllisq56s	aeq0, aeq0, 5
    1d76:	f92031        	l32r	a3, 1f8 (96ce <two_mic_WB_NR_NSN_proc+0xb5e>)
    1d79:	64cd           	ae_s16i.n	a12, a4, 0
    1d7b:	f920e1        	l32r	a14, 1fc (96bc <two_mic_WB_NR_NSN_proc+0xb4c>)
    1d7e:	fbe3c141ce 	{ addi	a12, a1, 20; ae_roundsp16q48sym	aep7, aeq0 }
    1d83:	427c04        	ae_sp16f.l.i	aep7, a12, 0
    1d86:	f91ef1        	l32r	a15, 200 (96b8 <two_mic_WB_NR_NSN_proc+0xb48>)
    1d89:	0a9122        	l16si	a2, a1, 20
    1d8c:	d1a8           	l32i.n	a10, a1, 52
    1d8e:	97ea           	add.n	a9, a7, a14
    1d90:	1d0c           	movi.n	a13, 1
    1d92:	373a           	add.n	a3, a7, a3
    1d94:	f917e1        	l32r	a14, 1f0 (96c6 <two_mic_WB_NR_NSN_proc+0xb56>)
    1d97:	63dd           	ae_s16i.n	a13, a3, 0
    1d99:	3d2c           	movi.n	a13, 35
    1d9b:	47fa           	add.n	a4, a7, a15
    1d9d:	5322d0        	max	a2, a2, a13
    1da0:	df2c           	movi.n	a15, 45
    1da2:	21baa0        	srai	a11, a10, 10
    1da5:	04a9           	s32i.n	a10, a4, 0
    1da7:	4322f0        	min	a2, a2, a15
    1daa:	47ea           	add.n	a4, a7, a14
    1dac:	09b9           	s32i.n	a11, a9, 0
    1dae:	0a5122        	s16i	a2, a1, 20
    1db1:	642d           	ae_s16i.n	a2, a4, 0
    1db3:	561ae6        	bgei	a10, 1, 1e0d <pitch_by_harmonic+0x1dd>
    1db6:	0132c6        	j	2285 <pitch_by_harmonic+0x655>

00001db9 <pitch_by_harmonic+0x189>:
    1db9:	f90d21        	l32r	a2, 1f0 (96c6 <two_mic_WB_NR_NSN_proc+0xb56>)
    1dbc:	f90fb1        	l32r	a11, 1f8 (96ce <two_mic_WB_NR_NSN_proc+0xb5e>)
    1dbf:	f90fd1        	l32r	a13, 1fc (96bc <two_mic_WB_NR_NSN_proc+0xb4c>)
    1dc2:	f90fe1        	l32r	a14, 200 (96b8 <two_mic_WB_NR_NSN_proc+0xb48>)
    1dc5:	e33c           	movi.n	a3, 62
    1dc7:	272a           	add.n	a2, a7, a2
    1dc9:	623d           	ae_s16i.n	a3, a2, 0
    1dcb:	1c0c           	movi.n	a12, 1
    1dcd:	27ba           	add.n	a2, a7, a11
    1dcf:	62cd           	ae_s16i.n	a12, a2, 0
    1dd1:	37ea           	add.n	a3, a7, a14
    1dd3:	21faa0        	srai	a15, a10, 10
    1dd6:	27da           	add.n	a2, a7, a13
    1dd8:	03a9           	s32i.n	a10, a3, 0
    1dda:	02f9           	s32i.n	a15, a2, 0
    1ddc:	2d1ae6        	bgei	a10, 1, 1e0d <pitch_by_harmonic+0x1dd>
    1ddf:	012886        	j	2285 <pitch_by_harmonic+0x655>

00001de2 <pitch_by_harmonic+0x1b2>:
    1de2:	f905c1        	l32r	a12, 1f8 (96ce <two_mic_WB_NR_NSN_proc+0xb5e>)
    1de5:	f90561        	l32r	a6, 1fc (96bc <two_mic_WB_NR_NSN_proc+0xb4c>)
    1de8:	f906e1        	l32r	a14, 200 (96b8 <two_mic_WB_NR_NSN_proc+0xb48>)
    1deb:	22aa           	add.n	a2, a2, a10
    1ded:	e43c           	movi.n	a4, 62
    1def:	634d           	ae_s16i.n	a4, a3, 0
    1df1:	212a20        	srai	a2, a2, 10
    1df4:	2d0c           	movi.n	a13, 2
    1df6:	37ca           	add.n	a3, a7, a12
    1df8:	63dd           	ae_s16i.n	a13, a3, 0
    1dfa:	f76a           	add.n	a15, a7, a6
    1dfc:	11a270        	slli	a10, a2, 9
    1dff:	37ea           	add.n	a3, a7, a14
    1e01:	0f29           	s32i.n	a2, a15, 0
    1e03:	03a9           	s32i.n	a10, a3, 0
    1e05:	086d           	mov.n	a6, a8
    1e07:	021ae6        	bgei	a10, 1, 1e0d <pitch_by_harmonic+0x1dd>
    1e0a:	011dc6        	j	2285 <pitch_by_harmonic+0x655>
    1e0d:	f8fc21        	l32r	a2, 200 (96b8 <two_mic_WB_NR_NSN_proc+0xb48>)
    1e10:	122142        	l32i	a4, a1, 72
    1e13:	a168           	l32i.n	a6, a1, 40
    1e15:	272a           	add.n	a2, a7, a2
    1e17:	156122        	s32i	a2, a1, 84
    1e1a:	a09640        	addx4	a9, a6, a4
    1e1d:	04a132        	movi	a3, 0x104
    1e20:	84a182        	movi	a8, 0x184
    1e23:	f8f921        	l32r	a2, 208 (a24 <Log2_norm>)
    1e26:	393a           	add.n	a3, a9, a3
    1e28:	f98a           	add.n	a15, a9, a8
    1e2a:	6139           	s32i.n	a3, a1, 24
    1e2c:	1166e0        	slli	a6, a6, 2
    1e2f:	174c           	movi.n	a7, 65
    1e31:	043d           	mov.n	a3, a4
    1e33:	146192        	s32i	a9, a1, 80
    1e36:	1661f2        	s32i	a15, a1, 88
    1e39:	1388           	l32i.n	a8, a3, 4
    1e3b:	436a           	add.n	a4, a3, a6
    1e3d:	770b           	addi.n	a7, a7, -1
    1e3f:	40e890        	nsa	a9, a8
    1e42:	401900        	ssl	a9
    1e45:	c0b590        	sub	a11, a5, a9
    1e48:	a1a800        	sll	a10, a8
    1e4b:	0002e0        	callx8	a2
    1e4e:	334b           	addi.n	a3, a3, 4
    1e50:	04a9           	s32i.n	a10, a4, 0
    1e52:	fe3756        	bnez	a7, 1e39 <pitch_by_harmonic+0x209>
    1e55:	f8e631        	l32r	a3, 1f0 (96c6 <two_mic_WB_NR_NSN_proc+0xb56>)
    1e58:	132182        	l32i	a8, a1, 76
    1e5b:	f8e241        	l32r	a4, 1e4 (96c4 <two_mic_WB_NR_NSN_proc+0xb54>)
    1e5e:	f8eb21        	l32r	a2, 20c (96d0 <two_mic_WB_NR_NSN_proc+0xb60>)
    1e61:	383a           	add.n	a3, a8, a3
    1e63:	484a           	add.n	a4, a8, a4
    1e65:	245d           	ae_l16si.n	a5, a4, 0
    1e67:	233d           	ae_l16si.n	a3, a3, 0
    1e69:	61d8           	l32i.n	a13, a1, 24
    1e6b:	e82a           	add.n	a14, a8, a2
    1e6d:	c0f350        	sub	a15, a3, a5
    1e70:	070c           	movi.n	a7, 0
    1e72:	8f2d           	ae_sext16	a2, a15
    1e74:	1b61e2        	s32i	a14, a1, 108
    1e77:	0e79           	s32i.n	a7, a14, 0
    1e79:	0212e6        	bgei	a2, 1, 1e7f <pitch_by_harmonic+0x24f>
    1e7c:	00fb06        	j	226c <pitch_by_harmonic+0x63c>
    1e7f:	a1e8           	l32i.n	a14, a1, 40
    1e81:	f8e341        	l32r	a4, 210 (96d2 <two_mic_WB_NR_NSN_proc+0xb62>)
    1e84:	142132        	l32i	a3, a1, 80
    1e87:	122192        	l32i	a9, a1, 72
    1e8a:	927d           	ae_zext16	a7, a2
    1e8c:	2e5a           	add.n	a2, a14, a5
    1e8e:	a03530        	addx4	a3, a5, a3
    1e91:	a02290        	addx4	a2, a2, a9
    1e94:	0f0c           	movi.n	a15, 0
    1e96:	484a           	add.n	a4, a8, a4
    1e98:	5c0c           	movi.n	a12, 5
    1e9a:	060c           	movi.n	a6, 0
    1e9c:	1461f2        	s32i	a15, a1, 80
    1e9f:	fcc332        	addi	a3, a3, -4
    1ea2:	f4c222        	addi	a2, a2, -12
    1ea5:	126142        	s32i	a4, a1, 72
    1ea8:	001286        	j	1ef6 <pitch_by_harmonic+0x2c6>

00001eab <pitch_by_harmonic+0x27b>:
    1eab:	5348a0        	max	a4, a8, a10
    1eae:	399947        	bne	a9, a4, 1eeb <pitch_by_harmonic+0x2bb>
    1eb1:	8148           	l32i.n	a4, a1, 32
    1eb3:	f0c3a2        	addi	a10, a3, -16
    1eb6:	0448           	l32i.n	a4, a4, 0
    1eb8:	f4ac           	beqz.n	a4, 1eeb <pitch_by_harmonic+0x2bb>
    1eba:	4388           	l32i.n	a8, a3, 16
    1ebc:	0a48           	l32i.n	a4, a10, 0
    1ebe:	03ad           	mov.n	a10, a3
    1ec0:	05bd           	mov.n	a11, a5
    1ec2:	434480        	min	a4, a4, a8
    1ec5:	22a497        	bge	a4, a9, 1eeb <pitch_by_harmonic+0x2bb>
    1ec8:	f8b441        	l32r	a4, 198 (2388 <Xfrac_num_pd_td32>)
    1ecb:	1c0c           	movi.n	a12, 1
    1ecd:	0004e0        	callx8	a4
    1ed0:	142192        	l32i	a9, a1, 80
    1ed3:	162182        	l32i	a8, a1, 88
    1ed6:	1b21f2        	l32i	a15, a1, 108
    1ed9:	61d8           	l32i.n	a13, a1, 24
    1edb:	894d           	ae_sext16	a4, a9
    1edd:	991b           	addi.n	a9, a9, 1
    1edf:	5c0c           	movi.n	a12, 5
    1ee1:	a04480        	addx4	a4, a4, a8
    1ee4:	146192        	s32i	a9, a1, 80
    1ee7:	6f9d           	ae_s16i.n	a9, a15, 0
    1ee9:	04a9           	s32i.n	a10, a4, 0
    1eeb:	770b           	addi.n	a7, a7, -1
    1eed:	334b           	addi.n	a3, a3, 4
    1eef:	224b           	addi.n	a2, a2, 4
    1ef1:	551b           	addi.n	a5, a5, 1
    1ef3:	082716        	beqz	a7, 1f79 <pitch_by_harmonic+0x349>
    1ef6:	f4c342        	addi	a4, a3, -12
    1ef9:	0488           	l32i.n	a8, a4, 0
    1efb:	924b           	addi.n	a9, a2, 4
    1efd:	02ad           	mov.n	a10, a2
    1eff:	068c76        	loop	a12, 1f09 <pitch_by_harmonic+0x2d9>
    1f02:	0a48           	l32i.n	a4, a10, 0
    1f04:	aa4b           	addi.n	a10, a10, 4
    1f06:	538840        	max	a8, a8, a4

00001f09 <pitch_by_harmonic+0x2d9>:
    1f09:	f8c342        	addi	a4, a3, -8
    1f0c:	04b8           	l32i.n	a11, a4, 0
    1f0e:	20abb0        	or	a10, a11, a11
    1f11:	068c76        	loop	a12, 1f1b <pitch_by_harmonic+0x2eb>
    1f14:	0948           	l32i.n	a4, a9, 0
    1f16:	994b           	addi.n	a9, a9, 4
    1f18:	53aa40        	max	a10, a10, a4
    1f1b:	0398           	l32i.n	a9, a3, 0
    1f1d:	021987        	beq	a9, a8, 1f23 <pitch_by_harmonic+0x2f3>
    1f20:	8799a7        	bne	a9, a10, 1eab <pitch_by_harmonic+0x27b>

00001f23 <pitch_by_harmonic+0x2f3>:
    1f23:	540c           	movi.n	a4, 5
    1f25:	014480        	slli	a4, a4, 24
    1f28:	4b4a           	add.n	a4, a11, a4
    1f2a:	112497        	blt	a4, a9, 1f3f <pitch_by_harmonic+0x30f>
    1f2d:	fcc342        	addi	a4, a3, -4
    1f30:	0448           	l32i.n	a4, a4, 0
    1f32:	3b0c           	movi.n	a11, 3
    1f34:	01bb60        	slli	a11, a11, 26
    1f37:	44ba           	add.n	a4, a4, a11
    1f39:	022497        	blt	a4, a9, 1f3f <pitch_by_harmonic+0x30f>
    1f3c:	ffdac6        	j	1eab <pitch_by_harmonic+0x27b>
    1f3f:	2348           	l32i.n	a4, a3, 8
    1f41:	5b0c           	movi.n	a11, 5
    1f43:	01bb80        	slli	a11, a11, 24
    1f46:	44ba           	add.n	a4, a4, a11
    1f48:	0e2497        	blt	a4, a9, 1f5a <pitch_by_harmonic+0x32a>
    1f4b:	1348           	l32i.n	a4, a3, 4
    1f4d:	3b0c           	movi.n	a11, 3
    1f4f:	01bb60        	slli	a11, a11, 26
    1f52:	44ba           	add.n	a4, a4, a11
    1f54:	022497        	blt	a4, a9, 1f5a <pitch_by_harmonic+0x32a>
    1f57:	ffd406        	j	1eab <pitch_by_harmonic+0x27b>
    1f5a:	f88f41        	l32r	a4, 198 (2388 <Xfrac_num_pd_td32>)
    1f5d:	1c0c           	movi.n	a12, 1
    1f5f:	03ad           	mov.n	a10, a3
    1f61:	05bd           	mov.n	a11, a5
    1f63:	0004e0        	callx8	a4
    1f66:	61d8           	l32i.n	a13, a1, 24
    1f68:	122182        	l32i	a8, a1, 72
    1f6b:	864d           	ae_sext16	a4, a6
    1f6d:	661b           	addi.n	a6, a6, 1
    1f6f:	5c0c           	movi.n	a12, 5
    1f71:	a044d0        	addx4	a4, a4, a13
    1f74:	686d           	ae_s16i.n	a6, a8, 0
    1f76:	ffdbc6        	j	1ee9 <pitch_by_harmonic+0x2b9>

00001f79 <pitch_by_harmonic+0x349>:
    1f79:	132182        	l32i	a8, a1, 76
    1f7c:	862d           	ae_sext16	a2, a6
    1f7e:	070c           	movi.n	a7, 0
    1f80:	0212e6        	bgei	a2, 1, 1f86 <pitch_by_harmonic+0x356>
    1f83:	00b946        	j	226c <pitch_by_harmonic+0x63c>
    1f86:	f8a481        	l32r	a8, 218 (cccccd <_end+0xcbd72d>)
    1f89:	368834        	ae_cvtq48a32s	aeq2, a8
    1f8c:	f8a221        	l32r	a2, 214 (96d4 <two_mic_WB_NR_NSN_proc+0xb64>)
    1f8f:	132182        	l32i	a8, a1, 76
    1f92:	f899f1        	l32r	a15, 1f8 (96ce <two_mic_WB_NR_NSN_proc+0xb5e>)
    1f95:	f89971        	l32r	a7, 1fc (96bc <two_mic_WB_NR_NSN_proc+0xb4c>)
    1f98:	130c           	movi.n	a3, 1
    1f9a:	140c           	movi.n	a4, 1
    1f9c:	013380        	slli	a3, a3, 24
    1f9f:	f89fc1        	l32r	a12, 21c (99999a <_end+0x98a3fa>)
    1fa2:	36cc34        	ae_cvtq48a32s	aeq3, a12
    1fa5:	c8fa           	add.n	a12, a8, a15
    1fa7:	f89ee1        	l32r	a14, 220 (435e51 <_end+0x4268b1>)
    1faa:	190c           	movi.n	a9, 1
    1fac:	360334        	ae_cvtq48a32s	aeq0, a3
    1faf:	282a           	add.n	a2, a8, a2
    1fb1:	114400        	slli	a4, a4, 16
    1fb4:	f87a           	add.n	a15, a8, a7
    1fb6:	966d           	ae_zext16	a6, a6
    1fb8:	1a6192        	s32i	a9, a1, 104
    1fbb:	398ee4        	ae_movpa24x2	aep0, a14, a14
    1fbe:	050c           	movi.n	a5, 0
    1fc0:	40c192        	addi	a9, a1, 64
    1fc3:	630144        	ae_sq56s.i	aeq0, a1, 32
    1fc6:	10c1a2        	addi	a10, a1, 16
    1fc9:	632154        	ae_sq56s.i	aeq2, a1, 40
    1fcc:	44c1b2        	addi	a11, a1, 68
    1fcf:	0e0c           	movi.n	a14, 0
    1fd1:	633134        	ae_sq56s.i	aeq3, a1, 24
    1fd4:	1761c2        	s32i	a12, a1, 92
    1fd7:	126122        	s32i	a2, a1, 72
    1fda:	0249           	s32i.n	a4, a2, 0
    1fdc:	1861f2        	s32i	a15, a1, 96
    1fdf:	178676        	loop	a6, 1ffa <pitch_by_harmonic+0x3ca>
    1fe2:	030160        	rsr.lend	a6
    1fe5:	130060        	wsr.lbeg	a6
    1fe8:	f89361        	l32r	a6, 234 (21ce <pitch_by_harmonic+0x59e>)
    1feb:	0020f0        	nop
    1fee:	130160        	wsr.lend	a6
    1ff1:	002000        	isync
    1ff4:	030260        	rsr.lcount	a6
    1ff7:	01c662        	addi	a6, a6, 1
    1ffa:	060c           	movi.n	a6, 0
    1ffc:	113e16        	beqz	a14, 2113 <pitch_by_harmonic+0x4e3>
    1fff:	604d04        	ae_lq32f.i	aeq1, a13, 0
    2002:	608df4        	ae_lq32f.i	aeq2, a13, -4
    2005:	f9ca933ddf 	{ or	a3, a13, a13; ae_subsq56s	aeq1, aeq1, aeq2 }
    200a:	1521d2        	l32i	a13, a1, 84
    200d:	355064        	ae_srliq56	aeq1, aeq1, 1
    2010:	38c122        	addi	a2, a1, 56
    2013:	0d48           	l32i.n	a4, a13, 0
    2015:	621204        	ae_sq32f.i	aeq1, a2, 0
    2018:	e168           	l32i.n	a6, a1, 56
    201a:	218c40        	srai	a8, a4, 12
    201d:	f878c1        	l32r	a12, 200 (96b8 <two_mic_WB_NR_NSN_proc+0xb48>)
    2020:	d24680        	quos	a4, a6, a8
    2023:	f149           	s32i.n	a4, a1, 60
    2025:	132162        	l32i	a6, a1, 76
    2028:	60c214        	ae_lq32f.i	aeq3, a2, 4
    202b:	3cc172        	addi	a7, a1, 60
    202e:	36b3d4        	ae_sllisq56s	aeq2, aeq3, 15
    2031:	f8f3fbf6cf 	{ ae_lq32f.x	aeq3, a6, a12; ae_roundsp16q48sym	aep1, aeq2 }
    2036:	fb253ad22f 	{ ae_sllisq56s	aeq0, aeq1, 10; ae_mulq32sp16s.h	aeq2, aeq3, aep1 }
    203b:	0bfd           	mov.n	a15, a11
    203d:	36a3d4        	ae_sllisq56s	aeq2, aeq2, 15
    2040:	f852bdc14f 	{ ae_lq56.i	aeq2, a1, 32; ae_subsq56s	aeq0, aeq2, aeq0 }
    2045:	fc0093baaf 	{ or	a11, a10, a10; ae_absq56	aeq0, aeq0 }
    204a:	d65013a99f 	{ or	a10, a9, a9; ae_ltq56s	b0, aeq0, aeq2 }
    204f:	040c           	movi.n	a4, 0
    2051:	190c           	movi.n	a9, 1
    2053:	d34900        	movt	a4, a9, b0
    2056:	421164        	ae_sp16f.l.i	aep1, a1, 12
    2059:	c1cb           	addi.n	a12, a1, 12
    205b:	74bc           	beqz.n	a4, 2096 <pitch_by_harmonic+0x466>
    205d:	f86771        	l32r	a7, 1fc (96bc <two_mic_WB_NR_NSN_proc+0xb4c>)
    2060:	172182        	l32i	a8, a1, 92
    2063:	365054        	ae_sllisq56s	aeq1, aeq1, 1
    2066:	602674        	ae_lq32f.x	aeq0, a6, a7
    2069:	f86660082e 	{ l16si	a2, a8, 0; ae_addsq56s	aeq0, aeq0, aeq1 }
    206e:	fc00e0614e 	{ l16si	a4, a1, 12; ae_satq48s	aeq0, aeq0 }
    2073:	1821c2        	l32i	a12, a1, 96
    2076:	628674        	ae_sq32f.x	aeq0, a6, a7
    2079:	242a           	add.n	a2, a4, a2
    207b:	0c48           	l32i.n	a4, a12, 0
    207d:	682d           	ae_s16i.n	a2, a8, 0
    207f:	822d           	ae_sext16	a2, a2
    2081:	d22420        	quos	a2, a4, a2
    2084:	112260        	slli	a2, a2, 10
    2087:	0d29           	s32i.n	a2, a13, 0
    2089:	0a9d           	mov.n	a9, a10
    208b:	0bad           	mov.n	a10, a11
    208d:	160c           	movi.n	a6, 1
    208f:	03dd           	mov.n	a13, a3
    2091:	0fbd           	mov.n	a11, a15
    2093:	001f06        	j	2113 <pitch_by_harmonic+0x4e3>

00002096 <pitch_by_harmonic+0x466>:
    2096:	0a9d           	mov.n	a9, a10
    2098:	0bad           	mov.n	a10, a11
    209a:	060c           	movi.n	a6, 0
    209c:	03dd           	mov.n	a13, a3
    209e:	0fbd           	mov.n	a11, a15
    20a0:	6f2eb6        	bltui	a14, 2, 2113 <pitch_by_harmonic+0x4e3>
    20a3:	600d04        	ae_lq32f.i	aeq0, a13, 0
    20a6:	604de4        	ae_lq32f.i	aeq1, a13, -8
    20a9:	f8468000ff 	{ movi	a15, 0; ae_subsq56s	aeq0, aeq0, aeq1 }
    20ae:	354064        	ae_srliq56	aeq1, aeq0, 1
    20b1:	621204        	ae_sq32f.i	aeq1, a2, 0
    20b4:	e128           	l32i.n	a2, a1, 56
    20b6:	130c           	movi.n	a3, 1
    20b8:	060c           	movi.n	a6, 0
    20ba:	d22280        	quos	a2, a2, a8
    20bd:	f129           	s32i.n	a2, a1, 60
    20bf:	608704        	ae_lq32f.i	aeq2, a7, 0
    20c2:	3623d4        	ae_sllisq56s	aeq0, aeq2, 15
    20c5:	f8e3fad2af 	{ ae_sllisq56s	aeq2, aeq1, 10; ae_roundsp16q48sym	aep1, aeq0 }
    20ca:	fa253de14f 	{ ae_lq56.i	aeq3, a1, 32; ae_mulq32sp16s.h	aeq0, aeq3, aep1 }
    20cf:	421c04        	ae_sp16f.l.i	aep1, a12, 0
    20d2:	3603d4        	ae_sllisq56s	aeq0, aeq0, 15
    20d5:	f8c2b131ce 	{ l32i	a12, a1, 76; ae_subsq56s	aeq0, aeq0, aeq2 }
    20da:	fc00b1717e 	{ l32i	a7, a1, 92; ae_absq56	aeq0, aeq0 }
    20df:	d65831818e 	{ l32i	a8, a1, 96; ae_ltq56s	b0, aeq0, aeq3 }
    20e4:	d3f300        	movt	a15, a3, b0
    20e7:	8fac           	beqz.n	a15, 2113 <pitch_by_harmonic+0x4e3>
    20e9:	f84431        	l32r	a3, 1fc (96bc <two_mic_WB_NR_NSN_proc+0xb4c>)
    20ec:	365054        	ae_sllisq56s	aeq1, aeq1, 1
    20ef:	272d           	ae_l16si.n	a2, a7, 0
    20f1:	602c34        	ae_lq32f.x	aeq0, a12, a3
    20f4:	f86660614e 	{ l16si	a4, a1, 12; ae_addsq56s	aeq0, aeq0, aeq1 }
    20f9:	fc00f151fe 	{ l32i	a15, a1, 84; ae_satq48s	aeq0, aeq0 }
    20fe:	628c34        	ae_sq32f.x	aeq0, a12, a3
    2101:	08c8           	l32i.n	a12, a8, 0
    2103:	242a           	add.n	a2, a4, a2
    2105:	672d           	ae_s16i.n	a2, a7, 0
    2107:	822d           	ae_sext16	a2, a2
    2109:	d22c20        	quos	a2, a12, a2
    210c:	112260        	slli	a2, a2, 10
    210f:	160c           	movi.n	a6, 1
    2111:	0f29           	s32i.n	a2, a15, 0
    2113:	1521c2        	l32i	a12, a1, 84
    2116:	0d28           	l32i.n	a2, a13, 0
    2118:	132182        	l32i	a8, a1, 76
    211b:	0c48           	l32i.n	a4, a12, 0
    211d:	f83871        	l32r	a7, 200 (96b8 <two_mic_WB_NR_NSN_proc+0xb48>)
    2120:	116122        	s32i	a2, a1, 68
    2123:	214b40        	srai	a4, a4, 11
    2126:	d24240        	quos	a4, a2, a4
    2129:	106142        	s32i	a4, a1, 64
    212c:	604904        	ae_lq32f.i	aeq1, a9, 0
    212f:	3653d4        	ae_sllisq56s	aeq1, aeq1, 15
    2132:	f8ebfb987f 	{ ae_lq32f.x	aeq0, a8, a7; ae_roundsp16q48sym	aep1, aeq1 }
    2137:	f824321a0f 	{ ae_sp16f.l.i	aep1, a10, 0; ae_mulq32sp16s.h	aeq0, aeq0, aep1 }
    213c:	081172        	l16ui	a7, a1, 16
    213f:	60cb04        	ae_lq32f.i	aeq3, a11, 0
    2142:	36b254        	ae_sllisq56s	aeq2, aeq3, 9
    2145:	3603d4        	ae_sllisq56s	aeq0, aeq0, 15
    2148:	fac2bda13f 	{ ae_lq56.i	aeq1, a1, 24; ae_subsq56s	aeq2, aeq0, aeq2 }
    214d:	081726        	beqi	a7, 1, 2159 <pitch_by_harmonic+0x529>
    2150:	614154        	ae_lq56.i	aeq1, a1, 40
    2153:	022726        	beqi	a7, 2, 2159 <pitch_by_harmonic+0x529>
    2156:	614144        	ae_lq56.i	aeq1, a1, 32
    2159:	069a64        	ae_absq56	aeq2, aeq2
    215c:	168c           	beqz.n	a6, 2161 <pitch_by_harmonic+0x531>
    215e:	088594        	ae_mulrfq32sp24s.l	aeq2, aeq2, aep0
    2161:	d6c800004f 	{ movi	a4, 0; ae_ltq56s	b0, aeq2, aeq1 }
    2166:	130c           	movi.n	a3, 1
    2168:	1821f2        	l32i	a15, a1, 96
    216b:	d34300        	movt	a4, a3, b0
    216e:	041416        	beqz	a4, 21b3 <pitch_by_harmonic+0x583>
    2171:	872d           	ae_sext16	a2, a7
    2173:	2322a6        	blti	a2, 2, 219a <pitch_by_harmonic+0x56a>
    2176:	f82131        	l32r	a3, 1fc (96bc <two_mic_WB_NR_NSN_proc+0xb4c>)
    2179:	172172        	l32i	a7, a1, 92
    217c:	602834        	ae_lq32f.x	aeq0, a8, a3
    217f:	f8e660074e 	{ l16si	a4, a7, 0; ae_addsq56s	aeq0, aeq0, aeq3 }
    2184:	060844        	ae_satq48s	aeq0, aeq0
    2187:	628834        	ae_sq32f.x	aeq0, a8, a3
    218a:	0f68           	l32i.n	a6, a15, 0
    218c:	442a           	add.n	a4, a4, a2
    218e:	674d           	ae_s16i.n	a4, a7, 0
    2190:	844d           	ae_sext16	a4, a4
    2192:	d24640        	quos	a4, a6, a4
    2195:	114460        	slli	a4, a4, 10
    2198:	0c49           	s32i.n	a4, a12, 0
    219a:	122132        	l32i	a3, a1, 72
    219d:	551b           	addi.n	a5, a5, 1
    219f:	122162        	l32i	a6, a1, 72
    21a2:	635d           	ae_s16i.n	a5, a3, 0
    21a4:	226207        	bbci	a2, 0, 21ca <pitch_by_harmonic+0x59a>
    21a7:	040c           	movi.n	a4, 0
    21a9:	030c           	movi.n	a3, 0
    21ab:	1a6132        	s32i	a3, a1, 104
    21ae:	764d           	ae_s16i.n	a4, a6, 2
    21b0:	000586        	j	21ca <pitch_by_harmonic+0x59a>

000021b3 <pitch_by_harmonic+0x583>:
    21b3:	142172        	l32i	a7, a1, 80
    21b6:	162162        	l32i	a6, a1, 88
    21b9:	1b2132        	l32i	a3, a1, 108
    21bc:	874d           	ae_sext16	a4, a7
    21be:	771b           	addi.n	a7, a7, 1
    21c0:	a04460        	addx4	a4, a4, a6
    21c3:	146172        	s32i	a7, a1, 80
    21c6:	637d           	ae_s16i.n	a7, a3, 0
    21c8:	0429           	s32i.n	a2, a4, 0
    21ca:	dd4b           	addi.n	a13, a13, 4
    21cc:	ee1b           	addi.n	a14, a14, 1

000021ce <pitch_by_harmonic+0x59e>:
    21ce:	142132        	l32i	a3, a1, 80
    21d1:	192142        	l32i	a4, a1, 100
    21d4:	152172        	l32i	a7, a1, 84
    21d7:	1621c2        	l32i	a12, a1, 88
    21da:	1a21d2        	l32i	a13, a1, 104
    21dd:	832d           	ae_sext16	a2, a3
    21df:	165452        	s16i	a5, a4, 44
    21e2:	5b12a6        	blti	a2, 1, 2241 <pitch_by_harmonic+0x611>
    21e5:	0748           	l32i.n	a4, a7, 0
    21e7:	f80621        	l32r	a2, 200 (96b8 <two_mic_WB_NR_NSN_proc+0xb48>)
    21ea:	f80ef1        	l32r	a15, 224 (159999a <_end+0x158a3fa>)
    21ed:	936d           	ae_zext16	a6, a3
    21ef:	602824        	ae_lq32f.x	aeq0, a8, a2
    21f2:	364f34        	ae_cvtq48a32s	aeq1, a15
    21f5:	120c           	movi.n	a2, 1
    21f7:	214b40        	srai	a4, a4, 11
    21fa:	438676        	loop	a6, 2241 <pitch_by_harmonic+0x611>
    21fd:	0c68           	l32i.n	a6, a12, 0
    21ff:	116162        	s32i	a6, a1, 68
    2202:	0f0c           	movi.n	a15, 0
    2204:	d26640        	quos	a6, a6, a4
    2207:	106162        	s32i	a6, a1, 64
    220a:	608904        	ae_lq32f.i	aeq2, a9, 0
    220d:	36a3d4        	ae_sllisq56s	aeq2, aeq2, 15
    2210:	f8f3bd4b0f 	{ ae_lq32f.i	aeq2, a11, 0; ae_roundsp16q48sym	aep0, aeq2 }
    2215:	f9207ae29f 	{ ae_sllisq56s	aeq2, aeq2, 9; ae_mulq32sp16s.h	aeq3, aeq0, aep0 }
    221a:	36f3d4        	ae_sllisq56s	aeq3, aeq3, 15
    221d:	fadab1213e 	{ l32i	a3, a1, 72; ae_subsq56s	aeq2, aeq3, aeq2 }
    2222:	fe80b121ee 	{ l32i	a14, a1, 72; ae_absq56	aeq2, aeq2 }
    2227:	d6c8320a0f 	{ ae_sp16f.l.i	aep0, a10, 0; ae_ltq56s	b0, aeq2, aeq1 }
    222c:	100162        	l8ui	a6, a1, 16
    222f:	d3f200        	movt	a15, a2, b0
    2232:	9f8c           	beqz.n	a15, 223f <pitch_by_harmonic+0x60f>
    2234:	551b           	addi.n	a5, a5, 1
    2236:	635d           	ae_s16i.n	a5, a3, 0
    2238:	036607        	bbci	a6, 0, 223f <pitch_by_harmonic+0x60f>
    223b:	0d0c           	movi.n	a13, 0
    223d:	7edd           	ae_s16i.n	a13, a14, 2

0000223f <pitch_by_harmonic+0x60f>:
    223f:	cc4b           	addi.n	a12, a12, 4

00002241 <pitch_by_harmonic+0x611>:
    2241:	f27c           	movi.n	a2, -1
    2243:	5ba262        	movi	a6, 0x25b
    2246:	f42020        	extui	a2, a2, 0, 16
    2249:	1166a0        	slli	a6, a6, 6
    224c:	4e02d7        	bnone	a2, a13, 229e <pitch_by_harmonic+0x66e>
    224f:	f7ed21        	l32r	a2, 204 (96b4 <two_mic_WB_NR_NSN_proc+0xb44>)
    2252:	853d           	ae_sext16	a3, a5
    2254:	122142        	l32i	a4, a1, 72
    2257:	282a           	add.n	a2, a8, a2
    2259:	0228           	l32i.n	a2, a2, 0
    225b:	859d           	ae_sext16	a9, a5
    225d:	32bc           	beqz.n	a2, 2294 <pitch_by_harmonic+0x664>
    225f:	0233a6        	blti	a3, 3, 2265 <pitch_by_harmonic+0x635>
    2262:	002286        	j	22f0 <pitch_by_harmonic+0x6c0>
    2265:	020c           	movi.n	a2, 0
    2267:	742d           	ae_s16i.n	a2, a4, 2
    2269:	000e46        	j	22a6 <pitch_by_harmonic+0x676>

0000226c <pitch_by_harmonic+0x63c>:
    226c:	f7e231        	l32r	a3, 1f4 (96c8 <two_mic_WB_NR_NSN_proc+0xb58>)
    226f:	5ba222        	movi	a2, 0x25b
    2272:	1122a0        	slli	a2, a2, 6
    2275:	282a           	add.n	a2, a8, a2
    2277:	f83a           	add.n	a15, a8, a3
    2279:	0279           	s32i.n	a7, a2, 0
    227b:	6f7d           	ae_s16i.n	a7, a15, 0
    227d:	f01d           	retw.n

0000227f <pitch_by_harmonic+0x64f>:
    227f:	030c           	movi.n	a3, 0
    2281:	274a           	add.n	a2, a7, a4
    2283:	0239           	s32i.n	a3, a2, 0
    2285:	f7db41        	l32r	a4, 1f4 (96c8 <two_mic_WB_NR_NSN_proc+0xb58>)
    2288:	276a           	add.n	a2, a7, a6
    228a:	030c           	movi.n	a3, 0
    228c:	f74a           	add.n	a15, a7, a4
    228e:	0239           	s32i.n	a3, a2, 0
    2290:	6f3d           	ae_s16i.n	a3, a15, 0
    2292:	f01d           	retw.n

00002294 <pitch_by_harmonic+0x664>:
    2294:	5859e6        	bgei	a9, 5, 22f0 <pitch_by_harmonic+0x6c0>
    2297:	122132        	l32i	a3, a1, 72
    229a:	020c           	movi.n	a2, 0
    229c:	732d           	ae_s16i.n	a2, a3, 2
    229e:	852d           	ae_sext16	a2, a5
    22a0:	0232a6        	blti	a2, 3, 22a6 <pitch_by_harmonic+0x676>
    22a3:	002186        	j	232d <pitch_by_harmonic+0x6fd>
    22a6:	952d           	ae_zext16	a2, a5
    22a8:	022226        	beqi	a2, 2, 22ae <pitch_by_harmonic+0x67e>
    22ab:	0022c6        	j	233a <pitch_by_harmonic+0x70a>
    22ae:	f7d121        	l32r	a2, 1f4 (96c8 <two_mic_WB_NR_NSN_proc+0xb58>)
    22b1:	d37c           	movi.n	a3, -3
    22b3:	013360        	slli	a3, a3, 26
    22b6:	282a           	add.n	a2, a8, a2
    22b8:	422d           	ae_l16ui.n	a2, a2, 0
    22ba:	341c           	movi.n	a4, 19
    22bc:	014480        	slli	a4, a4, 24
    22bf:	077216        	beqz	a2, 233a <pitch_by_harmonic+0x70a>
    22c2:	0728           	l32i.n	a2, a7, 0
    22c4:	f7cf51        	l32r	a5, 200 (96b8 <two_mic_WB_NR_NSN_proc+0xb48>)
    22c7:	f7c9e1        	l32r	a14, 1ec (aaaab <_end+0x9b50b>)
    22ca:	323a           	add.n	a3, a2, a3
    22cc:	6a3437        	bltu	a4, a3, 233a <pitch_by_harmonic+0x70a>
    22cf:	606864        	ae_lq32f.x	aeq1, a8, a6
    22d2:	602854        	ae_lq32f.x	aeq0, a8, a5
    22d5:	f846a20eef 	{ ae_movpa24x2	aep0, a14, a14; ae_subsq56s	aeq0, aeq0, aeq1 }
    22da:	f8e14000ff 	{ movi	a15, 0; ae_mulrfq32sp24s.l	aeq1, aeq1, aep0 }
    22df:	fc0080014f 	{ movi	a4, 1; ae_absq56	aeq0, aeq0 }
    22e4:	098104        	ae_ltq56s	b0, aeq1, aeq0
    22e7:	d3f400        	movt	a15, a4, b0
    22ea:	04cf56        	bnez	a15, 233a <pitch_by_harmonic+0x70a>
    22ed:	0017c6        	j	2350 <pitch_by_harmonic+0x720>

000022f0 <pitch_by_harmonic+0x6c0>:
    22f0:	0728           	l32i.n	a2, a7, 0
    22f2:	f7cd41        	l32r	a4, 228 (13ffffff <_end+0x13ff0a5f>)
    22f5:	f7bf31        	l32r	a3, 1f4 (96c8 <two_mic_WB_NR_NSN_proc+0xb58>)
    22f8:	f7c251        	l32r	a5, 200 (96b8 <two_mic_WB_NR_NSN_proc+0xb48>)
    22fb:	272427        	blt	a4, a2, 2326 <pitch_by_harmonic+0x6f6>
    22fe:	483a           	add.n	a4, a8, a3
    2300:	244d           	ae_l16si.n	a4, a4, 0
    2302:	f7bae1        	l32r	a14, 1ec (aaaab <_end+0x9b50b>)
    2305:	398ee4        	ae_movpa24x2	aep0, a14, a14
    2308:	3c34a6        	blti	a4, 3, 2348 <pitch_by_harmonic+0x718>
    230b:	606864        	ae_lq32f.x	aeq1, a8, a6
    230e:	602854        	ae_lq32f.x	aeq0, a8, a5
    2311:	f8468000ff 	{ movi	a15, 0; ae_subsq56s	aeq0, aeq0, aeq1 }
    2316:	f80140015f 	{ movi	a5, 1; ae_mulfq32sp24s.h	aeq1, aeq1, aep0 }
    231b:	061864        	ae_absq56	aeq0, aeq0
    231e:	099404        	ae_leq56s	b0, aeq0, aeq1
    2321:	d3f500        	movt	a15, a5, b0
    2324:	0fac           	beqz.n	a15, 2348 <pitch_by_harmonic+0x718>
    2326:	122132        	l32i	a3, a1, 72
    2329:	020c           	movi.n	a2, 0
    232b:	732d           	ae_s16i.n	a2, a3, 2
    232d:	0728           	l32i.n	a2, a7, 0
    232f:	f7bf31        	l32r	a3, 22c (f570a3d7 <_end+0xf56fae37>)
    2332:	f7bf41        	l32r	a4, 230 (2428f5c4 <_end+0x24280024>)
    2335:	323a           	add.n	a3, a2, a3
    2337:	153347        	bltu	a3, a4, 2350 <pitch_by_harmonic+0x720>
    233a:	020c           	movi.n	a2, 0
    233c:	0729           	s32i.n	a2, a7, 0
    233e:	f7ad31        	l32r	a3, 1f4 (96c8 <two_mic_WB_NR_NSN_proc+0xb58>)
    2341:	040c           	movi.n	a4, 0
    2343:	383a           	add.n	a3, a8, a3
    2345:	000d06        	j	237d <pitch_by_harmonic+0x74d>

00002348 <pitch_by_harmonic+0x718>:
    2348:	1122f0        	slli	a2, a2, 1
    234b:	0729           	s32i.n	a2, a7, 0
    234d:	ed12a6        	blti	a2, 1, 233e <pitch_by_harmonic+0x70e>
    2350:	f7ac31        	l32r	a3, 200 (96b8 <two_mic_WB_NR_NSN_proc+0xb48>)
    2353:	f7a6e1        	l32r	a14, 1ec (aaaab <_end+0x9b50b>)
    2356:	606864        	ae_lq32f.x	aeq1, a8, a6
    2359:	602834        	ae_lq32f.x	aeq0, a8, a3
    235c:	f846a20eef 	{ ae_movpa24x2	aep0, a14, a14; ae_subsq56s	aeq0, aeq0, aeq1 }
    2361:	f8e14000ff 	{ movi	a15, 0; ae_mulrfq32sp24s.l	aeq1, aeq1, aep0 }
    2366:	fc0080014f 	{ movi	a4, 1; ae_absq56	aeq0, aeq0 }
    236b:	099004        	ae_ltq56s	b0, aeq0, aeq1
    236e:	f7a131        	l32r	a3, 1f4 (96c8 <two_mic_WB_NR_NSN_proc+0xb58>)
    2371:	d3f400        	movt	a15, a4, b0
    2374:	fc6f16        	beqz	a15, 233e <pitch_by_harmonic+0x70e>
    2377:	383a           	add.n	a3, a8, a3
    2379:	234d           	ae_l16si.n	a4, a3, 0
    237b:	441b           	addi.n	a4, a4, 1
    237d:	f86a           	add.n	a15, a8, a6
    237f:	634d           	ae_s16i.n	a4, a3, 0
    2381:	0f29           	s32i.n	a2, a15, 0
    2383:	f01d           	retw.n

00002385 <pitch_by_harmonic+0x755>:
    2385:	000000                                        ...

00002388 <Xfrac_num_pd_td32>:
    2388:	008136        	entry	a1, 64
    238b:	f7ab61        	l32r	a6, 238 (5a8200 <_end+0x598c60>)
    238e:	600204        	ae_lq32f.i	aeq0, a2, 0
    2391:	604214        	ae_lq32f.i	aeq1, a2, 4
    2394:	f946a2066f 	{ ae_movpa24x2	aep0, a6, a6; ae_subsq56s	aeq1, aeq0, aeq1 }
    2399:	f9017d42ff 	{ ae_lq32f.i	aeq2, a2, -4; ae_mulfq32sp24s.h	aeq3, aeq1, aep0 }
    239e:	f8c28000ff 	{ movi	a15, 0; ae_subsq56s	aeq0, aeq0, aeq2 }
    23a3:	d65800017f 	{ movi	a7, 1; ae_ltq56s	b0, aeq0, aeq3 }
    23a8:	5139           	s32i.n	a3, a1, 20
    23aa:	f98039916f 	{ ae_sq32f.i	aeq1, a1, 24; ae_mulfq32sp24s.l	aeq2, aeq0, aep0 }
    23af:	d3f700        	movt	a15, a7, b0
    23b2:	18c152        	addi	a5, a1, 24
    23b5:	620174        	ae_sq32f.i	aeq0, a1, 28
    23b8:	2fac           	beqz.n	a15, 23de <Xfrac_num_pd_td32+0x56>
    23ba:	120c           	movi.n	a2, 1
    23bc:	0122c0        	slli	a2, a2, 20
    23bf:	604504        	ae_lq32f.i	aeq1, a5, 0
    23c2:	398224        	ae_movpa24x2	aep0, a2, a2
    23c5:	f8814000ef 	{ movi	a14, 0; ae_mulfq32sp24s.l	aeq1, aeq1, aep0 }
    23ca:	1f0c           	movi.n	a15, 1
    23cc:	d64800006f 	{ movi	a6, 0; ae_ltq56s	b0, aeq0, aeq1 }
    23d1:	f79a21        	l32r	a2, 23c (c28f0000 <_end+0xc28e0a60>)
    23d4:	150c           	movi.n	a5, 1
    23d6:	d3ef00        	movt	a14, a15, b0
    23d9:	7e9c           	beqz.n	a14, 23f4 <Xfrac_num_pd_td32+0x6c>
    23db:	002546        	j	2474 <Xfrac_num_pd_td32+0xec>

000023de <Xfrac_num_pd_td32+0x56>:
    23de:	604504        	ae_lq32f.i	aeq1, a5, 0
    23e1:	d6c800002f 	{ movi	a2, 0; ae_ltq56s	b0, aeq2, aeq1 }
    23e6:	1f0c           	movi.n	a15, 1
    23e8:	160c           	movi.n	a6, 1
    23ea:	d32f00        	movt	a2, a15, b0
    23ed:	b29c           	beqz.n	a2, 240c <Xfrac_num_pd_td32+0x84>
    23ef:	020c           	movi.n	a2, 0
    23f1:	001fc6        	j	2474 <Xfrac_num_pd_td32+0xec>

000023f4 <Xfrac_num_pd_td32+0x6c>:
    23f4:	369054        	ae_sllisq56s	aeq2, aeq1, 1
    23f7:	fe80c0007f 	{ movi	a7, 0; ae_satq48s	aeq2, aeq2 }
    23fc:	d65000018f 	{ movi	a8, 1; ae_ltq56s	b0, aeq0, aeq2 }
    2401:	f78f21        	l32r	a2, 240 (cccd0000 <_end+0xcccc0a60>)
    2404:	d36500        	movt	a6, a5, b0
    2407:	06ac           	beqz.n	a6, 242b <Xfrac_num_pd_td32+0xa3>
    2409:	0019c6        	j	2474 <Xfrac_num_pd_td32+0xec>

0000240c <Xfrac_num_pd_td32+0x84>:
    240c:	0126a0        	slli	a2, a6, 22
    240f:	398224        	ae_movpa24x2	aep0, a2, a2
    2412:	f8800000ff 	{ movi	a15, 0; ae_mulfq32sp24s.l	aeq0, aeq0, aep0 }
    2417:	150c           	movi.n	a5, 1
    2419:	d6483b009f 	{ ae_sraiq56	aeq2, aeq0, 1; ae_ltq56s	b0, aeq0, aeq1 }
    241e:	f78b21        	l32r	a2, 24c (ccd0000 <_end+0xccc0a60>)
    2421:	070c           	movi.n	a7, 0
    2423:	d3f500        	movt	a15, a5, b0
    2426:	8f9c           	beqz.n	a15, 2442 <Xfrac_num_pd_td32+0xba>
    2428:	001206        	j	2474 <Xfrac_num_pd_td32+0xec>

0000242b <Xfrac_num_pd_td32+0xa3>:
    242b:	365094        	ae_sllisq56s	aeq1, aeq1, 2
    242e:	064944        	ae_satq48s	aeq1, aeq1
    2431:	099004        	ae_ltq56s	b0, aeq0, aeq1
    2434:	f78421        	l32r	a2, 244 (e6660000 <_end+0xe6650a60>)
    2437:	f78451        	l32r	a5, 248 (f3330000 <_end+0xf3320a60>)
    243a:	d37800        	movt	a7, a8, b0
    243d:	879c           	beqz.n	a7, 2459 <Xfrac_num_pd_td32+0xd1>
    243f:	000c46        	j	2474 <Xfrac_num_pd_td32+0xec>

00002442 <Xfrac_num_pd_td32+0xba>:
    2442:	fe80c0015f 	{ movi	a5, 1; ae_satq48s	aeq2, aeq2 }
    2447:	d6c83b002f 	{ ae_sraiq56	aeq0, aeq0, 2; ae_ltq56s	b0, aeq2, aeq1 }
    244c:	f78121        	l32r	a2, 250 (199a0000 <_end+0x19990a60>)
    244f:	060c           	movi.n	a6, 0
    2451:	d37500        	movt	a7, a5, b0
    2454:	678c           	beqz.n	a7, 245e <Xfrac_num_pd_td32+0xd6>
    2456:	000686        	j	2474 <Xfrac_num_pd_td32+0xec>

00002459 <Xfrac_num_pd_td32+0xd1>:
    2459:	052d           	mov.n	a2, a5
    245b:	000546        	j	2474 <Xfrac_num_pd_td32+0xec>

0000245e <Xfrac_num_pd_td32+0xd6>:
    245e:	fc00c0015f 	{ movi	a5, 1; ae_satq48s	aeq0, aeq0 }
    2463:	099004        	ae_ltq56s	b0, aeq0, aeq1
    2466:	f77b21        	l32r	a2, 254 (33330000 <_end+0x33320a60>)
    2469:	d36500        	movt	a6, a5, b0
    246c:	168c           	beqz.n	a6, 2471 <Xfrac_num_pd_td32+0xe9>
    246e:	000086        	j	2474 <Xfrac_num_pd_td32+0xec>

00002471 <Xfrac_num_pd_td32+0xe9>:
    2471:	f77921        	l32r	a2, 258 (3d710000 <_end+0x3d700a60>)
    2474:	d43a           	add.n	a13, a4, a3
    2476:	4129           	s32i.n	a2, a1, 16
    2478:	112d00        	slli	a2, a13, 16
    247b:	600144        	ae_lq32f.i	aeq0, a1, 16
    247e:	5129           	s32i.n	a2, a1, 20
    2480:	604154        	ae_lq32f.i	aeq1, a1, 20
    2483:	3503f4        	ae_sraiq56	aeq0, aeq0, 15
    2486:	0118c4        	ae_addq56	aeq0, aeq1, aeq0
    2489:	060834        	ae_roundsq32sym	aeq0, aeq0
    248c:	620144        	ae_sq32f.i	aeq0, a1, 16
    248f:	4128           	l32i.n	a2, a1, 16
    2491:	f01d           	retw.n

00002493 <Xfrac_num_pd_td32+0x10b>:
    2493:	00000000                                 .....

00002498 <subband_aec_block>:
    2498:	006136        	entry	a1, 48
    249b:	a378           	l32i.n	a7, a3, 40
    249d:	fd24a1138e 	{ l16si	a8, a3, 34; ae_zeroq56	aeq1 }
    24a2:	f41b           	addi.n	a15, a4, 1
    24a4:	a3d8           	l32i.n	a13, a3, 40
    24a6:	90e870        	addx2	a14, a8, a7
    24a9:	b3f440        	movgez	a15, a4, a4
    24ac:	21b1f0        	srai	a11, a15, 1
    24af:	2169           	s32i.n	a6, a1, 8
    24b1:	f3f6d0        	wur.ae_cbegin0	a13
    24b4:	f3f7e0        	wur.ae_cend0	a14
    24b7:	3024a6        	blti	a4, 2, 24eb <subband_aec_block+0x53>
    24ba:	e22272        	l32i	a7, a2, 0x388
    24bd:	122382        	l32i	a8, a3, 72
    24c0:	102362        	l32i	a6, a3, 64
    24c3:	600344        	ae_lq32f.i	aeq0, a3, 16
    24c6:	490c           	movi.n	a9, 4
    24c8:	440804        	ae_lp16x2f.i	aep0, a8, 0
    24cb:	fcc7a2        	addi	a10, a7, -4
    24ce:	198b76        	loop	a11, 24eb <subband_aec_block+0x53>
    24d1:	09001aa69f 	{ ae_lp16x2f.c	aep2, a6, a9; ae_mulzaafq32sp16s.hh	aeq2, aeq0, aep0, aeq0, aep0 }
    24d6:	11006d881f 	{ ae_lp16x2f.iu	aep0, a8, 4; ae_mulzaafq32sp16s.ll	aeq3, aeq0, aep0, aeq0, aep0 }
    24db:	1baf74        	ae_roundsp16q48asym	aep7, aeq2
    24de:	1bbf14        	ae_roundsp16q48asym	aep1, aeq3
    24e1:	f04a7e715f 	{ ae_selp24.hl	aep1, aep7, aep1; ae_mulssfp24s.hh.ll	aeq1, aep2, aep2 }
    24e6:	e224739a1f 	{ ae_sp16x2f.iu	aep1, a10, 4; ae_mulaafp24s.hh.ll	aeq1, aep1, aep1 }

000024eb <subband_aec_block+0x53>:
    24eb:	351234        	ae_sraiq56	aeq0, aeq1, 8
    24ee:	618304        	ae_lq56.i	aeq2, a3, 0
    24f1:	f87230926e 	{ l32i	a6, a2, 36; ae_addq56	aeq0, aeq2, aeq0 }
    24f6:	fc00fec6ff 	{ ae_cvtq48a32s	aeq3, a6; ae_satq48s	aeq0, aeq0 }
    24fb:	f87b1431bf 	{ s32i.n	a11, a1, 12; ae_maxq56s	aeq0, aeq0, aeq3 }
    2500:	630304        	ae_sq56s.i	aeq0, a3, 0
    2503:	00e5d6        	bgez	a5, 2515 <subband_aec_block+0x7d>
    2506:	109362        	l16si	a6, a3, 32
    2509:	368b04        	ae_trunca32q48	a11, aeq0
    250c:	11a670        	slli	a10, a6, 9
    250f:	f75361        	l32r	a6, 25c (be9c <airoha_divide>)
    2512:	0006e0        	callx8	a6

00002515 <subband_aec_block+0x7d>:
    2515:	102362        	l32i	a6, a3, 64
    2518:	7914a6        	blti	a4, 1, 2595 <subband_aec_block+0xfd>
    251b:	0b2372        	l32i	a7, a3, 44
    251e:	1323c2        	l32i	a12, a3, 76
    2521:	1123d2        	l32i	a13, a3, 68
    2524:	e222f2        	l32i	a15, a2, 0x388
    2527:	119382        	l16si	a8, a3, 34
    252a:	360b34        	ae_cvtq48a32s	aeq0, a11
    252d:	02a092        	movi	a9, 2
    2530:	fec772        	addi	a7, a7, -2
    2533:	feccc2        	addi	a12, a12, -2
    2536:	fecdd2        	addi	a13, a13, -2
    2539:	20e440        	or	a14, a4, a4
    253c:	fecff2        	addi	a15, a15, -2
    253f:	408f14        	ae_lp16f.iu	aep0, a15, 2
    2542:	fc24e2869f 	{ ae_sp16f.l.c	aep0, a6, a9; nop }
    2547:	408d14        	ae_lp16f.iu	aep0, a13, 2
    254a:	fd0c13b77f 	{ or	a11, a7, a7; ae_cvtq48p24s.l	aeq1, aep0 }
    254f:	0f18a6        	blti	a8, 1, 2562 <subband_aec_block+0xca>
    2552:	408b14        	ae_lp16f.iu	aep0, a11, 2
    2555:	098876        	loop	a8, 2562 <subband_aec_block+0xca>
    2558:	fc24d9169f 	{ ae_lp16f.c	aep1, a6, a9; nop }
    255d:	ee21ec8b1f 	{ ae_lp16f.iu	aep0, a11, 2; ae_mulsfp24s.ll	aeq1, aep0, aep1 }

00002562 <subband_aec_block+0xca>:
    2562:	f86b93b77f 	{ or	a11, a7, a7; ae_roundsp16q48asym	aep0, aeq1 }
    2567:	d4e2728c1f 	{ ae_sp16f.l.iu	aep0, a12, 2; ae_mulfq32sp16s.l	aeq1, aeq0, aep0 }
    256c:	0205d6        	bgez	a5, 2590 <subband_aec_block+0xf8>
    256f:	fc24fe9a4f 	{ ae_slaasq56s	aeq1, aeq1, a10; nop }
    2574:	1b9d04        	ae_roundsp24q48asym	aep0, aeq1
    2577:	1518a6        	blti	a8, 1, 2590 <subband_aec_block+0xf8>
    257a:	409b14        	ae_lp16f.iu	aep1, a11, 2
    257d:	0f8876        	loop	a8, 2590 <subband_aec_block+0xf8>
    2580:	fd2c19769f 	{ ae_lp16f.c	aep7, a6, a9; ae_cvtq48p24s.l	aeq1, aep1 }
    2585:	e2e3ec9b1f 	{ ae_lp16f.iu	aep1, a11, 2; ae_mulafp24s.ll	aeq1, aep0, aep7 }
    258a:	1b9f24        	ae_roundsp16q48asym	aep2, aeq1
    258d:	422bf4        	ae_sp16f.l.i	aep2, a11, -2
    2590:	ee0b           	addi.n	a14, a14, -1
    2592:	fa9e56        	bnez	a14, 253f <subband_aec_block+0xa7>

00002595 <subband_aec_block+0xfd>:
    2595:	106362        	s32i	a6, a3, 64
    2598:	fe24b1136e 	{ l32i	a6, a3, 68; ae_zeroq56	aeq2 }
    259d:	fc24bf217f 	{ ae_movq56	aeq1, aeq2; ae_zeroq56	aeq0 }
    25a2:	1c24a6        	blti	a4, 2, 25c2 <subband_aec_block+0x12a>
    25a5:	132372        	l32i	a7, a3, 76
    25a8:	032182        	l32i	a8, a1, 12
    25ab:	fcc662        	addi	a6, a6, -4
    25ae:	fcc772        	addi	a7, a7, -4
    25b1:	0d8876        	loop	a8, 25c2 <subband_aec_block+0x12a>
    25b4:	448614        	ae_lp16x2f.iu	aep0, a6, 4
    25b7:	e2006d971f 	{ ae_lp16x2f.iu	aep1, a7, 4; ae_mulaafp24s.hh.ll	aeq1, aep0, aep0 }
    25bc:	050104        	ae_mulaafp24s.hh.ll	aeq0, aep0, aep1
    25bf:	059104        	ae_mulaafp24s.hh.ll	aeq2, aep1, aep1

000025c2 <subband_aec_block+0x12a>:
    25c2:	2178           	l32i.n	a7, a1, 8
    25c4:	060c           	movi.n	a6, 0
    25c6:	35e134        	ae_sraiq56	aeq3, aeq2, 4
    25c9:	0c47a6        	blti	a7, 4, 25d9 <subband_aec_block+0x141>
    25cc:	fab6c0006f 	{ movi	a6, 0; ae_subq56	aeq2, aeq2, aeq3 }
    25d1:	d65400017f 	{ movi	a7, 1; ae_ltq56s	b0, aeq1, aeq2 }
    25d6:	d36700        	movt	a6, a7, b0

000025d9 <subband_aec_block+0x141>:
    25d9:	355134        	ae_sraiq56	aeq1, aeq1, 4
    25dc:	fd2c7b010f 	{ ae_sraiq56	aeq0, aeq0, 4; ae_roundsq32asym	aeq1, aeq1 }
    25e1:	fc247f1bef 	{ ae_trunca32q48	a11, aeq1; ae_roundsq32asym	aeq0, aeq0 }
    25e6:	368c04        	ae_trunca32q48	a12, aeq0
    25e9:	f71d71        	l32r	a7, 260 (2750 <common_x_pow>)
    25ec:	03ad           	mov.n	a10, a3
    25ee:	0007e0        	callx8	a7
    25f1:	6070a0        	neg	a7, a10
    25f4:	0d1677        	beq	a6, a7, 2605 <subband_aec_block+0x16d>
    25f7:	1323a2        	l32i	a10, a3, 76
    25fa:	1123b2        	l32i	a11, a3, 68
    25fd:	f6d661        	l32r	a6, 158 (d6fc <xt_memcpy>)
    2600:	04cd           	mov.n	a12, a4
    2602:	0006e0        	callx8	a6
    2605:	fc24a1337e 	{ l16si	a7, a3, 38; ae_zeroq56	aeq0 }
    260a:	b348           	l32i.n	a4, a3, 44
    260c:	119382        	l16si	a8, a3, 34
    260f:	216170        	srai	a6, a7, 1
    2612:	1427a6        	blti	a7, 2, 262a <subband_aec_block+0x192>
    2615:	11f7f0        	slli	a15, a7, 1
    2618:	904840        	addx2	a4, a8, a4
    261b:	c044f0        	sub	a4, a4, a15
    261e:	fcc442        	addi	a4, a4, -4
    2621:	058676        	loop	a6, 262a <subband_aec_block+0x192>
    2624:	448414        	ae_lp16x2f.iu	aep0, a4, 4
    2627:	050004        	ae_mulaafp24s.hh.ll	aeq0, aep0, aep0

0000262a <subband_aec_block+0x192>:
    262a:	3388           	l32i.n	a8, a3, 12
    262c:	090c           	movi.n	a9, 0
    262e:	3500b4        	ae_sraiq56	aeq0, aeq0, 2
    2631:	53a890        	max	a10, a8, a9
    2634:	fc247023be 	{ l32i	a11, a3, 8; ae_roundsq32asym	aeq0, aeq0 }
    2639:	f70a81        	l32r	a8, 264 (bfa4 <airoha_divide_limit_1>)
    263c:	368404        	ae_trunca32q48	a4, aeq0
    263f:	0008e0        	callx8	a8
    2642:	ffa082        	movi	a8, 255
    2645:	049292        	l16si	a9, a2, 8
    2648:	2403f2        	l8ui	a15, a3, 36
    264b:	7fd882        	addmi	a8, a8, 0x7f00
    264e:	31a0a0        	srai	a10, a10, 16
    2651:	c088a0        	sub	a8, a8, a10
    2654:	538890        	max	a8, a8, a9
    2657:	05ef17        	bbsi	a15, 1, 2660 <subband_aec_block+0x1c8>
    265a:	105382        	s16i	a8, a3, 32
    265d:	000706        	j	267d <subband_aec_block+0x1e5>

00002660 <subband_aec_block+0x1c8>:
    2660:	039292        	l16si	a9, a2, 6
    2663:	02ad           	mov.n	a10, a2
    2665:	03bd           	mov.n	a11, a3
    2667:	828890        	mull	a8, a8, a9
    266a:	04cd           	mov.n	a12, a4
    266c:	40d882        	addmi	a8, a8, 0x4000
    266f:	418f80        	srli	a8, a8, 15
    2672:	105382        	s16i	a8, a3, 32
    2675:	f6fc81        	l32r	a8, 268 (27b8 <ref_gain_adapt>)
    2678:	05dd           	mov.n	a13, a5
    267a:	0008e0        	callx8	a8
    267d:	059282        	l16si	a8, a2, 10
    2680:	0692a2        	l16si	a10, a2, 12
    2683:	290c           	movi.n	a9, 2
    2685:	118800        	slli	a8, a8, 16
    2688:	53a847        	bge	a8, a4, 26df <subband_aec_block+0x247>
    268b:	129382        	l16si	a8, a3, 36
    268e:	11fa00        	slli	a15, a10, 16
    2691:	f6f6b1        	l32r	a11, 26c (f210 <immediate_num>)
    2694:	208890        	or	a8, a8, a9
    2697:	125382        	s16i	a8, a3, 36
    269a:	0eaf47        	bge	a15, a4, 26ac <subband_aec_block+0x214>
    269d:	f6f341        	l32r	a4, 26c (f210 <immediate_num>)
    26a0:	18c442        	addi	a4, a4, 24
    26a3:	400404        	ae_lp16f.i	aep0, a4, 0
    26a6:	0b27e6        	bgei	a7, 2, 26b5 <subband_aec_block+0x21d>
    26a9:	000c86        	j	26df <subband_aec_block+0x247>

000026ac <subband_aec_block+0x214>:
    26ac:	18cb42        	addi	a4, a11, 24
    26af:	400414        	ae_lp16f.i	aep0, a4, 2
    26b2:	2927a6        	blti	a7, 2, 26df <subband_aec_block+0x247>
    26b5:	b348           	l32i.n	a4, a3, 44
    26b7:	119382        	l16si	a8, a3, 34
    26ba:	607070        	neg	a7, a7
    26bd:	904840        	addx2	a4, a8, a4
    26c0:	904740        	addx2	a4, a7, a4
    26c3:	441404        	ae_lp16x2f.i	aep1, a4, 0
    26c6:	fec472        	addi	a7, a4, -2
    26c9:	128676        	loop	a6, 26df <subband_aec_block+0x247>
    26cc:	011054        	ae_mulfp24s.hl	aeq0, aep1, aep0
    26cf:	ea05ed941f 	{ ae_lp16x2f.iu	aep1, a4, 4; ae_mulfp24s.ll	aeq1, aep1, aep0 }
    26d4:	1b8f24        	ae_roundsp16q48asym	aep2, aeq0
    26d7:	fb6bf2a71f 	{ ae_sp16f.l.iu	aep2, a7, 2; ae_roundsp16q48asym	aep7, aeq1 }
    26dc:	42f714        	ae_sp16f.l.iu	aep7, a7, 2

000026df <subband_aec_block+0x247>:
    26df:	129342        	l16si	a4, a3, 36
    26e2:	03d262        	addmi	a6, a2, 0x300
    26e5:	21c8           	l32i.n	a12, a1, 8
    26e7:	3ee407        	bbsi	a4, 0, 2729 <subband_aec_block+0x291>
    26ea:	5d6427        	bbci	a4, 2, 274b <subband_aec_block+0x2b3>
    26ed:	03d272        	addmi	a7, a2, 0x300
    26f0:	4e1762        	l16ui	a6, a7, 156
    26f3:	00f5d6        	bgez	a5, 2706 <subband_aec_block+0x26e>
    26f6:	2158           	l32i.n	a5, a1, 8
    26f8:	ffa582        	movi	a8, 0x5ff
    26fb:	071566        	bnei	a5, 1, 2706 <subband_aec_block+0x26e>
    26fe:	0c3867        	bltu	a8, a6, 270e <subband_aec_block+0x276>
    2701:	661b           	addi.n	a6, a6, 1
    2703:	4e5762        	s16i	a6, a7, 156

00002706 <subband_aec_block+0x26e>:
    2706:	965d           	ae_zext16	a5, a6
    2708:	00a6f2        	movi	a15, 0x600
    270b:	0935f7        	bltu	a5, a15, 2718 <subband_aec_block+0x280>
    270e:	944d           	ae_zext16	a4, a4
    2710:	250c           	movi.n	a5, 2
    2712:	204450        	or	a4, a4, a5
    2715:	125342        	s16i	a4, a3, 36
    2718:	03d242        	addmi	a4, a2, 0x300
    271b:	4b1442        	l16ui	a4, a4, 150
    271e:	f6d651        	l32r	a5, 278 (2990 <aec_post_calc_FB_sb>)
    2721:	1c1466        	bnei	a4, 1, 2741 <subband_aec_block+0x2a9>
    2724:	054d           	mov.n	a4, a5
    2726:	000686        	j	2744 <subband_aec_block+0x2ac>

00002729 <subband_aec_block+0x291>:
    2729:	4b1642        	l16ui	a4, a6, 150
    272c:	02ad           	mov.n	a10, a2
    272e:	03bd           	mov.n	a11, a3
    2730:	051466        	bnei	a4, 1, 2739 <subband_aec_block+0x2a1>
    2733:	f6cf41        	l32r	a4, 270 (2850 <aec_post_calc_sb>)
    2736:	000286        	j	2744 <subband_aec_block+0x2ac>

00002739 <subband_aec_block+0x2a1>:
    2739:	f6ce41        	l32r	a4, 274 (28ec <aec_post_calc>)
    273c:	0004e0        	callx8	a4
    273f:	f01d           	retw.n

00002741 <subband_aec_block+0x2a9>:
    2741:	f6ce41        	l32r	a4, 27c (2a10 <aec_post_calc_FB>)
    2744:	02ad           	mov.n	a10, a2
    2746:	03bd           	mov.n	a11, a3
    2748:	0004e0        	callx8	a4
    274b:	f01d           	retw.n

0000274d <subband_aec_block+0x2b5>:
    274d:	000000                                        ...

00002750 <common_x_pow>:
    2750:	004136        	entry	a1, 32
    2753:	360334        	ae_cvtq48a32s	aeq0, a3
    2756:	fe00bec47f 	{ ae_cvtq48a32s	aeq1, a4; ae_absq56	aeq2, aeq0 }
    275b:	ff0480005f 	{ movi	a5, 0; ae_absq56	aeq3, aeq1 }
    2760:	d6d80001ff 	{ movi	a15, 1; ae_ltq56s	b0, aeq2, aeq3 }
    2765:	023d           	mov.n	a3, a2
    2767:	120c           	movi.n	a2, 1
    2769:	d35f00        	movt	a5, a15, b0
    276c:	65ac           	beqz.n	a5, 2796 <common_x_pow+0x46>
    276e:	f9bac0004f 	{ movi	a4, 0; ae_subq56	aeq1, aeq3, aeq2 }
    2773:	0122b0        	slli	a2, a2, 21
    2776:	36c234        	ae_cvtq48a32s	aeq3, a2
    2779:	d6cc0001ff 	{ movi	a15, 1; ae_ltq56s	b0, aeq3, aeq1 }
    277e:	120c           	movi.n	a2, 1
    2780:	f6c051        	l32r	a5, 280 (2aaa00 <_end+0x29b460>)
    2783:	fd04564f0f 	{ movt	a4, a15, b0; ae_movq56	aeq1, aeq0 }
    2788:	c48c           	beqz.n	a4, 2798 <common_x_pow+0x48>
    278a:	398554        	ae_movpa24x2	aep0, a5, a5
    278d:	030a14        	ae_mulfq32sp16s.l	aeq1, aeq0, aep0
    2790:	065934        	ae_roundsq32asym	aeq1, aeq1
    2793:	000046        	j	2798 <common_x_pow+0x48>

00002796 <common_x_pow+0x46>:
    2796:	020c           	movi.n	a2, 0
    2798:	f6b541        	l32r	a4, 26c (f210 <immediate_num>)
    279b:	608324        	ae_lq32f.i	aeq2, a3, 8
    279e:	60c334        	ae_lq32f.i	aeq3, a3, 12
    27a1:	440404        	ae_lp16x2f.i	aep0, a4, 0
    27a4:	c10084        	ae_mulzaafq32sp16s.lh	aeq0, aeq2, aep0, aeq0, aep0
    27a7:	c108d4        	ae_mulzaafq32sp16s.lh	aeq1, aeq3, aep0, aeq1, aep0
    27aa:	060934        	ae_roundsq32asym	aeq0, aeq0
    27ad:	fd2c79832f 	{ ae_sq32f.i	aeq0, a3, 8; ae_roundsq32asym	aeq1, aeq1 }
    27b2:	621334        	ae_sq32f.i	aeq1, a3, 12
    27b5:	f01d           	retw.n

000027b7 <common_x_pow+0x67>:
	...

000027b8 <ref_gain_adapt>:
    27b8:	004136        	entry	a1, 32
    27bb:	5378           	l32i.n	a7, a3, 20
    27bd:	f6ab61        	l32r	a6, 26c (f210 <immediate_num>)
    27c0:	360734        	ae_cvtq48a32s	aeq0, a7
    27c3:	03b5d6        	bgez	a5, 2802 <ref_gain_adapt+0x4a>
    27c6:	059252        	l16si	a5, a2, 10
    27c9:	440614        	ae_lp16x2f.i	aep0, a6, 4
    27cc:	364434        	ae_cvtq48a32s	aeq1, a4
    27cf:	11d500        	slli	a13, a5, 16
    27d2:	d5637ecdbf 	{ ae_cvtq48a32s	aeq2, a13; ae_mulfq32sp16s.h	aeq3, aeq1, aep0 }
    27d7:	0e0c           	movi.n	a14, 0
    27d9:	d6d80001ff 	{ movi	a15, 1; ae_ltq56s	b0, aeq2, aeq3 }
    27de:	040c           	movi.n	a4, 0
    27e0:	150c           	movi.n	a5, 1
    27e2:	d3ef00        	movt	a14, a15, b0
    27e5:	0edc           	bnez.n	a14, 27f9 <ref_gain_adapt+0x41>
    27e7:	440624        	ae_lp16x2f.i	aep0, a6, 8
    27ea:	d56340007f 	{ movi	a7, 0; ae_mulfq32sp16s.h	aeq3, aeq1, aep0 }
    27ef:	d6d800018f 	{ movi	a8, 1; ae_ltq56s	b0, aeq2, aeq3 }
    27f4:	d34500        	movt	a4, a5, b0
    27f7:	24ac           	beqz.n	a4, 281d <ref_gain_adapt+0x65>

000027f9 <ref_gain_adapt+0x41>:
    27f9:	a10004        	ae_mulzaafq32sp16s.ll	aeq0, aeq0, aep0, aeq0, aep0
    27fc:	060934        	ae_roundsq32asym	aeq0, aeq0
    27ff:	368704        	ae_trunca32q48	a7, aeq0
    2802:	120c           	movi.n	a2, 1
    2804:	0122b0        	slli	a2, a2, 21
    2807:	532720        	max	a2, a7, a2
    280a:	5329           	s32i.n	a2, a3, 20
    280c:	604344        	ae_lq32f.i	aeq1, a3, 16
    280f:	440654        	ae_lp16x2f.i	aep0, a6, 20
    2812:	c10044        	ae_mulzaafq32sp16s.lh	aeq0, aeq1, aep0, aeq0, aep0
    2815:	060934        	ae_roundsq32asym	aeq0, aeq0
    2818:	620344        	ae_sq32f.i	aeq0, a3, 16
    281b:	f01d           	retw.n

0000281d <ref_gain_adapt+0x65>:
    281d:	440634        	ae_lp16x2f.i	aep0, a6, 12
    2820:	d76240004f 	{ movi	a4, 0; ae_mulfq32sp16s.h	aeq3, aeq2, aep0 }
    2825:	03d222        	addmi	a2, a2, 0x300
    2828:	d65c00015f 	{ movi	a5, 1; ae_ltq56s	b0, aeq1, aeq3 }
    282d:	038a94        	ae_mulfq32sp16s.l	aeq3, aeq2, aep0
    2830:	760222        	l8ui	a2, a2, 118
    2833:	d6cc16780f 	{ movt	a7, a8, b0; ae_ltq56s	b0, aeq3, aeq1 }
    2838:	fc0716        	beqz	a7, 27fc <ref_gain_adapt+0x44>
    283b:	370c           	movi.n	a7, 3
    283d:	d34500        	movt	a4, a5, b0
    2840:	14cc           	bnez.n	a4, 2845 <ref_gain_adapt+0x8d>
    2842:	b60727        	bnone	a7, a2, 27fc <ref_gain_adapt+0x44>
    2845:	440644        	ae_lp16x2f.i	aep0, a6, 16
    2848:	030214        	ae_mulfq32sp16s.l	aeq0, aeq0, aep0
    284b:	ffeb46        	j	27fc <ref_gain_adapt+0x44>

0000284e <ref_gain_adapt+0x96>:
	...

00002850 <aec_post_calc_sb>:
    2850:	006136        	entry	a1, 48
    2853:	150c           	movi.n	a5, 1
    2855:	00a142        	movi	a4, 0x100
    2858:	0155d0        	slli	a5, a5, 19
    285b:	170c           	movi.n	a7, 1
    285d:	300444        	ae_cvtp24a16x2.ll	aep0, a4, a4
    2860:	360534        	ae_cvtq48a32s	aeq0, a5
    2863:	117700        	slli	a7, a7, 16
    2866:	d4e2bec7ff 	{ ae_cvtq48a32s	aeq3, a7; ae_mulfq32sp16u.l	aeq0, aeq0, aep0 }
    286b:	23c8           	l32i.n	a12, a3, 8
    286d:	d6e3b9813f 	{ ae_sq32f.i	aeq0, a1, 12; ae_mulfq32sp16u.l	aeq0, aeq3, aep0 }
    2872:	31e8           	l32i.n	a14, a1, 12
    2874:	620134        	ae_sq32f.i	aeq0, a1, 12
    2877:	33d8           	l32i.n	a13, a3, 12
    2879:	3168           	l32i.n	a6, a1, 12
    287b:	53bce0        	max	a11, a12, a14
    287e:	f67941        	l32r	a4, 264 (bfa4 <airoha_divide_limit_1>)
    2881:	53fd60        	max	a15, a13, a6
    2884:	43abf0        	min	a10, a11, a15
    2887:	0004e0        	callx8	a4
    288a:	600364        	ae_lq32f.i	aeq0, a3, 24
    288d:	4c0244        	ae_lp24.i	aep0, a2, 16
    2890:	379aa4        	ae_truncp24a32x2	aep1, a10, a10
    2893:	e207a1c34e 	{ l16si	a4, a3, 56; ae_mulafp24s.ll	aeq0, aep1, aep0 }
    2898:	f966a0225e 	{ l16si	a5, a2, 4; ae_movp48	aep2, aep1 }
    289d:	fc2461a37e 	{ l16si	a7, a3, 52; ae_roundsq32asym	aeq0, aeq0 }
    28a2:	620364        	ae_sq32f.i	aeq0, a3, 24
    28a5:	18a547        	bge	a5, a4, 28c1 <aec_post_calc_sb+0x71>
    28a8:	0a9222        	l16si	a2, a2, 20
    28ab:	1b9342        	l16si	a4, a3, 54
    28ae:	050c           	movi.n	a5, 0
    28b0:	622b           	addi.n	a6, a2, 2
    28b2:	724540        	salt	a4, a5, a4
    28b5:	836240        	moveqz	a6, a2, a4
    28b8:	031664        	wur.ae_sar	a6
    28bb:	0b10a4        	ae_sllssp24s	aep2, aep1
    28be:	000506        	j	28d6 <aec_post_calc_sb+0x86>

000028c1 <aec_post_calc_sb+0x71>:
    28c1:	072d           	mov.n	a2, a7
    28c3:	0f27a6        	blti	a7, 2, 28d6 <aec_post_calc_sb+0x86>
    28c6:	922d           	ae_zext16	a2, a2
    28c8:	f9668ff22e 	{ addi	a2, a2, -1; ae_movp48	aep2, aep1 }
    28cd:	058276        	loop	a2, 28d6 <aec_post_calc_sb+0x86>
    28d0:	012174        	ae_mulfp24s.ll	aeq0, aep2, aep1
    28d3:	1b8d24        	ae_roundsp24q48asym	aep2, aeq0

000028d6 <aec_post_calc_sb+0x86>:
    28d6:	30c322        	addi	a2, a3, 48
    28d9:	401204        	ae_lp16f.i	aep1, a2, 0
    28dc:	d82a7d037f 	{ ae_lq32f.i	aeq0, a3, 28; ae_maxp24s	aep1, aep2, aep1 }
    28e1:	011034        	ae_mulafp24s.ll	aeq0, aep1, aep0
    28e4:	060934        	ae_roundsq32asym	aeq0, aeq0
    28e7:	620374        	ae_sq32f.i	aeq0, a3, 28
    28ea:	f01d           	retw.n

000028ec <aec_post_calc>:
    28ec:	006136        	entry	a1, 48
    28ef:	054466        	bnei	a4, 4, 28f8 <aec_post_calc+0xc>
    28f2:	20c242        	addi	a4, a2, 32
    28f5:	000086        	j	28fb <aec_post_calc+0xf>

000028f8 <aec_post_calc+0xc>:
    28f8:	1ec242        	addi	a4, a2, 30
    28fb:	150c           	movi.n	a5, 1
    28fd:	0155d0        	slli	a5, a5, 19
    2900:	400404        	ae_lp16f.i	aep0, a4, 0
    2903:	360534        	ae_cvtq48a32s	aeq0, a5
    2906:	1d0c           	movi.n	a13, 1
    2908:	115d00        	slli	a5, a13, 16
    290b:	d4e2bec5ff 	{ ae_cvtq48a32s	aeq3, a5; ae_mulfq32sp16u.l	aeq0, aeq0, aep0 }
    2910:	23c8           	l32i.n	a12, a3, 8
    2912:	d6e3b9813f 	{ ae_sq32f.i	aeq0, a1, 12; ae_mulfq32sp16u.l	aeq0, aeq3, aep0 }
    2917:	3178           	l32i.n	a7, a1, 12
    2919:	33e8           	l32i.n	a14, a3, 12
    291b:	620134        	ae_sq32f.i	aeq0, a1, 12
    291e:	3168           	l32i.n	a6, a1, 12
    2920:	53bc70        	max	a11, a12, a7
    2923:	f65041        	l32r	a4, 264 (bfa4 <airoha_divide_limit_1>)
    2926:	53fe60        	max	a15, a14, a6
    2929:	43abf0        	min	a10, a11, a15
    292c:	0004e0        	callx8	a4
    292f:	600364        	ae_lq32f.i	aeq0, a3, 24
    2932:	4c0244        	ae_lp24.i	aep0, a2, 16
    2935:	379aa4        	ae_truncp24a32x2	aep1, a10, a10
    2938:	e207a1724e 	{ l16si	a4, a2, 46; ae_mulafp24s.ll	aeq0, aep1, aep0 }
    293d:	f966a0225e 	{ l16si	a5, a2, 4; ae_movp48	aep2, aep1 }
    2942:	fc2460b27e 	{ l16si	a7, a2, 22; ae_roundsq32asym	aeq0, aeq0 }
    2947:	620364        	ae_sq32f.i	aeq0, a3, 24
    294a:	18a547        	bge	a5, a4, 2966 <aec_post_calc+0x7a>
    294d:	0a9242        	l16si	a4, a2, 20
    2950:	169252        	l16si	a5, a2, 44
    2953:	060c           	movi.n	a6, 0
    2955:	742b           	addi.n	a7, a4, 2
    2957:	725650        	salt	a5, a6, a5
    295a:	837450        	moveqz	a7, a4, a5
    295d:	031674        	wur.ae_sar	a7
    2960:	0b10a4        	ae_sllssp24s	aep2, aep1
    2963:	000506        	j	297b <aec_post_calc+0x8f>

00002966 <aec_post_calc+0x7a>:
    2966:	074d           	mov.n	a4, a7
    2968:	0f27a6        	blti	a7, 2, 297b <aec_post_calc+0x8f>
    296b:	944d           	ae_zext16	a4, a4
    296d:	f9668ff44e 	{ addi	a4, a4, -1; ae_movp48	aep2, aep1 }
    2972:	058476        	loop	a4, 297b <aec_post_calc+0x8f>
    2975:	012174        	ae_mulfp24s.ll	aeq0, aep2, aep1
    2978:	1b8d24        	ae_roundsp24q48asym	aep2, aeq0

0000297b <aec_post_calc+0x8f>:
    297b:	401274        	ae_lp16f.i	aep1, a2, 14
    297e:	d82a7d037f 	{ ae_lq32f.i	aeq0, a3, 28; ae_maxp24s	aep1, aep2, aep1 }
    2983:	011034        	ae_mulafp24s.ll	aeq0, aep1, aep0
    2986:	060934        	ae_roundsq32asym	aeq0, aeq0
    2989:	620374        	ae_sq32f.i	aeq0, a3, 28
    298c:	f01d           	retw.n

0000298e <aec_post_calc+0xa2>:
	...

00002990 <aec_post_calc_FB_sb>:
    2990:	004136        	entry	a1, 32
    2993:	2348           	l32i.n	a4, a3, 8
    2995:	3368           	l32i.n	a6, a3, 12
    2997:	150c           	movi.n	a5, 1
    2999:	115540        	slli	a5, a5, 12
    299c:	00a2f2        	movi	a15, 0x200
    299f:	53b450        	max	a11, a4, a5
    29a2:	5346f0        	max	a4, a6, a15
    29a5:	43ab40        	min	a10, a11, a4
    29a8:	f62f41        	l32r	a4, 264 (bfa4 <airoha_divide_limit_1>)
    29ab:	0004e0        	callx8	a4
    29ae:	600364        	ae_lq32f.i	aeq0, a3, 24
    29b1:	4c0244        	ae_lp24.i	aep0, a2, 16
    29b4:	379aa4        	ae_truncp24a32x2	aep1, a10, a10
    29b7:	e207a1c34e 	{ l16si	a4, a3, 56; ae_mulafp24s.ll	aeq0, aep1, aep0 }
    29bc:	f966a0225e 	{ l16si	a5, a2, 4; ae_movp48	aep2, aep1 }
    29c1:	fc2461a37e 	{ l16si	a7, a3, 52; ae_roundsq32asym	aeq0, aeq0 }
    29c6:	620364        	ae_sq32f.i	aeq0, a3, 24
    29c9:	18a547        	bge	a5, a4, 29e5 <aec_post_calc_FB_sb+0x55>
    29cc:	0a9222        	l16si	a2, a2, 20
    29cf:	1b9342        	l16si	a4, a3, 54
    29d2:	050c           	movi.n	a5, 0
    29d4:	622b           	addi.n	a6, a2, 2
    29d6:	724540        	salt	a4, a5, a4
    29d9:	836240        	moveqz	a6, a2, a4
    29dc:	031664        	wur.ae_sar	a6
    29df:	0b10a4        	ae_sllssp24s	aep2, aep1
    29e2:	000506        	j	29fa <aec_post_calc_FB_sb+0x6a>

000029e5 <aec_post_calc_FB_sb+0x55>:
    29e5:	072d           	mov.n	a2, a7
    29e7:	0f27a6        	blti	a7, 2, 29fa <aec_post_calc_FB_sb+0x6a>
    29ea:	922d           	ae_zext16	a2, a2
    29ec:	f9668ff22e 	{ addi	a2, a2, -1; ae_movp48	aep2, aep1 }
    29f1:	058276        	loop	a2, 29fa <aec_post_calc_FB_sb+0x6a>
    29f4:	012174        	ae_mulfp24s.ll	aeq0, aep2, aep1
    29f7:	1b8d24        	ae_roundsp24q48asym	aep2, aeq0

000029fa <aec_post_calc_FB_sb+0x6a>:
    29fa:	30c322        	addi	a2, a3, 48
    29fd:	401204        	ae_lp16f.i	aep1, a2, 0
    2a00:	d82a7d037f 	{ ae_lq32f.i	aeq0, a3, 28; ae_maxp24s	aep1, aep2, aep1 }
    2a05:	011034        	ae_mulafp24s.ll	aeq0, aep1, aep0
    2a08:	060934        	ae_roundsq32asym	aeq0, aeq0
    2a0b:	620374        	ae_sq32f.i	aeq0, a3, 28
    2a0e:	f01d           	retw.n

00002a10 <aec_post_calc_FB>:
    2a10:	004136        	entry	a1, 32
    2a13:	2348           	l32i.n	a4, a3, 8
    2a15:	3368           	l32i.n	a6, a3, 12
    2a17:	150c           	movi.n	a5, 1
    2a19:	115540        	slli	a5, a5, 12
    2a1c:	00a2f2        	movi	a15, 0x200
    2a1f:	53b450        	max	a11, a4, a5
    2a22:	5346f0        	max	a4, a6, a15
    2a25:	43ab40        	min	a10, a11, a4
    2a28:	f60f41        	l32r	a4, 264 (bfa4 <airoha_divide_limit_1>)
    2a2b:	0004e0        	callx8	a4
    2a2e:	600364        	ae_lq32f.i	aeq0, a3, 24
    2a31:	4c0244        	ae_lp24.i	aep0, a2, 16
    2a34:	379aa4        	ae_truncp24a32x2	aep1, a10, a10
    2a37:	e207a1c24e 	{ l16si	a4, a2, 56; ae_mulafp24s.ll	aeq0, aep1, aep0 }
    2a3c:	f966a0225e 	{ l16si	a5, a2, 4; ae_movp48	aep2, aep1 }
    2a41:	fc2460b27e 	{ l16si	a7, a2, 22; ae_roundsq32asym	aeq0, aeq0 }
    2a46:	620364        	ae_sq32f.i	aeq0, a3, 24
    2a49:	18a547        	bge	a5, a4, 2a65 <aec_post_calc_FB+0x55>
    2a4c:	0a9242        	l16si	a4, a2, 20
    2a4f:	1d9252        	l16si	a5, a2, 58
    2a52:	060c           	movi.n	a6, 0
    2a54:	742b           	addi.n	a7, a4, 2
    2a56:	725650        	salt	a5, a6, a5
    2a59:	837450        	moveqz	a7, a4, a5
    2a5c:	031674        	wur.ae_sar	a7
    2a5f:	0b10a4        	ae_sllssp24s	aep2, aep1
    2a62:	000506        	j	2a7a <aec_post_calc_FB+0x6a>

00002a65 <aec_post_calc_FB+0x55>:
    2a65:	074d           	mov.n	a4, a7
    2a67:	0f27a6        	blti	a7, 2, 2a7a <aec_post_calc_FB+0x6a>
    2a6a:	944d           	ae_zext16	a4, a4
    2a6c:	f9668ff44e 	{ addi	a4, a4, -1; ae_movp48	aep2, aep1 }
    2a71:	058476        	loop	a4, 2a7a <aec_post_calc_FB+0x6a>
    2a74:	012174        	ae_mulfp24s.ll	aeq0, aep2, aep1
    2a77:	1b8d24        	ae_roundsp24q48asym	aep2, aeq0

00002a7a <aec_post_calc_FB+0x6a>:
    2a7a:	32c222        	addi	a2, a2, 50
    2a7d:	401204        	ae_lp16f.i	aep1, a2, 0
    2a80:	d82a7d037f 	{ ae_lq32f.i	aeq0, a3, 28; ae_maxp24s	aep1, aep2, aep1 }
    2a85:	011034        	ae_mulafp24s.ll	aeq0, aep1, aep0
    2a88:	060934        	ae_roundsq32asym	aeq0, aeq0
    2a8b:	620374        	ae_sq32f.i	aeq0, a3, 28
    2a8e:	f01d           	retw.n

00002a90 <subband_aec_mid_channel>:
    2a90:	006136        	entry	a1, 48
    2a93:	a3e8           	l32i.n	a14, a3, 40
    2a95:	fd24a1137e 	{ l16si	a7, a3, 34; ae_zeroq56	aeq1 }
    2a9a:	2159           	s32i.n	a5, a1, 8
    2a9c:	a398           	l32i.n	a9, a3, 40
    2a9e:	122352        	l32i	a5, a3, 72
    2aa1:	e222f2        	l32i	a15, a2, 0x388
    2aa4:	f3f690        	wur.ae_cbegin0	a9
    2aa7:	102392        	l32i	a9, a3, 64
    2aaa:	a077e0        	addx4	a7, a7, a14
    2aad:	a80c           	movi.n	a8, 10
    2aaf:	f3f770        	wur.ae_cend0	a7
    2ab2:	460c           	movi.n	a6, 4
    2ab4:	600344        	ae_lq32f.i	aeq0, a3, 16
    2ab7:	440504        	ae_lp16x2f.i	aep0, a5, 0
    2aba:	fccf72        	addi	a7, a15, -4
    2abd:	198876        	loop	a8, 2ada <subband_aec_mid_channel+0x4a>
    2ac0:	09001aa96f 	{ ae_lp16x2f.c	aep2, a9, a6; ae_mulzaafq32sp16s.hh	aeq2, aeq0, aep0, aeq0, aep0 }
    2ac5:	11006d851f 	{ ae_lp16x2f.iu	aep0, a5, 4; ae_mulzaafq32sp16s.ll	aeq3, aeq0, aep0, aeq0, aep0 }
    2aca:	1baf74        	ae_roundsp16q48asym	aep7, aeq2
    2acd:	1bbf14        	ae_roundsp16q48asym	aep1, aeq3
    2ad0:	f04a7e715f 	{ ae_selp24.hl	aep1, aep7, aep1; ae_mulssfp24s.hh.ll	aeq1, aep2, aep2 }
    2ad5:	e22473971f 	{ ae_sp16x2f.iu	aep1, a7, 4; ae_mulaafp24s.hh.ll	aeq1, aep1, aep1 }

00002ada <subband_aec_mid_channel+0x4a>:
    2ada:	9258           	l32i.n	a5, a2, 36
    2adc:	3511b4        	ae_sraiq56	aeq0, aeq1, 6
    2adf:	618304        	ae_lq56.i	aeq2, a3, 0
    2ae2:	f87214113f 	{ s32i.n	a3, a1, 4; ae_addq56	aeq0, aeq2, aeq0 }
    2ae7:	1155e0        	slli	a5, a5, 2
    2aea:	fc00fec5ff 	{ ae_cvtq48a32s	aeq3, a5; ae_satq48s	aeq0, aeq0 }
    2aef:	f87b21036e 	{ l16si	a6, a3, 32; ae_maxq56s	aeq0, aeq0, aeq3 }
    2af4:	630304        	ae_sq56s.i	aeq0, a3, 0
    2af7:	00d4d6        	bgez	a4, 2b08 <subband_aec_mid_channel+0x78>
    2afa:	368b04        	ae_trunca32q48	a11, aeq0
    2afd:	11a650        	slli	a10, a6, 11
    2b00:	f5d731        	l32r	a3, 25c (be9c <airoha_divide>)
    2b03:	0003e0        	callx8	a3
    2b06:	1138           	l32i.n	a3, a1, 4

00002b08 <subband_aec_mid_channel+0x78>:
    2b08:	1123c2        	l32i	a12, a3, 68
    2b0b:	e222e2        	l32i	a14, a2, 0x388
    2b0e:	132382        	l32i	a8, a3, 76
    2b11:	b358           	l32i.n	a5, a3, 44
    2b13:	102362        	l32i	a6, a3, 64
    2b16:	119372        	l16si	a7, a3, 34
    2b19:	360b34        	ae_cvtq48a32s	aeq0, a11
    2b1c:	3129           	s32i.n	a2, a1, 12
    2b1e:	a90c           	movi.n	a9, 10
    2b20:	4b0c           	movi.n	a11, 4
    2b22:	fcccc2        	addi	a12, a12, -4
    2b25:	fec8d2        	addi	a13, a8, -2
    2b28:	fccee2        	addi	a14, a14, -4
    2b2b:	fec532        	addi	a3, a5, -2
    2b2e:	448e14        	ae_lp16x2f.iu	aep0, a14, 4
    2b31:	fc24e406bf 	{ ae_sp16x2f.c	aep0, a6, a11; nop }
    2b36:	448c14        	ae_lp16x2f.iu	aep0, a12, 4
    2b39:	fe0413855f 	{ or	a8, a5, a5; ae_cvtq48p24s.h	aeq2, aep0 }
    2b3e:	0a4084        	ae_cvtq48p24s.l	aeq1, aep0
    2b41:	1217a6        	blti	a7, 1, 2b57 <subband_aec_mid_channel+0xc7>
    2b44:	440504        	ae_lp16x2f.i	aep0, a5, 0
    2b47:	0c8776        	loop	a7, 2b57 <subband_aec_mid_channel+0xc7>
    2b4a:	fc24da96bf 	{ ae_lp16x2f.c	aep1, a6, a11; nop }
    2b4f:	0581c4        	ae_mulssfp24s.hh.ll	aeq2, aep0, aep1
    2b52:	ee206d881f 	{ ae_lp16x2f.iu	aep0, a8, 4; ae_mulsafp24s.hl.lh	aeq1, aep0, aep1 }

00002b57 <subband_aec_mid_channel+0xc7>:
    2b57:	1baf04        	ae_roundsp16q48asym	aep0, aeq2
    2b5a:	f86bf28d1f 	{ ae_sp16f.l.iu	aep0, a13, 2; ae_roundsp16q48asym	aep1, aeq1 }
    2b5f:	d4e2729d1f 	{ ae_sp16f.l.iu	aep1, a13, 2; ae_mulfq32sp16s.l	aeq1, aeq0, aep0 }
    2b64:	0364d6        	bgez	a4, 2b9e <subband_aec_mid_channel+0x10e>
    2b67:	d5e63e9a4f 	{ ae_slaasq56s	aeq1, aeq1, a10; ae_mulfq32sp16s.l	aeq2, aeq0, aep1 }
    2b6c:	03fd           	mov.n	a15, a3
    2b6e:	f86fbeaa8f 	{ ae_slaasq56s	aeq2, aeq2, a10; ae_roundsp24q48asym	aep0, aeq1 }
    2b73:	f877d3855f 	{ or	a8, a5, a5; ae_roundsp24q48asym	aep1, aeq2 }
    2b78:	2217a6        	blti	a7, 1, 2b9e <subband_aec_mid_channel+0x10e>
    2b7b:	dc20ad150f 	{ ae_lp16x2f.i	aep1, a5, 0; ae_selp24.hl	aep0, aep0, aep1 }
    2b80:	1a8776        	loop	a7, 2b9e <subband_aec_mid_channel+0x10e>
    2b83:	fd241aa6bf 	{ ae_lp16x2f.c	aep2, a6, a11; ae_cvtq48p24s.h	aeq1, aep1 }
    2b88:	fe2c2d981f 	{ ae_lp16x2f.iu	aep1, a8, 4; ae_cvtq48p24s.l	aeq2, aep1 }
    2b8d:	050a04        	ae_mulaafp24s.hh.ll	aeq1, aep0, aep2
    2b90:	058254        	ae_mulasfp24s.hl.lh	aeq2, aep0, aep2
    2b93:	1b9f64        	ae_roundsp16q48asym	aep6, aeq1
    2b96:	fb73f2ef1f 	{ ae_sp16f.l.iu	aep6, a15, 2; ae_roundsp16q48asym	aep7, aeq2 }
    2b9b:	42ff14        	ae_sp16f.l.iu	aep7, a15, 2
    2b9e:	990b           	addi.n	a9, a9, -1
    2ba0:	f8a956        	bnez	a9, 2b2e <subband_aec_mid_channel+0x9e>
    2ba3:	fd24b0112e 	{ l32i	a2, a1, 4; ae_zeroq56	aeq1 }
    2ba8:	a30c           	movi.n	a3, 10
    2baa:	106262        	s32i	a6, a2, 64
    2bad:	fe24b1126e 	{ l32i	a6, a2, 68; ae_zeroq56	aeq2 }
    2bb2:	fc0c71322e 	{ l32i	a2, a2, 76; ae_movq56	aeq0, aeq1 }
    2bb7:	440604        	ae_lp16x2f.i	aep0, a6, 0
    2bba:	441204        	ae_lp16x2f.i	aep1, a2, 0
    2bbd:	0c8376        	loop	a3, 2bcd <subband_aec_mid_channel+0x13d>
    2bc0:	058104        	ae_mulaafp24s.hh.ll	aeq2, aep0, aep1
    2bc3:	ea202d921f 	{ ae_lp16x2f.iu	aep1, a2, 4; ae_mulasfp24s.hl.lh	aeq0, aep0, aep1 }
    2bc8:	e2006d861f 	{ ae_lp16x2f.iu	aep0, a6, 4; ae_mulaafp24s.hh.ll	aeq1, aep0, aep0 }

00002bcd <subband_aec_mid_channel+0x13d>:
    2bcd:	35a134        	ae_sraiq56	aeq2, aeq2, 4
    2bd0:	f877bb010f 	{ ae_sraiq56	aeq0, aeq0, 4; ae_roundsp24q48asym	aep0, aeq2 }
    2bd5:	f867fb114f 	{ ae_sraiq56	aeq1, aeq1, 4; ae_roundsp24q48asym	aep1, aeq0 }
    2bda:	fd2c7e011f 	{ ae_selp24.hl	aep0, aep0, aep1; ae_roundsq32asym	aeq1, aeq1 }
    2bdf:	f1028000af 	{ movi	a10, 0; ae_mulzaafp24s.hh.ll	aeq2, aep0, aep0 }
    2be4:	f53921        	l32r	a2, c8 (9cc <HIFI_sqrt>)
    2be7:	ff347f16ef 	{ ae_trunca32q48	a6, aeq1; ae_roundsq32asym	aeq3, aeq2 }
    2bec:	36bb04        	ae_trunca32q48	a11, aeq3
    2bef:	0002e0        	callx8	a2
    2bf2:	360b34        	ae_cvtq48a32s	aeq0, a11
    2bf5:	fc24fe8a0f 	{ ae_slaasq56s	aeq0, aeq0, a10; nop }
    2bfa:	fc2470113e 	{ l32i	a3, a1, 4; ae_roundsq32asym	aeq0, aeq0 }
    2bff:	368c04        	ae_trunca32q48	a12, aeq0
    2c02:	f59721        	l32r	a2, 260 (2750 <common_x_pow>)
    2c05:	03ad           	mov.n	a10, a3
    2c07:	06bd           	mov.n	a11, a6
    2c09:	0002e0        	callx8	a2
    2c0c:	ca8c           	beqz.n	a10, 2c1c <subband_aec_mid_channel+0x18c>
    2c0e:	1323a2        	l32i	a10, a3, 76
    2c11:	1123b2        	l32i	a11, a3, 68
    2c14:	f55121        	l32r	a2, 158 (d6fc <xt_memcpy>)
    2c17:	4c1c           	movi.n	a12, 20
    2c19:	0002e0        	callx8	a2

00002c1c <subband_aec_mid_channel+0x18c>:
    2c1c:	fc24a1337e 	{ l16si	a7, a3, 38; ae_zeroq56	aeq0 }
    2c21:	036d           	mov.n	a6, a3
    2c23:	119622        	l16si	a2, a6, 34
    2c26:	1417a6        	blti	a7, 1, 2c3e <subband_aec_mid_channel+0x1ae>
    2c29:	0b2632        	l32i	a3, a6, 44
    2c2c:	c02270        	sub	a2, a2, a7
    2c2f:	a02230        	addx4	a2, a2, a3
    2c32:	fcc222        	addi	a2, a2, -4
    2c35:	058776        	loop	a7, 2c3e <subband_aec_mid_channel+0x1ae>
    2c38:	448214        	ae_lp16x2f.iu	aep0, a2, 4
    2c3b:	050004        	ae_mulaafp24s.hh.ll	aeq0, aep0, aep0

00002c3e <subband_aec_mid_channel+0x1ae>:
    2c3e:	3500b4        	ae_sraiq56	aeq0, aeq0, 2
    2c41:	fc247036ae 	{ l32i	a10, a6, 12; ae_roundsq32asym	aeq0, aeq0 }
    2c46:	26b8           	l32i.n	a11, a6, 8
    2c48:	f58721        	l32r	a2, 264 (bfa4 <airoha_divide_limit_1>)
    2c4b:	368604        	ae_trunca32q48	a6, aeq0
    2c4e:	0002e0        	callx8	a2
    2c51:	11b8           	l32i.n	a11, a1, 4
    2c53:	3198           	l32i.n	a9, a1, 12
    2c55:	ffa022        	movi	a2, 255
    2c58:	240bf2        	l8ui	a15, a11, 36
    2c5b:	049932        	l16si	a3, a9, 8
    2c5e:	7fd222        	addmi	a2, a2, 0x7f00
    2c61:	3180a0        	srai	a8, a10, 16
    2c64:	c02280        	sub	a2, a2, a8
    2c67:	532230        	max	a2, a2, a3
    2c6a:	05ef17        	bbsi	a15, 1, 2c73 <subband_aec_mid_channel+0x1e3>
    2c6d:	105b22        	s16i	a2, a11, 32
    2c70:	000786        	j	2c92 <subband_aec_mid_channel+0x202>

00002c73 <subband_aec_mid_channel+0x1e3>:
    2c73:	039932        	l16si	a3, a9, 6
    2c76:	09ad           	mov.n	a10, a9
    2c78:	06cd           	mov.n	a12, a6
    2c7a:	822230        	mull	a2, a2, a3
    2c7d:	04dd           	mov.n	a13, a4
    2c7f:	40d222        	addmi	a2, a2, 0x4000
    2c82:	412f20        	srli	a2, a2, 15
    2c85:	105b22        	s16i	a2, a11, 32
    2c88:	f57821        	l32r	a2, 268 (27b8 <ref_gain_adapt>)
    2c8b:	0002e0        	callx8	a2
    2c8e:	3198           	l32i.n	a9, a1, 12
    2c90:	11b8           	l32i.n	a11, a1, 4
    2c92:	059922        	l16si	a2, a9, 10
    2c95:	069982        	l16si	a8, a9, 12
    2c98:	f575f1        	l32r	a15, 26c (f210 <immediate_num>)
    2c9b:	112200        	slli	a2, a2, 16
    2c9e:	49a267        	bge	a2, a6, 2ceb <subband_aec_mid_channel+0x25b>
    2ca1:	129b22        	l16si	a2, a11, 36
    2ca4:	230c           	movi.n	a3, 2
    2ca6:	11e800        	slli	a14, a8, 16
    2ca9:	202230        	or	a2, a2, a3
    2cac:	125b22        	s16i	a2, a11, 36
    2caf:	18cf22        	addi	a2, a15, 24
    2cb2:	08ae67        	bge	a14, a6, 2cbe <subband_aec_mid_channel+0x22e>
    2cb5:	400204        	ae_lp16f.i	aep0, a2, 0
    2cb8:	0817e6        	bgei	a7, 1, 2cc4 <subband_aec_mid_channel+0x234>
    2cbb:	000b06        	j	2ceb <subband_aec_mid_channel+0x25b>

00002cbe <subband_aec_mid_channel+0x22e>:
    2cbe:	400214        	ae_lp16f.i	aep0, a2, 2
    2cc1:	2617a6        	blti	a7, 1, 2ceb <subband_aec_mid_channel+0x25b>
    2cc4:	119b22        	l16si	a2, a11, 34
    2cc7:	bb38           	l32i.n	a3, a11, 44
    2cc9:	c02270        	sub	a2, a2, a7
    2ccc:	a02230        	addx4	a2, a2, a3
    2ccf:	441204        	ae_lp16x2f.i	aep1, a2, 0
    2cd2:	fec232        	addi	a3, a2, -2
    2cd5:	128776        	loop	a7, 2ceb <subband_aec_mid_channel+0x25b>
    2cd8:	011054        	ae_mulfp24s.hl	aeq0, aep1, aep0
    2cdb:	ea05ed921f 	{ ae_lp16x2f.iu	aep1, a2, 4; ae_mulfp24s.ll	aeq1, aep1, aep0 }
    2ce0:	1b8f24        	ae_roundsp16q48asym	aep2, aeq0
    2ce3:	fb6bf2a31f 	{ ae_sp16f.l.iu	aep2, a3, 2; ae_roundsp16q48asym	aep7, aeq1 }
    2ce8:	42f314        	ae_sp16f.l.iu	aep7, a3, 2

00002ceb <subband_aec_mid_channel+0x25b>:
    2ceb:	129b62        	l16si	a6, a11, 36
    2cee:	03d922        	addmi	a2, a9, 0x300
    2cf1:	21c8           	l32i.n	a12, a1, 8
    2cf3:	3ee607        	bbsi	a6, 0, 2d35 <subband_aec_mid_channel+0x2a5>
    2cf6:	5b6627        	bbci	a6, 2, 2d55 <subband_aec_mid_channel+0x2c5>
    2cf9:	03d932        	addmi	a3, a9, 0x300
    2cfc:	4e1322        	l16ui	a2, a3, 156
    2cff:	00f4d6        	bgez	a4, 2d12 <subband_aec_mid_channel+0x282>
    2d02:	2148           	l32i.n	a4, a1, 8
    2d04:	ffa552        	movi	a5, 0x5ff
    2d07:	071466        	bnei	a4, 1, 2d12 <subband_aec_mid_channel+0x282>
    2d0a:	0c3527        	bltu	a5, a2, 2d1a <subband_aec_mid_channel+0x28a>
    2d0d:	221b           	addi.n	a2, a2, 1
    2d0f:	4e5322        	s16i	a2, a3, 156

00002d12 <subband_aec_mid_channel+0x282>:
    2d12:	922d           	ae_zext16	a2, a2
    2d14:	00a632        	movi	a3, 0x600
    2d17:	093237        	bltu	a2, a3, 2d24 <subband_aec_mid_channel+0x294>
    2d1a:	962d           	ae_zext16	a2, a6
    2d1c:	230c           	movi.n	a3, 2
    2d1e:	202230        	or	a2, a2, a3
    2d21:	125b22        	s16i	a2, a11, 36
    2d24:	03d922        	addmi	a2, a9, 0x300
    2d27:	4b1222        	l16ui	a2, a2, 150
    2d2a:	f55331        	l32r	a3, 278 (2990 <aec_post_calc_FB_sb>)
    2d2d:	1c1266        	bnei	a2, 1, 2d4d <subband_aec_mid_channel+0x2bd>
    2d30:	032d           	mov.n	a2, a3
    2d32:	000686        	j	2d50 <subband_aec_mid_channel+0x2c0>

00002d35 <subband_aec_mid_channel+0x2a5>:
    2d35:	4b1222        	l16ui	a2, a2, 150
    2d38:	09ad           	mov.n	a10, a9
    2d3a:	f54d31        	l32r	a3, 270 (2850 <aec_post_calc_sb>)
    2d3d:	041266        	bnei	a2, 1, 2d45 <subband_aec_mid_channel+0x2b5>
    2d40:	032d           	mov.n	a2, a3
    2d42:	000286        	j	2d50 <subband_aec_mid_channel+0x2c0>

00002d45 <subband_aec_mid_channel+0x2b5>:
    2d45:	f54b21        	l32r	a2, 274 (28ec <aec_post_calc>)
    2d48:	0002e0        	callx8	a2
    2d4b:	f01d           	retw.n

00002d4d <subband_aec_mid_channel+0x2bd>:
    2d4d:	f54b21        	l32r	a2, 27c (2a10 <aec_post_calc_FB>)
    2d50:	09ad           	mov.n	a10, a9
    2d52:	0002e0        	callx8	a2
    2d55:	f01d           	retw.n

00002d57 <subband_aec_mid_channel+0x2c7>:
	...

00002d58 <dt_detect>:
    2d58:	004136        	entry	a1, 32
    2d5b:	0c9252        	l16si	a5, a2, 24
    2d5e:	179242        	l16si	a4, a2, 46
    2d61:	189262        	l16si	a6, a2, 48
    2d64:	115500        	slli	a5, a5, 16
    2d67:	19a537        	bge	a5, a3, 2d84 <dt_detect+0x2c>
    2d6a:	154c           	movi.n	a5, 65
    2d6c:	142657        	blt	a6, a5, 2d84 <dt_detect+0x2c>
    2d6f:	169252        	l16si	a5, a2, 44
    2d72:	0e9232        	l16si	a3, a2, 28
    2d75:	442b           	addi.n	a4, a4, 2
    2d77:	554b           	addi.n	a5, a5, 4
    2d79:	435530        	min	a5, a5, a3
    2d7c:	165252        	s16i	a5, a2, 44
    2d7f:	855d           	ae_sext16	a5, a5
    2d81:	000246        	j	2d8e <dt_detect+0x36>

00002d84 <dt_detect+0x2c>:
    2d84:	0e9232        	l16si	a3, a2, 28
    2d87:	050c           	movi.n	a5, 0
    2d89:	440b           	addi.n	a4, a4, -1
    2d8b:	165252        	s16i	a5, a2, 44
    2d8e:	534450        	max	a4, a4, a5
    2d91:	433430        	min	a3, a4, a3
    2d94:	175232        	s16i	a3, a2, 46
    2d97:	f01d           	retw.n

00002d99 <dt_detect+0x41>:
    2d99:	000000                                        ...

00002d9c <dt_detect_sb>:
    2d9c:	004136        	entry	a1, 32
    2d9f:	199362        	l16si	a6, a3, 50
    2da2:	1c9352        	l16si	a5, a3, 56
    2da5:	174c           	movi.n	a7, 65
    2da7:	116600        	slli	a6, a6, 16
    2daa:	1ca647        	bge	a6, a4, 2dca <dt_detect_sb+0x2e>
    2dad:	189242        	l16si	a4, a2, 48
    2db0:	1b9362        	l16si	a6, a3, 54
    2db3:	0e9282        	l16si	a8, a2, 28
    2db6:	102477        	blt	a4, a7, 2dca <dt_detect_sb+0x2e>
    2db9:	552b           	addi.n	a5, a5, 2
    2dbb:	464b           	addi.n	a4, a6, 4
    2dbd:	434480        	min	a4, a4, a8
    2dc0:	1b5342        	s16i	a4, a3, 54
    2dc3:	844d           	ae_sext16	a4, a4
    2dc5:	082d           	mov.n	a2, a8
    2dc7:	000246        	j	2dd4 <dt_detect_sb+0x38>

00002dca <dt_detect_sb+0x2e>:
    2dca:	0e9222        	l16si	a2, a2, 28
    2dcd:	040c           	movi.n	a4, 0
    2dcf:	550b           	addi.n	a5, a5, -1
    2dd1:	1b5342        	s16i	a4, a3, 54
    2dd4:	534540        	max	a4, a5, a4
    2dd7:	432420        	min	a2, a4, a2
    2dda:	1c5322        	s16i	a2, a3, 56
    2ddd:	f01d           	retw.n

00002ddf <dt_detect_sb+0x43>:
	...

00002de0 <dt_detect_FB>:
    2de0:	004136        	entry	a1, 32
    2de3:	1a9252        	l16si	a5, a2, 52
    2de6:	1c9242        	l16si	a4, a2, 56
    2de9:	189262        	l16si	a6, a2, 48
    2dec:	115500        	slli	a5, a5, 16
    2def:	19a537        	bge	a5, a3, 2e0c <dt_detect_FB+0x2c>
    2df2:	154c           	movi.n	a5, 65
    2df4:	142657        	blt	a6, a5, 2e0c <dt_detect_FB+0x2c>
    2df7:	1d9252        	l16si	a5, a2, 58
    2dfa:	1b9232        	l16si	a3, a2, 54
    2dfd:	442b           	addi.n	a4, a4, 2
    2dff:	554b           	addi.n	a5, a5, 4
    2e01:	435530        	min	a5, a5, a3
    2e04:	1d5252        	s16i	a5, a2, 58
    2e07:	855d           	ae_sext16	a5, a5
    2e09:	000246        	j	2e16 <dt_detect_FB+0x36>

00002e0c <dt_detect_FB+0x2c>:
    2e0c:	1b9232        	l16si	a3, a2, 54
    2e0f:	050c           	movi.n	a5, 0
    2e11:	440b           	addi.n	a4, a4, -1
    2e13:	1d5252        	s16i	a5, a2, 58
    2e16:	534450        	max	a4, a4, a5
    2e19:	433430        	min	a3, a4, a3
    2e1c:	1c5232        	s16i	a3, a2, 56
    2e1f:	f01d           	retw.n

00002e21 <dt_detect_FB+0x41>:
    2e21:	000000                                        ...

00002e24 <dt_detect_FB_sb>:
    2e24:	004136        	entry	a1, 32
    2e27:	199362        	l16si	a6, a3, 50
    2e2a:	1c9352        	l16si	a5, a3, 56
    2e2d:	174c           	movi.n	a7, 65
    2e2f:	116600        	slli	a6, a6, 16
    2e32:	1ca647        	bge	a6, a4, 2e52 <dt_detect_FB_sb+0x2e>
    2e35:	189242        	l16si	a4, a2, 48
    2e38:	1b9362        	l16si	a6, a3, 54
    2e3b:	1b9282        	l16si	a8, a2, 54
    2e3e:	102477        	blt	a4, a7, 2e52 <dt_detect_FB_sb+0x2e>
    2e41:	552b           	addi.n	a5, a5, 2
    2e43:	464b           	addi.n	a4, a6, 4
    2e45:	434480        	min	a4, a4, a8
    2e48:	1b5342        	s16i	a4, a3, 54
    2e4b:	844d           	ae_sext16	a4, a4
    2e4d:	082d           	mov.n	a2, a8
    2e4f:	000246        	j	2e5c <dt_detect_FB_sb+0x38>

00002e52 <dt_detect_FB_sb+0x2e>:
    2e52:	1b9222        	l16si	a2, a2, 54
    2e55:	040c           	movi.n	a4, 0
    2e57:	550b           	addi.n	a5, a5, -1
    2e59:	1b5342        	s16i	a4, a3, 54
    2e5c:	534540        	max	a4, a5, a4
    2e5f:	432420        	min	a2, a4, a2
    2e62:	1c5322        	s16i	a2, a3, 56
    2e65:	f01d           	retw.n

00002e67 <dt_detect_FB_sb+0x43>:
	...

00002e68 <aec_sub_post>:
    2e68:	004136        	entry	a1, 32
    2e6b:	859c           	beqz.n	a5, 2e87 <aec_sub_post+0x1f>
    2e6d:	d0a2b2        	movi	a11, 0x2d0
    2e70:	e0a152        	movi	a5, 0x1e0
    2e73:	30a262        	movi	a6, 0x230
    2e76:	80a282        	movi	a8, 0x280
    2e79:	20a3c2        	movi	a12, 0x320
    2e7c:	725a           	add.n	a7, a2, a5
    2e7e:	926a           	add.n	a9, a2, a6
    2e80:	a28a           	add.n	a10, a2, a8
    2e82:	b2ba           	add.n	a11, a2, a11
    2e84:	000506        	j	2e9c <aec_sub_post+0x34>

00002e87 <aec_sub_post+0x1f>:
    2e87:	a0a052        	movi	a5, 160
    2e8a:	f0a062        	movi	a6, 240
    2e8d:	40a182        	movi	a8, 0x140
    2e90:	50c272        	addi	a7, a2, 80
    2e93:	90a1c2        	movi	a12, 0x190
    2e96:	925a           	add.n	a9, a2, a5
    2e98:	a26a           	add.n	a10, a2, a6
    2e9a:	b28a           	add.n	a11, a2, a8
    2e9c:	03d252        	addmi	a5, a2, 0x300
    2e9f:	32fd           	ae_l16si.n	a15, a2, 2
    2ea1:	4d9552        	l16si	a5, a5, 154
    2ea4:	c2ca           	add.n	a12, a2, a12
    2ea6:	ffa0d2        	movi	a13, 255
    2ea9:	0daf57        	bge	a15, a5, 2eba <aec_sub_post+0x52>
    2eac:	7fddd2        	addmi	a13, a13, 0x7f00
    2eaf:	0d8d           	mov.n	a8, a13
    2eb1:	0d6d           	mov.n	a6, a13
    2eb3:	0d5d           	mov.n	a5, a13
    2eb5:	0d2d           	mov.n	a2, a13
    2eb7:	000386        	j	2ec9 <aec_sub_post+0x61>

00002eba <aec_sub_post+0x52>:
    2eba:	0f17d2        	l16ui	a13, a7, 30
    2ebd:	0f1982        	l16ui	a8, a9, 30
    2ec0:	0f1a62        	l16ui	a6, a10, 30
    2ec3:	0f1b52        	l16ui	a5, a11, 30
    2ec6:	0f1c22        	l16ui	a2, a12, 30
    2ec9:	1d57d2        	s16i	a13, a7, 58
    2ecc:	1d5982        	s16i	a8, a9, 58
    2ecf:	1d5a62        	s16i	a6, a10, 58
    2ed2:	1d5b52        	s16i	a5, a11, 58
    2ed5:	6ea0f2        	movi	a15, 110
    2ed8:	1d5c22        	s16i	a2, a12, 58
    2edb:	300dd4        	ae_cvtp24a16x2.ll	aep0, a13, a13
    2ede:	601304        	ae_lq32f.iu	aeq0, a3, 0
    2ee1:	088f76        	loop	a15, 2eed <aec_sub_post+0x85>
    2ee4:	030204        	ae_mulfq32sp16s.h	aeq0, aeq0, aep0
    2ee7:	624304        	ae_sq32f.iu	aeq0, a3, 0
    2eea:	601314        	ae_lq32f.iu	aeq0, a3, 4

00002eed <aec_sub_post+0x85>:
    2eed:	a73c           	movi.n	a7, 58
    2eef:	300884        	ae_cvtp24a16x2.ll	aep0, a8, a8
    2ef2:	088776        	loop	a7, 2efe <aec_sub_post+0x96>
    2ef5:	030204        	ae_mulfq32sp16s.h	aeq0, aeq0, aep0
    2ef8:	624304        	ae_sq32f.iu	aeq0, a3, 0
    2efb:	601314        	ae_lq32f.iu	aeq0, a3, 4
    2efe:	875c           	movi.n	a7, 88
    2f00:	300664        	ae_cvtp24a16x2.ll	aep0, a6, a6
    2f03:	f03d           	nop.n
    2f05:	088776        	loop	a7, 2f11 <aec_sub_post+0xa9>
    2f08:	030204        	ae_mulfq32sp16s.h	aeq0, aeq0, aep0
    2f0b:	624304        	ae_sq32f.iu	aeq0, a3, 0
    2f0e:	601314        	ae_lq32f.iu	aeq0, a3, 4
    2f11:	00a162        	movi	a6, 0x100
    2f14:	300554        	ae_cvtp24a16x2.ll	aep0, a5, a5
    2f17:	088676        	loop	a6, 2f23 <aec_sub_post+0xbb>
    2f1a:	030204        	ae_mulfq32sp16s.h	aeq0, aeq0, aep0
    2f1d:	624304        	ae_sq32f.iu	aeq0, a3, 0
    2f20:	601314        	ae_lq32f.iu	aeq0, a3, 4
    2f23:	1394a6        	blti	a4, 10, 2f3a <aec_sub_post+0xd2>
    2f26:	00a242        	movi	a4, 0x200
    2f29:	300224        	ae_cvtp24a16x2.ll	aep0, a2, a2
    2f2c:	f03d           	nop.n
    2f2e:	088476        	loop	a4, 2f3a <aec_sub_post+0xd2>
    2f31:	030204        	ae_mulfq32sp16s.h	aeq0, aeq0, aep0
    2f34:	624304        	ae_sq32f.iu	aeq0, a3, 0
    2f37:	601314        	ae_lq32f.iu	aeq0, a3, 4

00002f3a <aec_sub_post+0xd2>:
    2f3a:	f01d           	retw.n

00002f3c <subband_comfort_noise>:
    2f3c:	006136        	entry	a1, 48
    2f3f:	690c           	movi.n	a9, 6
    2f41:	07ed           	mov.n	a14, a7
    2f43:	fc248fc38e 	{ addi	a8, a3, -4; ae_zeroq56	aeq0 }
    2f48:	3139           	s32i.n	a3, a1, 12
    2f4a:	028976        	loop	a9, 2f50 <subband_comfort_noise+0x14>
    2f4d:	624814        	ae_sq32f.iu	aeq0, a8, 4

00002f50 <subband_comfort_noise+0x14>:
    2f50:	03d282        	addmi	a8, a2, 0x300
    2f53:	4c1882        	l16ui	a8, a8, 152
    2f56:	300554        	ae_cvtp24a16x2.ll	aep0, a5, a5
    2f59:	301884        	ae_cvtp24a16x2.ll	aep1, a8, a8
    2f5c:	ea05b0315e 	{ l32i	a5, a1, 12; ae_mulfp24s.ll	aeq0, aep1, aep0 }
    2f61:	f4c881        	l32r	a8, 284 (300c <mixed_main_noise>)
    2f64:	350094        	ae_slliq56	aeq0, aeq0, 2
    2f67:	fc00c0019f 	{ movi	a9, 1; ae_satq48s	aeq0, aeq0 }
    2f6c:	368704        	ae_trunca32q48	a7, aeq0
    2f6f:	02ad           	mov.n	a10, a2
    2f71:	05bd           	mov.n	a11, a5
    2f73:	04cd           	mov.n	a12, a4
    2f75:	07dd           	mov.n	a13, a7
    2f77:	06fd           	mov.n	a15, a6
    2f79:	043d           	mov.n	a3, a4
    2f7b:	0e4d           	mov.n	a4, a14
    2f7d:	0199           	s32i.n	a9, a1, 0
    2f7f:	0008e0        	callx8	a8
    2f82:	280c           	movi.n	a8, 2
    2f84:	0189           	s32i.n	a8, a1, 0
    2f86:	f4bf81        	l32r	a8, 284 (300c <mixed_main_noise>)
    2f89:	02ad           	mov.n	a10, a2
    2f8b:	05bd           	mov.n	a11, a5
    2f8d:	03cd           	mov.n	a12, a3
    2f8f:	07dd           	mov.n	a13, a7
    2f91:	04ed           	mov.n	a14, a4
    2f93:	06fd           	mov.n	a15, a6
    2f95:	0008e0        	callx8	a8
    2f98:	380c           	movi.n	a8, 3
    2f9a:	0189           	s32i.n	a8, a1, 0
    2f9c:	f4ba81        	l32r	a8, 284 (300c <mixed_main_noise>)
    2f9f:	02ad           	mov.n	a10, a2
    2fa1:	05bd           	mov.n	a11, a5
    2fa3:	03cd           	mov.n	a12, a3
    2fa5:	07dd           	mov.n	a13, a7
    2fa7:	04ed           	mov.n	a14, a4
    2fa9:	06fd           	mov.n	a15, a6
    2fab:	0008e0        	callx8	a8
    2fae:	05bd           	mov.n	a11, a5
    2fb0:	f4b551        	l32r	a5, 284 (300c <mixed_main_noise>)
    2fb3:	480c           	movi.n	a8, 4
    2fb5:	02ad           	mov.n	a10, a2
    2fb7:	03cd           	mov.n	a12, a3
    2fb9:	07dd           	mov.n	a13, a7
    2fbb:	04ed           	mov.n	a14, a4
    2fbd:	06fd           	mov.n	a15, a6
    2fbf:	0189           	s32i.n	a8, a1, 0
    2fc1:	0005e0        	callx8	a5
    2fc4:	efa082        	movi	a8, 239
    2fc7:	152687        	blt	a6, a8, 2fe0 <subband_comfort_noise+0xa4>
    2fca:	02ad           	mov.n	a10, a2
    2fcc:	31b8           	l32i.n	a11, a1, 12
    2fce:	f4ad21        	l32r	a2, 284 (300c <mixed_main_noise>)
    2fd1:	580c           	movi.n	a8, 5
    2fd3:	03cd           	mov.n	a12, a3
    2fd5:	07dd           	mov.n	a13, a7
    2fd7:	04ed           	mov.n	a14, a4
    2fd9:	06fd           	mov.n	a15, a6
    2fdb:	0189           	s32i.n	a8, a1, 0
    2fdd:	0002e0        	callx8	a2

00002fe0 <subband_comfort_noise+0xa4>:
    2fe0:	fc2480ee4f 	{ movi	a4, 238; ae_zeroq56	aeq0 }
    2fe5:	00a452        	movi	a5, 0x400
    2fe8:	724460        	salt	a4, a4, a6
    2feb:	00a2f2        	movi	a15, 0x200
    2fee:	1126f0        	slli	a2, a6, 1
    2ff1:	93f540        	movnez	a15, a5, a4
    2ff4:	c04f20        	sub	a4, a15, a2
    2ff7:	0d14a6        	blti	a4, 1, 3008 <subband_comfort_noise+0xcc>
    2ffa:	3138           	l32i.n	a3, a1, 12
    2ffc:	a02230        	addx4	a2, a2, a3
    2fff:	fcc222        	addi	a2, a2, -4
    3002:	028476        	loop	a4, 3008 <subband_comfort_noise+0xcc>
    3005:	624214        	ae_sq32f.iu	aeq0, a2, 4

00003008 <subband_comfort_noise+0xcc>:
    3008:	f01d           	retw.n

0000300a <subband_comfort_noise+0xce>:
	...

0000300c <mixed_main_noise>:
    300c:	006136        	entry	a1, 48
    300f:	c188           	l32i.n	a8, a1, 48
    3011:	3159           	s32i.n	a5, a1, 12
    3013:	eea052        	movi	a5, 238
    3016:	1938e6        	bgei	a8, 3, 3033 <mixed_main_noise+0x27>
    3019:	481826        	beqi	a8, 1, 3065 <mixed_main_noise+0x59>
    301c:	322866        	bnei	a8, 2, 3052 <mixed_main_noise+0x46>
    301f:	daa052        	movi	a5, 218
    3022:	6aa272        	movi	a7, 0x26a
    3025:	525a           	add.n	a5, a2, a5
    3027:	227a           	add.n	a2, a2, a7
    3029:	832560        	moveqz	a2, a5, a6
    302c:	475c           	movi.n	a7, 84
    302e:	753c           	movi.n	a5, 55
    3030:	0015c6        	j	308b <mixed_main_noise+0x7f>

00003033 <mixed_main_noise+0x27>:
    3033:	423826        	beqi	a8, 3, 3079 <mixed_main_noise+0x6d>
    3036:	184866        	bnei	a8, 4, 3052 <mixed_main_noise+0x46>
    3039:	7aa1e2        	movi	a14, 0x17a
    303c:	00a182        	movi	a8, 0x100
    303f:	725570        	salt	a5, a5, a7
    3042:	0aa3f2        	movi	a15, 0x30a
    3045:	937850        	movnez	a7, a8, a5
    3048:	92ea           	add.n	a9, a2, a14
    304a:	22fa           	add.n	a2, a2, a15
    304c:	80a052        	movi	a5, 128
    304f:	000306        	j	305f <mixed_main_noise+0x53>

00003052 <mixed_main_noise+0x46>:
    3052:	caa152        	movi	a5, 0x1ca
    3055:	5aa382        	movi	a8, 0x35a
    3058:	925a           	add.n	a9, a2, a5
    305a:	228a           	add.n	a2, a2, a8
    305c:	00a152        	movi	a5, 0x100
    305f:	832960        	moveqz	a2, a9, a6
    3062:	000946        	j	308b <mixed_main_noise+0x7f>

00003065 <mixed_main_noise+0x59>:
    3065:	8aa052        	movi	a5, 138
    3068:	1aa272        	movi	a7, 0x21a
    306b:	525a           	add.n	a5, a2, a5
    306d:	227a           	add.n	a2, a2, a7
    306f:	832560        	moveqz	a2, a5, a6
    3072:	773c           	movi.n	a7, 55
    3074:	350c           	movi.n	a5, 3
    3076:	000446        	j	308b <mixed_main_noise+0x7f>

00003079 <mixed_main_noise+0x6d>:
    3079:	2aa152        	movi	a5, 0x12a
    307c:	baa272        	movi	a7, 0x2ba
    307f:	525a           	add.n	a5, a2, a5
    3081:	227a           	add.n	a2, a2, a7
    3083:	832560        	moveqz	a2, a5, a6
    3086:	80a072        	movi	a7, 128
    3089:	455c           	movi.n	a5, 84
    308b:	422d           	ae_l16ui.n	a2, a2, 0
    308d:	ffa082        	movi	a8, 255
    3090:	7fd882        	addmi	a8, a8, 0x7f00
    3093:	c02820        	sub	a2, a8, a2
    3096:	301224        	ae_cvtp24a16x2.ll	aep1, a2, a2
    3099:	500134        	ae_lp24f.i	aep0, a1, 12
    309c:	ea0595f75f 	{ sub	a15, a7, a5; ae_mulfp24s.ll	aeq0, aep1, aep0 }
    30a1:	b02530        	addx8	a2, a5, a3
    30a4:	f863bd120f 	{ ae_lq32f.iu	aeq0, a2, 0; ae_roundsp16q48asym	aep0, aeq0 }
    30a9:	8f7d           	ae_sext16	a7, a15
    30ab:	271666        	bnei	a6, 1, 30d6 <mixed_main_noise+0xca>
    30ae:	4617a6        	blti	a7, 1, 30f8 <mixed_main_noise+0xec>
    30b1:	a03540        	addx4	a3, a5, a4
    30b4:	97fd           	ae_zext16	a15, a7
    30b6:	605304        	ae_lq32f.iu	aeq1, a3, 0
    30b9:	148f76        	loop	a15, 30d1 <mixed_main_noise+0xc5>
    30bc:	030054        	ae_mulafq32sp16s.l	aeq0, aeq1, aep0
    30bf:	624204        	ae_sq32f.iu	aeq0, a2, 0
    30c2:	601214        	ae_lq32f.iu	aeq0, a2, 4
    30c5:	030054        	ae_mulafq32sp16s.l	aeq0, aeq1, aep0
    30c8:	624204        	ae_sq32f.iu	aeq0, a2, 0
    30cb:	601214        	ae_lq32f.iu	aeq0, a2, 4
    30ce:	605314        	ae_lq32f.iu	aeq1, a3, 4

000030d1 <mixed_main_noise+0xc5>:
    30d1:	0008c6        	j	30f8 <mixed_main_noise+0xec>

000030d4 <mixed_main_noise+0xc8>:
	...

000030d6 <mixed_main_noise+0xca>:
    30d6:	1137f0        	slli	a3, a7, 1
    30d9:	833d           	ae_sext16	a3, a3
    30db:	1913a6        	blti	a3, 1, 30f8 <mixed_main_noise+0xec>
    30de:	1155f0        	slli	a5, a5, 1
    30e1:	936d           	ae_zext16	a6, a3
    30e3:	a03540        	addx4	a3, a5, a4
    30e6:	605304        	ae_lq32f.iu	aeq1, a3, 0
    30e9:	0b8676        	loop	a6, 30f8 <mixed_main_noise+0xec>
    30ec:	030054        	ae_mulafq32sp16s.l	aeq0, aeq1, aep0
    30ef:	624204        	ae_sq32f.iu	aeq0, a2, 0
    30f2:	601214        	ae_lq32f.iu	aeq0, a2, 4
    30f5:	605314        	ae_lq32f.iu	aeq1, a3, 4

000030f8 <mixed_main_noise+0xec>:
    30f8:	f01d           	retw.n

000030fa <mixed_main_noise+0xee>:
    30fa:	00000000                                 ......

00003100 <get_ECNR_SVN>:
    3100:	004136        	entry	a1, 32
    3103:	f46121        	l32r	a2, 288 (1513cd0 <_end+0x1504730>)
    3106:	f01d           	retw.n

00003108 <get_txnr_pitch_last>:
    3108:	004136        	entry	a1, 32
    310b:	f3f021        	l32r	a2, cc (f59c <p_ecnr_mem>)
    310e:	f4a032        	movi	a3, 244
    3111:	5ba242        	movi	a4, 0x25b
    3114:	0228           	l32i.n	a2, a2, 0
    3116:	63d332        	addmi	a3, a3, 0x6300
    3119:	1144a0        	slli	a4, a4, 6
    311c:	2cd252        	addmi	a5, a2, 0x2c00
    311f:	221552        	l16ui	a5, a5, 68
    3122:	323a           	add.n	a3, a2, a3
    3124:	224a           	add.n	a2, a2, a4
    3126:	fec5e2        	addi	a14, a5, -2
    3129:	8323e0        	moveqz	a2, a3, a14
    312c:	0228           	l32i.n	a2, a2, 0
    312e:	0f0c           	movi.n	a15, 0
    3130:	622f20        	saltu	a2, a15, a2
    3133:	f01d           	retw.n

00003135 <get_txnr_pitch_last+0x2d>:
    3135:	000000                                        ...

00003138 <emph_filter_N>:
    3138:	004136        	entry	a1, 32
    313b:	440404        	ae_lp16x2f.i	aep0, a4, 0
    313e:	3725a6        	blti	a5, 2, 3179 <emph_filter_N+0x41>
    3141:	651b           	addi.n	a6, a5, 1
    3143:	b36550        	movgez	a6, a5, a5
    3146:	215160        	srai	a5, a6, 1
    3149:	441304        	ae_lp16x2f.i	aep1, a3, 0
    314c:	fec232        	addi	a3, a2, -2
    314f:	fcc222        	addi	a2, a2, -4
    3152:	238576        	loop	a5, 3179 <emph_filter_N+0x41>
    3155:	44a214        	ae_lp16x2f.iu	aep2, a2, 4
    3158:	fc443e20cf 	{ ae_selp24.hh	aep3, aep2, aep0; ae_cvtq48p24s.h	aeq0, aep2 }
    315d:	0a4284        	ae_cvtq48p24s.l	aeq1, aep2
    3160:	011004        	ae_mulafp24s.hh	aeq0, aep1, aep0
    3163:	011a04        	ae_mulafp24s.hh	aeq1, aep1, aep2
    3166:	051004        	ae_mulaafp24s.hh.ll	aeq0, aep1, aep0
    3169:	051b04        	ae_mulaafp24s.hh.ll	aeq1, aep1, aep3
    316c:	1b8f04        	ae_roundsp16q48asym	aep0, aeq0
    316f:	f96bf2831f 	{ ae_sp16f.l.iu	aep0, a3, 2; ae_roundsp16q48asym	aep3, aeq1 }
    3174:	dc49b2b31f 	{ ae_sp16f.l.iu	aep3, a3, 2; ae_selp24.lh	aep0, aep2, aep2 }

00003179 <emph_filter_N+0x41>:
    3179:	460404        	ae_sp16x2f.i	aep0, a4, 0
    317c:	f01d           	retw.n

0000317e <emph_filter_N+0x46>:
	...

00003180 <deemph_filter_N>:
    3180:	004136        	entry	a1, 32
    3183:	600404        	ae_lq32f.i	aeq0, a4, 0
    3186:	604414        	ae_lq32f.i	aeq1, a4, 4
    3189:	2c15a6        	blti	a5, 1, 31b9 <deemph_filter_N+0x39>
    318c:	f438f1        	l32r	a15, 26c (f210 <immediate_num>)
    318f:	ff0c6d030f 	{ ae_lp16x2f.i	aep0, a3, 0; ae_movq56	aeq3, aeq1 }
    3194:	99002c120f 	{ ae_lp16f.i	aep1, a2, 0; ae_mulzssfq32sp16s.hh	aeq2, aeq0, aep0, aeq0, aep0 }
    3199:	30cf32        	addi	a3, a15, 48
    319c:	442304        	ae_lp16x2f.i	aep2, a3, 0
    319f:	168576        	loop	a5, 31b9 <deemph_filter_N+0x39>
    31a2:	fb81bf017f 	{ ae_movq56	aeq1, aeq0; ae_mulsfq32sp16s.l	aeq2, aeq3, aep0 }
    31a7:	f1462c921f 	{ ae_lp16f.iu	aep1, a2, 2; ae_mulssfp24s.hh.ll	aeq2, aep1, aep2 }
    31ac:	fc347f11ff 	{ ae_movq56	aeq3, aeq1; ae_roundsq32asym	aeq0, aeq2 }
    31b1:	1b8f34        	ae_roundsp16q48asym	aep3, aeq0
    31b4:	99003232ff 	{ ae_sp16f.l.i	aep3, a2, -2; ae_mulzssfq32sp16s.hh	aeq2, aeq0, aep0, aeq0, aep0 }

000031b9 <deemph_filter_N+0x39>:
    31b9:	620404        	ae_sq32f.i	aeq0, a4, 0
    31bc:	621414        	ae_sq32f.i	aeq1, a4, 4
    31bf:	f01d           	retw.n

000031c1 <deemph_filter_N+0x41>:
    31c1:	000000                                        ...

000031c4 <Voice_NB_RX_Prcs>:
    31c4:	004136        	entry	a1, 32
    31c7:	f3c131        	l32r	a3, cc (f59c <p_ecnr_mem>)
    31ca:	03a8           	l32i.n	a10, a3, 0
    31cc:	6dda42        	addmi	a4, a10, 0x6d00
    31cf:	741442        	l16ui	a4, a4, 232
    31d2:	848c           	beqz.n	a4, 31de <Voice_NB_RX_Prcs+0x1a>
    31d4:	f42e41        	l32r	a4, 28c (8664 <NB_RX_NR_frame_process>)
    31d7:	02ad           	mov.n	a10, a2
    31d9:	0004e0        	callx8	a4
    31dc:	03a8           	l32i.n	a10, a3, 0

000031de <Voice_NB_RX_Prcs+0x1a>:
    31de:	f42c31        	l32r	a3, 290 (9caa <two_mic_SWB_NR_proc+0x2da>)
    31e1:	2cda42        	addmi	a4, a10, 0x2c00
    31e4:	c53c           	movi.n	a5, 60
    31e6:	3a3a           	add.n	a3, a10, a3
    31e8:	233d           	ae_l16si.n	a3, a3, 0
    31ea:	255432        	s16i	a3, a4, 74
    31ed:	4f0432        	l8ui	a3, a4, 79
    31f0:	f8ca42        	addi	a4, a10, -8
    31f3:	236357        	bbci	a3, 5, 321a <Voice_NB_RX_Prcs+0x56>
    31f6:	fcc232        	addi	a3, a2, -4
    31f9:	058576        	loop	a5, 3202 <Voice_NB_RX_Prcs+0x3e>
    31fc:	448314        	ae_lp16x2f.iu	aep0, a3, 4
    31ff:	5e8414        	ae_sp24x2f.iu	aep0, a4, 8

00003202 <Voice_NB_RX_Prcs+0x3e>:
    3202:	a8a032        	movi	a3, 168
    3205:	f42341        	l32r	a4, 294 (c270 <real_split+0x50>)
    3208:	57d332        	addmi	a3, a3, 0x5700
    320b:	ba3a           	add.n	a11, a10, a3
    320d:	f42231        	l32r	a3, 298 (321c <biquad_2cascade_24bitTx>)
    3210:	ca4a           	add.n	a12, a10, a4
    3212:	78a0e2        	movi	a14, 120
    3215:	02dd           	mov.n	a13, a2
    3217:	0003e0        	callx8	a3

0000321a <Voice_NB_RX_Prcs+0x56>:
    321a:	f01d           	retw.n

0000321c <biquad_2cascade_24bitTx>:
    321c:	00a136        	entry	a1, 80
    321f:	542304        	ae_lp24x2.i	aep2, a3, 0
    3222:	541314        	ae_lp24x2.i	aep1, a3, 8
    3225:	540324        	ae_lp24x2.i	aep0, a3, 16
    3228:	6616a6        	blti	a6, 1, 3292 <biquad_2cascade_24bitTx+0x76>
    322b:	18c472        	addi	a7, a4, 24
    322e:	543414        	ae_lp24x2.i	aep3, a4, 8
    3231:	545404        	ae_lp24x2.i	aep5, a4, 0
    3234:	546444        	ae_lp24x2.i	aep6, a4, 32
    3237:	547434        	ae_lp24x2.i	aep7, a4, 24
    323a:	563154        	ae_sp24x2s.i	aep3, a1, 40
    323d:	565144        	ae_sp24x2s.i	aep5, a1, 32
    3240:	545424        	ae_lp24x2.i	aep5, a4, 16
    3243:	543454        	ae_lp24x2.i	aep3, a4, 40
    3246:	566134        	ae_sp24x2s.i	aep6, a1, 24
    3249:	567124        	ae_sp24x2s.i	aep7, a1, 16
    324c:	fec542        	addi	a4, a5, -2
    324f:	fcc222        	addi	a2, a2, -4
    3252:	4c4764        	ae_lp24.i	aep4, a7, 24
    3255:	398676        	loop	a6, 3292 <biquad_2cascade_24bitTx+0x76>
    3258:	547154        	ae_lp24x2.i	aep7, a1, 40
    325b:	f05eaee21f 	{ ae_lp24f.iu	aep6, a2, 4; ae_mulzaafp24s.hh.ll	aeq0, aep7, aep2 }
    3260:	dd59b0714f 	{ ae_lp24x2.i	aep7, a1, 32; ae_selp24.lh	aep2, aep6, aep2 }
    3265:	e25c30713f 	{ ae_lp24x2.i	aep7, a1, 24; ae_mulaafp24s.hh.ll	aeq0, aep7, aep2 }
    326a:	015184        	ae_mulsfp24s.hh	aeq0, aep5, aep1
    326d:	0551c4        	ae_mulssfp24s.hh.ll	aeq0, aep5, aep1
    3270:	f13ef0712f 	{ ae_lp24x2.i	aep7, a1, 16; ae_mulzaafp24s.hh.ll	aeq3, aep7, aep1 }
    3275:	1b8d64        	ae_roundsp24q48asym	aep6, aeq0
    3278:	1ae194        	ae_selp24.lh	aep1, aep6, aep1
    327b:	05f904        	ae_mulaafp24s.hh.ll	aeq3, aep7, aep1
    327e:	01b884        	ae_mulsfp24s.hh	aeq3, aep3, aep0
    3281:	05b8c4        	ae_mulssfp24s.hh.ll	aeq3, aep3, aep0
    3284:	1bbd64        	ae_roundsp24q48asym	aep6, aeq3
    3287:	f0d2be602f 	{ ae_selp24.lh	aep0, aep6, aep0; ae_mulzaafp24s.hh.ll	aeq0, aep4, aep6 }
    328c:	1b8f74        	ae_roundsp16q48asym	aep7, aeq0
    328f:	42f414        	ae_sp16f.l.iu	aep7, a4, 2

00003292 <biquad_2cascade_24bitTx+0x76>:
    3292:	562304        	ae_sp24x2s.i	aep2, a3, 0
    3295:	561314        	ae_sp24x2s.i	aep1, a3, 8
    3298:	560324        	ae_sp24x2s.i	aep0, a3, 16
    329b:	f01d           	retw.n

0000329d <biquad_2cascade_24bitTx+0x81>:
    329d:	000000                                        ...

000032a0 <Voice_WB_RX_Prcs>:
    32a0:	004136        	entry	a1, 32
    32a3:	f38a31        	l32r	a3, cc (f59c <p_ecnr_mem>)
    32a6:	03a8           	l32i.n	a10, a3, 0
    32a8:	6dda42        	addmi	a4, a10, 0x6d00
    32ab:	741442        	l16ui	a4, a4, 232
    32ae:	848c           	beqz.n	a4, 32ba <Voice_WB_RX_Prcs+0x1a>
    32b0:	f3fb41        	l32r	a4, 29c (84e0 <WB_RX_NR_frame_process>)
    32b3:	02ad           	mov.n	a10, a2
    32b5:	0004e0        	callx8	a4
    32b8:	03a8           	l32i.n	a10, a3, 0

000032ba <Voice_WB_RX_Prcs+0x1a>:
    32ba:	f3f531        	l32r	a3, 290 (9caa <two_mic_SWB_NR_proc+0x2da>)
    32bd:	2cda42        	addmi	a4, a10, 0x2c00
    32c0:	78a052        	movi	a5, 120
    32c3:	3a3a           	add.n	a3, a10, a3
    32c5:	233d           	ae_l16si.n	a3, a3, 0
    32c7:	255432        	s16i	a3, a4, 74
    32ca:	4f0432        	l8ui	a3, a4, 79
    32cd:	f8ca42        	addi	a4, a10, -8
    32d0:	236357        	bbci	a3, 5, 32f7 <Voice_WB_RX_Prcs+0x57>
    32d3:	fcc232        	addi	a3, a2, -4
    32d6:	058576        	loop	a5, 32df <Voice_WB_RX_Prcs+0x3f>
    32d9:	448314        	ae_lp16x2f.iu	aep0, a3, 4
    32dc:	5e8414        	ae_sp24x2f.iu	aep0, a4, 8

000032df <Voice_WB_RX_Prcs+0x3f>:
    32df:	a8a032        	movi	a3, 168
    32e2:	f3ec41        	l32r	a4, 294 (c270 <real_split+0x50>)
    32e5:	57d332        	addmi	a3, a3, 0x5700
    32e8:	ba3a           	add.n	a11, a10, a3
    32ea:	f3eb31        	l32r	a3, 298 (321c <biquad_2cascade_24bitTx>)
    32ed:	ca4a           	add.n	a12, a10, a4
    32ef:	f0a0e2        	movi	a14, 240
    32f2:	02dd           	mov.n	a13, a2
    32f4:	0003e0        	callx8	a3

000032f7 <Voice_WB_RX_Prcs+0x57>:
    32f7:	f01d           	retw.n

000032f9 <Voice_WB_RX_Prcs+0x59>:
    32f9:	000000                                        ...

000032fc <Voice_SWB_RX_Prcs>:
    32fc:	004136        	entry	a1, 32
    32ff:	f37331        	l32r	a3, cc (f59c <p_ecnr_mem>)
    3302:	03a8           	l32i.n	a10, a3, 0
    3304:	6dda42        	addmi	a4, a10, 0x6d00
    3307:	741442        	l16ui	a4, a4, 232
    330a:	848c           	beqz.n	a4, 3316 <Voice_SWB_RX_Prcs+0x1a>
    330c:	f3e541        	l32r	a4, 2a0 (8828 <SWB_RX_NR_frame_process>)
    330f:	02ad           	mov.n	a10, a2
    3311:	0004e0        	callx8	a4
    3314:	03a8           	l32i.n	a10, a3, 0

00003316 <Voice_SWB_RX_Prcs+0x1a>:
    3316:	f3de31        	l32r	a3, 290 (9caa <two_mic_SWB_NR_proc+0x2da>)
    3319:	2cda42        	addmi	a4, a10, 0x2c00
    331c:	f0a052        	movi	a5, 240
    331f:	3a3a           	add.n	a3, a10, a3
    3321:	233d           	ae_l16si.n	a3, a3, 0
    3323:	255432        	s16i	a3, a4, 74
    3326:	4f0432        	l8ui	a3, a4, 79
    3329:	f8ca42        	addi	a4, a10, -8
    332c:	236357        	bbci	a3, 5, 3353 <Voice_SWB_RX_Prcs+0x57>
    332f:	fcc232        	addi	a3, a2, -4
    3332:	058576        	loop	a5, 333b <Voice_SWB_RX_Prcs+0x3f>
    3335:	448314        	ae_lp16x2f.iu	aep0, a3, 4
    3338:	5e8414        	ae_sp24x2f.iu	aep0, a4, 8

0000333b <Voice_SWB_RX_Prcs+0x3f>:
    333b:	a8a032        	movi	a3, 168
    333e:	f3d541        	l32r	a4, 294 (c270 <real_split+0x50>)
    3341:	57d332        	addmi	a3, a3, 0x5700
    3344:	ba3a           	add.n	a11, a10, a3
    3346:	f3d431        	l32r	a3, 298 (321c <biquad_2cascade_24bitTx>)
    3349:	ca4a           	add.n	a12, a10, a4
    334b:	e0a1e2        	movi	a14, 0x1e0
    334e:	02dd           	mov.n	a13, a2
    3350:	0003e0        	callx8	a3

00003353 <Voice_SWB_RX_Prcs+0x57>:
    3353:	f01d           	retw.n

00003355 <Voice_SWB_RX_Prcs+0x59>:
    3355:	000000                                        ...

00003358 <EC_REF_GAIN_READBACK>:
    3358:	004136        	entry	a1, 32
    335b:	f35c31        	l32r	a3, cc (f59c <p_ecnr_mem>)
    335e:	040c           	movi.n	a4, 0
    3360:	0338           	l32i.n	a3, a3, 0
    3362:	6ad352        	addmi	a5, a3, 0x6a00
    3365:	6bd372        	addmi	a7, a3, 0x6b00
    3368:	6bd382        	addmi	a8, a3, 0x6b00
    336b:	6d1552        	l16ui	a5, a5, 218
    336e:	151762        	l16ui	a6, a7, 42
    3371:	3d1772        	l16ui	a7, a7, 122
    3374:	651882        	l16ui	a8, a8, 202
    3377:	625d           	ae_s16i.n	a5, a2, 0
    3379:	726d           	ae_s16i.n	a6, a2, 2
    337b:	025272        	s16i	a7, a2, 4
    337e:	2cd3f2        	addmi	a15, a3, 0x2c00
    3381:	035282        	s16i	a8, a2, 6
    3384:	221f82        	l16ui	a8, a15, 68
    3387:	050c           	movi.n	a5, 0
    3389:	060c           	movi.n	a6, 0
    338b:	070c           	movi.n	a7, 0
    338d:	112866        	bnei	a8, 2, 33a2 <EC_REF_GAIN_READBACK+0x4a>
    3390:	66d362        	addmi	a6, a3, 0x6600
    3393:	66d3f2        	addmi	a15, a3, 0x6600
    3396:	191642        	l16ui	a4, a6, 50
    3399:	b91652        	l16ui	a5, a6, 0x172
    339c:	411662        	l16ui	a6, a6, 130
    339f:	691f72        	l16ui	a7, a15, 210

000033a2 <EC_REF_GAIN_READBACK+0x4a>:
    33a2:	045242        	s16i	a4, a2, 8
    33a5:	055252        	s16i	a5, a2, 10
    33a8:	065262        	s16i	a6, a2, 12
    33ab:	075272        	s16i	a7, a2, 14
    33ae:	f01d           	retw.n

000033b0 <EC_PreLim_Coef_READBACK>:
    33b0:	004136        	entry	a1, 32
    33b3:	f34631        	l32r	a3, cc (f59c <p_ecnr_mem>)
    33b6:	455c           	movi.n	a5, 84
    33b8:	64d552        	addmi	a5, a5, 0x6400
    33bb:	0338           	l32i.n	a3, a3, 0
    33bd:	360c           	movi.n	a6, 3
    33bf:	024d           	mov.n	a4, a2
    33c1:	535a           	add.n	a5, a3, a5
    33c3:	078676        	loop	a6, 33ce <EC_PreLim_Coef_READBACK+0x1e>
    33c6:	556d           	ae_l16ui.n	a6, a5, 2
    33c8:	646d           	ae_s16i.n	a6, a4, 0
    33ca:	554b           	addi.n	a5, a5, 4
    33cc:	442b           	addi.n	a4, a4, 2

000033ce <EC_PreLim_Coef_READBACK+0x1e>:
    33ce:	aca052        	movi	a5, 172
    33d1:	64d552        	addmi	a5, a5, 0x6400
    33d4:	360c           	movi.n	a6, 3
    33d6:	426b           	addi.n	a4, a2, 6
    33d8:	535a           	add.n	a5, a3, a5
    33da:	078676        	loop	a6, 33e5 <EC_PreLim_Coef_READBACK+0x35>
    33dd:	556d           	ae_l16ui.n	a6, a5, 2
    33df:	646d           	ae_s16i.n	a6, a4, 0
    33e1:	554b           	addi.n	a5, a5, 4
    33e3:	442b           	addi.n	a4, a4, 2
    33e5:	c4a042        	movi	a4, 196
    33e8:	64d442        	addmi	a4, a4, 0x6400
    33eb:	350c           	movi.n	a5, 3
    33ed:	334a           	add.n	a3, a3, a4
    33ef:	22cb           	addi.n	a2, a2, 12
    33f1:	078576        	loop	a5, 33fc <EC_PreLim_Coef_READBACK+0x4c>
    33f4:	534d           	ae_l16ui.n	a4, a3, 2
    33f6:	624d           	ae_s16i.n	a4, a2, 0
    33f8:	334b           	addi.n	a3, a3, 4
    33fa:	222b           	addi.n	a2, a2, 2
    33fc:	f01d           	retw.n

000033fe <EC_PreLim_Coef_READBACK+0x4e>:
	...

00003400 <BAND5_PreLim_Coef_READBACK>:
    3400:	004136        	entry	a1, 32
    3403:	f33231        	l32r	a3, cc (f59c <p_ecnr_mem>)
    3406:	dca042        	movi	a4, 220
    3409:	64d442        	addmi	a4, a4, 0x6400
    340c:	0338           	l32i.n	a3, a3, 0
    340e:	350c           	movi.n	a5, 3
    3410:	334a           	add.n	a3, a3, a4
    3412:	078576        	loop	a5, 341d <BAND5_PreLim_Coef_READBACK+0x1d>
    3415:	534d           	ae_l16ui.n	a4, a3, 2
    3417:	624d           	ae_s16i.n	a4, a2, 0
    3419:	334b           	addi.n	a3, a3, 4
    341b:	222b           	addi.n	a2, a2, 2

0000341d <BAND5_PreLim_Coef_READBACK+0x1d>:
    341d:	f01d           	retw.n

0000341f <BAND5_PreLim_Coef_READBACK+0x1f>:
	...

00003420 <DaulMIC_power_Coef_READBACK>:
    3420:	004136        	entry	a1, 32
    3423:	f32a21        	l32r	a2, cc (f59c <p_ecnr_mem>)
    3426:	0228           	l32i.n	a2, a2, 0
    3428:	65d222        	addmi	a2, a2, 0x6500
    342b:	789222        	l16si	a2, a2, 240
    342e:	f01d           	retw.n

00003430 <BAND5_EC_REF_GAIN_READBACK>:
    3430:	004136        	entry	a1, 32
    3433:	f32631        	l32r	a3, cc (f59c <p_ecnr_mem>)
    3436:	0338           	l32i.n	a3, a3, 0
    3438:	6cd342        	addmi	a4, a3, 0x6c00
    343b:	0d1442        	l16ui	a4, a4, 26
    343e:	624d           	ae_s16i.n	a4, a2, 0
    3440:	2cd352        	addmi	a5, a3, 0x2c00
    3443:	221552        	l16ui	a5, a5, 68
    3446:	040c           	movi.n	a4, 0
    3448:	67d362        	addmi	a6, a3, 0x6700
    344b:	022566        	bnei	a5, 2, 3451 <BAND5_EC_REF_GAIN_READBACK+0x21>
    344e:	111642        	l16ui	a4, a6, 34

00003451 <BAND5_EC_REF_GAIN_READBACK+0x21>:
    3451:	6dd332        	addmi	a3, a3, 0x6d00
    3454:	551332        	l16ui	a3, a3, 170
    3457:	724d           	ae_s16i.n	a4, a2, 2
    3459:	025232        	s16i	a3, a2, 4
    345c:	f01d           	retw.n

0000345e <BAND5_EC_REF_GAIN_READBACK+0x2e>:
	...

00003460 <Voice_WB_TX_Prcs>:
    3460:	004136        	entry	a1, 32
    3463:	f31a71        	l32r	a7, cc (f59c <p_ecnr_mem>)
    3466:	fba092        	movi	a9, 251
    3469:	0c0c           	movi.n	a12, 0
    346b:	0778           	l32i.n	a7, a7, 0
    346d:	02ad           	mov.n	a10, a2
    346f:	03bd           	mov.n	a11, a3
    3471:	70d772        	addmi	a7, a7, 0x7000
    3474:	d60782        	l8ui	a8, a7, 214
    3477:	04dd           	mov.n	a13, a4
    3479:	05ed           	mov.n	a14, a5
    347b:	108890        	and	a8, a8, a9
    347e:	d64782        	s8i	a8, a7, 214
    3481:	f38871        	l32r	a7, 2a4 (348c <Voice_WB_TX_Common_Prcs>)
    3484:	06fd           	mov.n	a15, a6
    3486:	0007e0        	callx8	a7
    3489:	f01d           	retw.n

0000348b <Voice_WB_TX_Prcs+0x2b>:
	...

0000348c <Voice_WB_TX_Common_Prcs>:
    348c:	03a136        	entry	a1, 0x1d0
    348f:	f30ff1        	l32r	a15, cc (f59c <p_ecnr_mem>)
    3492:	246132        	s32i	a3, a1, 144
    3495:	090c           	movi.n	a9, 0
    3497:	0fd8           	l32i.n	a13, a15, 0
    3499:	2cdd32        	addmi	a3, a13, 0x2c00
    349c:	271332        	l16ui	a3, a3, 78
    349f:	018350        	slli	a8, a3, 27
    34a2:	31af80        	srai	a10, a8, 31
    34a5:	f38081        	l32r	a8, 2a8 (968c <two_mic_WB_NR_NSN_proc+0xb1c>)
    34a8:	0f04a7        	bnone	a4, a10, 34bb <Voice_WB_TX_Common_Prcs+0x2f>
    34ab:	8d8a           	add.n	a8, a13, a8
    34ad:	0888           	l32i.n	a8, a8, 0
    34af:	02d882        	addmi	a8, a8, 0x200
    34b2:	441892        	l16ui	a9, a8, 136
    34b5:	418e90        	srli	a8, a9, 14
    34b8:	000046        	j	34bd <Voice_WB_TX_Common_Prcs+0x31>

000034bb <Voice_WB_TX_Common_Prcs+0x2f>:
    34bb:	080c           	movi.n	a8, 0
    34bd:	10aa40        	and	a10, a10, a4
    34c0:	02e307        	bbsi	a3, 0, 34c6 <Voice_WB_TX_Common_Prcs+0x3a>
    34c3:	002106        	j	354b <Voice_WB_TX_Common_Prcs+0xbf>
    34c6:	081856        	bnez	a8, 354b <Voice_WB_TX_Common_Prcs+0xbf>
    34c9:	f37881        	l32r	a8, 2ac (c32c <real_split+0x10c>)
    34cc:	1761a2        	s32i	a10, a1, 92
    34cf:	2cdd42        	addmi	a4, a13, 0x2c00
    34d2:	ad8a           	add.n	a10, a13, a8
    34d4:	4acd           	ae_l16ui.n	a12, a10, 0
    34d6:	2cddb2        	addmi	a11, a13, 0x2c00
    34d9:	1e2432        	l32i	a3, a4, 120
    34dc:	1d2442        	l32i	a4, a4, 116
    34df:	242be2        	l32i	a14, a11, 144
    34e2:	89a5f2        	movi	a15, 0x589
    34e5:	118fd0        	slli	a8, a15, 3
    34e8:	1a6132        	s32i	a3, a1, 104
    34eb:	356142        	s32i	a4, a1, 212
    34ee:	3761e2        	s32i	a14, a1, 220
    34f1:	1861d2        	s32i	a13, a1, 96
    34f4:	1f6192        	s32i	a9, a1, 124
    34f7:	4f6172        	s32i	a7, a1, 0x13c
    34fa:	1e6162        	s32i	a6, a1, 120
    34fd:	196152        	s32i	a5, a1, 100
    3500:	05ec16        	beqz	a12, 3562 <Voice_WB_TX_Common_Prcs+0xd6>
    3503:	f36c31        	l32r	a3, 2b4 (6574 <TxRef_VAD_V2>)
    3506:	05bd           	mov.n	a11, a5
    3508:	086d           	mov.n	a6, a8
    350a:	0003e0        	callx8	a3
    350d:	f2ef31        	l32r	a3, cc (f59c <p_ecnr_mem>)
    3510:	1f2192        	l32i	a9, a1, 124
    3513:	1821d2        	l32i	a13, a1, 96
    3516:	0348           	l32i.n	a4, a3, 0
    3518:	2cd432        	addmi	a3, a4, 0x2c00
    351b:	241332        	l16ui	a3, a3, 72
    351e:	546a           	add.n	a5, a4, a6
    3520:	836d           	ae_sext16	a6, a3
    3522:	07ba16        	beqz	a10, 35a1 <Voice_WB_TX_Common_Prcs+0x115>
    3525:	837d           	ae_sext16	a7, a3
    3527:	186c           	movi.n	a8, -31
    3529:	02ad           	mov.n	a10, a2
    352b:	082787        	blt	a7, a8, 3537 <Voice_WB_TX_Common_Prcs+0xab>
    352e:	360b           	addi.n	a3, a6, -1
    3530:	ff7c           	movi.n	a15, -1
    3532:	4333f0        	min	a3, a3, a15
    3535:	653d           	ae_s16i.n	a3, a5, 0
    3537:	6add52        	addmi	a5, a13, 0x6a00
    353a:	549562        	l16si	a6, a5, 168
    353d:	ffa172        	movi	a7, 0x1ff
    3540:	6d2767        	blt	a7, a6, 35b1 <Voice_WB_TX_Common_Prcs+0x125>
    3543:	661b           	addi.n	a6, a6, 1
    3545:	545562        	s16i	a6, a5, 168
    3548:	001946        	j	35b1 <Voice_WB_TX_Common_Prcs+0x125>

0000354b <Voice_WB_TX_Common_Prcs+0xbf>:
    354b:	1acc           	bnez.n	a10, 3550 <Voice_WB_TX_Common_Prcs+0xc4>
    354d:	050046        	j	4952 <Voice_WB_TX_Common_Prcs+0x14c6>
    3550:	021826        	beqi	a8, 1, 3556 <Voice_WB_TX_Common_Prcs+0xca>
    3553:	009f06        	j	37d3 <Voice_WB_TX_Common_Prcs+0x347>
    3556:	f37721        	l32r	a2, 334 (103d4 <_end+0xe34>)
    3559:	2d2a           	add.n	a2, a13, a2
    355b:	424d           	ae_l16ui.n	a4, a2, 0
    355d:	0a2d           	mov.n	a2, a10
    355f:	009d46        	j	37d8 <Voice_WB_TX_Common_Prcs+0x34c>

00003562 <Voice_WB_TX_Common_Prcs+0xd6>:
    3562:	c32c           	movi.n	a3, 44
    3564:	2cd332        	addmi	a3, a3, 0x2c00
    3567:	640c           	movi.n	a4, 6
    3569:	3d3a           	add.n	a3, a13, a3
    356b:	058476        	loop	a4, 3574 <Voice_WB_TX_Common_Prcs+0xe8>
    356e:	334d           	ae_l16si.n	a4, a3, 2
    3570:	634d           	ae_s16i.n	a4, a3, 0
    3572:	332b           	addi.n	a3, a3, 2

00003574 <Voice_WB_TX_Common_Prcs+0xe8>:
    3574:	2cdd42        	addmi	a4, a13, 0x2c00
    3577:	259442        	l16si	a4, a4, 74
    357a:	f34d61        	l32r	a6, 2b0 (c2b4 <real_split+0x94>)
    357d:	2cdd72        	addmi	a7, a13, 0x2c00
    3580:	114490        	slli	a4, a4, 7
    3583:	634d           	ae_s16i.n	a4, a3, 0
    3585:	6d6a           	add.n	a6, a13, a6
    3587:	463d           	ae_l16ui.n	a3, a6, 0
    3589:	249762        	l16si	a6, a7, 72
    358c:	ffa3f2        	movi	a15, 0x3ff
    358f:	9033d0        	addx2	a3, a3, a13
    3592:	2cd332        	addmi	a3, a3, 0x2c00
    3595:	1693e2        	l16si	a14, a3, 44
    3598:	5d8a           	add.n	a5, a13, a8
    359a:	0d4d           	mov.n	a4, a13
    359c:	963d           	ae_zext16	a3, a6
    359e:	832fe7        	blt	a15, a14, 3525 <Voice_WB_TX_Common_Prcs+0x99>

000035a1 <Voice_WB_TX_Common_Prcs+0x115>:
    35a1:	837d           	ae_sext16	a7, a3
    35a3:	02ad           	mov.n	a10, a2
    35a5:	08c7e6        	bgei	a7, 32, 35b1 <Voice_WB_TX_Common_Prcs+0x125>
    35a8:	361b           	addi.n	a3, a6, 1
    35aa:	1f0c           	movi.n	a15, 1
    35ac:	5333f0        	max	a3, a3, a15
    35af:	653d           	ae_s16i.n	a3, a5, 0
    35b1:	08dd22        	addmi	a2, a13, 0x800
    35b4:	1c6122        	s32i	a2, a1, 112
    35b7:	172122        	l32i	a2, a1, 92
    35ba:	6edd52        	addmi	a5, a13, 0x6e00
    35bd:	6add82        	addmi	a8, a13, 0x6a00
    35c0:	0b0c           	movi.n	a11, 0
    35c2:	6bdd62        	addmi	a6, a13, 0x6b00
    35c5:	0aed           	mov.n	a14, a10
    35c7:	095532        	s16i	a3, a5, 18
    35ca:	3868b2        	s32i	a11, a8, 224
    35cd:	c6b9           	s32i.n	a11, a6, 48
    35cf:	6068b2        	s32i	a11, a8, 0x180
    35d2:	6bdd72        	addmi	a7, a13, 0x6b00
    35d5:	7468b2        	s32i	a11, a8, 0x1d0
    35d8:	6bddf2        	addmi	a15, a13, 0x6b00
    35db:	386182        	s32i	a8, a1, 224
    35de:	3968b2        	s32i	a11, a8, 228
    35e1:	d6b9           	s32i.n	a11, a6, 52
    35e3:	4e6172        	s32i	a7, a1, 0x138
    35e6:	2167b2        	s32i	a11, a7, 132
    35e9:	4d61f2        	s32i	a15, a1, 0x134
    35ec:	356fb2        	s32i	a11, a15, 212
    35ef:	0eb216        	beqz	a2, 36de <Voice_WB_TX_Common_Prcs+0x252>
    35f2:	f331f1        	l32r	a15, 2b8 (103dc <_end+0xe3c>)
    35f5:	6cdd62        	addmi	a6, a13, 0x6c00
    35f8:	6ddd22        	addmi	a2, a13, 0x6d00
    35fb:	1c66b2        	s32i	a11, a6, 112
    35fe:	42b9           	s32i.n	a11, a2, 16
    3600:	1862b2        	s32i	a11, a2, 96
    3603:	1d66b2        	s32i	a11, a6, 116
    3606:	3066b2        	s32i	a11, a6, 192
    3609:	3166b2        	s32i	a11, a6, 196
    360c:	fd249452bf 	{ s32i.n	a11, a2, 20; ae_zeroq56	aeq1 }
    3611:	5966b2        	s32i	a11, a6, 0x164
    3614:	54fa           	add.n	a5, a4, a15
    3616:	000582        	l8ui	a8, a5, 0
    3619:	fc0c72417e 	{ l32i	a7, a1, 144; ae_movq56	aeq0, aeq1 }
    361e:	78a0a2        	movi	a10, 120
    3621:	fec862        	addi	a6, a8, -2
    3624:	02e997        	bbsi	a9, 9, 362a <Voice_WB_TX_Common_Prcs+0x19e>
    3627:	002a86        	j	36d5 <Voice_WB_TX_Common_Prcs+0x249>
    362a:	0a7816        	beqz	a8, 36d5 <Voice_WB_TX_Common_Prcs+0x249>
    362d:	0e9d           	mov.n	a9, a14
    362f:	078d           	mov.n	a8, a7
    3631:	939760        	movnez	a9, a7, a6
    3634:	938e60        	movnez	a8, a14, a6
    3637:	fcc992        	addi	a9, a9, -4
    363a:	440804        	ae_lp16x2f.i	aep0, a8, 0
    363d:	098a76        	loop	a10, 364a <Voice_WB_TX_Common_Prcs+0x1be>
    3640:	e2006d991f 	{ ae_lp16x2f.iu	aep1, a9, 4; ae_mulaafp24s.hh.ll	aeq1, aep0, aep0 }
    3645:	e2242d881f 	{ ae_lp16x2f.iu	aep0, a8, 4; ae_mulaafp24s.hh.ll	aeq0, aep1, aep1 }

0000364a <Voice_WB_TX_Common_Prcs+0x1be>:
    364a:	4a4c           	movi.n	a10, 68
    364c:	355234        	ae_sraiq56	aeq1, aeq1, 8
    364f:	44daa2        	addmi	a10, a10, 0x4400
    3652:	fd2c588aaf 	{ ae_cvtp24a16x2.ll	aep0, a10, a10; ae_roundsq32asym	aeq1, aeq1 }
    3657:	f31a81        	l32r	a8, 2c0 (103cc <_end+0xe2c>)
    365a:	d4e37b020f 	{ ae_sraiq56	aeq0, aeq0, 8; ae_mulfq32sp16s.l	aeq1, aeq1, aep0 }
    365f:	fc2445fecf 	{ movi	a12, 0x5fe; ae_roundsq32asym	aeq0, aeq0 }
    3664:	d4e23a905f 	{ ae_slliq56	aeq1, aeq1, 1; ae_mulfq32sp16s.l	aeq0, aeq0, aep0 }
    3669:	f314b1        	l32r	a11, 2bc (7fbe0042 <_end+0x7fbd0aa2>)
    366c:	fd2c581bbf 	{ ae_cvtp24a16x2.lh	aep1, a11, a11; ae_roundsq32asym	aeq1, aeq1 }
    3671:	60b844        	ae_lq32f.xu	aeq2, a8, a4
    3674:	f31491        	l32r	a9, 2c4 (103d0 <_end+0xe30>)
    3677:	0e24fa801f 	{ ae_slliq56	aeq0, aeq0, 1; ae_mulzaafq32sp16s.lh	aeq1, aeq2, aep1, aeq1, aep1 }
    367c:	06c934        	ae_roundsq32asym	aeq3, aeq0
    367f:	fc2c7c494f 	{ ae_lq32f.xu	aeq2, a9, a4; ae_roundsq32asym	aeq0, aeq1 }
    3684:	0f26f9880f 	{ ae_sq32f.i	aeq0, a8, 0; ae_mulzaafq32sp16s.lh	aeq3, aeq2, aep1, aeq3, aep1 }
    3689:	08f8           	l32i.n	a15, a8, 0
    368b:	fd3c40002f 	{ movi	a2, 0; ae_roundsq32asym	aeq1, aeq3 }
    3690:	f0ccc0        	subx8	a12, a12, a12
    3693:	621904        	ae_sq32f.i	aeq1, a9, 0
    3696:	3b2fc7        	blt	a15, a12, 36d5 <Voice_WB_TX_Common_Prcs+0x249>
    3699:	f30ba1        	l32r	a10, 2c8 (103d6 <_end+0xe36>)
    369c:	1b0c           	movi.n	a11, 1
    369e:	a4aa           	add.n	a10, a4, a10
    36a0:	4aad           	ae_l16ui.n	a10, a10, 0
    36a2:	300aa4        	ae_cvtp24a16x2.ll	aep0, a10, a10
    36a5:	d4e34002af 	{ movi	a10, 2; ae_mulfq32sp16s.l	aeq1, aeq1, aep0 }
    36aa:	2cd472        	addmi	a7, a4, 0x2c00
    36ad:	355154        	ae_slliq56	aeq1, aeq1, 5
    36b0:	d6480000ff 	{ movi	a15, 0; ae_ltq56s	b0, aeq0, aeq1 }
    36b5:	70ddc2        	addmi	a12, a13, 0x7000
    36b8:	0d1c           	movi.n	a13, 16
    36ba:	d32b00        	movt	a2, a11, b0
    36bd:	429c           	beqz.n	a2, 36d5 <Voice_WB_TX_Common_Prcs+0x249>
    36bf:	2257a2        	s16i	a10, a7, 68
    36c2:	d60c62        	l8ui	a6, a12, 214
    36c5:	2066d0        	or	a6, a6, a13
    36c8:	d64c62        	s8i	a6, a12, 214
    36cb:	0045f2        	s8i	a15, a5, 0
    36ce:	08f9           	s32i.n	a15, a8, 0
    36d0:	09f9           	s32i.n	a15, a9, 0
    36d2:	000146        	j	36db <Voice_WB_TX_Common_Prcs+0x24f>

000036d5 <Voice_WB_TX_Common_Prcs+0x249>:
    36d5:	242152        	l32i	a5, a1, 144
    36d8:	83e560        	moveqz	a14, a5, a6
    36db:	172122        	l32i	a2, a1, 92
    36de:	f2fbf1        	l32r	a15, 2cc (c2b6 <real_split+0x96>)
    36e1:	833d           	ae_sext16	a3, a3
    36e3:	256132        	s32i	a3, a1, 148
    36e6:	34fa           	add.n	a3, a4, a15
    36e8:	6ca082        	movi	a8, 108
    36eb:	433d           	ae_l16ui.n	a3, a3, 0
    36ed:	1c2152        	l32i	a5, a1, 112
    36f0:	28d882        	addmi	a8, a8, 0x2800
    36f3:	448a           	add.n	a4, a4, a8
    36f5:	f29871        	l32r	a7, 158 (d6fc <xt_memcpy>)
    36f8:	05ad           	mov.n	a10, a5
    36fa:	04bd           	mov.n	a11, a4
    36fc:	03cd           	mov.n	a12, a3
    36fe:	1d61e2        	s32i	a14, a1, 116
    3701:	0007e0        	callx8	a7
    3704:	90a350        	addx2	a10, a3, a5
    3707:	192152        	l32i	a5, a1, 100
    370a:	f0a082        	movi	a8, 240
    370d:	c0c830        	sub	a12, a8, a3
    3710:	05bd           	mov.n	a11, a5
    3712:	1163f0        	slli	a6, a3, 1
    3715:	0007e0        	callx8	a7
    3718:	c06560        	sub	a6, a5, a6
    371b:	e0a182        	movi	a8, 0x1e0
    371e:	b68a           	add.n	a11, a6, a8
    3720:	04ad           	mov.n	a10, a4
    3722:	03cd           	mov.n	a12, a3
    3724:	0007e0        	callx8	a7
    3727:	f29731        	l32r	a3, 184 (d6e8 <xt_memset>)
    372a:	20c1a2        	addi	a10, a1, 32
    372d:	0b0c           	movi.n	a11, 0
    372f:	ec0c           	movi.n	a12, 14
    3731:	0003e0        	callx8	a3
    3734:	182192        	l32i	a9, a1, 96
    3737:	f2e651        	l32r	a5, 2d0 (c348 <real_split+0x128>)
    373a:	4fa642        	movi	a4, 0x64f
    373d:	65d932        	addmi	a3, a9, 0x6500
    3740:	060c           	movi.n	a6, 0
    3742:	02dd           	mov.n	a13, a2
    3744:	1144c0        	slli	a4, a4, 4
    3747:	765362        	s16i	a6, a3, 236
    374a:	4c6132        	s32i	a3, a1, 0x130
    374d:	074216        	beqz	a2, 37c5 <Voice_WB_TX_Common_Prcs+0x339>
    3750:	f25f31        	l32r	a3, cc (f59c <p_ecnr_mem>)
    3753:	78a062        	movi	a6, 120
    3756:	441d04        	ae_lp16x2f.i	aep1, a13, 0
    3759:	03a8           	l32i.n	a10, a3, 0
    375b:	3a5a           	add.n	a3, a10, a5
    375d:	233d           	ae_l16si.n	a3, a3, 0
    375f:	398334        	ae_movpa24x2	aep0, a3, a3
    3762:	203dd0        	or	a3, a13, a13
    3765:	188676        	loop	a6, 3781 <Voice_WB_TX_Common_Prcs+0x2f5>
    3768:	011054        	ae_mulfp24s.hl	aeq0, aep1, aep0
    376b:	011874        	ae_mulfp24s.ll	aeq1, aep1, aep0
    376e:	350214        	ae_slliq56	aeq0, aeq0, 8
    3771:	fb63fa924f 	{ ae_slliq56	aeq1, aeq1, 8; ae_roundsp16q48asym	aep7, aeq0 }
    3776:	f96bb2730f 	{ ae_sp16f.l.i	aep7, a3, 0; ae_roundsp16q48asym	aep2, aeq1 }
    377b:	422314        	ae_sp16f.l.i	aep2, a3, 2
    377e:	449314        	ae_lp16x2f.iu	aep1, a3, 4

00003781 <Voice_WB_TX_Common_Prcs+0x2f5>:
    3781:	fccd72        	addi	a7, a13, -4
    3784:	78a062        	movi	a6, 120
    3787:	f8ca32        	addi	a3, a10, -8
    378a:	208770        	or	a8, a7, a7
    378d:	058676        	loop	a6, 3796 <Voice_WB_TX_Common_Prcs+0x30a>
    3790:	448814        	ae_lp16x2f.iu	aep0, a8, 4
    3793:	5e8314        	ae_sp24x2f.iu	aep0, a3, 8
    3796:	5fa132        	movi	a3, 0x15f
    3799:	41a162        	movi	a6, 0x141
    379c:	1133a0        	slli	a3, a3, 6
    379f:	1166b0        	slli	a6, a6, 5
    37a2:	ba3a           	add.n	a11, a10, a3
    37a4:	f2bd31        	l32r	a3, 298 (321c <biquad_2cascade_24bitTx>)
    37a7:	ca6a           	add.n	a12, a10, a6
    37a9:	f0a0e2        	movi	a14, 240
    37ac:	0003e0        	callx8	a3
    37af:	1f2182        	l32i	a8, a1, 124
    37b2:	f24631        	l32r	a3, cc (f59c <p_ecnr_mem>)
    37b5:	c0a3f2        	movi	a15, 0x3c0
    37b8:	42e8c7        	bbsi	a8, 12, 37fe <Voice_WB_TX_Common_Prcs+0x372>
    37bb:	182192        	l32i	a9, a1, 96
    37be:	030c           	movi.n	a3, 0
    37c0:	02dd           	mov.n	a13, a2
    37c2:	002186        	j	384c <Voice_WB_TX_Common_Prcs+0x3c0>

000037c5 <Voice_WB_TX_Common_Prcs+0x339>:
    37c5:	1f2182        	l32i	a8, a1, 124
    37c8:	130c           	movi.n	a3, 1
    37ca:	113340        	slli	a3, a3, 12
    37cd:	103830        	and	a3, a8, a3
    37d0:	001e06        	j	384c <Voice_WB_TX_Common_Prcs+0x3c0>

000037d3 <Voice_WB_TX_Common_Prcs+0x347>:
    37d3:	140c           	movi.n	a4, 1
    37d5:	114450        	slli	a4, a4, 11
    37d8:	f0a052        	movi	a5, 240
    37db:	1f0c           	movi.n	a15, 1
    37dd:	300444        	ae_cvtp24a16x2.ll	aep0, a4, a4
    37e0:	fec632        	addi	a3, a6, -2
    37e3:	409204        	ae_lp16f.iu	aep1, a2, 0
    37e6:	114f30        	slli	a4, a15, 13
    37e9:	0e8576        	loop	a5, 37fb <Voice_WB_TX_Common_Prcs+0x36f>
    37ec:	000174        	ae_mulfs32p16s.ll	aeq0, aep0, aep1
    37ef:	360114        	ae_sllisq56s	aeq0, aeq0, 4
    37f2:	1b8f74        	ae_roundsp16q48asym	aep7, aeq0
    37f5:	42f314        	ae_sp16f.l.iu	aep7, a3, 2
    37f8:	409214        	ae_lp16f.iu	aep1, a2, 2

000037fb <Voice_WB_TX_Common_Prcs+0x36f>:
    37fb:	045986        	j	4965 <Voice_WB_TX_Common_Prcs+0x14d9>

000037fe <Voice_WB_TX_Common_Prcs+0x372>:
    37fe:	78a062        	movi	a6, 120
    3801:	03a8           	l32i.n	a10, a3, 0
    3803:	803af0        	add	a3, a10, a15
    3806:	f8ca82        	addi	a8, a10, -8
    3809:	058676        	loop	a6, 3812 <Voice_WB_TX_Common_Prcs+0x386>
    380c:	448714        	ae_lp16x2f.iu	aep0, a7, 4
    380f:	5e8814        	ae_sp24x2f.iu	aep0, a8, 8

00003812 <Voice_WB_TX_Common_Prcs+0x386>:
    3812:	d8a062        	movi	a6, 216
    3815:	57d662        	addmi	a6, a6, 0x5700
    3818:	f2afc1        	l32r	a12, 2d4 (e780 <nc_vad_lpf_coef>)
    381b:	f29f51        	l32r	a5, 298 (321c <biquad_2cascade_24bitTx>)
    381e:	ba6a           	add.n	a11, a10, a6
    3820:	f0a0e2        	movi	a14, 240
    3823:	03dd           	mov.n	a13, a3
    3825:	0005e0        	callx8	a5
    3828:	f22951        	l32r	a5, cc (f59c <p_ecnr_mem>)
    382b:	f2a9f1        	l32r	a15, 2d0 (c348 <real_split+0x128>)
    382e:	f2aa71        	l32r	a7, 2d8 (10588 <_end+0xfe8>)
    3831:	0568           	l32i.n	a6, a5, 0
    3833:	03bd           	mov.n	a11, a3
    3835:	86fa           	add.n	a8, a6, a15
    3837:	a67a           	add.n	a10, a6, a7
    3839:	48cd           	ae_l16ui.n	a12, a8, 0
    383b:	f2a861        	l32r	a6, 2dc (6690 <NC_VAD_V3>)
    383e:	0006e0        	callx8	a6
    3841:	182192        	l32i	a9, a1, 96
    3844:	1721d2        	l32i	a13, a1, 92
    3847:	1f2182        	l32i	a8, a1, 124
    384a:	130c           	movi.n	a3, 1

0000384c <Voice_WB_TX_Common_Prcs+0x3c0>:
    384c:	2d6132        	s32i	a3, a1, 180
    384f:	43a652        	movi	a5, 0x643
    3852:	78a032        	movi	a3, 120
    3855:	1155c0        	slli	a5, a5, 4
    3858:	6ad332        	addmi	a3, a3, 0x6a00
    385b:	c8a062        	movi	a6, 200
    385e:	871c           	movi.n	a7, 24
    3860:	68a0b2        	movi	a11, 104
    3863:	b8a0c2        	movi	a12, 184
    3866:	f95a           	add.n	a15, a9, a5
    3868:	6ad662        	addmi	a6, a6, 0x6a00
    386b:	393a           	add.n	a3, a9, a3
    386d:	1b61f2        	s32i	a15, a1, 108
    3870:	f28e21        	l32r	a2, 2a8 (968c <two_mic_WB_NR_NSN_proc+0xb1c>)
    3873:	6bd772        	addmi	a7, a7, 0x6b00
    3876:	6bdbb2        	addmi	a11, a11, 0x6b00
    3879:	6bdcc2        	addmi	a12, a12, 0x6b00
    387c:	f8a0e2        	movi	a14, 248
    387f:	a8a0f2        	movi	a15, 168
    3882:	596a           	add.n	a5, a9, a6
    3884:	697a           	add.n	a6, a9, a7
    3886:	79ba           	add.n	a7, a9, a11
    3888:	b9ca           	add.n	a11, a9, a12
    388a:	c94a           	add.n	a12, a9, a4
    388c:	6cdf42        	addmi	a4, a15, 0x6c00
    388f:	196132        	s32i	a3, a1, 100
    3892:	6cde32        	addmi	a3, a14, 0x6c00
    3895:	2521f2        	l32i	a15, a1, 148
    3898:	5061c2        	s32i	a12, a1, 0x140
    389b:	393a           	add.n	a3, a9, a3
    389d:	8c5c           	movi.n	a12, 88
    389f:	466152        	s32i	a5, a1, 0x118
    38a2:	050c           	movi.n	a5, 0
    38a4:	e92a           	add.n	a14, a9, a2
    38a6:	446132        	s32i	a3, a1, 0x110
    38a9:	6cdc32        	addmi	a3, a12, 0x6c00
    38ac:	3a61e2        	s32i	a14, a1, 232
    38af:	7255f0        	salt	a5, a5, a15
    38b2:	494a           	add.n	a4, a9, a4
    38b4:	393a           	add.n	a3, a9, a3
    38b6:	8e4c           	movi.n	a14, 72
    38b8:	31a3f2        	movi	a15, 0x331
    38bb:	476162        	s32i	a6, a1, 0x11c
    38be:	4961b2        	s32i	a11, a1, 0x124
    38c1:	436142        	s32i	a4, a1, 0x10c
    38c4:	114fb0        	slli	a4, a15, 5
    38c7:	426132        	s32i	a3, a1, 0x108
    38ca:	6dde32        	addmi	a3, a14, 0x6d00
    38cd:	260c           	movi.n	a6, 2
    38cf:	eb7c           	movi.n	a11, -2
    38d1:	93b6a0        	movnez	a11, a6, a10
    38d4:	294a           	add.n	a2, a9, a4
    38d6:	393a           	add.n	a3, a9, a3
    38d8:	67a642        	movi	a4, 0x667
    38db:	83b650        	moveqz	a11, a6, a5
    38de:	486172        	s32i	a7, a1, 0x120
    38e1:	074c           	movi.n	a7, 64
    38e3:	3d6132        	s32i	a3, a1, 244
    38e6:	1134c0        	slli	a3, a4, 4
    38e9:	9ba152        	movi	a5, 0x19b
    38ec:	8a0c           	movi.n	a10, 8
    38ee:	106870        	and	a6, a8, a7
    38f1:	5b61b2        	s32i	a11, a1, 0x16c
    38f4:	10b8a0        	and	a11, a8, a10
    38f7:	393a           	add.n	a3, a9, a3
    38f9:	1145a0        	slli	a4, a5, 6
    38fc:	3ba372        	movi	a7, 0x33b
    38ff:	a8a082        	movi	a8, 168
    3902:	516162        	s32i	a6, a1, 0x144
    3905:	694a           	add.n	a6, a9, a4
    3907:	64d842        	addmi	a4, a8, 0x6400
    390a:	646132        	s32i	a3, a1, 0x190
    390d:	1137b0        	slli	a3, a7, 5
    3910:	7ba6c2        	movi	a12, 0x67b
    3913:	a94a           	add.n	a10, a9, a4
    3915:	114cc0        	slli	a4, a12, 4
    3918:	6861b2        	s32i	a11, a1, 0x1a0
    391b:	656122        	s32i	a2, a1, 0x194
    391e:	393a           	add.n	a3, a9, a3
    3920:	93a1b2        	movi	a11, 0x193
    3923:	8fa622        	movi	a2, 0x68f
    3926:	e94a           	add.n	a14, a9, a4
    3928:	1142c0        	slli	a4, a2, 4
    392b:	626132        	s32i	a3, a1, 0x188
    392e:	113ba0        	slli	a3, a11, 6
    3931:	594a           	add.n	a5, a9, a4
    3933:	636162        	s32i	a6, a1, 0x18c
    3936:	393a           	add.n	a3, a9, a3
    3938:	28c162        	addi	a6, a1, 40
    393b:	85a6f2        	movi	a15, 0x685
    393e:	596132        	s32i	a3, a1, 0x164
    3941:	113fc0        	slli	a3, a15, 4
    3944:	406152        	s32i	a5, a1, 0x100
    3947:	6a6162        	s32i	a6, a1, 0x1a8
    394a:	2cc142        	addi	a4, a1, 44
    394d:	70d952        	addmi	a5, a9, 0x7000
    3950:	24c162        	addi	a6, a1, 36
    3953:	5a61a2        	s32i	a10, a1, 0x168
    3956:	2c61e2        	s32i	a14, a1, 176
    3959:	393a           	add.n	a3, a9, a3
    395b:	6bd972        	addmi	a7, a9, 0x6b00
    395e:	6bd9a2        	addmi	a10, a9, 0x6b00
    3961:	34c1b2        	addi	a11, a1, 52
    3964:	6dd9c2        	addmi	a12, a9, 0x6d00
    3967:	6cd9e2        	addmi	a14, a9, 0x6c00
    396a:	6cd9f2        	addmi	a15, a9, 0x6c00
    396d:	2f6142        	s32i	a4, a1, 188
    3970:	306152        	s32i	a5, a1, 192
    3973:	616162        	s32i	a6, a1, 0x184
    3976:	64d942        	addmi	a4, a9, 0x6400
    3979:	65d952        	addmi	a5, a9, 0x6500
    397c:	64d962        	addmi	a6, a9, 0x6400
    397f:	416132        	s32i	a3, a1, 0x104
    3982:	4a6172        	s32i	a7, a1, 0x128
    3985:	3161a2        	s32i	a10, a1, 196
    3988:	6661b2        	s32i	a11, a1, 0x198
    398b:	3461c2        	s32i	a12, a1, 208
    398e:	3361e2        	s32i	a14, a1, 204
    3991:	2a61f2        	s32i	a15, a1, 168
    3994:	6dd932        	addmi	a3, a9, 0x6d00
    3997:	66d972        	addmi	a7, a9, 0x6600
    399a:	66d9a2        	addmi	a10, a9, 0x6600
    399d:	67d9b2        	addmi	a11, a9, 0x6700
    39a0:	67d9c2        	addmi	a12, a9, 0x6700
    39a3:	48c1e2        	addi	a14, a1, 72
    39a6:	50c1f2        	addi	a15, a1, 80
    39a9:	3c6142        	s32i	a4, a1, 240
    39ac:	396152        	s32i	a5, a1, 228
    39af:	556162        	s32i	a6, a1, 0x154
    39b2:	69d942        	addmi	a4, a9, 0x6900
    39b5:	64d952        	addmi	a5, a9, 0x6400
    39b8:	30c162        	addi	a6, a1, 48
    39bb:	6bd982        	addmi	a8, a9, 0x6b00
    39be:	326132        	s32i	a3, a1, 200
    39c1:	606172        	s32i	a7, a1, 0x180
    39c4:	5f61a2        	s32i	a10, a1, 0x17c
    39c7:	4561b2        	s32i	a11, a1, 0x114
    39ca:	2861c2        	s32i	a12, a1, 160
    39cd:	5861e2        	s32i	a14, a1, 0x160
    39d0:	5761f2        	s32i	a15, a1, 0x15c
    39d3:	64d932        	addmi	a3, a9, 0x6400
    39d6:	65d972        	addmi	a7, a9, 0x6500
    39d9:	65d9a2        	addmi	a10, a9, 0x6500
    39dc:	65d9b2        	addmi	a11, a9, 0x6500
    39df:	66d9c2        	addmi	a12, a9, 0x6600
    39e2:	68d9e2        	addmi	a14, a9, 0x6800
    39e5:	68d9f2        	addmi	a15, a9, 0x6800
    39e8:	3e6142        	s32i	a4, a1, 248
    39eb:	536152        	s32i	a5, a1, 0x14c
    39ee:	526162        	s32i	a6, a1, 0x148
    39f1:	f1b661        	l32r	a6, cc (f59c <p_ecnr_mem>)
    39f4:	1c2152        	l32i	a5, a1, 112
    39f7:	1d2142        	l32i	a4, a1, 116
    39fa:	4b6182        	s32i	a8, a1, 0x12c
    39fd:	6cd982        	addmi	a8, a9, 0x6c00
    3a00:	566132        	s32i	a3, a1, 0x158
    3a03:	266172        	s32i	a7, a1, 152
    3a06:	3b61a2        	s32i	a10, a1, 236
    3a09:	2b61b2        	s32i	a11, a1, 172
    3a0c:	5461c2        	s32i	a12, a1, 0x150
    3a0f:	2e61e2        	s32i	a14, a1, 184
    3a12:	2761f2        	s32i	a15, a1, 156
    3a15:	38c172        	addi	a7, a1, 56
    3a18:	0a0c           	movi.n	a10, 0
    3a1a:	0b0c           	movi.n	a11, 0
    3a1c:	0c0c           	movi.n	a12, 0
    3a1e:	0e0c           	movi.n	a14, 0
    3a20:	0f0c           	movi.n	a15, 0
    3a22:	c91c           	movi.n	a9, 28
    3a24:	676172        	s32i	a7, a1, 0x19c
    3a27:	3f6132        	s32i	a3, a1, 252
    3a2a:	620c           	movi.n	a2, 6
    3a2c:	28d972        	addmi	a7, a9, 0x2800
    3a2f:	2961a2        	s32i	a10, a1, 164
    3a32:	2061b2        	s32i	a11, a1, 128
    3a35:	2161c2        	s32i	a12, a1, 132
    3a38:	2261e2        	s32i	a14, a1, 136
    3a3b:	2361f2        	s32i	a15, a1, 140
    3a3e:	3661d2        	s32i	a13, a1, 216
    3a41:	696182        	s32i	a8, a1, 0x1a4
    3a44:	00e546        	j	3ddd <Voice_WB_TX_Common_Prcs+0x951>

00003a47 <Voice_WB_TX_Common_Prcs+0x5bb>:
    3a47:	02d892        	addmi	a9, a8, 0x200
    3a4a:	6519b2        	l16ui	a11, a9, 202
    3a4d:	050c           	movi.n	a5, 0
    3a4f:	1bac           	beqz.n	a11, 3a74 <Voice_WB_TX_Common_Prcs+0x5e8>
    3a51:	ac28b2        	l32i	a11, a8, 0x2b0
    3a54:	ad2822        	l32i	a2, a8, 0x2b4
    3a57:	140c           	movi.n	a4, 1
    3a59:	17aab7        	bge	a10, a11, 3a74 <Voice_WB_TX_Common_Prcs+0x5e8>
    3a5c:	02d8a2        	addmi	a10, a8, 0x200
