
Build/codec_lib/pisplit_lc3plusi_codec_position_independent.splitload.lib:     file format elf32-xtensa-le


Disassembly of section .text:

00000000 <_init-0x5f4>:
       0:	00000640 0000eb20 0000fe8c 00000000     @... ...........
      10:	0000fe58 00000000 0000fe74 00010374     X.......t...t...
      20:	0000feac 00000ee0 0000fec4 00000f24     ............$...
      30:	0000fedc 00000f14 0000fea0 0000069c     ................
      40:	00010378 0001037c 00010380 00010384     x...|...........
      50:	00010388 0001038c 00010390 00010394     ................
      60:	00010398 0001039c 000103a0 000103a4     ................
      70:	000103a8 000103aa 000103ac 000103b0     ................
      80:	000103b4 000103b8 000103bc 000103c0     ................
      90:	000103c4 000103c8 000103cc 000103d0     ................
      a0:	000103d4 000103d8 000103dc 000103e0     ................
      b0:	000103e4 000103e8 000103ec 000103f0     ................
      c0:	000103f4 000103f8 000103fc 00010400     ................
      d0:	00010404 00010408 0001040c 00010410     ................
      e0:	00010414 00010418 0001041c 00010420     ............ ...
      f0:	00010424 00010428 0001042c 00010430     $...(...,...0...
     100:	00010434 00010438 0001043c 00010440     4...8...<...@...
     110:	00010444 00010448 0001044c 00010450     D...H...L...P...
     120:	00010454 00010458 0001045c 00010460     T...X...\...`...
     130:	00010464 00010468 0001046c 00010470     d...h...l...p...
     140:	00010474 00010478 0001047c 00010480     t...x...|.......
     150:	00010484 00010488 0001048c 00010490     ................
     160:	00010494 00010498 0001049c 000104a0     ................
     170:	000104a4 000104a8 000104ac 000104b0     ................
     180:	000104b4 000104b8 000104bc 000104c0     ................
     190:	000104c4 000104c8 000104cc 000104d0     ................
     1a0:	000104d4 000104d8 000104dc 000104e0     ................
     1b0:	000104e4 000104e8 000104ec 000104f0     ................
     1c0:	000104f4 000104f8 000104fc 00010500     ................
     1d0:	00010504 00010508 0001050c 00010510     ................
     1e0:	00010514 00010518 0001051c 00010520     ............ ...
     1f0:	00010524 00010528 0001052c 00010530     $...(...,...0...
     200:	00010534 00010538 0001053c 00010540     4...8...<...@...
     210:	00010544 00010548 0001054c 00010550     D...H...L...P...
     220:	00010554 00010558 0001055c 00010560     T...X...\...`...
     230:	00010564 00010568 0001056c 00010570     d...h...l...p...
     240:	00010574 00010578 0001057c 00010580     t...x...|.......
     250:	00010584 00010588 0001058c 00010590     ................
     260:	00010594 00010598 0001059c 000105a0     ................
     270:	000105a4 000105a8 000105ac 000105b0     ................
     280:	000105b4 000105b8 000105bc 000105c0     ................
     290:	000105c4 000105c8 000105cc 000105d0     ................
     2a0:	000105d4 00010604 00010608 0001061c     ................
     2b0:	00010620 00010624 00010628 0001062c      ...$...(...,...
     2c0:	00010630 000105d8 000105dc 000105e0     0...............
     2d0:	000105e4 000105e8 000105ec 000105f0     ................
     2e0:	000105f4 000105f8 000105fc 00010600     ................
     2f0:	0001060c 00010610 00010614 00010618     ................
     300:	000006fc 00000f8c 00001004 0000bb7f     ................
     310:	0000eb40 0000b4e4 00005660 00001170     @.......`V..p...
     320:	c1ffffff 0016302f 00001414 80000001     ..../0..........
     330:	7fffff00 5a827999 046f8d46 2b4e618e     .....y.ZF.o..aN+
     340:	0d230455 27e9446e 15553e3f 22fb827b     U.#.nD.'?>U.{.."
     350:	1cb598cc 2d097390 d2f68c70 e34a6734     .....s.-p...4gJ.
     360:	d816bb92 f2dcfbab 192469c1 2c62a163     .........i$.c.b,
     370:	25a0c5df 08d42aef d39d5e9d e6db963f     ...%.*...^..?...
     380:	89be50c3 30fbc54d cf043ab3 7641af3d     .P..M..0.:..=.Av
     390:	11517a7c d630a2dd 5a82799a 29cf5d23     |zQ...0..y.Z#].)
     3a0:	a57d8666 00001b0c 000014d8 00004570     f.}.........pE..
     3b0:	0000eb9c 7bffffff 0000ebdc 00feffff     .......{........
     3c0:	00010640 0001063c 00010634 00010638     @...<...4...8...
     3d0:	7ffffffe 0fff0000 0000413c 00001bac     ........<A......
     3e0:	0000c438 000044cc 00002010 000044a8     8....D... ...D..
     3f0:	000042b8 00004458 000041a0 000041fc     .B..XD...A...A..
     400:	000012c0 00004724 1e5f35c2 0000115c     ....$G...5_.\...
     410:	00001530 00002458 003cbe80 00010001     0...X$....<.....
     420:	000052a4 00005540 00000688 00004e20     .R..@U...... N..
     430:	000031f4 00003a18 0000400c 00003ae0     .1...:...@...:..
     440:	00007844 00006b00 00006970 00004b20     Dx...k..pi.. K..
     450:	00006c80 000027a8 0000ec6c 0000ec28     .l...'..l...(...
     460:	51eb851f 0000ac44 000075c4 0000e380     ...QD....u......
     470:	00004b88 00007918 00006148 00001400     .K...y..Ha......
     480:	000017cc 000067b0 000100f0 0000ff00     .....g..........
     490:	0000ff10 00001490 00009ad8 0000e2b8     ................
     4a0:	0000e100 0000ece8 000083b0 0000e0c0     ................
     4b0:	0000ce60 0000cc40 0000ecb0 0000e850     `...@.......P...
     4c0:	00001a44 0001fffe ec07ff50 0000748a     D.......P....t..
     4d0:	000071a8 00006ed0 00007938 00007878     .q...n..8y..xx..
     4e0:	19003e82 000076c8 00001658 3cbe6b83     .>...v..X....k.<
     4f0:	0004e666 000010a0 0009cccd f0523471     f...........q4R.
     500:	00001364 e7e467bb 436e439a 0000f1ec     d....g...CnC....
     510:	00027332 0001f5c4 0003c7ae 0009cccc     2s..............
     520:	797cd707 00007f3b 3fff0000 1fff8000     ..|y;......?....
     530:	0000195c 00001584 00001a7c 000102d0     \.......|.......
     540:	0000a10d 0000a28f 0000a483 3ffffff0     ...............?
     550:	000019d0 e56d0000 000016fc 7fff0000     ......m.........
     560:	13333333 6ccccccd 00008658 0000b490     333....lX.......
     570:	3f7fffff 0000ed0c 00008f80 0000a4a0     ...?............
     580:	00009590 00008780 0000a938 00003b2c     ........8...,;..
     590:	0000ad90 00007b18 00009dd8 00007970     .....{......py..
     5a0:	0000a760 00009148 0000c1c8 00002968     `...H.......h)..
     5b0:	00010300 0000cb7c 00010330 0000de8c     ....|...0.......
     5c0:	0000dfdc 00001220 23333340 7ffeffff     .... ...@33#....
     5d0:	000018f0 00010310 00004920 4001a36e     ........ I..n..@
     5e0:	0000e3cc 00010350 00010360 0000fe60     ....P...`...`...
     5f0:	0000060c                                ....

000005f4 <_init>:
     5f4:	008136        	entry	a1, 64
     5f7:	fe8281        	l32r	a8, 0 (640 <frame_dummy>)
     5fa:	f03d           	nop.n
     5fc:	0008e0        	callx8	a8
     5ff:	fe8181        	l32r	a8, 4 (eb20 <__do_global_ctors_aux>)
     602:	f03d           	nop.n
     604:	0008e0        	callx8	a8
     607:	f01d           	retw.n

00000609 <_init+0x15>:
     609:	000000                                        ...

0000060c <__do_global_dtors_aux>:
     60c:	004136        	entry	a1, 32
     60f:	fe7e21        	l32r	a2, 8 (fe8c <__do_global_dtors_aux.completed>)
     612:	000232        	l8ui	a3, a2, 0
     615:	23ec           	bnez.n	a3, 63b <__do_global_dtors_aux+0x2f>

00000617 <__do_global_dtors_aux+0xb>:
     617:	1248           	l32i.n	a4, a2, 4
     619:	0438           	l32i.n	a3, a4, 0
     61b:	444b           	addi.n	a4, a4, 4
     61d:	738c           	beqz.n	a3, 628 <__do_global_dtors_aux+0x1c>
     61f:	1249           	s32i.n	a4, a2, 4
     621:	0003e0        	callx8	a3
     624:	fffbc6        	j	617 <__do_global_dtors_aux+0xb>

00000627 <__do_global_dtors_aux+0x1b>:
	...

00000628 <__do_global_dtors_aux+0x1c>:
     628:	fe7931        	l32r	a3, c (0 <_text_start>)
     62b:	fe79a1        	l32r	a10, 10 (fe58 <__FRAME_END__>)
     62e:	438c           	beqz.n	a3, 636 <__do_global_dtors_aux+0x2a>
     630:	fe7781        	l32r	a8, c (0 <_text_start>)
     633:	0008e0        	callx8	a8
     636:	130c           	movi.n	a3, 1
     638:	004232        	s8i	a3, a2, 0
     63b:	f01d           	retw.n

0000063d <__do_global_dtors_aux+0x31>:
     63d:	000000                                        ...

00000640 <frame_dummy>:
     640:	004136        	entry	a1, 32
     643:	fe7421        	l32r	a2, 14 (0 <_text_start>)
     646:	fe72a1        	l32r	a10, 10 (fe58 <__FRAME_END__>)
     649:	fe73b1        	l32r	a11, 18 (fe74 <frame_dummy.object>)
     64c:	428c           	beqz.n	a2, 654 <frame_dummy+0x14>
     64e:	fe7181        	l32r	a8, 14 (0 <_text_start>)
     651:	0008e0        	callx8	a8

00000654 <frame_dummy+0x14>:
     654:	f01d           	retw.n

00000656 <frame_dummy+0x16>:
	...

00000658 <_start>:
     658:	004136        	entry	a1, 32
     65b:	fe7031        	l32r	a3, 1c (10374 <printf_ptr>)
     65e:	0228           	l32i.n	a2, a2, 0
     660:	fe70a1        	l32r	a10, 20 (feac <export_parameter_array+0xc>)
     663:	fe70b1        	l32r	a11, 24 (ee0 <LC3PLUSI_Enc_Prcs>)
     666:	0329           	s32i.n	a2, a3, 0
     668:	0002e0        	callx8	a2
     66b:	0328           	l32i.n	a2, a3, 0
     66d:	fe6ea1        	l32r	a10, 28 (fec4 <export_parameter_array+0x24>)
     670:	fe6fb1        	l32r	a11, 2c (f24 <LC3PLUSI_Dec_Prcs>)
     673:	0002e0        	callx8	a2
     676:	0328           	l32i.n	a2, a3, 0
     678:	fe6ea1        	l32r	a10, 30 (fedc <export_parameter_array+0x3c>)
     67b:	fe6eb1        	l32r	a11, 34 (f14 <LC3PLUSI_Dec_Get_Param>)
     67e:	0002e0        	callx8	a2
     681:	fe6d21        	l32r	a2, 38 (fea0 <export_parameter_array>)
     684:	f01d           	retw.n

00000686 <_start+0x2e>:
	...

00000688 <memset>:
     688:	004136        	entry	a1, 32
     68b:	a28c           	beqz.n	a2, 699 <memset+0x11>
     68d:	848c           	beqz.n	a4, 699 <memset+0x11>
     68f:	025d           	mov.n	a5, a2
     691:	048476        	loop	a4, 699 <memset+0x11>
     694:	004532        	s8i	a3, a5, 0
     697:	551b           	addi.n	a5, a5, 1

00000699 <memset+0x11>:
     699:	f01d           	retw.n

0000069b <memset+0x13>:
	...

0000069c <memcpy>:
     69c:	004136        	entry	a1, 32
     69f:	025d           	mov.n	a5, a2
     6a1:	020c           	movi.n	a2, 0
     6a3:	d5bc           	beqz.n	a5, 6e4 <memcpy+0x48>
     6a5:	b3bc           	beqz.n	a3, 6e4 <memcpy+0x48>
     6a7:	24b357        	bgeu	a3, a5, 6cf <memcpy+0x33>
     6aa:	234a           	add.n	a2, a3, a4
     6ac:	1fb527        	bgeu	a5, a2, 6cf <memcpy+0x33>
     6af:	052d           	mov.n	a2, a5
     6b1:	f4ac           	beqz.n	a4, 6e4 <memcpy+0x48>
     6b3:	243a           	add.n	a2, a4, a3
     6b5:	320b           	addi.n	a3, a2, -1
     6b7:	0f8476        	loop	a4, 6ca <memcpy+0x2e>
     6ba:	254a           	add.n	a2, a5, a4
     6bc:	000362        	l8ui	a6, a3, 0
     6bf:	220b           	addi.n	a2, a2, -1
     6c1:	004262        	s8i	a6, a2, 0
     6c4:	330b           	addi.n	a3, a3, -1
     6c6:	440b           	addi.n	a4, a4, -1
     6c8:	052d           	mov.n	a2, a5

000006ca <memcpy+0x2e>:
     6ca:	000586        	j	6e4 <memcpy+0x48>

000006cd <memcpy+0x31>:
	...

000006cf <memcpy+0x33>:
     6cf:	052d           	mov.n	a2, a5
     6d1:	f48c           	beqz.n	a4, 6e4 <memcpy+0x48>
     6d3:	056d           	mov.n	a6, a5
     6d5:	0b8476        	loop	a4, 6e4 <memcpy+0x48>
     6d8:	000322        	l8ui	a2, a3, 0
     6db:	004622        	s8i	a2, a6, 0
     6de:	331b           	addi.n	a3, a3, 1
     6e0:	052d           	mov.n	a2, a5
     6e2:	661b           	addi.n	a6, a6, 1

000006e4 <memcpy+0x48>:
     6e4:	f01d           	retw.n

000006e6 <memcpy+0x4a>:
	...

000006e8 <memmove>:
     6e8:	004136        	entry	a1, 32
     6eb:	fe5451        	l32r	a5, 3c (69c <memcpy>)
     6ee:	02ad           	mov.n	a10, a2
     6f0:	03bd           	mov.n	a11, a3
     6f2:	04cd           	mov.n	a12, a4
     6f4:	0005e0        	callx8	a5
     6f7:	f01d           	retw.n

000006f9 <memmove+0x11>:
     6f9:	000000                                        ...

000006fc <LC3PLUSI_Tab_Link>:
     6fc:	004136        	entry	a1, 32
     6ff:	fe53e1        	l32r	a14, 4c (10384 <LC3Plus_LowDelayShapes_n960_len_5ms>)
     702:	fe51c1        	l32r	a12, 48 (10380 <LC3Plus_LowDelayShapes_n960>)
     705:	40c272        	addi	a7, a2, 64
     708:	fe4f41        	l32r	a4, 44 (1037c <LC3Plus_LowDelayShapes_n960_la_zeroes>)
     70b:	fe5281        	l32r	a8, 54 (1038c <LC3Plus_LowDelayShapes_n960_5ms>)
     70e:	0e79           	s32i.n	a7, a14, 0
     710:	28c2f2        	addi	a15, a2, 40
     713:	fe4f61        	l32r	a6, 50 (10388 <LC3Plus_LowDelayShapes_n960_la_zeroes_5ms>)
     716:	fe51e1        	l32r	a14, 5c (10394 <LC3Plus_LowDelayShapes_n960_la_zeroes_2_5ms>)
     719:	0cf9           	s32i.n	a15, a12, 0
     71b:	18c2d2        	addi	a13, a2, 24
     71e:	60c2b2        	addi	a11, a2, 96
     721:	fe4da1        	l32r	a10, 58 (10390 <LC3Plus_LowDelayShapes_n960_len_2_5ms>)
     724:	88a0c2        	movi	a12, 136
     727:	04d9           	s32i.n	a13, a4, 0
     729:	08b9           	s32i.n	a11, a8, 0
     72b:	42ca           	add.n	a4, a2, a12
     72d:	50c292        	addi	a9, a2, 80
     730:	fe4431        	l32r	a3, 40 (10378 <LC3Plus_LowDelayShapes_n960_len>)
     733:	fe4c81        	l32r	a8, 64 (1039c <LC3Plus_LowDelayShapes_n960_HRA_2_5ms>)
     736:	0699           	s32i.n	a9, a6, 0
     738:	78c2d2        	addi	a13, a2, 120
     73b:	0e49           	s32i.n	a4, a14, 0
     73d:	b0a072        	movi	a7, 176
     740:	fe4861        	l32r	a6, 60 (10398 <LC3Plus_LowDelayShapes_n960_2_5ms>)
     743:	fe4ac1        	l32r	a12, 6c (103a4 <LC3Plus_LowDelayShapes_n960_HRA>)
     746:	fe4be1        	l32r	a14, 74 (103aa <LC3Plus_NN_thresh_exp>)
     749:	0ad9           	s32i.n	a13, a10, 0
     74b:	427a           	add.n	a4, a2, a7
     74d:	528b           	addi.n	a5, a2, 8
     74f:	98a0f2        	movi	a15, 152
     752:	fe45a1        	l32r	a10, 68 (103a0 <LC3Plus_LowDelayShapes_n960_HRA_5ms>)
     755:	c0a0b2        	movi	a11, 192
     758:	fe46d1        	l32r	a13, 70 (103a8 <LC3Plus_NN_thresh>)
     75b:	0849           	s32i.n	a4, a8, 0
     75d:	42ba           	add.n	a4, a2, a11
     75f:	0359           	s32i.n	a5, a3, 0
     761:	52fa           	add.n	a5, a2, a15
     763:	689272        	l16si	a7, a2, 208
     766:	b8a092        	movi	a9, 184
     769:	fe4381        	l32r	a8, 78 (103ac <LC3Plus_BW_thresh_quiet>)
     76c:	0659           	s32i.n	a5, a6, 0
     76e:	529a           	add.n	a5, a2, a9
     770:	6e7d           	ae_s16i.n	a7, a14, 0
     772:	0c49           	s32i.n	a4, a12, 0
     774:	6492f2        	l16si	a15, a2, 200
     777:	d8a062        	movi	a6, 216
     77a:	fe4091        	l32r	a9, 7c (103b0 <LC3Plus_BW_thresh_quiet_exp>)
     77d:	fe40c1        	l32r	a12, 80 (103b4 <LC3Plus_BW_thresh_brickwall>)
     780:	fe41e1        	l32r	a14, 84 (103b8 <LC3Plus_BW_brickwall_dist>)
     783:	6dfd           	ae_s16i.n	a15, a13, 0
     785:	426a           	add.n	a4, a2, a6
     787:	0a59           	s32i.n	a5, a10, 0
     789:	f0a0a2        	movi	a10, 240
     78c:	f8a0d2        	movi	a13, 248
     78f:	fe3e61        	l32r	a6, 88 (103bc <LC3Plus_BW_warp_idx_start_all>)
     792:	32aa           	add.n	a3, a2, a10
     794:	52da           	add.n	a5, a2, a13
     796:	0849           	s32i.n	a4, a8, 0
     798:	e802b2        	l8ui	a11, a2, 232
     79b:	40a1f2        	movi	a15, 0x140
     79e:	fe3b81        	l32r	a8, 8c (103c0 <LC3Plus_BW_warp_idx_stop_all>)
     7a1:	fe3ba1        	l32r	a10, 90 (103c4 <LC3Plus_BW_brickwall_dist_5ms>)
     7a4:	0049b2        	s8i	a11, a9, 0
     7a7:	42fa           	add.n	a4, a2, a15
     7a9:	0c39           	s32i.n	a3, a12, 0
     7ab:	0e59           	s32i.n	a5, a14, 0
     7ad:	50a172        	movi	a7, 0x150
     7b0:	60a192        	movi	a9, 0x160
     7b3:	fe38c1        	l32r	a12, 94 (103c8 <LC3Plus_BW_warp_idx_start_all_5ms>)
     7b6:	fe38e1        	l32r	a14, 98 (103cc <LC3Plus_BW_warp_idx_stop_all_5ms>)
     7b9:	0649           	s32i.n	a4, a6, 0
     7bb:	527a           	add.n	a5, a2, a7
     7bd:	429a           	add.n	a4, a2, a9
     7bf:	a8a1b2        	movi	a11, 0x1a8
     7c2:	b8a1d2        	movi	a13, 0x1b8
     7c5:	fe3561        	l32r	a6, 9c (103d0 <LC3Plus_BW_warp_idx_start_all_2_5ms>)
     7c8:	0859           	s32i.n	a5, a8, 0
     7ca:	0a49           	s32i.n	a4, a10, 0
     7cc:	52ba           	add.n	a5, a2, a11
     7ce:	42da           	add.n	a4, a2, a13
     7d0:	10a2f2        	movi	a15, 0x210
     7d3:	fe3381        	l32r	a8, a0 (103d4 <LC3Plus_BW_warp_idx_stop_all_2_5ms>)
     7d6:	fe33a1        	l32r	a10, a4 (103d8 <LC3Plus_BW_cutoff_bin_all>)
     7d9:	0c59           	s32i.n	a5, a12, 0
     7db:	52fa           	add.n	a5, a2, a15
     7dd:	0e49           	s32i.n	a4, a14, 0
     7df:	20a272        	movi	a7, 0x220
     7e2:	30a292        	movi	a9, 0x230
     7e5:	fe30c1        	l32r	a12, a8 (103dc <LC3Plus_BW_cutoff_bin_all_HR>)
     7e8:	fe31e1        	l32r	a14, ac (103e0 <LC3Plus_BW_cutoff_bits_all>)
     7eb:	0659           	s32i.n	a5, a6, 0
     7ed:	427a           	add.n	a4, a2, a7
     7ef:	529a           	add.n	a5, a2, a9
     7f1:	40a2b2        	movi	a11, 0x240
     7f4:	50a2d2        	movi	a13, 0x250
     7f7:	0849           	s32i.n	a4, a8, 0
     7f9:	0a59           	s32i.n	a5, a10, 0
     7fb:	42ba           	add.n	a4, a2, a11
     7fd:	52da           	add.n	a5, a2, a13
     7ff:	fe2cf1        	l32r	a15, b0 (103e4 <LC3Plus_tns_subdiv_startfreq>)
     802:	fe2c81        	l32r	a8, b4 (103e8 <LC3Plus_tns_subdiv_stopfreq>)
     805:	fe2ca1        	l32r	a10, b8 (103ec <LC3Plus_tns_subdiv_startfreq_48k_HR>)
     808:	0c49           	s32i.n	a4, a12, 0
     80a:	0e59           	s32i.n	a5, a14, 0
     80c:	18a362        	movi	a6, 0x318
     80f:	30a392        	movi	a9, 0x330
     812:	fe2ac1        	l32r	a12, bc (103f0 <LC3Plus_tns_subdiv_stopfreq_48k_HR>)
     815:	fe2ae1        	l32r	a14, c0 (103f4 <LC3Plus_tns_subdiv_startfreq_96k_HR>)
     818:	326a           	add.n	a3, a2, a6
     81a:	529a           	add.n	a5, a2, a9
     81c:	03d272        	addmi	a7, a2, 0x300
     81f:	40a3b2        	movi	a11, 0x340
     822:	50a3d2        	movi	a13, 0x350
     825:	fe2761        	l32r	a6, c4 (103f8 <LC3Plus_tns_subdiv_stopfreq_96k_HR>)
     828:	0f79           	s32i.n	a7, a15, 0
     82a:	0a59           	s32i.n	a5, a10, 0
     82c:	42ba           	add.n	a4, a2, a11
     82e:	52da           	add.n	a5, a2, a13
     830:	0839           	s32i.n	a3, a8, 0
     832:	60a3f2        	movi	a15, 0x360
     835:	fe2481        	l32r	a8, c8 (103fc <LC3Plus_tns_subdiv_startfreq_HR>)
     838:	fe25a1        	l32r	a10, cc (10400 <LC3Plus_tns_subdiv_stopfreq_HR>)
     83b:	0c49           	s32i.n	a4, a12, 0
     83d:	42fa           	add.n	a4, a2, a15
     83f:	0e59           	s32i.n	a5, a14, 0
     841:	70a372        	movi	a7, 0x370
     844:	78a392        	movi	a9, 0x378
     847:	fe22c1        	l32r	a12, d0 (10404 <LC3Plus_tns_subdiv_startfreq_5ms_HR>)
     84a:	fe22e1        	l32r	a14, d4 (10408 <LC3Plus_tns_subdiv_stopfreq_5ms_HR>)
     84d:	0649           	s32i.n	a4, a6, 0
     84f:	527a           	add.n	a5, a2, a7
     851:	429a           	add.n	a4, a2, a9
     853:	f0a3b2        	movi	a11, 0x3f0
     856:	f8a3d2        	movi	a13, 0x3f8
     859:	0859           	s32i.n	a5, a8, 0
     85b:	0a49           	s32i.n	a4, a10, 0
     85d:	52ba           	add.n	a5, a2, a11
     85f:	42da           	add.n	a4, a2, a13
     861:	fe1df1        	l32r	a15, d8 (1040c <LC3Plus_tns_subdiv_startfreq_5ms>)
     864:	fe1e81        	l32r	a8, dc (10410 <LC3Plus_tns_subdiv_stopfreq_5ms>)
     867:	fe1ea1        	l32r	a10, e0 (10414 <LC3Plus_tns_subdiv_startfreq_2_5ms_HR>)
     86a:	0c59           	s32i.n	a5, a12, 0
     86c:	0e49           	s32i.n	a4, a14, 0
     86e:	18a462        	movi	a6, 0x418
     871:	a0a492        	movi	a9, 0x4a0
     874:	fe1cc1        	l32r	a12, e4 (10418 <LC3Plus_tns_subdiv_stopfreq_2_5ms_HR>)
     877:	fe1ce1        	l32r	a14, e8 (1041c <LC3Plus_tns_subdiv_startfreq_2_5ms>)
     87a:	326a           	add.n	a3, a2, a6
     87c:	529a           	add.n	a5, a2, a9
     87e:	04d272        	addmi	a7, a2, 0x400
     881:	a8a4b2        	movi	a11, 0x4a8
     884:	b0a4d2        	movi	a13, 0x4b0
     887:	fe1961        	l32r	a6, ec (10420 <LC3Plus_tns_subdiv_stopfreq_2_5ms>)
     88a:	0f79           	s32i.n	a7, a15, 0
     88c:	0a59           	s32i.n	a5, a10, 0
     88e:	42ba           	add.n	a4, a2, a11
     890:	52da           	add.n	a5, a2, a13
     892:	0839           	s32i.n	a3, a8, 0
     894:	c8a4f2        	movi	a15, 0x4c8
     897:	fe1681        	l32r	a8, f0 (10424 <LC3Plus_tnsAcfWindow>)
     89a:	0c49           	s32i.n	a4, a12, 0
     89c:	42fa           	add.n	a4, a2, a15
     89e:	0e59           	s32i.n	a5, a14, 0
     8a0:	e0a472        	movi	a7, 0x4e0
     8a3:	fe1491        	l32r	a9, f4 (10428 <LC3Plus_tnsQuantThr>)
     8a6:	fe15e1        	l32r	a14, fc (10430 <LC3Plus_ac_tns_coef_bits>)
     8a9:	527a           	add.n	a5, a2, a7
     8ab:	0649           	s32i.n	a4, a6, 0
     8ad:	20a5a2        	movi	a10, 0x520
     8b0:	fe12c1        	l32r	a12, f8 (1042c <LC3Plus_ac_tns_order_bits>)
     8b3:	40a5d2        	movi	a13, 0x540
     8b6:	fe1261        	l32r	a6, 100 (10434 <LC3Plus_tnsQuantPts>)
     8b9:	0859           	s32i.n	a5, a8, 0
     8bb:	32aa           	add.n	a3, a2, a10
     8bd:	52da           	add.n	a5, a2, a13
     8bf:	05d2b2        	addmi	a11, a2, 0x500
     8c2:	50a6f2        	movi	a15, 0x650
     8c5:	fe0f81        	l32r	a8, 104 (10438 <LC3Plus_ac_tns_order_freq>)
     8c8:	fe10a1        	l32r	a10, 108 (1043c <LC3Plus_ac_tns_order_cumfreq>)
     8cb:	09b9           	s32i.n	a11, a9, 0
     8cd:	42fa           	add.n	a4, a2, a15
     8cf:	0e59           	s32i.n	a5, a14, 0
     8d1:	78a672        	movi	a7, 0x678
     8d4:	98a692        	movi	a9, 0x698
     8d7:	fe0ee1        	l32r	a14, 110 (10444 <LC3Plus_ac_tns_coef_cumfreq>)
     8da:	0649           	s32i.n	a4, a6, 0
     8dc:	527a           	add.n	a5, a2, a7
     8de:	429a           	add.n	a4, a2, a9
     8e0:	0c39           	s32i.n	a3, a12, 0
     8e2:	fe0ac1        	l32r	a12, 10c (10440 <LC3Plus_ac_tns_coef_freq>)
     8e5:	c8a7d2        	movi	a13, 0x7c8
     8e8:	0a49           	s32i.n	a4, a10, 0
     8ea:	42da           	add.n	a4, a2, a13
     8ec:	0859           	s32i.n	a5, a8, 0
     8ee:	b8a6b2        	movi	a11, 0x6b8
     8f1:	774c           	movi.n	a7, 71
     8f3:	fe0981        	l32r	a8, 118 (1044c <LC3Plus_ari_spec_lookup>)
     8f6:	52ba           	add.n	a5, a2, a11
     8f8:	0e49           	s32i.n	a4, a14, 0
     8fa:	1147b0        	slli	a4, a7, 5
     8fd:	1ba1f2        	movi	a15, 0x11b
     900:	fe0561        	l32r	a6, 114 (10448 <LC3Plus_Tab_esc_nb>)
     903:	0c59           	s32i.n	a5, a12, 0
     905:	115fd0        	slli	a5, a15, 3
     908:	424a           	add.n	a4, a2, a4
     90a:	0ba1b2        	movi	a11, 0x10b
     90d:	fe04c1        	l32r	a12, 120 (10454 <LC3Plus_ari_spec_freq>)
     910:	0849           	s32i.n	a4, a8, 0
     912:	114bb0        	slli	a4, a11, 5
     915:	525a           	add.n	a5, a2, a5
     917:	c7a092        	movi	a9, 199
     91a:	fe00a1        	l32r	a10, 11c (10450 <LC3Plus_ari_spec_cumfreq>)
     91d:	0659           	s32i.n	a5, a6, 0
     91f:	1159b0        	slli	a5, a9, 5
     922:	424a           	add.n	a4, a2, a4
     924:	93a1f2        	movi	a15, 0x193
     927:	fe0061        	l32r	a6, 128 (1045c <LC3Plus_lpc_pre_emphasis>)
     92a:	0c49           	s32i.n	a4, a12, 0
     92c:	114fb0        	slli	a4, a15, 5
     92f:	525a           	add.n	a5, a2, a5
     931:	4fa1d2        	movi	a13, 0x14f
     934:	fdfce1        	l32r	a14, 124 (10458 <LC3Plus_ari_spec_bits>)
     937:	0a59           	s32i.n	a5, a10, 0
     939:	115db0        	slli	a5, a13, 5
     93c:	424a           	add.n	a4, a2, a4
     93e:	b5a192        	movi	a9, 0x1b5
     941:	fdfba1        	l32r	a10, 130 (10464 <LC3Plus_lpc_lin_pre_emphasis>)
     944:	0649           	s32i.n	a4, a6, 0
     946:	1149b0        	slli	a4, a9, 5
     949:	525a           	add.n	a5, a2, a5
     94b:	4fa672        	movi	a7, 0x64f
     94e:	fdf781        	l32r	a8, 12c (10460 <LC3Plus_lpc_pre_emphasis_e>)
     951:	0e59           	s32i.n	a5, a14, 0
     953:	1157d0        	slli	a5, a7, 3
     956:	424a           	add.n	a4, a2, a4
     958:	6da3d2        	movi	a13, 0x36d
     95b:	fdf7e1        	l32r	a14, 138 (1046c <LC3Plus_lpc_lin_pre_emphasis_5ms>)
     95e:	0a49           	s32i.n	a4, a10, 0
     960:	114dc0        	slli	a4, a13, 4
     963:	525a           	add.n	a5, a2, a5
     965:	d7a6b2        	movi	a11, 0x6d7
     968:	fdf3c1        	l32r	a12, 134 (10468 <LC3Plus_lpc_lin_pre_emphasis_e>)
     96b:	0859           	s32i.n	a5, a8, 0
     96d:	115bd0        	slli	a5, a11, 3
     970:	424a           	add.n	a4, a2, a4
     972:	0e49           	s32i.n	a4, a14, 0
     974:	525a           	add.n	a5, a2, a5
     976:	dda6f2        	movi	a15, 0x6dd
     979:	fdf041        	l32r	a4, 13c (10470 <LC3Plus_lpc_lin_pre_emphasis_e_5ms>)
     97c:	0c59           	s32i.n	a5, a12, 0
     97e:	115fd0        	slli	a5, a15, 3
     981:	fdef61        	l32r	a6, 140 (10474 <LC3Plus_lpc_lin_pre_emphasis_2_5ms>)
     984:	525a           	add.n	a5, a2, a5
     986:	09a7c2        	movi	a12, 0x709
     989:	fdf0d1        	l32r	a13, 14c (10480 <LC3Plus_lpc_warp_dee_emphasis_e>)
     98c:	0459           	s32i.n	a5, a4, 0
     98e:	114cd0        	slli	a4, a12, 3
     991:	e3a672        	movi	a7, 0x6e3
     994:	37d282        	addmi	a8, a2, 0x3700
     997:	83a3a2        	movi	a10, 0x383
     99a:	fdebb1        	l32r	a11, 148 (1047c <LC3Plus_lpc_warp_dee_emphasis>)
     99d:	1137d0        	slli	a3, a7, 3
     9a0:	115ac0        	slli	a5, a10, 4
     9a3:	0689           	s32i.n	a8, a6, 0
     9a5:	424a           	add.n	a4, a2, a4
     9a7:	fde791        	l32r	a9, 144 (10478 <LC3Plus_lpc_lin_pre_emphasis_e_2_5ms>)
     9aa:	c5a162        	movi	a6, 0x1c5
     9ad:	fde971        	l32r	a7, 154 (10488 <LC3Plus_bands_offset>)
     9b0:	0d49           	s32i.n	a4, a13, 0
     9b2:	1146b0        	slli	a4, a6, 5
     9b5:	525a           	add.n	a5, a2, a5
     9b7:	c3a1e2        	movi	a14, 0x1c3
     9ba:	fde5f1        	l32r	a15, 150 (10484 <LC3Plus_bands_nrg_scale>)
     9bd:	0b59           	s32i.n	a5, a11, 0
     9bf:	115eb0        	slli	a5, a14, 5
     9c2:	323a           	add.n	a3, a2, a3
     9c4:	424a           	add.n	a4, a2, a4
     9c6:	8da3a2        	movi	a10, 0x38d
     9c9:	fde4b1        	l32r	a11, 15c (10490 <LC3Plus_bands_offset_2_5ms>)
     9cc:	0939           	s32i.n	a3, a9, 0
     9ce:	0749           	s32i.n	a4, a7, 0
     9d0:	114ac0        	slli	a4, a10, 4
     9d3:	525a           	add.n	a5, a2, a5
     9d5:	17a782        	movi	a8, 0x717
     9d8:	fde091        	l32r	a9, 158 (1048c <LC3Plus_bands_offset_5ms>)
     9db:	0f59           	s32i.n	a5, a15, 0
     9dd:	1158d0        	slli	a5, a8, 3
     9e0:	424a           	add.n	a4, a2, a4
     9e2:	1fa7e2        	movi	a14, 0x71f
     9e5:	fddff1        	l32r	a15, 164 (10498 <LC3Plus_bands_number_2_5ms_HR>)
     9e8:	0b49           	s32i.n	a4, a11, 0
     9ea:	114ed0        	slli	a4, a14, 3
     9ed:	525a           	add.n	a5, a2, a5
     9ef:	1da7c2        	movi	a12, 0x71d
     9f2:	fddbd1        	l32r	a13, 160 (10494 <LC3Plus_bands_number_5ms>)
     9f5:	0959           	s32i.n	a5, a9, 0
     9f7:	115cd0        	slli	a5, a12, 3
     9fa:	424a           	add.n	a4, a2, a4
     9fc:	23a782        	movi	a8, 0x723
     9ff:	fddb91        	l32r	a9, 16c (104a0 <LC3Plus_bands_offset_with_one_max>)
     a02:	0f49           	s32i.n	a4, a15, 0
     a04:	1148d0        	slli	a4, a8, 3
     a07:	525a           	add.n	a5, a2, a5
     a09:	21a762        	movi	a6, 0x721
     a0c:	fdd771        	l32r	a7, 168 (1049c <LC3Plus_bands_number_2_5ms>)
     a0f:	0d59           	s32i.n	a5, a13, 0
     a11:	1156d0        	slli	a5, a6, 3
     a14:	424a           	add.n	a4, a2, a4
     a16:	27a7c2        	movi	a12, 0x727
     a19:	fdd6d1        	l32r	a13, 174 (104a8 <LC3Plus_bands_offset_with_one_max_5ms>)
     a1c:	0949           	s32i.n	a4, a9, 0
     a1e:	114cd0        	slli	a4, a12, 3
     a21:	525a           	add.n	a5, a2, a5
     a23:	25a7a2        	movi	a10, 0x725
     a26:	fdd2b1        	l32r	a11, 170 (104a4 <LC3Plus_bands_offset_with_two_max>)
     a29:	0759           	s32i.n	a5, a7, 0
     a2b:	115ad0        	slli	a5, a10, 3
     a2e:	424a           	add.n	a4, a2, a4
     a30:	2ba762        	movi	a6, 0x72b
     a33:	fdd271        	l32r	a7, 17c (104b0 <LC3Plus_bands_offset_with_one_max_2_5ms>)
     a36:	0d49           	s32i.n	a4, a13, 0
     a38:	1146d0        	slli	a4, a6, 3
     a3b:	525a           	add.n	a5, a2, a5
     a3d:	29a7e2        	movi	a14, 0x729
     a40:	fdcef1        	l32r	a15, 178 (104ac <LC3Plus_bands_offset_with_two_max_5ms>)
     a43:	0b59           	s32i.n	a5, a11, 0
     a45:	115ed0        	slli	a5, a14, 3
     a48:	424a           	add.n	a4, a2, a4
     a4a:	2fa7a2        	movi	a10, 0x72f
     a4d:	fdcdb1        	l32r	a11, 184 (104b8 <LC3Plus_bands_offset_HR>)
     a50:	0749           	s32i.n	a4, a7, 0
     a52:	114ad0        	slli	a4, a10, 3
     a55:	525a           	add.n	a5, a2, a5
     a57:	2da782        	movi	a8, 0x72d
     a5a:	fdc991        	l32r	a9, 180 (104b4 <LC3Plus_bands_offset_with_two_max_2_5ms>)
     a5d:	0f59           	s32i.n	a5, a15, 0
     a5f:	1158d0        	slli	a5, a8, 3
     a62:	424a           	add.n	a4, a2, a4
     a64:	31a7e2        	movi	a14, 0x731
     a67:	fdc9f1        	l32r	a15, 18c (104c0 <LC3Plus_bands_offset_2_5ms_HR>)
     a6a:	0b49           	s32i.n	a4, a11, 0
     a6c:	114ed0        	slli	a4, a14, 3
     a6f:	525a           	add.n	a5, a2, a5
     a71:	73a0c2        	movi	a12, 115
     a74:	fdc5d1        	l32r	a13, 188 (104bc <LC3Plus_bands_offset_5ms_HR>)
     a77:	0959           	s32i.n	a5, a9, 0
     a79:	115c90        	slli	a5, a12, 7
     a7c:	424a           	add.n	a4, a2, a4
     a7e:	35a782        	movi	a8, 0x735
     a81:	fdc491        	l32r	a9, 194 (104c8 <LC3Plus_bands_offset_lin_5ms>)
     a84:	0f49           	s32i.n	a4, a15, 0
     a86:	1148d0        	slli	a4, a8, 3
     a89:	525a           	add.n	a5, a2, a5
     a8b:	99a362        	movi	a6, 0x399
     a8e:	fdc071        	l32r	a7, 190 (104c4 <LC3Plus_bands_offset_lin>)
     a91:	0d59           	s32i.n	a5, a13, 0
     a93:	1156c0        	slli	a5, a6, 4
     a96:	424a           	add.n	a4, a2, a4
     a98:	3ba7c2        	movi	a12, 0x73b
     a9b:	fdc0d1        	l32r	a13, 19c (104d0 <LC3Plus_bands_offset_with_one_max_lin>)
     a9e:	0949           	s32i.n	a4, a9, 0
     aa0:	114cd0        	slli	a4, a12, 3
     aa3:	525a           	add.n	a5, a2, a5
     aa5:	e7a0a2        	movi	a10, 231
     aa8:	fdbcb1        	l32r	a11, 198 (104cc <LC3Plus_bands_offset_lin_2_5ms>)
     aab:	0759           	s32i.n	a5, a7, 0
     aad:	115aa0        	slli	a5, a10, 6
     ab0:	424a           	add.n	a4, a2, a4
     ab2:	3fa762        	movi	a6, 0x73f
     ab5:	fdbb71        	l32r	a7, 1a4 (104d8 <LC3Plus_bands_offset_with_one_max_lin_5ms>)
     ab8:	0d49           	s32i.n	a4, a13, 0
     aba:	1146d0        	slli	a4, a6, 3
     abd:	525a           	add.n	a5, a2, a5
     abf:	3da7e2        	movi	a14, 0x73d
     ac2:	fdb7f1        	l32r	a15, 1a0 (104d4 <LC3Plus_bands_offset_with_two_max_lin>)
     ac5:	0b59           	s32i.n	a5, a11, 0
     ac7:	115ed0        	slli	a5, a14, 3
     aca:	424a           	add.n	a4, a2, a4
     acc:	43a7a2        	movi	a10, 0x743
     acf:	fdb7b1        	l32r	a11, 1ac (104e0 <LC3Plus_bands_offset_with_one_max_lin_2_5ms>)
     ad2:	0749           	s32i.n	a4, a7, 0
     ad4:	114ad0        	slli	a4, a10, 3
     ad7:	525a           	add.n	a5, a2, a5
     ad9:	41a782        	movi	a8, 0x741
     adc:	fdb391        	l32r	a9, 1a8 (104dc <LC3Plus_bands_offset_with_two_max_lin_5ms>)
     adf:	0f59           	s32i.n	a5, a15, 0
     ae1:	1158d0        	slli	a5, a8, 3
     ae4:	424a           	add.n	a4, a2, a4
     ae6:	47a7e2        	movi	a14, 0x747
     ae9:	fdb2f1        	l32r	a15, 1b4 (104e8 <LC3Plus_inv_odft_twiddle_80_re>)
     aec:	0b49           	s32i.n	a4, a11, 0
     aee:	114ed0        	slli	a4, a14, 3
     af1:	525a           	add.n	a5, a2, a5
     af3:	45a7c2        	movi	a12, 0x745
     af6:	fdaed1        	l32r	a13, 1b0 (104e4 <LC3Plus_bands_offset_with_two_max_lin_2_5ms>)
     af9:	0959           	s32i.n	a5, a9, 0
     afb:	115cd0        	slli	a5, a12, 3
     afe:	424a           	add.n	a4, a2, a4
     b00:	57a782        	movi	a8, 0x757
     b03:	fdae91        	l32r	a9, 1bc (104f0 <LC3Plus_inv_odft_twiddle_60_re>)
     b06:	0f49           	s32i.n	a4, a15, 0
     b08:	1148d0        	slli	a4, a8, 3
     b0b:	525a           	add.n	a5, a2, a5
     b0d:	4fa762        	movi	a6, 0x74f
     b10:	fdaa71        	l32r	a7, 1b8 (104ec <LC3Plus_inv_odft_twiddle_80_im>)
     b13:	0d59           	s32i.n	a5, a13, 0
     b15:	1156d0        	slli	a5, a6, 3
     b18:	424a           	add.n	a4, a2, a4
     b1a:	67a7c2        	movi	a12, 0x767
     b1d:	fda9d1        	l32r	a13, 1c4 (104f8 <LC3Plus_inv_odft_twiddle_40_re>)
     b20:	0949           	s32i.n	a4, a9, 0
     b22:	114cd0        	slli	a4, a12, 3
     b25:	525a           	add.n	a5, a2, a5
     b27:	5fa7a2        	movi	a10, 0x75f
     b2a:	fda5b1        	l32r	a11, 1c0 (104f4 <LC3Plus_inv_odft_twiddle_60_im>)
     b2d:	0759           	s32i.n	a5, a7, 0
     b2f:	115ad0        	slli	a5, a10, 3
     b32:	424a           	add.n	a4, a2, a4
     b34:	77a762        	movi	a6, 0x777
     b37:	fda571        	l32r	a7, 1cc (10500 <LC3Plus_inv_odft_twiddle_20_re>)
     b3a:	0d49           	s32i.n	a4, a13, 0
     b3c:	1146d0        	slli	a4, a6, 3
     b3f:	525a           	add.n	a5, a2, a5
     b41:	6fa7e2        	movi	a14, 0x76f
     b44:	fda1f1        	l32r	a15, 1c8 (104fc <LC3Plus_inv_odft_twiddle_40_im>)
     b47:	0b59           	s32i.n	a5, a11, 0
     b49:	115ed0        	slli	a5, a14, 3
     b4c:	424a           	add.n	a4, a2, a4
     b4e:	87a7a2        	movi	a10, 0x787
     b51:	fda0b1        	l32r	a11, 1d4 (10508 <LC3Plus_resamp_filts>)
     b54:	0749           	s32i.n	a4, a7, 0
     b56:	114ad0        	slli	a4, a10, 3
     b59:	525a           	add.n	a5, a2, a5
     b5b:	7fa782        	movi	a8, 0x77f
     b5e:	fd9c91        	l32r	a9, 1d0 (10504 <LC3Plus_inv_odft_twiddle_20_im>)
     b61:	0f59           	s32i.n	a5, a15, 0
     b63:	1158d0        	slli	a5, a8, 3
     b66:	424a           	add.n	a4, a2, a4
     b68:	79a0e2        	movi	a14, 121
     b6b:	fd9cf1        	l32r	a15, 1dc (10510 <LC3Plus_highpass50_filt_num>)
     b6e:	0b49           	s32i.n	a4, a11, 0
     b70:	114e90        	slli	a4, a14, 7
     b73:	525a           	add.n	a5, a2, a5
     b75:	c5a3c2        	movi	a12, 0x3c5
     b78:	fd98d1        	l32r	a13, 1d8 (1050c <LC3Plus_resamp_params>)
     b7b:	0959           	s32i.n	a5, a9, 0
     b7d:	115cc0        	slli	a5, a12, 4
     b80:	424a           	add.n	a4, a2, a4
     b82:	c9a382        	movi	a8, 0x3c9
     b85:	fd9791        	l32r	a9, 1e4 (10518 <LC3Plus_olpa_ac_weighting>)
     b88:	0f49           	s32i.n	a4, a15, 0
     b8a:	1148c0        	slli	a4, a8, 4
     b8d:	525a           	add.n	a5, a2, a5
     b8f:	91a762        	movi	a6, 0x791
     b92:	fd9371        	l32r	a7, 1e0 (10514 <LC3Plus_highpass50_filt_den>)
     b95:	0d59           	s32i.n	a5, a13, 0
     b97:	1156d0        	slli	a5, a6, 3
     b9a:	424a           	add.n	a4, a2, a4
     b9c:	bba7c2        	movi	a12, 0x7bb
     b9f:	fd93d1        	l32r	a13, 1ec (10520 <LC3Plus_inter_filter>)
     ba2:	0949           	s32i.n	a4, a9, 0
     ba4:	114cd0        	slli	a4, a12, 3
     ba7:	525a           	add.n	a5, a2, a5
     ba9:	aba7a2        	movi	a10, 0x7ab
     bac:	fd8fb1        	l32r	a11, 1e8 (1051c <LC3Plus_ltpf_ac_interp_filt>)
     baf:	0759           	s32i.n	a5, a7, 0
     bb1:	115ad0        	slli	a5, a10, 3
     bb4:	424a           	add.n	a4, a2, a4
     bb6:	f9a762        	movi	a6, 0x7f9
     bb9:	fd8e71        	l32r	a7, 1f4 (10528 <LC3Plus_inter_filter_len>)
     bbc:	0d49           	s32i.n	a4, a13, 0
     bbe:	1146d0        	slli	a4, a6, 3
     bc1:	525a           	add.n	a5, a2, a5
     bc3:	f7a7e2        	movi	a14, 0x7f7
     bc6:	fd8af1        	l32r	a15, 1f0 (10524 <LC3Plus_inter_filter_shift>)
     bc9:	0b59           	s32i.n	a5, a11, 0
     bcb:	115ed0        	slli	a5, a14, 3
     bce:	424a           	add.n	a4, a2, a4
     bd0:	19a4a2        	movi	a10, 0x419
     bd3:	fd8ab1        	l32r	a11, 1fc (10530 <LC3Plus_tilt_filter_len>)
     bd6:	0749           	s32i.n	a4, a7, 0
     bd8:	114ac0        	slli	a4, a10, 4
     bdb:	525a           	add.n	a5, a2, a5
     bdd:	fba782        	movi	a8, 0x7fb
     be0:	fd8691        	l32r	a9, 1f8 (1052c <LC3Plus_tilt_filter>)
     be3:	0f59           	s32i.n	a5, a15, 0
     be5:	1158d0        	slli	a5, a8, 3
     be8:	424a           	add.n	a4, a2, a4
     bea:	a8a0e2        	movi	a14, 168
     bed:	fd85f1        	l32r	a15, 204 (10538 <LC3Plus_pitch_scale>)
     bf0:	0b49           	s32i.n	a4, a11, 0
     bf2:	41de42        	addmi	a4, a14, 0x4100
     bf5:	525a           	add.n	a5, a2, a5
     bf7:	0da2c2        	movi	a12, 0x20d
     bfa:	fd81d1        	l32r	a13, 200 (10534 <LC3Plus_gain_scale_fac>)
     bfd:	0959           	s32i.n	a5, a9, 0
     bff:	115cb0        	slli	a5, a12, 5
     c02:	424a           	add.n	a4, a2, a4
     c04:	c8a082        	movi	a8, 200
     c07:	fd8191        	l32r	a9, 20c (10540 <LC3Plus_plc_preemph_fac>)
     c0a:	0f49           	s32i.n	a4, a15, 0
     c0c:	41d842        	addmi	a4, a8, 0x4100
     c0f:	525a           	add.n	a5, a2, a5
     c11:	b8a062        	movi	a6, 184
     c14:	fd7d71        	l32r	a7, 208 (1053c <LC3Plus_ltpf_overlap_len>)
     c17:	0d59           	s32i.n	a5, a13, 0
     c19:	41d652        	addmi	a5, a6, 0x4100
     c1c:	424a           	add.n	a4, a2, a4
     c1e:	1fa4c2        	movi	a12, 0x41f
     c21:	fd7cd1        	l32r	a13, 214 (10548 <LC3Plus_TDC_high_32_fx>)
     c24:	0949           	s32i.n	a4, a9, 0
     c26:	114cc0        	slli	a4, a12, 4
     c29:	525a           	add.n	a5, a2, a5
     c2b:	d8a0a2        	movi	a10, 216
     c2e:	fd78b1        	l32r	a11, 210 (10544 <LC3Plus_TDC_high_16_fx>)
     c31:	0759           	s32i.n	a5, a7, 0
     c33:	41da52        	addmi	a5, a10, 0x4100
     c36:	424a           	add.n	a4, a2, a4
     c38:	11a262        	movi	a6, 0x211
     c3b:	fd7871        	l32r	a7, 21c (10550 <LC3Plus_TDC_high_32_harm_fx>)
     c3e:	0d49           	s32i.n	a4, a13, 0
     c40:	1146b0        	slli	a4, a6, 5
     c43:	525a           	add.n	a5, a2, a5
     c45:	8e0c           	movi.n	a14, 8
     c47:	fd74f1        	l32r	a15, 218 (1054c <LC3Plus_TDC_high_16_harm_fx>)
     c4a:	0b59           	s32i.n	a5, a11, 0
     c4c:	42de52        	addmi	a5, a14, 0x4200
     c4f:	424a           	add.n	a4, a2, a4
     c51:	25a4a2        	movi	a10, 0x425
     c54:	fd74b1        	l32r	a11, 224 (10558 <LC3Plus_rectLengthTab>)
     c57:	0749           	s32i.n	a4, a7, 0
     c59:	114ac0        	slli	a4, a10, 4
     c5c:	525a           	add.n	a5, a2, a5
     c5e:	883c           	movi.n	a8, 56
     c60:	fd7091        	l32r	a9, 220 (10554 <LC3Plus_lag_win>)
     c63:	0f59           	s32i.n	a5, a15, 0
     c65:	42d852        	addmi	a5, a8, 0x4200
     c68:	424a           	add.n	a4, a2, a4
     c6a:	98a0e2        	movi	a14, 152
     c6d:	fd6ff1        	l32r	a15, 22c (10560 <LC3Plus_sns_gainSz>)
     c70:	0b49           	s32i.n	a4, a11, 0
     c72:	42de42        	addmi	a4, a14, 0x4200
     c75:	525a           	add.n	a5, a2, a5
     c77:	88a0c2        	movi	a12, 136
     c7a:	fd6bd1        	l32r	a13, 228 (1055c <LC3Plus_sns_gaintabPtr>)
     c7d:	0959           	s32i.n	a5, a9, 0
     c7f:	42dc52        	addmi	a5, a12, 0x4200
     c82:	424a           	add.n	a4, a2, a4
     c84:	68a782        	movi	a8, 0x768
     c87:	fd6b91        	l32r	a9, 234 (10568 <LC3Plus_sns_Kval>)
     c8a:	0f49           	s32i.n	a4, a15, 0
     c8c:	b04880        	addx8	a4, a8, a8
     c8f:	525a           	add.n	a5, a2, a5
     c91:	15a262        	movi	a6, 0x215
     c94:	fd6771        	l32r	a7, 230 (10564 <LC3Plus_sns_gainMSBbits>)
     c97:	0d59           	s32i.n	a5, a13, 0
     c99:	1156b0        	slli	a5, a6, 5
     c9c:	424a           	add.n	a4, a2, a4
     c9e:	d8a0c2        	movi	a12, 216
     ca1:	fd66d1        	l32r	a13, 23c (10570 <LC3Plus_st1SCF0_7_base5_32x8_Q27>)
     ca4:	0949           	s32i.n	a4, a9, 0
     ca6:	42dc42        	addmi	a4, a12, 0x4200
     ca9:	525a           	add.n	a5, a2, a5
     cab:	b8a0a2        	movi	a10, 184
     cae:	fd62b1        	l32r	a11, 238 (1056c <LC3Plus_sns_MPVQ_Sz>)
     cb1:	0759           	s32i.n	a5, a7, 0
     cb3:	42da52        	addmi	a5, a10, 0x4200
     cb6:	424a           	add.n	a4, a2, a4
     cb8:	d8a062        	movi	a6, 216
     cbb:	fd6271        	l32r	a7, 244 (10578 <LC3Plus_sns_gainLSBbits>)
     cbe:	0d49           	s32i.n	a4, a13, 0
     cc0:	4ad642        	addmi	a4, a6, 0x4a00
     cc3:	525a           	add.n	a5, a2, a5
     cc5:	d8a0e2        	movi	a14, 216
     cc8:	fd5ef1        	l32r	a15, 240 (10574 <LC3Plus_st1SCF8_15_base5_32x8_Q27>)
     ccb:	0b59           	s32i.n	a5, a11, 0
     ccd:	46de52        	addmi	a5, a14, 0x4600
     cd0:	424a           	add.n	a4, a2, a4
     cd2:	bda4a2        	movi	a10, 0x4bd
     cd5:	fd5db1        	l32r	a11, 24c (10580 <LC3Plus_tabledKMAX>)
     cd8:	0749           	s32i.n	a4, a7, 0
     cda:	114ac0        	slli	a4, a10, 4
     cdd:	525a           	add.n	a5, a2, a5
     cdf:	88a082        	movi	a8, 136
     ce2:	fd5991        	l32r	a9, 248 (1057c <LC3Plus_MPVQ_offs_ptr>)
     ce5:	0f59           	s32i.n	a5, a15, 0
     ce7:	4bd852        	addmi	a5, a8, 0x4b00
     cea:	424a           	add.n	a4, a2, a4
     cec:	99a0e2        	movi	a14, 153
     cef:	fd59f1        	l32r	a15, 254 (10588 <LC3Plus_isqrt_Q31tab>)
     cf2:	0b49           	s32i.n	a4, a11, 0
     cf4:	114e90        	slli	a4, a14, 7
     cf7:	525a           	add.n	a5, a2, a5
     cf9:	f8a0c2        	movi	a12, 248
     cfc:	fd55d1        	l32r	a13, 250 (10584 <LC3Plus_isqrt_Q16tab>)
     cff:	0959           	s32i.n	a5, a9, 0
     d01:	4bdc52        	addmi	a5, a12, 0x4b00
     d04:	424a           	add.n	a4, a2, a4
     d06:	c4a082        	movi	a8, 196
     d09:	fd5491        	l32r	a9, 25c (10590 <LC3Plus_BitReverseTable256>)
     d0c:	0f49           	s32i.n	a4, a15, 0
     d0e:	4dd842        	addmi	a4, a8, 0x4d00
     d11:	525a           	add.n	a5, a2, a5
     d13:	88a062        	movi	a6, 136
     d16:	fd5071        	l32r	a7, 258 (1058c <LC3Plus_adjust_global_gain_tables>)
     d19:	0d59           	s32i.n	a5, a13, 0
     d1b:	4dd652        	addmi	a5, a6, 0x4d00
     d1e:	424a           	add.n	a4, a2, a4
     d20:	8c2c           	movi.n	a12, 40
     d22:	fd50d1        	l32r	a13, 264 (10598 <LC3Plus_Bit_Shft>)
     d25:	0949           	s32i.n	a4, a9, 0
     d27:	50dc42        	addmi	a4, a12, 0x5000
     d2a:	525a           	add.n	a5, a2, a5
     d2c:	c4a0a2        	movi	a10, 196
     d2f:	fd4cb1        	l32r	a11, 260 (10594 <LC3Plus_Tab_T>)
     d32:	0759           	s32i.n	a5, a7, 0
     d34:	4eda52        	addmi	a5, a10, 0x4e00
     d37:	424a           	add.n	a4, a2, a4
     d39:	c8a062        	movi	a6, 200
     d3c:	fd4c71        	l32r	a7, 26c (105a0 <LC3Plus_Tab_esc_Dec>)
     d3f:	0d49           	s32i.n	a4, a13, 0
     d41:	50d642        	addmi	a4, a6, 0x5000
     d44:	525a           	add.n	a5, a2, a5
     d46:	8e4c           	movi.n	a14, 72
     d48:	fd48f1        	l32r	a15, 268 (1059c <LC3Plus_AB_Shft>)
     d4b:	0b59           	s32i.n	a5, a11, 0
     d4d:	50de52        	addmi	a5, a14, 0x5000
     d50:	424a           	add.n	a4, a2, a4
     d52:	8a0c           	movi.n	a10, 8
     d54:	fd48b1        	l32r	a11, 274 (105a8 <LC3Plus_ldCoeff_Hifi5>)
     d57:	0749           	s32i.n	a4, a7, 0
     d59:	51da42        	addmi	a4, a10, 0x5100
     d5c:	525a           	add.n	a5, a2, a5
     d5e:	f8a082        	movi	a8, 248
     d61:	fd4391        	l32r	a9, 270 (105a4 <LC3Plus_ldCoeff>)
     d64:	0f59           	s32i.n	a5, a15, 0
     d66:	50d852        	addmi	a5, a8, 0x5000
     d69:	424a           	add.n	a4, a2, a4
     d6b:	98a0e2        	movi	a14, 152
     d6e:	fd43f1        	l32r	a15, 27c (105b0 <LC3Plus_exp2w_tab_long>)
     d71:	0b49           	s32i.n	a4, a11, 0
     d73:	51de42        	addmi	a4, a14, 0x5100
     d76:	525a           	add.n	a5, a2, a5
     d78:	8c1c           	movi.n	a12, 24
     d7a:	fd3fd1        	l32r	a13, 278 (105ac <LC3Plus_exp2_tab_long>)
     d7d:	0959           	s32i.n	a5, a9, 0
     d7f:	51dc52        	addmi	a5, a12, 0x5100
     d82:	424a           	add.n	a4, a2, a4
     d84:	98a082        	movi	a8, 152
     d87:	fd3f91        	l32r	a9, 284 (105b8 <LC3Plus_SqrtTable>)
     d8a:	0f49           	s32i.n	a4, a15, 0
     d8c:	52d842        	addmi	a4, a8, 0x5200
     d8f:	525a           	add.n	a5, a2, a5
     d91:	861c           	movi.n	a6, 24
     d93:	fd3b71        	l32r	a7, 280 (105b4 <LC3Plus_exp2x_tab_long>)
     d96:	0d59           	s32i.n	a5, a13, 0
     d98:	52d652        	addmi	a5, a6, 0x5200
     d9b:	424a           	add.n	a4, a2, a4
     d9d:	8c5c           	movi.n	a12, 88
     d9f:	fd3bd1        	l32r	a13, 28c (105c0 <LC3Plus_ISqrtTable>)
     da2:	0949           	s32i.n	a4, a9, 0
     da4:	53dc42        	addmi	a4, a12, 0x5300
     da7:	525a           	add.n	a5, a2, a5
     da9:	8a1c           	movi.n	a10, 24
     dab:	fd37b1        	l32r	a11, 288 (105bc <LC3Plus_SqrtDiffTable>)
     dae:	0759           	s32i.n	a5, a7, 0
     db0:	53da52        	addmi	a5, a10, 0x5300
     db3:	424a           	add.n	a4, a2, a4
     db5:	861c           	movi.n	a6, 24
     db7:	fd3771        	l32r	a7, 294 (105c8 <LC3Plus_InvTable>)
     dba:	0d49           	s32i.n	a4, a13, 0
     dbc:	54d642        	addmi	a4, a6, 0x5400
     dbf:	525a           	add.n	a5, a2, a5
     dc1:	0b59           	s32i.n	a5, a11, 0
     dc3:	424a           	add.n	a4, a2, a4
     dc5:	ca2c           	movi.n	a10, 44
     dc7:	fd35b1        	l32r	a11, 29c (105d0 <LC3Plus_InvDiffTable>)
     dca:	0749           	s32i.n	a4, a7, 0
     dcc:	55da42        	addmi	a4, a10, 0x5500
     dcf:	d8a0e2        	movi	a14, 216
     dd2:	fd2ff1        	l32r	a15, 290 (105c4 <LC3Plus_ISqrtDiffTable>)
     dd5:	53de52        	addmi	a5, a14, 0x5300
     dd8:	424a           	add.n	a4, a2, a4
     dda:	9ca0c2        	movi	a12, 156
     ddd:	fd31d1        	l32r	a13, 2a4 (10604 <LC3Plus_RealFFT80_twid>)
     de0:	0b49           	s32i.n	a4, a11, 0
     de2:	55dc42        	addmi	a4, a12, 0x5500
     de5:	525a           	add.n	a5, a2, a5
     de7:	0f59           	s32i.n	a5, a15, 0
     de9:	424a           	add.n	a4, a2, a4
     deb:	f8a0e2        	movi	a14, 248
     dee:	fd2ef1        	l32r	a15, 2a8 (10608 <LC3Plus_RotVector_40_32>)
     df1:	0d49           	s32i.n	a4, a13, 0
     df3:	55de42        	addmi	a4, a14, 0x5500
     df6:	98a082        	movi	a8, 152
     df9:	fd2791        	l32r	a9, 298 (105cc <LC3Plus_InvIntTable>)
     dfc:	54d852        	addmi	a5, a8, 0x5400
     dff:	424a           	add.n	a4, a2, a4
     e01:	e8a062        	movi	a6, 232
     e04:	fd2a71        	l32r	a7, 2ac (1061c <LC3Plus_isqrt_table>)
     e07:	0f49           	s32i.n	a4, a15, 0
     e09:	56d642        	addmi	a4, a6, 0x5600
     e0c:	525a           	add.n	a5, a2, a5
     e0e:	0959           	s32i.n	a5, a9, 0
     e10:	424a           	add.n	a4, a2, a4
     e12:	8fa582        	movi	a8, 0x58f
     e15:	fd2691        	l32r	a9, 2b0 (10620 <LC3Plus_Log2_16_table1>)
     e18:	0749           	s32i.n	a4, a7, 0
     e1a:	1148c0        	slli	a4, a8, 4
     e1d:	424a           	add.n	a4, a2, a4
     e1f:	93a5a2        	movi	a10, 0x593
     e22:	fd24b1        	l32r	a11, 2b4 (10624 <LC3Plus_Log2_16_table2>)
     e25:	0949           	s32i.n	a4, a9, 0
     e27:	114ac0        	slli	a4, a10, 4
     e2a:	424a           	add.n	a4, a2, a4
     e2c:	95a5c2        	movi	a12, 0x595
     e2f:	fd22d1        	l32r	a13, 2b8 (10628 <LC3Plus_InvLog2_16_table1>)
     e32:	0b49           	s32i.n	a4, a11, 0
     e34:	114cc0        	slli	a4, a12, 4
     e37:	424a           	add.n	a4, a2, a4
     e39:	a5a5e2        	movi	a14, 0x5a5
     e3c:	fd20f1        	l32r	a15, 2bc (1062c <LC3Plus_InvLog2_16_table2>)
     e3f:	0d49           	s32i.n	a4, a13, 0
     e41:	114ec0        	slli	a4, a14, 4
     e44:	424a           	add.n	a4, a2, a4
     e46:	ada552        	movi	a5, 0x5ad
     e49:	fd1d61        	l32r	a6, 2c0 (10630 <LC3Plus_invSqrtTab>)
     e4c:	0f49           	s32i.n	a4, a15, 0
     e4e:	1145c0        	slli	a4, a5, 4
     e51:	424a           	add.n	a4, a2, a4
     e53:	fd1c81        	l32r	a8, 2c4 (105d8 <LC3Plus_SineTable320>)
     e56:	fd1dc1        	l32r	a12, 2cc (105e0 <SineWindow40>)
     e59:	fd1de1        	l32r	a14, 2d0 (105e4 <LC3Plus_SineWindow60>)
     e5c:	0649           	s32i.n	a4, a6, 0
     e5e:	55d242        	addmi	a4, a2, 0x5500
     e61:	fd19a1        	l32r	a10, 2c8 (105dc <LC3Plus_SineTable960>)
     e64:	1c2492        	l32i	a9, a4, 112
     e67:	1e24d2        	l32i	a13, a4, 120
     e6a:	1f24f2        	l32i	a15, a4, 124
     e6d:	fd0c31        	l32r	a3, 2a0 (105d4 <LC3Plus_SineTable480>)
     e70:	0899           	s32i.n	a9, a8, 0
     e72:	0cd9           	s32i.n	a13, a12, 0
     e74:	0ef9           	s32i.n	a15, a14, 0
     e76:	1d24b2        	l32i	a11, a4, 116
     e79:	fd1661        	l32r	a6, 2d4 (105e8 <LC3Plus_SineWindow80>)
     e7c:	fd1781        	l32r	a8, 2d8 (105ec <LC3Plus_SineWindow120>)
     e7f:	fd18c1        	l32r	a12, 2e0 (105f4 <LC3Plus_SineWindow240>)
     e82:	fd18e1        	l32r	a14, 2e4 (105f8 <LC3Plus_SineWindow320>)
     e85:	0ab9           	s32i.n	a11, a10, 0
     e87:	1b2472        	l32i	a7, a4, 108
     e8a:	fd14a1        	l32r	a10, 2dc (105f0 <LC3Plus_SineWindow160>)
     e8d:	0379           	s32i.n	a7, a3, 0
     e8f:	202472        	l32i	a7, a4, 128
     e92:	212492        	l32i	a9, a4, 132
     e95:	2324d2        	l32i	a13, a4, 140
     e98:	2424f2        	l32i	a15, a4, 144
     e9b:	0679           	s32i.n	a7, a6, 0
     e9d:	0899           	s32i.n	a9, a8, 0
     e9f:	2224b2        	l32i	a11, a4, 136
     ea2:	0cd9           	s32i.n	a13, a12, 0
     ea4:	0ef9           	s32i.n	a15, a14, 0
     ea6:	fd1051        	l32r	a5, 2e8 (105fc <LC3Plus_SineWindow480>)
     ea9:	fd1071        	l32r	a7, 2ec (10600 <LC3Plus_SineWindow960>)
     eac:	fd1181        	l32r	a8, 2f0 (1060c <LC3Plus_RotVector_480>)
     eaf:	fd1191        	l32r	a9, 2f4 (10610 <LC3Plus_RotVector_30_16>)
     eb2:	fd11c1        	l32r	a12, 2f8 (10614 <LC3Plus_RotVector_320>)
     eb5:	fd11e1        	l32r	a14, 2fc (10618 <LC3Plus_RotVector_32_8>)
     eb8:	0ab9           	s32i.n	a11, a10, 0
     eba:	56d2a2        	addmi	a10, a2, 0x5600
     ebd:	252462        	l32i	a6, a4, 148
     ec0:	262442        	l32i	a4, a4, 152
     ec3:	362ab2        	l32i	a11, a10, 216
     ec6:	372ad2        	l32i	a13, a10, 220
     ec9:	382af2        	l32i	a15, a10, 224
     ecc:	392a22        	l32i	a2, a10, 228
     ecf:	0569           	s32i.n	a6, a5, 0
     ed1:	0749           	s32i.n	a4, a7, 0
     ed3:	08b9           	s32i.n	a11, a8, 0
     ed5:	09d9           	s32i.n	a13, a9, 0
     ed7:	0cf9           	s32i.n	a15, a12, 0
     ed9:	0e29           	s32i.n	a2, a14, 0
     edb:	f01d           	retw.n

00000edd <LC3PLUSI_Tab_Link+0x7e1>:
     edd:	000000                                        ...

00000ee0 <LC3PLUSI_Enc_Prcs>:
     ee0:	004136        	entry	a1, 32
     ee3:	438d           	ae_l16ui.n	a8, a3, 0
     ee5:	490c           	movi.n	a9, 4
     ee7:	03ad           	mov.n	a10, a3
     ee9:	116827        	bbci	a8, 2, efe <LC3PLUSI_Enc_Prcs+0x1e>
     eec:	308890        	xor	a8, a8, a9
     eef:	638d           	ae_s16i.n	a8, a3, 0
     ef1:	fd0381        	l32r	a8, 300 (6fc <LC3PLUSI_Tab_Link>)
     ef4:	0008e0        	callx8	a8
     ef7:	0798           	l32i.n	a9, a7, 0
     ef9:	03ad           	mov.n	a10, a3
     efb:	0009e0        	callx8	a9

00000efe <LC3PLUSI_Enc_Prcs+0x1e>:
     efe:	62a8           	l32i.n	a10, a2, 24
     f00:	72e8           	l32i.n	a14, a2, 28
     f02:	fd0021        	l32r	a2, 304 (f8c <lc3plus_enc_process_frame>)
     f05:	05bd           	mov.n	a11, a5
     f07:	04cd           	mov.n	a12, a4
     f09:	06dd           	mov.n	a13, a6
     f0b:	07fd           	mov.n	a15, a7
     f0d:	0002e0        	callx8	a2
     f10:	0a2d           	mov.n	a2, a10
     f12:	f01d           	retw.n

00000f14 <LC3PLUSI_Dec_Get_Param>:
     f14:	004136        	entry	a1, 32
     f17:	3258           	l32i.n	a5, a2, 12
     f19:	0992f2        	l16si	a15, a2, 18
     f1c:	0359           	s32i.n	a5, a3, 0
     f1e:	04f9           	s32i.n	a15, a4, 0
     f20:	f01d           	retw.n

00000f22 <LC3PLUSI_Dec_Get_Param+0xe>:
	...

00000f24 <LC3PLUSI_Dec_Prcs>:
     f24:	006136        	entry	a1, 48
     f27:	438d           	ae_l16ui.n	a8, a3, 0
     f29:	05ed           	mov.n	a14, a5
     f2b:	04bd           	mov.n	a11, a4
     f2d:	d158           	l32i.n	a5, a1, 52
     f2f:	c148           	l32i.n	a4, a1, 48
     f31:	1d6817        	bbci	a8, 1, f52 <LC3PLUSI_Dec_Prcs+0x2e>
     f34:	290c           	movi.n	a9, 2
     f36:	308890        	xor	a8, a8, a9
     f39:	638d           	ae_s16i.n	a8, a3, 0
     f3b:	fcf181        	l32r	a8, 300 (6fc <LC3PLUSI_Tab_Link>)
     f3e:	03ad           	mov.n	a10, a3
     f40:	31e9           	s32i.n	a14, a1, 12
     f42:	21b9           	s32i.n	a11, a1, 8
     f44:	0008e0        	callx8	a8
     f47:	0598           	l32i.n	a9, a5, 0
     f49:	03ad           	mov.n	a10, a3
     f4b:	0009e0        	callx8	a9
     f4e:	21b8           	l32i.n	a11, a1, 8
     f50:	31e8           	l32i.n	a14, a1, 12

00000f52 <LC3PLUSI_Dec_Prcs+0x2e>:
     f52:	113700        	slli	a3, a7, 16
     f55:	52a8           	l32i.n	a10, a2, 20
     f57:	62f8           	l32i.n	a15, a2, 24
     f59:	fceb21        	l32r	a2, 308 (1004 <lc3plus_dec_process_frame>)
     f5c:	20c360        	or	a12, a3, a6
     f5f:	04dd           	mov.n	a13, a4
     f61:	0159           	s32i.n	a5, a1, 0
     f63:	0002e0        	callx8	a2
     f66:	0a2d           	mov.n	a2, a10
     f68:	f01d           	retw.n

00000f6a <LC3PLUSI_Dec_Prcs+0x46>:
	...

00000f6c <lc3plus_enc_get_num_bytes>:
     f6c:	004136        	entry	a1, 32
     f6f:	429c           	beqz.n	a2, f87 <lc3plus_enc_get_num_bytes+0x1b>
     f71:	6248           	l32i.n	a4, a2, 24
     f73:	109252        	l16si	a5, a2, 32
     f76:	5268           	l32i.n	a6, a2, 20
     f78:	020c           	movi.n	a2, 0
     f7a:	824450        	mull	a4, a4, a5
     f7d:	11f6d0        	slli	a15, a6, 3
     f80:	d244f0        	quos	a4, a4, a15
     f83:	0349           	s32i.n	a4, a3, 0
     f85:	f01d           	retw.n

00000f87 <lc3plus_enc_get_num_bytes+0x1b>:
     f87:	d20c           	movi.n	a2, 13
     f89:	f01d           	retw.n

00000f8b <lc3plus_enc_get_num_bytes+0x1f>:
	...

00000f8c <lc3plus_enc_process_frame>:
     f8c:	006136        	entry	a1, 48
     f8f:	06ad           	mov.n	a10, a6
     f91:	d60c           	movi.n	a6, 13
     f93:	063216        	beqz	a2, ffa <lc3plus_enc_process_frame+0x6e>
     f96:	060316        	beqz	a3, ffa <lc3plus_enc_process_frame+0x6e>
     f99:	05d416        	beqz	a4, ffa <lc3plus_enc_process_frame+0x6e>
     f9c:	05a516        	beqz	a5, ffa <lc3plus_enc_process_frame+0x6e>
     f9f:	057a16        	beqz	a10, ffa <lc3plus_enc_process_frame+0x6e>
     fa2:	4e0262        	l8ui	a6, a2, 78
     fa5:	5298           	l32i.n	a9, a2, 20
     fa7:	fcd981        	l32r	a8, 30c (bb7f <LC3Plus_Enc_LC3+0x69b>)
     faa:	e68c           	beqz.n	a6, fbc <lc3plus_enc_process_frame+0x30>
     fac:	096d           	mov.n	a6, a9
     fae:	0f2897        	blt	a8, a9, fc1 <lc3plus_enc_process_frame+0x35>
     fb1:	261282        	l16ui	a8, a2, 76
     fb4:	c60c           	movi.n	a6, 12
     fb6:	040856        	bnez	a8, ffa <lc3plus_enc_process_frame+0x6e>
     fb9:	000486        	j	fcf <lc3plus_enc_process_frame+0x43>

00000fbc <lc3plus_enc_process_frame+0x30>:
     fbc:	460c           	movi.n	a6, 4
     fbe:	000e06        	j	ffa <lc3plus_enc_process_frame+0x6e>

00000fc1 <lc3plus_enc_process_frame+0x35>:
     fc1:	77a182        	movi	a8, 0x177
     fc4:	118880        	slli	a8, a8, 8
     fc7:	049687        	bne	a6, a8, fcf <lc3plus_enc_process_frame+0x43>
     fca:	261262        	l16ui	a6, a2, 76
     fcd:	d6ac           	beqz.n	a6, ffe <lc3plus_enc_process_frame+0x72>
     fcf:	2c12b2        	l16ui	a11, a2, 88
     fd2:	fccf81        	l32r	a8, 310 (eb40 <LC3Plus_lc3_scratch_init>)
     fd5:	3c0c           	movi.n	a12, 3
     fd7:	0d0c           	movi.n	a13, 0
     fd9:	060c           	movi.n	a6, 0
     fdb:	0008e0        	callx8	a8
     fde:	0588           	l32i.n	a8, a5, 0
     fe0:	2a92c2        	l16si	a12, a2, 84
     fe3:	0aed           	mov.n	a14, a10
     fe5:	981b           	addi.n	a9, a8, 1
     fe7:	62f980        	saltu	a15, a9, a8
     fea:	fcca81        	l32r	a8, 314 (b4e4 <LC3Plus_Enc_LC3>)
     fed:	02ad           	mov.n	a10, a2
     fef:	03bd           	mov.n	a11, a3
     ff1:	04dd           	mov.n	a13, a4
     ff3:	0179           	s32i.n	a7, a1, 0
     ff5:	0008e0        	callx8	a8
     ff8:	05a9           	s32i.n	a10, a5, 0
     ffa:	062d           	mov.n	a2, a6
     ffc:	f01d           	retw.n

00000ffe <lc3plus_enc_process_frame+0x72>:
     ffe:	361c           	movi.n	a6, 19
    1000:	fffd86        	j	ffa <lc3plus_enc_process_frame+0x6e>

00001003 <lc3plus_enc_process_frame+0x77>:
	...

00001004 <lc3plus_dec_process_frame>:
    1004:	008136        	entry	a1, 64
    1007:	82bc           	beqz.n	a2, 1043 <lc3plus_dec_process_frame+0x3f>
    1009:	180c           	movi.n	a8, 1
    100b:	0f0c           	movi.n	a15, 0
    100d:	628380        	saltu	a8, a3, a8
    1010:	62af40        	saltu	a10, a15, a4
    1013:	02bd           	mov.n	a11, a2
    1015:	1088a0        	and	a8, a8, a10
    1018:	f2f9           	s32i.n	a15, a2, 60
    101a:	98ec           	bnez.n	a8, 1047 <lc3plus_dec_process_frame+0x43>
    101c:	76ac           	beqz.n	a6, 1047 <lc3plus_dec_process_frame+0x43>
    101e:	57ac           	beqz.n	a7, 1047 <lc3plus_dec_process_frame+0x43>
    1020:	028496        	bltz	a4, 104c <lc3plus_dec_process_frame+0x48>
    1023:	942d           	ae_zext16	a2, a4
    1025:	e3a482        	movi	a8, 0x4e3
    1028:	20b287        	bgeu	a2, a8, 104c <lc3plus_dec_process_frame+0x48>
    102b:	5b28           	l32i.n	a2, a11, 20
    102d:	fcb781        	l32r	a8, 30c (bb7f <LC3Plus_Enc_LC3+0x69b>)
    1030:	77a192        	movi	a9, 0x177
    1033:	11a980        	slli	a10, a9, 8
    1036:	182827        	blt	a8, a2, 1052 <lc3plus_dec_process_frame+0x4e>
    1039:	201b22        	l16ui	a2, a11, 64
    103c:	b29c           	beqz.n	a2, 105b <lc3plus_dec_process_frame+0x57>
    103e:	c20c           	movi.n	a2, 12
    1040:	000286        	j	104e <lc3plus_dec_process_frame+0x4a>

00001043 <lc3plus_dec_process_frame+0x3f>:
    1043:	d20c           	movi.n	a2, 13
    1045:	f01d           	retw.n

00001047 <lc3plus_dec_process_frame+0x43>:
    1047:	d20c           	movi.n	a2, 13
    1049:	000046        	j	104e <lc3plus_dec_process_frame+0x4a>

0000104c <lc3plus_dec_process_frame+0x48>:
    104c:	b20c           	movi.n	a2, 11
    104e:	fb29           	s32i.n	a2, a11, 60
    1050:	f01d           	retw.n

00001052 <lc3plus_dec_process_frame+0x4e>:
    1052:	0592a7        	bne	a2, a10, 105b <lc3plus_dec_process_frame+0x57>
    1055:	201b22        	l16ui	a2, a11, 64
    1058:	03f216        	beqz	a2, 109b <lc3plus_dec_process_frame+0x97>
    105b:	102122        	l32i	a2, a1, 64
    105e:	7129           	s32i.n	a2, a1, 28
    1060:	fdc582        	addi	a8, a5, -3
    1063:	120c           	movi.n	a2, 1
    1065:	832580        	moveqz	a2, a5, a8
    1068:	61b9           	s32i.n	a11, a1, 24
    106a:	832550        	moveqz	a2, a5, a5
    106d:	251bb2        	l16ui	a11, a11, 74
    1070:	fca851        	l32r	a5, 310 (eb40 <LC3Plus_lc3_scratch_init>)
    1073:	3c0c           	movi.n	a12, 3
    1075:	0d0c           	movi.n	a13, 0
    1077:	07ad           	mov.n	a10, a7
    1079:	0005e0        	callx8	a5
    107c:	6178           	l32i.n	a7, a1, 24
    107e:	7158           	l32i.n	a5, a1, 28
    1080:	0afd           	mov.n	a15, a10
    1082:	2397e2        	l16si	a14, a7, 70
    1085:	1159           	s32i.n	a5, a1, 4
    1087:	fca451        	l32r	a5, 318 (5660 <LC3Plus_Dec_LC3>)
    108a:	07ad           	mov.n	a10, a7
    108c:	03bd           	mov.n	a11, a3
    108e:	04cd           	mov.n	a12, a4
    1090:	06dd           	mov.n	a13, a6
    1092:	0129           	s32i.n	a2, a1, 0
    1094:	0005e0        	callx8	a5
    1097:	0a2d           	mov.n	a2, a10
    1099:	f01d           	retw.n

0000109b <lc3plus_dec_process_frame+0x97>:
    109b:	321c           	movi.n	a2, 19
    109d:	ffeb46        	j	104e <lc3plus_dec_process_frame+0x4a>

000010a0 <LC3Plus_BASOP_Util_Log2>:
    10a0:	004136        	entry	a1, 32
    10a3:	080226        	beqi	a2, -1, 10af <LC3Plus_BASOP_Util_Log2+0xf>
    10a6:	d2cc           	bnez.n	a2, 10b7 <LC3Plus_BASOP_Util_Log2+0x17>
    10a8:	f27c           	movi.n	a2, -1
    10aa:	012210        	slli	a2, a2, 31
    10ad:	f01d           	retw.n

000010af <LC3Plus_BASOP_Util_Log2+0xf>:
    10af:	f31c           	movi.n	a3, 31
    10b1:	013370        	slli	a3, a3, 25
    10b4:	000b06        	j	10e4 <LC3Plus_BASOP_Util_Log2+0x44>

000010b7 <LC3Plus_BASOP_Util_Log2+0x17>:
    10b7:	313f20        	srai	a3, a2, 31
    10ba:	303320        	xor	a3, a3, a2
    10bd:	40f330        	nsau	a3, a3
    10c0:	140c           	movi.n	a4, 1
    10c2:	c04430        	sub	a4, a4, a3
    10c5:	400400        	ssr	a4
    10c8:	530b           	addi.n	a5, a3, -1
    10ca:	b14020        	sra	a4, a2
    10cd:	401500        	ssl	a5
    10d0:	a1e200        	sll	a14, a2
    10d3:	ff7c           	movi.n	a15, -1
    10d5:	83e430        	moveqz	a14, a4, a3
    10d8:	4141f0        	srli	a4, a15, 1
    10db:	c024e0        	sub	a2, a4, a14
    10de:	013570        	slli	a3, a5, 25
    10e1:	312020        	srai	a2, a2, 16
    10e4:	fc6341        	l32r	a4, 270 (105a4 <LC3Plus_ldCoeff>)
    10e7:	300224        	ae_cvtp24a16x2.ll	aep0, a2, a2
    10ea:	ea0300aaff 	{ movi	a15, 170; ae_mulfs32p16s.ll	aeq0, aep0, aep0 }
    10ef:	04e8           	l32i.n	a14, a4, 0
    10f1:	098c14        	ae_truncp24q48x2	aep1, aeq0, aeq0
    10f4:	091294        	ae_truncp16	aep1, aep1
    10f7:	ea076dae0f 	{ ae_lp16x2f.iu	aep2, a14, 0; ae_mulfs32p16s.ll	aeq1, aep1, aep0 }
    10fc:	e840adee1f 	{ ae_lp16x2f.iu	aep6, a14, 4; ae_mulfp24s.hh	aeq0, aep0, aep2 }
    1101:	fa4e6dce1f 	{ ae_lp16x2f.iu	aep4, a14, 4; ae_truncp24q48x2	aep5, aeq1, aeq1 }
    1106:	011234        	ae_mulafp24s.ll	aeq0, aep1, aep2
    1109:	095294        	ae_truncp16	aep1, aep5
    110c:	009074        	ae_mulfs32p16s.ll	aeq2, aep1, aep0
    110f:	011604        	ae_mulafp24s.hh	aeq0, aep1, aep6
    1112:	09ae74        	ae_truncp24q48x2	aep7, aeq2, aeq2
    1115:	097294        	ae_truncp16	aep1, aep7
    1118:	009874        	ae_mulfs32p16s.ll	aeq3, aep1, aep0
    111b:	e2c7adee1f 	{ ae_lp16x2f.iu	aep6, a14, 4; ae_mulafp24s.ll	aeq0, aep1, aep6 }
    1120:	09bf34        	ae_truncp24q48x2	aep3, aeq3, aeq3
    1123:	093294        	ae_truncp16	aep1, aep3
    1126:	009074        	ae_mulfs32p16s.ll	aeq2, aep1, aep0
    1129:	011404        	ae_mulafp24s.hh	aeq0, aep1, aep4
    112c:	09ae54        	ae_truncp24q48x2	aep5, aeq2, aeq2
    112f:	095294        	ae_truncp16	aep1, aep5
    1132:	009874        	ae_mulfs32p16s.ll	aeq3, aep1, aep0
    1135:	011434        	ae_mulafp24s.ll	aeq0, aep1, aep4
    1138:	09bf04        	ae_truncp24q48x2	aep0, aeq3, aeq3
    113b:	090284        	ae_truncp16	aep0, aep0
    113e:	010604        	ae_mulafp24s.hh	aeq0, aep0, aep6
    1141:	38df42        	addmi	a4, a15, 0x3800
    1144:	f84258f44f 	{ ae_cvtp24a16x2.ll	aep7, a4, a4; ae_truncp24q48x2	aep1, aeq0, aeq0 }
    1149:	f8c7fb001f 	{ ae_sraiq56	aeq0, aeq0, 1; ae_truncp16	aep1, aep1 }
    114e:	021704        	ae_mulap24s.hh	aeq0, aep1, aep7
    1151:	368204        	ae_trunca32q48	a2, aeq0
    1154:	212520        	srai	a2, a2, 5
    1157:	c02230        	sub	a2, a2, a3
    115a:	f01d           	retw.n

0000115c <LC3Plus_BASOP_Util_InvLog2>:
    115c:	006136        	entry	a1, 48
    115f:	fc6f31        	l32r	a3, 31c (1170 <LC3Plus_BASOP_Util_InvLog2_pos>)
    1162:	b1cb           	addi.n	a11, a1, 12
    1164:	02ad           	mov.n	a10, a2
    1166:	0003e0        	callx8	a3
    1169:	0a2d           	mov.n	a2, a10
    116b:	f01d           	retw.n

0000116d <LC3Plus_BASOP_Util_InvLog2+0x11>:
    116d:	000000                                        ...

00001170 <LC3Plus_BASOP_Util_InvLog2_pos>:
    1170:	004136        	entry	a1, 32
    1173:	fc6bf1        	l32r	a15, 320 (c1ffffff <_end+0xc1fef9bb>)
    1176:	024d           	mov.n	a4, a2
    1178:	f51c           	movi.n	a5, 31
    117a:	052f27        	blt	a15, a2, 1183 <LC3Plus_BASOP_Util_InvLog2_pos+0x13>
    117d:	020c           	movi.n	a2, 0
    117f:	632d           	ae_s16i.n	a2, a3, 0
    1181:	f01d           	retw.n

00001183 <LC3Plus_BASOP_Util_InvLog2_pos+0x13>:
    1183:	012570        	slli	a2, a5, 25
    1186:	0a2427        	blt	a4, a2, 1194 <LC3Plus_BASOP_Util_InvLog2_pos+0x24>
    1189:	f21c           	movi.n	a2, 31
    118b:	1f0c           	movi.n	a15, 1
    118d:	632d           	ae_s16i.n	a2, a3, 0
    118f:	012f20        	slli	a2, a15, 30
    1192:	f01d           	retw.n

00001194 <LC3Plus_BASOP_Util_InvLog2_pos+0x24>:
    1194:	058416        	beqz	a4, 11f0 <LC3Plus_BASOP_Util_InvLog2_pos+0x80>
    1197:	fc3881        	l32r	a8, 278 (105ac <LC3Plus_exp2_tab_long>)
    119a:	fc6271        	l32r	a7, 324 (16302f <_end+0x1529eb>)
    119d:	fc37b1        	l32r	a11, 27c (105b0 <LC3Plus_exp2w_tab_long>)
    11a0:	942040        	extui	a2, a4, 0, 10
    11a3:	fc3751        	l32r	a5, 280 (105b4 <LC3Plus_exp2x_tab_long>)
    11a6:	822270        	mull	a2, a2, a7
    11a9:	0888           	l32i.n	a8, a8, 0
    11ab:	0b78           	l32i.n	a7, a11, 0
    11ad:	45c440        	extui	a12, a4, 20, 5
    11b0:	44df40        	extui	a13, a4, 15, 5
    11b3:	0558           	l32i.n	a5, a5, 0
    11b5:	a08c80        	addx4	a8, a12, a8
    11b8:	a07d70        	addx4	a7, a13, a7
    11bb:	446a40        	extui	a6, a4, 10, 5
    11be:	0888           	l32i.n	a8, a8, 0
    11c0:	0778           	l32i.n	a7, a7, 0
    11c2:	a06650        	addx4	a6, a6, a5
    11c5:	0668           	l32i.n	a6, a6, 0
    11c7:	82e870        	mull	a14, a8, a7
    11ca:	f52020        	extui	a2, a2, 16, 16
    11cd:	b27870        	mulsh	a7, a8, a7
    11d0:	262a           	add.n	a2, a6, a2
    11d2:	056fe0        	extui	a6, a14, 31, 1
    11d5:	906760        	addx2	a6, a7, a6
    11d8:	827620        	mull	a7, a6, a2
    11db:	b22620        	mulsh	a2, a6, a2
    11de:	05ff70        	extui	a15, a7, 31, 1
    11e1:	315940        	srai	a5, a4, 25
    11e4:	9022f0        	addx2	a2, a2, a15
    11e7:	1314a6        	blti	a4, 1, 11fe <LC3Plus_BASOP_Util_InvLog2_pos+0x8e>
    11ea:	453b           	addi.n	a4, a5, 3
    11ec:	634d           	ae_s16i.n	a4, a3, 0
    11ee:	f01d           	retw.n

000011f0 <LC3Plus_BASOP_Util_InvLog2_pos+0x80>:
    11f0:	f27c           	movi.n	a2, -1
    11f2:	f42020        	extui	a2, a2, 0, 16
    11f5:	1f0c           	movi.n	a15, 1
    11f7:	632d           	ae_s16i.n	a2, a3, 0
    11f9:	012f40        	slli	a2, a15, 28
    11fc:	f01d           	retw.n

000011fe <LC3Plus_BASOP_Util_InvLog2_pos+0x8e>:
    11fe:	d67c           	movi.n	a6, -3
    1200:	c53b           	addi.n	a12, a5, 3
    1202:	401c00        	ssl	a12
    1205:	c0d650        	sub	a13, a6, a5
    1208:	a1f200        	sll	a15, a2
    120b:	400d00        	ssr	a13
    120e:	040c           	movi.n	a4, 0
    1210:	72e650        	salt	a14, a6, a5
    1213:	b12020        	sra	a2, a2
    1216:	634d           	ae_s16i.n	a4, a3, 0
    1218:	932fe0        	movnez	a2, a15, a14
    121b:	f01d           	retw.n

0000121d <LC3Plus_BASOP_Util_InvLog2_pos+0xad>:
    121d:	000000                                        ...

00001220 <LC3Plus_Sqrt16>:
    1220:	004136        	entry	a1, 32
    1223:	025d           	mov.n	a5, a2
    1225:	328c           	beqz.n	a2, 122c <LC3Plus_Sqrt16+0xc>
    1227:	0b0266        	bnei	a2, -1, 1236 <LC3Plus_Sqrt16+0x16>
    122a:	f50c           	movi.n	a5, 15

0000122c <LC3Plus_Sqrt16+0xc>:
    122c:	234d           	ae_l16si.n	a4, a3, 0
    122e:	c04450        	sub	a4, a4, a5
    1231:	955d           	ae_zext16	a5, a5
    1233:	000a06        	j	125f <LC3Plus_Sqrt16+0x3f>

00001236 <LC3Plus_Sqrt16+0x16>:
    1236:	214f20        	srai	a4, a2, 15
    1239:	304420        	xor	a4, a4, a2
    123c:	236d           	ae_l16si.n	a6, a3, 0
    123e:	40f480        	nsau	a8, a4
    1241:	efc852        	addi	a5, a8, -17
    1244:	071c           	movi.n	a7, 16
    1246:	c04650        	sub	a4, a6, a5
    1249:	123787        	bltu	a7, a8, 125f <LC3Plus_Sqrt16+0x3f>
    124c:	605050        	neg	a5, a5
    124f:	400500        	ssr	a5
    1252:	b12020        	sra	a2, a2
    1255:	12dc           	bnez.n	a2, 126a <LC3Plus_Sqrt16+0x4a>
    1257:	020c           	movi.n	a2, 0
    1259:	42e407        	bbsi	a4, 0, 129f <LC3Plus_Sqrt16+0x7f>
    125c:	001406        	j	12b0 <LC3Plus_Sqrt16+0x90>

0000125f <LC3Plus_Sqrt16+0x3f>:
    125f:	401500        	ssl	a5
    1262:	a12200        	sll	a2, a2
    1265:	822d           	ae_sext16	a2, a2
    1267:	fec216        	beqz	a2, 1257 <LC3Plus_Sqrt16+0x37>
    126a:	fc0661        	l32r	a6, 284 (105b8 <LC3Plus_SqrtTable>)
    126d:	fc0671        	l32r	a7, 288 (105bc <LC3Plus_SqrtDiffTable>)
    1270:	c0d252        	addmi	a5, a2, 0xffffc000
    1273:	0668           	l32i.n	a6, a6, 0
    1275:	0778           	l32i.n	a7, a7, 0
    1277:	115590        	slli	a5, a5, 7
    127a:	315050        	srai	a5, a5, 16
    127d:	a06560        	addx4	a6, a5, a6
    1280:	905570        	addx2	a5, a5, a7
    1283:	255d           	ae_l16si.n	a5, a5, 0
    1285:	84d020        	extui	a13, a2, 0, 9
    1288:	0668           	l32i.n	a6, a6, 0
    128a:	112df0        	slli	a2, a13, 1
    128d:	1e0c           	movi.n	a14, 1
    128f:	117e10        	slli	a7, a14, 15
    1292:	d12250        	mul16s	a2, a2, a5
    1295:	f67a           	add.n	a15, a6, a7
    1297:	22fa           	add.n	a2, a2, a15
    1299:	f52020        	extui	a2, a2, 16, 16
    129c:	106407        	bbci	a4, 0, 12b0 <LC3Plus_Sqrt16+0x90>
    129f:	82a052        	movi	a5, 130
    12a2:	5ad552        	addmi	a5, a5, 0x5a00
    12a5:	822d           	ae_sext16	a2, a2
    12a7:	d12250        	mul16s	a2, a2, a5
    12aa:	40d222        	addmi	a2, a2, 0x4000
    12ad:	412f20        	srli	a2, a2, 15
    12b0:	844d           	ae_sext16	a4, a4
    12b2:	441b           	addi.n	a4, a4, 1
    12b4:	114420        	slli	a4, a4, 14
    12b7:	414f40        	srli	a4, a4, 15
    12ba:	822d           	ae_sext16	a2, a2
    12bc:	634d           	ae_s16i.n	a4, a3, 0
    12be:	f01d           	retw.n

000012c0 <LC3Plus_ISqrt16>:
    12c0:	004136        	entry	a1, 32
    12c3:	025d           	mov.n	a5, a2
    12c5:	328c           	beqz.n	a2, 12cc <LC3Plus_ISqrt16+0xc>
    12c7:	0b0266        	bnei	a2, -1, 12d6 <LC3Plus_ISqrt16+0x16>
    12ca:	f50c           	movi.n	a5, 15

000012cc <LC3Plus_ISqrt16+0xc>:
    12cc:	234d           	ae_l16si.n	a4, a3, 0
    12ce:	c04450        	sub	a4, a4, a5
    12d1:	955d           	ae_zext16	a5, a5
    12d3:	000846        	j	12f8 <LC3Plus_ISqrt16+0x38>

000012d6 <LC3Plus_ISqrt16+0x16>:
    12d6:	214f20        	srai	a4, a2, 15
    12d9:	304420        	xor	a4, a4, a2
    12dc:	236d           	ae_l16si.n	a6, a3, 0
    12de:	40f480        	nsau	a8, a4
    12e1:	efc852        	addi	a5, a8, -17
    12e4:	071c           	movi.n	a7, 16
    12e6:	c04650        	sub	a4, a6, a5
    12e9:	0b3787        	bltu	a7, a8, 12f8 <LC3Plus_ISqrt16+0x38>
    12ec:	605050        	neg	a5, a5
    12ef:	400500        	ssr	a5
    12f2:	b12020        	sra	a2, a2
    12f5:	0001c6        	j	1300 <LC3Plus_ISqrt16+0x40>

000012f8 <LC3Plus_ISqrt16+0x38>:
    12f8:	401500        	ssl	a5
    12fb:	a12200        	sll	a2, a2
    12fe:	822d           	ae_sext16	a2, a2
    1300:	fbe361        	l32r	a6, 28c (105c0 <LC3Plus_ISqrtTable>)
    1303:	fbe3a1        	l32r	a10, 290 (105c4 <LC3Plus_ISqrtDiffTable>)
    1306:	847d           	ae_sext16	a7, a4
    1308:	180c           	movi.n	a8, 1
    130a:	118800        	slli	a8, a8, 16
    130d:	117710        	slli	a7, a7, 15
    1310:	c0d252        	addmi	a5, a2, 0xffffc000
    1313:	c07870        	sub	a7, a8, a7
    1316:	0668           	l32i.n	a6, a6, 0
    1318:	0a88           	l32i.n	a8, a10, 0
    131a:	115590        	slli	a5, a5, 7
    131d:	315050        	srai	a5, a5, 16
    1320:	a06560        	addx4	a6, a5, a6
    1323:	905580        	addx2	a5, a5, a8
    1326:	255d           	ae_l16si.n	a5, a5, 0
    1328:	84b020        	extui	a11, a2, 0, 9
    132b:	0668           	l32i.n	a6, a6, 0
    132d:	d12b50        	mul16s	a2, a11, a5
    1330:	1c0c           	movi.n	a12, 1
    1332:	1122f0        	slli	a2, a2, 1
    1335:	115c10        	slli	a5, a12, 15
    1338:	c02620        	sub	a2, a6, a2
    133b:	225a           	add.n	a2, a2, a5
    133d:	82a0d2        	movi	a13, 130
    1340:	315020        	srai	a5, a2, 16
    1343:	5add62        	addmi	a6, a13, 0x5a00
    1346:	d15560        	mul16s	a5, a5, a6
    1349:	04e040        	extui	a14, a4, 0, 1
    134c:	40d552        	addmi	a5, a5, 0x4000
    134f:	f52020        	extui	a2, a2, 16, 16
    1352:	415f50        	srli	a5, a5, 15
    1355:	9352e0        	movnez	a5, a2, a14
    1358:	31f070        	srai	a15, a7, 16
    135b:	852d           	ae_sext16	a2, a5
    135d:	63fd           	ae_s16i.n	a15, a3, 0
    135f:	f01d           	retw.n

00001361 <LC3Plus_ISqrt16+0xa1>:
    1361:	000000                                        ...

00001364 <LC3Plus_Inv16>:
    1364:	004136        	entry	a1, 32
    1367:	140c           	movi.n	a4, 1
    1369:	80d442        	addmi	a4, a4, 0xffff8000
    136c:	f57c           	movi.n	a5, -1
    136e:	534240        	max	a4, a2, a4
    1371:	604140        	abs	a4, a4
    1374:	f45050        	extui	a5, a5, 0, 16
    1377:	046d           	mov.n	a6, a4
    1379:	040547        	bnone	a5, a4, 1381 <LC3Plus_Inv16+0x1d>
    137c:	0b9457        	bne	a4, a5, 138b <LC3Plus_Inv16+0x27>
    137f:	f60c           	movi.n	a6, 15

00001381 <LC3Plus_Inv16+0x1d>:
    1381:	237d           	ae_l16si.n	a7, a3, 0
    1383:	845d           	ae_sext16	a5, a4
    1385:	c04760        	sub	a4, a7, a6
    1388:	000946        	j	13b1 <LC3Plus_Inv16+0x4d>

0000138b <LC3Plus_Inv16+0x27>:
    138b:	845d           	ae_sext16	a5, a4
    138d:	416f50        	srli	a6, a5, 15
    1390:	30f640        	xor	a15, a6, a4
    1393:	8f4d           	ae_sext16	a4, a15
    1395:	237d           	ae_l16si.n	a7, a3, 0
    1397:	40f490        	nsau	a9, a4
    139a:	efc962        	addi	a6, a9, -17
    139d:	081c           	movi.n	a8, 16
    139f:	c04760        	sub	a4, a7, a6
    13a2:	0b3897        	bltu	a8, a9, 13b1 <LC3Plus_Inv16+0x4d>
    13a5:	606060        	neg	a6, a6
    13a8:	400600        	ssr	a6
    13ab:	b15050        	sra	a5, a5
    13ae:	0001c6        	j	13b9 <LC3Plus_Inv16+0x55>

000013b1 <LC3Plus_Inv16+0x4d>:
    13b1:	401600        	ssl	a6
    13b4:	a15500        	sll	a5, a5
    13b7:	855d           	ae_sext16	a5, a5
    13b9:	fbb671        	l32r	a7, 294 (105c8 <LC3Plus_InvTable>)
    13bc:	fbb881        	l32r	a8, 29c (105d0 <LC3Plus_InvDiffTable>)
    13bf:	c0d562        	addmi	a6, a5, 0xffffc000
    13c2:	0778           	l32i.n	a7, a7, 0
    13c4:	0888           	l32i.n	a8, a8, 0
    13c6:	116690        	slli	a6, a6, 7
    13c9:	316060        	srai	a6, a6, 16
    13cc:	a07670        	addx4	a7, a6, a7
    13cf:	906680        	addx2	a6, a6, a8
    13d2:	266d           	ae_l16si.n	a6, a6, 0
    13d4:	84c050        	extui	a12, a5, 0, 9
    13d7:	115cf0        	slli	a5, a12, 1
    13da:	d15560        	mul16s	a5, a5, a6
    13dd:	0778           	l32i.n	a7, a7, 0
    13df:	1155f0        	slli	a5, a5, 1
    13e2:	1d0c           	movi.n	a13, 1
    13e4:	118d10        	slli	a8, a13, 15
    13e7:	c05750        	sub	a5, a7, a5
    13ea:	558a           	add.n	a5, a5, a8
    13ec:	f55050        	extui	a5, a5, 16, 16
    13ef:	60f050        	neg	a15, a5
    13f2:	1e0c           	movi.n	a14, 1
    13f4:	b3f520        	movgez	a15, a5, a2
    13f7:	c04e40        	sub	a4, a14, a4
    13fa:	8f2d           	ae_sext16	a2, a15
    13fc:	634d           	ae_s16i.n	a4, a3, 0
    13fe:	f01d           	retw.n

00001400 <LC3Plus_getScaleFactor16>:
    1400:	004136        	entry	a1, 32
    1403:	fbc941        	l32r	a4, 328 (1414 <LC3Plus_getScaleFactor16_0>)
    1406:	02ad           	mov.n	a10, a2
    1408:	03bd           	mov.n	a11, a3
    140a:	0004e0        	callx8	a4
    140d:	3420a0        	extui	a2, a10, 0, 4
    1410:	f01d           	retw.n

00001412 <LC3Plus_getScaleFactor16+0x12>:
	...

00001414 <LC3Plus_getScaleFactor16_0>:
    1414:	004136        	entry	a1, 32
    1417:	fc2080034f 	{ movi	a4, 3; ae_zerop48	aep0 }
    141c:	fc20ff00bf 	{ ae_movp48	aep2, aep0; ae_zerop48	aep1 }
    1421:	0e0427        	bnone	a4, a2, 1433 <LC3Plus_getScaleFactor16_0+0x1f>
    1424:	422b           	addi.n	a4, a2, 2
    1426:	409204        	ae_lp16f.iu	aep1, a2, 0
    1429:	d9220ff33e 	{ addi	a3, a3, -1; ae_maxp24s	aep2, aep0, aep1 }
    142e:	d822d3244f 	{ or	a2, a4, a4; ae_minp24s	aep1, aep0, aep1 }

00001433 <LC3Plus_getScaleFactor16_0+0x1f>:
    1433:	833d           	ae_sext16	a3, a3
    1435:	44b204        	ae_lp16x2f.iu	aep3, a2, 0
    1438:	0d23a6        	blti	a3, 2, 1449 <LC3Plus_getScaleFactor16_0+0x35>
    143b:	214130        	srai	a4, a3, 1
    143e:	078476        	loop	a4, 1449 <LC3Plus_getScaleFactor16_0+0x35>
    1441:	072b24        	ae_maxp24s	aep2, aep2, aep3
    1444:	d866edb21f 	{ ae_lp16x2f.iu	aep3, a2, 4; ae_minp24s	aep1, aep1, aep3 }

00001449 <LC3Plus_getScaleFactor16_0+0x35>:
    1449:	086307        	bbci	a3, 0, 1455 <LC3Plus_getScaleFactor16_0+0x41>
    144c:	1ab804        	ae_selp24.hl	aep0, aep3, aep0
    144f:	072824        	ae_maxp24s	aep2, aep2, aep0
    1452:	071894        	ae_minp24s	aep1, aep1, aep0

00001455 <LC3Plus_getScaleFactor16_0+0x41>:
    1455:	dd25fe222f 	{ ae_selp24.lh	aep0, aep2, aep2; ae_selp24.lh	aep3, aep1, aep1 }
    145a:	d80a00104f 	{ movi	a4, 16; ae_maxp24s	aep0, aep2, aep0 }
    145f:	d866ff026f 	{ ae_trunca16p24s.l	a2, aep0; ae_minp24s	aep1, aep1, aep3 }
    1464:	361324        	ae_trunca16p24s.l	a3, aep1
    1467:	40e250        	nsa	a5, a2
    146a:	40e360        	nsa	a6, a3
    146d:	f0c552        	addi	a5, a5, -16
    1470:	f0c662        	addi	a6, a6, -16
    1473:	115500        	slli	a5, a5, 16
    1476:	116600        	slli	a6, a6, 16
    1479:	922d           	ae_zext16	a2, a2
    147b:	315050        	srai	a5, a5, 16
    147e:	933d           	ae_zext16	a3, a3
    1480:	316060        	srai	a6, a6, 16
    1483:	835420        	moveqz	a5, a4, a2
    1486:	836430        	moveqz	a6, a4, a3
    1489:	432560        	min	a2, a5, a6
    148c:	f01d           	retw.n

0000148e <LC3Plus_getScaleFactor16_0+0x7a>:
	...

00001490 <LC3Plus_getScaleFactor32_Q>:
    1490:	004136        	entry	a1, 32
    1493:	0a1084        	ae_zeroq56	aeq0
    1496:	fd24bf01bf 	{ ae_movq56	aeq2, aeq0; ae_zeroq56	aeq1 }
    149b:	0d13a6        	blti	a3, 1, 14ac <LC3Plus_getScaleFactor32_Q+0x1c>
    149e:	60d204        	ae_lq32f.iu	aeq3, a2, 0
    14a1:	078376        	loop	a3, 14ac <LC3Plus_getScaleFactor32_Q+0x1c>
    14a4:	01b2c4        	ae_maxq56s	aeq2, aeq2, aeq3
    14a7:	f91ebd721f 	{ ae_lq32f.iu	aeq3, a2, 4; ae_minq56s	aeq1, aeq1, aeq3 }

000014ac <LC3Plus_getScaleFactor32_Q+0x1c>:
    14ac:	d4c03f22af 	{ ae_nsaq56s	a2, aeq2; ae_eqq56	b0, aeq2, aeq0 }
    14b1:	365404        	ae_nsaq56s	a4, aeq1
    14b4:	032c           	movi.n	a3, 32
    14b6:	f8c222        	addi	a2, a2, -8
    14b9:	112200        	slli	a2, a2, 16
    14bc:	312020        	srai	a2, a2, 16
    14bf:	f8c442        	addi	a4, a4, -8
    14c2:	d44416230f 	{ movt	a2, a3, b0; ae_eqq56	b0, aeq1, aeq0 }
    14c7:	114400        	slli	a4, a4, 16
    14ca:	314040        	srai	a4, a4, 16
    14cd:	d34300        	movt	a4, a3, b0
    14d0:	432240        	min	a2, a2, a4
    14d3:	442020        	extui	a2, a2, 0, 5
    14d6:	f01d           	retw.n

000014d8 <LC3Plus_getScaleFactor32>:
    14d8:	004136        	entry	a1, 32
    14db:	fc20efb20f 	{ ae_lp24x2f.iu	aep3, a2, 0; ae_zerop48	aep1 }
    14e0:	fc20bf10bf 	{ ae_movp48	aep2, aep1; ae_zerop48	aep0 }
    14e5:	0f23a6        	blti	a3, 2, 14f8 <LC3Plus_getScaleFactor32+0x20>
    14e8:	214130        	srai	a4, a3, 1
    14eb:	f03d           	nop.n
    14ed:	078476        	loop	a4, 14f8 <LC3Plus_getScaleFactor32+0x20>
    14f0:	072b24        	ae_maxp24s	aep2, aep2, aep3
    14f3:	d862afb21f 	{ ae_lp24x2f.iu	aep3, a2, 8; ae_minp24s	aep0, aep0, aep3 }

000014f8 <LC3Plus_getScaleFactor32+0x20>:
    14f8:	086307        	bbci	a3, 0, 1504 <LC3Plus_getScaleFactor32+0x2c>
    14fb:	1ab914        	ae_selp24.hl	aep1, aep3, aep1
    14fe:	072924        	ae_maxp24s	aep2, aep2, aep1
    1501:	070984        	ae_minp24s	aep0, aep0, aep1

00001504 <LC3Plus_getScaleFactor32+0x2c>:
    1504:	df01fe226f 	{ ae_selp24.lh	aep1, aep2, aep2; ae_selp24.lh	aep7, aep0, aep0 }
    1509:	d82a40203f 	{ movi	a3, 32; ae_maxp24s	aep1, aep2, aep1 }
    150e:	d8e2bf125f 	{ ae_cvta32p24.l	a2, aep1; ae_minp24s	aep0, aep0, aep7 }
    1513:	0004d4        	ae_cvta32p24.l	a4, aep0
    1516:	40e250        	nsa	a5, a2
    1519:	855d           	ae_sext16	a5, a5
    151b:	40e4f0        	nsa	a15, a4
    151e:	835320        	moveqz	a5, a3, a2
    1521:	8f2d           	ae_sext16	a2, a15
    1523:	832340        	moveqz	a2, a3, a4
    1526:	432520        	min	a2, a5, a2
    1529:	442020        	extui	a2, a2, 0, 5
    152c:	f01d           	retw.n

0000152e <LC3Plus_getScaleFactor32+0x56>:
	...

00001530 <LC3Plus_getScaleFactor32_0>:
    1530:	004136        	entry	a1, 32
    1533:	fc20efb20f 	{ ae_lp24x2f.iu	aep3, a2, 0; ae_zerop48	aep1 }
    1538:	fc20bf10bf 	{ ae_movp48	aep2, aep1; ae_zerop48	aep0 }
    153d:	0f23a6        	blti	a3, 2, 1550 <LC3Plus_getScaleFactor32_0+0x20>
    1540:	214130        	srai	a4, a3, 1
    1543:	f03d           	nop.n
    1545:	078476        	loop	a4, 1550 <LC3Plus_getScaleFactor32_0+0x20>
    1548:	072b24        	ae_maxp24s	aep2, aep2, aep3
    154b:	d862afb21f 	{ ae_lp24x2f.iu	aep3, a2, 8; ae_minp24s	aep0, aep0, aep3 }

00001550 <LC3Plus_getScaleFactor32_0+0x20>:
    1550:	086307        	bbci	a3, 0, 155c <LC3Plus_getScaleFactor32_0+0x2c>
    1553:	1ab914        	ae_selp24.hl	aep1, aep3, aep1
    1556:	072924        	ae_maxp24s	aep2, aep2, aep1
    1559:	070984        	ae_minp24s	aep0, aep0, aep1

0000155c <LC3Plus_getScaleFactor32_0+0x2c>:
    155c:	df01fe226f 	{ ae_selp24.lh	aep1, aep2, aep2; ae_selp24.lh	aep7, aep0, aep0 }
    1561:	d82a40203f 	{ movi	a3, 32; ae_maxp24s	aep1, aep2, aep1 }
    1566:	d8e2bf125f 	{ ae_cvta32p24.l	a2, aep1; ae_minp24s	aep0, aep0, aep7 }
    156b:	0004d4        	ae_cvta32p24.l	a4, aep0
    156e:	40e250        	nsa	a5, a2
    1571:	855d           	ae_sext16	a5, a5
    1573:	40e4f0        	nsa	a15, a4
    1576:	835320        	moveqz	a5, a3, a2
    1579:	8f2d           	ae_sext16	a2, a15
    157b:	832340        	moveqz	a2, a3, a4
    157e:	432520        	min	a2, a5, a2
    1581:	f01d           	retw.n

00001583 <LC3Plus_getScaleFactor32_0+0x53>:
	...

00001584 <LC3Plus_BASOP_Util_Divide3216_Scale>:
    1584:	006136        	entry	a1, 48
    1587:	22ac           	beqz.n	a2, 15ad <LC3Plus_BASOP_Util_Divide3216_Scale+0x29>
    1589:	fb6851        	l32r	a5, 32c (80000001 <_end+0x7ffef9bd>)
    158c:	160c           	movi.n	a6, 1
    158e:	80d662        	addmi	a6, a6, 0xffff8000
    1591:	535250        	max	a5, a2, a5
    1594:	53f360        	max	a15, a3, a6
    1597:	608150        	abs	a8, a5
    159a:	f57020        	extui	a7, a2, 16, 16
    159d:	6051f0        	abs	a5, a15
    15a0:	110826        	beqi	a8, -1, 15b5 <LC3Plus_BASOP_Util_Divide3216_Scale+0x31>
    15a3:	88dc           	bnez.n	a8, 15bf <LC3Plus_BASOP_Util_Divide3216_Scale+0x3b>
    15a5:	f27c           	movi.n	a2, -1
    15a7:	f42020        	extui	a2, a2, 0, 16
    15aa:	000cc6        	j	15e1 <LC3Plus_BASOP_Util_Divide3216_Scale+0x5d>

000015ad <LC3Plus_BASOP_Util_Divide3216_Scale+0x29>:
    15ad:	030c           	movi.n	a3, 0
    15af:	020c           	movi.n	a2, 0
    15b1:	643d           	ae_s16i.n	a3, a4, 0
    15b3:	f01d           	retw.n

000015b5 <LC3Plus_BASOP_Util_Divide3216_Scale+0x31>:
    15b5:	f67c           	movi.n	a6, -1
    15b7:	016620        	slli	a6, a6, 30
    15ba:	e21c           	movi.n	a2, 30
    15bc:	0008c6        	j	15e3 <LC3Plus_BASOP_Util_Divide3216_Scale+0x5f>

000015bf <LC3Plus_BASOP_Util_Divide3216_Scale+0x3b>:
    15bf:	312f80        	srai	a2, a8, 31
    15c2:	302280        	xor	a2, a2, a8
    15c5:	40f290        	nsau	a9, a2
    15c8:	260c           	movi.n	a6, 2
    15ca:	c06690        	sub	a6, a6, a9
    15cd:	400600        	ssr	a6
    15d0:	fec922        	addi	a2, a9, -2
    15d3:	b1a080        	sra	a10, a8
    15d6:	401200        	ssl	a2
    15d9:	a16800        	sll	a6, a8
    15dc:	0a8d           	mov.n	a8, a10
    15de:	0129f6        	bgeui	a9, 2, 15e3 <LC3Plus_BASOP_Util_Divide3216_Scale+0x5f>
    15e1:	086d           	mov.n	a6, a8
    15e3:	f87c           	movi.n	a8, -1
    15e5:	f48080        	extui	a8, a8, 0, 16
    15e8:	303730        	xor	a3, a7, a3
    15eb:	057d           	mov.n	a7, a5
    15ed:	040857        	bnone	a8, a5, 15f5 <LC3Plus_BASOP_Util_Divide3216_Scale+0x71>
    15f0:	069587        	bne	a5, a8, 15fa <LC3Plus_BASOP_Util_Divide3216_Scale+0x76>
    15f3:	f70c           	movi.n	a7, 15
    15f5:	858d           	ae_sext16	a8, a5
    15f7:	000806        	j	161b <LC3Plus_BASOP_Util_Divide3216_Scale+0x97>

000015fa <LC3Plus_BASOP_Util_Divide3216_Scale+0x76>:
    15fa:	858d           	ae_sext16	a8, a5
    15fc:	417f80        	srli	a7, a8, 15
    15ff:	30f750        	xor	a15, a7, a5
    1602:	8f5d           	ae_sext16	a5, a15
    1604:	40f550        	nsau	a5, a5
    1607:	091c           	movi.n	a9, 16
    1609:	efc572        	addi	a7, a5, -17
    160c:	0b3957        	bltu	a9, a5, 161b <LC3Plus_BASOP_Util_Divide3216_Scale+0x97>
    160f:	605070        	neg	a5, a7
    1612:	400500        	ssr	a5
    1615:	b15080        	sra	a5, a8
    1618:	0001c6        	j	1623 <LC3Plus_BASOP_Util_Divide3216_Scale+0x9f>

0000161b <LC3Plus_BASOP_Util_Divide3216_Scale+0x97>:
    161b:	401700        	ssl	a7
    161e:	a15800        	sll	a5, a8
    1621:	855d           	ae_sext16	a5, a5
    1623:	360634        	ae_cvtq48a32s	aeq0, a6
    1626:	f86395272f 	{ sub	a2, a7, a2; ae_roundsp16q48asym	aep0, aeq0 }
    162b:	420164        	ae_sp16f.l.i	aep0, a1, 12
    162e:	061162        	l16ui	a6, a1, 12
    1631:	958d           	ae_zext16	a8, a5
    1633:	833d           	ae_sext16	a3, a3
    1635:	642d           	ae_s16i.n	a2, a4, 0
    1637:	089687        	bne	a6, a8, 1643 <LC3Plus_BASOP_Util_Divide3216_Scale+0xbf>
    163a:	ffa022        	movi	a2, 255
    163d:	7fd222        	addmi	a2, a2, 0x7f00
    1640:	0001c6        	j	164b <LC3Plus_BASOP_Util_Divide3216_Scale+0xc7>

00001643 <LC3Plus_BASOP_Util_Divide3216_Scale+0xbf>:
    1643:	862d           	ae_sext16	a2, a6
    1645:	112210        	slli	a2, a2, 15
    1648:	d22250        	quos	a2, a2, a5
    164b:	604020        	neg	a4, a2
    164e:	b34230        	movgez	a4, a2, a3
    1651:	842d           	ae_sext16	a2, a4
    1653:	f01d           	retw.n

00001655 <LC3Plus_BASOP_Util_Divide3216_Scale+0xd1>:
    1655:	000000                                        ...

00001658 <LC3Plus_BASOP_Util_Divide1616_Scale>:
    1658:	004136        	entry	a1, 32
    165b:	f67c           	movi.n	a6, -1
    165d:	f46060        	extui	a6, a6, 0, 16
    1660:	607120        	abs	a7, a2
    1663:	220677        	bnone	a6, a7, 1689 <LC3Plus_BASOP_Util_Divide1616_Scale+0x31>
    1666:	875d           	ae_sext16	a5, a7
    1668:	418f50        	srli	a8, a5, 15
    166b:	30f870        	xor	a15, a8, a7
    166e:	8f7d           	ae_sext16	a7, a15
    1670:	091c           	movi.n	a9, 16
    1672:	40f770        	nsau	a7, a7
    1675:	608130        	abs	a8, a3
    1678:	153977        	bltu	a9, a7, 1691 <LC3Plus_BASOP_Util_Divide1616_Scale+0x39>
    167b:	191c           	movi.n	a9, 17
    167d:	c09970        	sub	a9, a9, a7
    1680:	400900        	ssr	a9
    1683:	b15050        	sra	a5, a5
    1686:	000486        	j	169c <LC3Plus_BASOP_Util_Divide1616_Scale+0x44>

00001689 <LC3Plus_BASOP_Util_Divide1616_Scale+0x31>:
    1689:	030c           	movi.n	a3, 0
    168b:	020c           	movi.n	a2, 0
    168d:	643d           	ae_s16i.n	a3, a4, 0
    168f:	f01d           	retw.n

00001691 <LC3Plus_BASOP_Util_Divide1616_Scale+0x39>:
    1691:	efc792        	addi	a9, a7, -17
    1694:	401900        	ssl	a9
    1697:	a15500        	sll	a5, a5
    169a:	855d           	ae_sext16	a5, a5
    169c:	291c           	movi.n	a9, 18
    169e:	c07970        	sub	a7, a9, a7
    16a1:	215150        	srai	a5, a5, 1
    16a4:	647d           	ae_s16i.n	a7, a4, 0
    16a6:	200687        	bnone	a6, a8, 16ca <LC3Plus_BASOP_Util_Divide1616_Scale+0x72>
    16a9:	886d           	ae_sext16	a6, a8
    16ab:	41af60        	srli	a10, a6, 15
    16ae:	30ea80        	xor	a14, a10, a8
    16b1:	8e8d           	ae_sext16	a8, a14
    16b3:	40f8f0        	nsau	a15, a8
    16b6:	091c           	movi.n	a9, 16
    16b8:	efcf82        	addi	a8, a15, -17
    16bb:	0f39f7        	bltu	a9, a15, 16ce <LC3Plus_BASOP_Util_Divide1616_Scale+0x76>
    16be:	609080        	neg	a9, a8
    16c1:	400900        	ssr	a9
    16c4:	b16060        	sra	a6, a6
    16c7:	0002c6        	j	16d6 <LC3Plus_BASOP_Util_Divide1616_Scale+0x7e>

000016ca <LC3Plus_BASOP_Util_Divide1616_Scale+0x72>:
    16ca:	060c           	movi.n	a6, 0
    16cc:	080c           	movi.n	a8, 0
    16ce:	401800        	ssl	a8
    16d1:	a16600        	sll	a6, a6
    16d4:	866d           	ae_sext16	a6, a6
    16d6:	f87a           	add.n	a15, a8, a7
    16d8:	302320        	xor	a2, a3, a2
    16db:	64fd           	ae_s16i.n	a15, a4, 0
    16dd:	089567        	bne	a5, a6, 16e9 <LC3Plus_BASOP_Util_Divide1616_Scale+0x91>
    16e0:	ffa032        	movi	a3, 255
    16e3:	7fd332        	addmi	a3, a3, 0x7f00
    16e6:	000146        	j	16ef <LC3Plus_BASOP_Util_Divide1616_Scale+0x97>

000016e9 <LC3Plus_BASOP_Util_Divide1616_Scale+0x91>:
    16e9:	113510        	slli	a3, a5, 15
    16ec:	d23360        	quos	a3, a3, a6
    16ef:	604030        	neg	a4, a3
    16f2:	b34320        	movgez	a4, a3, a2
    16f5:	842d           	ae_sext16	a2, a4
    16f7:	f01d           	retw.n

000016f9 <LC3Plus_BASOP_Util_Divide1616_Scale+0xa1>:
    16f9:	000000                                        ...

000016fc <LC3Plus_Norm32Norm>:
    16fc:	004136        	entry	a1, 32
    16ff:	fc24bd520f 	{ ae_lq32f.iu	aeq2, a2, 0; ae_zeroq56	aeq0 }
    1704:	0a5084        	ae_zeroq56	aeq1
    1707:	1d24a6        	blti	a4, 2, 1728 <LC3Plus_Norm32Norm+0x2c>
    170a:	216140        	srai	a6, a4, 1
    170d:	178676        	loop	a6, 1728 <LC3Plus_Norm32Norm+0x2c>
    1710:	60d214        	ae_lq32f.iu	aeq3, a2, 4
    1713:	fc24fea38f 	{ ae_slaasq56s	aeq2, aeq2, a3; nop }
    1718:	f877beb3cf 	{ ae_slaasq56s	aeq3, aeq3, a3; ae_roundsp24q48asym	aep0, aeq2 }
    171d:	e4027d521f 	{ ae_lq32f.iu	aeq2, a2, 4; ae_mulap24s.hh	aeq1, aep0, aep0 }
    1722:	1bbd74        	ae_roundsp24q48asym	aep7, aeq3
    1725:	027f04        	ae_mulap24s.hh	aeq1, aep7, aep7

00001728 <LC3Plus_Norm32Norm+0x2c>:
    1728:	0a6407        	bbci	a4, 0, 1736 <LC3Plus_Norm32Norm+0x3a>
    172b:	fc24fea38f 	{ ae_slaasq56s	aeq2, aeq2, a3; nop }
    1730:	1bad04        	ae_roundsp24q48asym	aep0, aeq2
    1733:	020804        	ae_mulap24s.hh	aeq1, aep0, aep0

00001736 <LC3Plus_Norm32Norm+0x3a>:
    1736:	d4443f12af 	{ ae_nsaq56s	a2, aeq1; ae_eqq56	b0, aeq1, aeq0 }
    173b:	a70c           	movi.n	a7, 10
    173d:	160c           	movi.n	a6, 1
    173f:	c02720        	sub	a2, a7, a2
    1742:	217120        	srai	a7, a2, 1
    1745:	d37600        	movt	a7, a6, b0
    1748:	11f7f0        	slli	a15, a7, 1
    174b:	34dfb4        	ae_sraaq56	aeq3, aeq1, a15
    174e:	36b204        	ae_trunca32q48	a2, aeq3
    1751:	c03370        	sub	a3, a3, a7
    1754:	048d           	mov.n	a8, a4
    1756:	a28c           	beqz.n	a2, 1764 <LC3Plus_Norm32Norm+0x68>
    1758:	348c           	beqz.n	a4, 175f <LC3Plus_Norm32Norm+0x63>
    175a:	0b0466        	bnei	a4, -1, 1769 <LC3Plus_Norm32Norm+0x6d>
    175d:	f80c           	movi.n	a8, 15
    175f:	987d           	ae_zext16	a7, a8
    1761:	0008c6        	j	1788 <LC3Plus_Norm32Norm+0x8c>

00001764 <LC3Plus_Norm32Norm+0x68>:
    1764:	020c           	movi.n	a2, 0
    1766:	0015c6        	j	17c1 <LC3Plus_Norm32Norm+0xc5>

00001769 <LC3Plus_Norm32Norm+0x6d>:
    1769:	217f40        	srai	a7, a4, 15
    176c:	307740        	xor	a7, a7, a4
    176f:	40f7a0        	nsau	a10, a7
    1772:	efca72        	addi	a7, a10, -17
    1775:	091c           	movi.n	a9, 16
    1777:	078d           	mov.n	a8, a7
    1779:	0b39a7        	bltu	a9, a10, 1788 <LC3Plus_Norm32Norm+0x8c>
    177c:	608070        	neg	a8, a7
    177f:	400800        	ssr	a8
    1782:	b14040        	sra	a4, a4
    1785:	000246        	j	1792 <LC3Plus_Norm32Norm+0x96>

00001788 <LC3Plus_Norm32Norm+0x8c>:
    1788:	401700        	ssl	a7
    178b:	a14400        	sll	a4, a4
    178e:	087d           	mov.n	a7, a8
    1790:	844d           	ae_sext16	a4, a4
    1792:	d87c           	movi.n	a8, -3
    1794:	f48080        	extui	a8, a8, 0, 16
    1797:	f90c           	movi.n	a9, 15
    1799:	c0a970        	sub	a10, a9, a7
    179c:	82d480        	mull	a13, a4, a8
    179f:	8afd           	ae_sext16	a15, a10
    17a1:	b2e480        	mulsh	a14, a4, a8
    17a4:	72c970        	salt	a12, a9, a7
    17a7:	419fd0        	srli	a9, a13, 15
    17aa:	60a0f0        	neg	a10, a15
    17ad:	400a00        	ssr	a10
    17b0:	1bee90        	depbits	a9, a14, 17, 15
    17b3:	b14090        	sra	a4, a9
    17b6:	401f00        	ssl	a15
    17b9:	a18900        	sll	a8, a9
    17bc:	9384c0        	movnez	a8, a4, a12
    17bf:	282a           	add.n	a2, a8, a2
    17c1:	1133f0        	slli	a3, a3, 1
    17c4:	c03630        	sub	a3, a6, a3
    17c7:	653d           	ae_s16i.n	a3, a5, 0
    17c9:	f01d           	retw.n

000017cb <LC3Plus_Norm32Norm+0xcf>:
	...

000017cc <LC3Plus_Scale_sig>:
    17cc:	004136        	entry	a1, 32
    17cf:	360c           	movi.n	a6, 3
    17d1:	945d           	ae_zext16	a5, a4
    17d3:	1b0627        	bnone	a6, a2, 17f2 <LC3Plus_Scale_sig+0x26>
    17d6:	1114a6        	blti	a4, 1, 17eb <LC3Plus_Scale_sig+0x1f>
    17d9:	f60c           	movi.n	a6, 15
    17db:	227d           	ae_l16si.n	a7, a2, 0
    17dd:	436560        	min	a6, a5, a6
    17e0:	401600        	ssl	a6
    17e3:	a16700        	sll	a6, a7

000017e6 <LC3Plus_Scale_sig+0x1a>:
    17e6:	626d           	ae_s16i.n	a6, a2, 0
    17e8:	000086        	j	17ee <LC3Plus_Scale_sig+0x22>

000017eb <LC3Plus_Scale_sig+0x1f>:
    17eb:	06d496        	bltz	a4, 185c <LC3Plus_Scale_sig+0x90>
    17ee:	222b           	addi.n	a2, a2, 2
    17f0:	330b           	addi.n	a3, a3, -1
    17f2:	2914a6        	blti	a4, 1, 181f <LC3Plus_Scale_sig+0x53>
    17f5:	f60c           	movi.n	a6, 15
    17f7:	436560        	min	a6, a5, a6
    17fa:	835d           	ae_sext16	a5, a3
    17fc:	448204        	ae_lp16x2f.iu	aep0, a2, 0
    17ff:	031664        	wur.ae_sar	a6
    1802:	0d25a6        	blti	a5, 2, 1813 <LC3Plus_Scale_sig+0x47>
    1805:	216150        	srai	a6, a5, 1
    1808:	078676        	loop	a6, 1813 <LC3Plus_Scale_sig+0x47>
    180b:	f823ed821f 	{ ae_lp16x2f.iu	aep0, a2, 4; ae_sllssp24s	aep1, aep0 }
    1810:	4612f4        	ae_sp16x2f.i	aep1, a2, -4

00001813 <LC3Plus_Scale_sig+0x47>:
    1813:	086507        	bbci	a5, 0, 181f <LC3Plus_Scale_sig+0x53>
    1816:	0b0084        	ae_sllssp24s	aep0, aep0
    1819:	1a8084        	ae_selp24.lh	aep0, aep0, aep0
    181c:	420204        	ae_sp16f.l.i	aep0, a2, 0

0000181f <LC3Plus_Scale_sig+0x53>:
    181f:	004496        	bltz	a4, 1827 <LC3Plus_Scale_sig+0x5b>
    1822:	f01d           	retw.n

00001824 <LC3Plus_Scale_sig+0x58>:
    1824:	000000                                        ...

00001827 <LC3Plus_Scale_sig+0x5b>:
    1827:	157c           	movi.n	a5, -15
    1829:	534450        	max	a4, a4, a5
    182c:	604040        	neg	a4, a4
    182f:	833d           	ae_sext16	a3, a3
    1831:	448204        	ae_lp16x2f.iu	aep0, a2, 0
    1834:	031644        	wur.ae_sar	a4
    1837:	1023a6        	blti	a3, 2, 184b <LC3Plus_Scale_sig+0x7f>
    183a:	214130        	srai	a4, a3, 1
    183d:	0a8476        	loop	a4, 184b <LC3Plus_Scale_sig+0x7f>
    1840:	f8a3ed821f 	{ ae_lp16x2f.iu	aep0, a2, 4; ae_srasp24	aep1, aep0 }
    1845:	091194        	ae_roundsp16asym	aep1, aep1
    1848:	4612f4        	ae_sp16x2f.i	aep1, a2, -4

0000184b <LC3Plus_Scale_sig+0x7f>:
    184b:	d36307        	bbci	a3, 0, 1822 <LC3Plus_Scale_sig+0x56>
    184e:	0b0384        	ae_srasp24	aep0, aep0
    1851:	090184        	ae_roundsp16asym	aep0, aep0
    1854:	1a8084        	ae_selp24.lh	aep0, aep0, aep0
    1857:	420204        	ae_sp16f.l.i	aep0, a2, 0
    185a:	f01d           	retw.n

0000185c <LC3Plus_Scale_sig+0x90>:
    185c:	167c           	movi.n	a6, -15
    185e:	536460        	max	a6, a4, a6
    1861:	f77c           	movi.n	a7, -1
    1863:	606060        	neg	a6, a6
    1866:	22ed           	ae_l16si.n	a14, a2, 0
    1868:	117710        	slli	a7, a7, 15
    186b:	400600        	ssr	a6
    186e:	b17070        	sra	a7, a7
    1871:	d167e0        	mul16s	a6, a7, a14
    1874:	1f0c           	movi.n	a15, 1
    1876:	117f10        	slli	a7, a15, 15
    1879:	1166f0        	slli	a6, a6, 1
    187c:	c06760        	sub	a6, a7, a6
    187f:	f56060        	extui	a6, a6, 16, 16
    1882:	ffd806        	j	17e6 <LC3Plus_Scale_sig+0x1a>

00001885 <LC3Plus_Scale_sig+0xb9>:
    1885:	000000                                        ...

00001888 <LC3Plus_Scale_sig_sat>:
    1888:	004136        	entry	a1, 32
    188b:	1914a6        	blti	a4, 1, 18a8 <LC3Plus_Scale_sig_sat+0x20>
    188e:	5c13a6        	blti	a3, 1, 18ee <LC3Plus_Scale_sig_sat+0x66>
    1891:	401400        	ssl	a4
    1894:	f03d           	nop.n
    1896:	0a8376        	loop	a3, 18a4 <LC3Plus_Scale_sig_sat+0x1c>
    1899:	223d           	ae_l16si.n	a3, a2, 0
    189b:	a13300        	sll	a3, a3
    189e:	a33d           	ae_clamps16	a3, a3
    18a0:	623d           	ae_s16i.n	a3, a2, 0
    18a2:	222b           	addi.n	a2, a2, 2

000018a4 <LC3Plus_Scale_sig_sat+0x1c>:
    18a4:	001186        	j	18ee <LC3Plus_Scale_sig_sat+0x66>

000018a7 <LC3Plus_Scale_sig_sat+0x1f>:
	...

000018a8 <LC3Plus_Scale_sig_sat+0x20>:
    18a8:	0424d6        	bgez	a4, 18ee <LC3Plus_Scale_sig_sat+0x66>
    18ab:	3f13a6        	blti	a3, 1, 18ee <LC3Plus_Scale_sig_sat+0x66>
    18ae:	157c           	movi.n	a5, -15
    18b0:	534450        	max	a4, a4, a5
    18b3:	f67c           	movi.n	a6, -1
    18b5:	605040        	neg	a5, a4
    18b8:	116610        	slli	a6, a6, 15
    18bb:	400500        	ssr	a5
    18be:	fe7c           	movi.n	a14, -1
    18c0:	b16060        	sra	a6, a6
    18c3:	015e10        	slli	a5, a14, 31
    18c6:	401400        	ssl	a4
    18c9:	a15500        	sll	a5, a5
    18cc:	315050        	srai	a5, a5, 16
    18cf:	a35640        	movltz	a5, a6, a4
    18d2:	1155f0        	slli	a5, a5, 1
    18d5:	1f0c           	movi.n	a15, 1
    18d7:	114f10        	slli	a4, a15, 15
    18da:	605050        	neg	a5, a5
    18dd:	0d8376        	loop	a3, 18ee <LC3Plus_Scale_sig_sat+0x66>
    18e0:	223d           	ae_l16si.n	a3, a2, 0
    18e2:	823530        	mull	a3, a5, a3
    18e5:	334a           	add.n	a3, a3, a4
    18e7:	313030        	srai	a3, a3, 16
    18ea:	623d           	ae_s16i.n	a3, a2, 0
    18ec:	222b           	addi.n	a2, a2, 2

000018ee <LC3Plus_Scale_sig_sat+0x66>:
    18ee:	f01d           	retw.n

000018f0 <LC3Plus_Copy_Scale_sig>:
    18f0:	004136        	entry	a1, 32
    18f3:	fec332        	addi	a3, a3, -2
    18f6:	a59c           	beqz.n	a5, 1914 <LC3Plus_Copy_Scale_sig+0x24>
    18f8:	034596        	bltz	a5, 1930 <LC3Plus_Copy_Scale_sig+0x40>
    18fb:	031654        	wur.ae_sar	a5
    18fe:	1014a6        	blti	a4, 1, 1912 <LC3Plus_Copy_Scale_sig+0x22>
    1901:	408204        	ae_lp16f.iu	aep0, a2, 0
    1904:	f03d           	nop.n
    1906:	088476        	loop	a4, 1912 <LC3Plus_Copy_Scale_sig+0x22>
    1909:	0b0084        	ae_sllssp24s	aep0, aep0
    190c:	428314        	ae_sp16f.l.iu	aep0, a3, 2
    190f:	408214        	ae_lp16f.iu	aep0, a2, 2

00001912 <LC3Plus_Copy_Scale_sig+0x22>:
    1912:	f01d           	retw.n

00001914 <LC3Plus_Copy_Scale_sig+0x24>:
    1914:	f57c           	movi.n	a5, -1
    1916:	415150        	srli	a5, a5, 1
    1919:	f50547        	bnone	a5, a4, 1912 <LC3Plus_Copy_Scale_sig+0x22>
    191c:	104450        	and	a4, a4, a5
    191f:	408204        	ae_lp16f.iu	aep0, a2, 0
    1922:	058476        	loop	a4, 192b <LC3Plus_Copy_Scale_sig+0x3b>
    1925:	428314        	ae_sp16f.l.iu	aep0, a3, 2
    1928:	408214        	ae_lp16f.iu	aep0, a2, 2

0000192b <LC3Plus_Copy_Scale_sig+0x3b>:
    192b:	fff8c6        	j	1912 <LC3Plus_Copy_Scale_sig+0x22>

0000192e <LC3Plus_Copy_Scale_sig+0x3e>:
	...

00001930 <LC3Plus_Copy_Scale_sig+0x40>:
    1930:	605050        	neg	a5, a5
    1933:	400500        	ssr	a5
    1936:	d814a6        	blti	a4, 1, 1912 <LC3Plus_Copy_Scale_sig+0x22>
    1939:	f57c           	movi.n	a5, -1
    193b:	115510        	slli	a5, a5, 15
    193e:	b15050        	sra	a5, a5
    1941:	300554        	ae_cvtp24a16x2.ll	aep0, a5, a5
    1944:	fc182c920f 	{ ae_lp16f.iu	aep1, a2, 0; ae_negsp24s	aep0, aep0 }
    1949:	0b8476        	loop	a4, 1958 <LC3Plus_Copy_Scale_sig+0x68>
    194c:	011074        	ae_mulfp24s.ll	aeq0, aep1, aep0
    194f:	1b8f14        	ae_roundsp16q48asym	aep1, aeq0
    1952:	429314        	ae_sp16f.l.iu	aep1, a3, 2
    1955:	409214        	ae_lp16f.iu	aep1, a2, 2

00001958 <LC3Plus_Copy_Scale_sig+0x68>:
    1958:	ffed86        	j	1912 <LC3Plus_Copy_Scale_sig+0x22>

0000195b <LC3Plus_Copy_Scale_sig+0x6b>:
	...

0000195c <LC3Plus_Isqrt>:
    195c:	004136        	entry	a1, 32
    195f:	5f12a6        	blti	a2, 1, 19c2 <LC3Plus_Isqrt+0x66>
    1962:	fa5261        	l32r	a6, 2ac (1061c <LC3Plus_isqrt_table>)
    1965:	755620        	extui	a5, a2, 22, 8
    1968:	1155f0        	slli	a5, a5, 1
    196b:	0668           	l32i.n	a6, a6, 0
    196d:	fca172        	movi	a7, 0x1fc
    1970:	552b           	addi.n	a5, a5, 2
    1972:	105570        	and	a5, a5, a7
    1975:	565a           	add.n	a5, a6, a5
    1977:	1568           	l32i.n	a6, a5, 4
    1979:	05d8           	l32i.n	a13, a5, 0
    197b:	e4e820        	extui	a14, a2, 8, 15
    197e:	434d           	ae_l16ui.n	a4, a3, 0
    1980:	c066d0        	sub	a6, a6, a13
    1983:	8286e0        	mull	a8, a6, a14
    1986:	b226e0        	mulsh	a2, a6, a14
    1989:	41ff80        	srli	a15, a8, 15
    198c:	1be2f0        	depbits	a15, a2, 17, 15
    198f:	845d           	ae_sext16	a5, a4
    1991:	2dfa           	add.n	a2, a13, a15
    1993:	1a6407        	bbci	a4, 0, 19b1 <LC3Plus_Isqrt+0x55>
    1996:	82a062        	movi	a6, 130
    1999:	5ad662        	addmi	a6, a6, 0x5a00
    199c:	82e260        	mull	a14, a2, a6
    199f:	044040        	extui	a4, a4, 0, 1
    19a2:	b2f260        	mulsh	a15, a2, a6
    19a5:	401400        	ssl	a4
    19a8:	414fe0        	srli	a4, a14, 15
    19ab:	1bef40        	depbits	a4, a15, 17, 15
    19ae:	a12400        	sll	a2, a4

000019b1 <LC3Plus_Isqrt+0x55>:
    19b1:	140c           	movi.n	a4, 1
    19b3:	114400        	slli	a4, a4, 16
    19b6:	115510        	slli	a5, a5, 15
    19b9:	c04450        	sub	a4, a4, a5
    19bc:	f54040        	extui	a4, a4, 16, 16
    19bf:	000186        	j	19c9 <LC3Plus_Isqrt+0x6d>

000019c2 <LC3Plus_Isqrt+0x66>:
    19c2:	f27c           	movi.n	a2, -1
    19c4:	412120        	srli	a2, a2, 1
    19c7:	040c           	movi.n	a4, 0
    19c9:	634d           	ae_s16i.n	a4, a3, 0
    19cb:	f01d           	retw.n

000019cd <LC3Plus_Isqrt+0x71>:
    19cd:	000000                                        ...

000019d0 <LC3Plus_BASOP_Util_Log2_16>:
    19d0:	006136        	entry	a1, 48
    19d3:	063216        	beqz	a2, 1a3a <LC3Plus_BASOP_Util_Log2_16+0x6a>
    19d6:	360234        	ae_cvtq48a32s	aeq0, a2
    19d9:	364604        	ae_nsaq56s	a6, aeq0
    19dc:	dfaf42        	movi	a4, -33
    19df:	114410        	slli	a4, a4, 15
    19e2:	eec662        	addi	a6, a6, -18
    19e5:	116600        	slli	a6, a6, 16
    19e8:	316060        	srai	a6, a6, 16
    19eb:	fc24fe860f 	{ ae_slaasq56s	aeq0, aeq0, a6; nop }
    19f0:	364434        	ae_cvtq48a32s	aeq1, a4
    19f3:	fa30b1        	l32r	a11, 2b4 (10624 <LC3Plus_Log2_16_table2>)
    19f6:	f9660fffaf 	{ movi	a10, -1; ae_addq56	aeq1, aeq0, aeq1 }
    19fb:	fa2d51        	l32r	a5, 2b0 (10620 <LC3Plus_Log2_16_table1>)
    19fe:	f86bb00b4e 	{ l32i	a4, a11, 0; ae_roundsp16q48asym	aep0, aeq1 }
    1a03:	420164        	ae_sp16f.l.i	aep0, a1, 12
    1a06:	3026a0        	xor	a2, a6, a10
    1a09:	069162        	l16si	a6, a1, 12
    1a0c:	0558           	l32i.n	a5, a5, 0
    1a0e:	368d04        	ae_trunca32q48	a13, aeq0
    1a11:	904640        	addx2	a4, a6, a4
    1a14:	a05650        	addx4	a5, a6, a5
    1a17:	244d           	ae_l16si.n	a4, a4, 0
    1a19:	223a           	add.n	a2, a2, a3
    1a1b:	9436d0        	extui	a3, a13, 6, 10
    1a1e:	0558           	l32i.n	a5, a5, 0
    1a20:	1133f0        	slli	a3, a3, 1
    1a23:	1e0c           	movi.n	a14, 1
    1a25:	116e10        	slli	a6, a14, 15
    1a28:	d13340        	mul16s	a3, a3, a4
    1a2b:	f56a           	add.n	a15, a5, a6
    1a2d:	33fa           	add.n	a3, a3, a15
    1a2f:	112270        	slli	a2, a2, 9
    1a32:	f53030        	extui	a3, a3, 16, 16
    1a35:	223a           	add.n	a2, a2, a3
    1a37:	000106        	j	1a3f <LC3Plus_BASOP_Util_Log2_16+0x6f>

00001a3a <LC3Plus_BASOP_Util_Log2_16+0x6a>:
    1a3a:	120c           	movi.n	a2, 1
    1a3c:	112210        	slli	a2, a2, 15
    1a3f:	822d           	ae_sext16	a2, a2
    1a41:	f01d           	retw.n

00001a43 <LC3Plus_BASOP_Util_Log2_16+0x73>:
	...

00001a44 <LC3Plus_BASOP_Util_InvLog2_16>:
    1a44:	004136        	entry	a1, 32
    1a47:	fa1d51        	l32r	a5, 2bc (1062c <LC3Plus_InvLog2_16_table2>)
    1a4a:	fa1b41        	l32r	a4, 2b8 (10628 <LC3Plus_InvLog2_16_table1>)
    1a4d:	547520        	extui	a7, a2, 5, 6
    1a50:	0558           	l32i.n	a5, a5, 0
    1a52:	0448           	l32i.n	a4, a4, 0
    1a54:	44c020        	extui	a12, a2, 0, 5
    1a57:	905750        	addx2	a5, a7, a5
    1a5a:	a04740        	addx4	a4, a7, a4
    1a5d:	25dd           	ae_l16si.n	a13, a5, 0
    1a5f:	0448           	l32i.n	a4, a4, 0
    1a61:	160c           	movi.n	a6, 1
    1a63:	11ecb0        	slli	a14, a12, 5
    1a66:	418b20        	srli	a8, a2, 11
    1a69:	116610        	slli	a6, a6, 15
    1a6c:	d12ed0        	mul16s	a2, a14, a13
    1a6f:	446a           	add.n	a4, a4, a6
    1a71:	224a           	add.n	a2, a2, a4
    1a73:	f81b           	addi.n	a15, a8, 1
    1a75:	312020        	srai	a2, a2, 16
    1a78:	63fd           	ae_s16i.n	a15, a3, 0
    1a7a:	f01d           	retw.n

00001a7c <LC3Plus_invFixp>:
    1a7c:	004136        	entry	a1, 32
    1a7f:	0e22f6        	bgeui	a2, 2, 1a91 <LC3Plus_invFixp+0x15>
    1a82:	232d           	ae_l16si.n	a2, a3, 0
    1a84:	f41c           	movi.n	a4, 31
    1a86:	ff7c           	movi.n	a15, -1
    1a88:	c04420        	sub	a4, a4, a2
    1a8b:	4121f0        	srli	a2, a15, 1
    1a8e:	001d86        	j	1b08 <LC3Plus_invFixp+0x8c>

00001a91 <LC3Plus_invFixp+0x15>:
    1a91:	0d0226        	beqi	a2, -1, 1aa2 <LC3Plus_invFixp+0x26>
    1a94:	314f20        	srai	a4, a2, 31
    1a97:	304420        	xor	a4, a4, a2
    1a9a:	40f440        	nsau	a4, a4
    1a9d:	440b           	addi.n	a4, a4, -1
    1a9f:	000046        	j	1aa4 <LC3Plus_invFixp+0x28>

00001aa2 <LC3Plus_invFixp+0x26>:
    1aa2:	f41c           	movi.n	a4, 31
    1aa4:	fa0751        	l32r	a5, 2c0 (10630 <LC3Plus_invSqrtTab>)
    1aa7:	401400        	ssl	a4
    1aaa:	a12200        	sll	a2, a2
    1aad:	0558           	l32i.n	a5, a5, 0
    1aaf:	656720        	extui	a6, a2, 23, 7
    1ab2:	fa1f91        	l32r	a9, 330 (7fffff00 <_end+0x7ffef8bc>)
    1ab5:	a06650        	addx4	a6, a6, a5
    1ab8:	1658           	l32i.n	a5, a6, 4
    1aba:	06f8           	l32i.n	a15, a6, 0
    1abc:	11a280        	slli	a10, a2, 8
    1abf:	107a90        	and	a7, a10, a9
    1ac2:	c085f0        	sub	a8, a5, a15
    1ac5:	b2b870        	mulsh	a11, a8, a7
    1ac8:	442b           	addi.n	a4, a4, 2
    1aca:	902bf0        	addx2	a2, a11, a15
    1acd:	1909a7        	bnone	a9, a10, 1aea <LC3Plus_invFixp+0x6e>
    1ad0:	f97c           	movi.n	a9, -1
    1ad2:	019910        	slli	a9, a9, 31
    1ad5:	c0e970        	sub	a14, a9, a7
    1ad8:	2668           	l32i.n	a6, a6, 8
    1ada:	b27e70        	mulsh	a7, a14, a7
    1add:	585a           	add.n	a5, a8, a5
    1adf:	c05560        	sub	a5, a5, a6
    1ae2:	11f7f0        	slli	a15, a7, 1
    1ae5:	b255f0        	mulsh	a5, a5, a15
    1ae8:	252a           	add.n	a2, a5, a2
    1aea:	086407        	bbci	a4, 0, 1af6 <LC3Plus_invFixp+0x7a>
    1aed:	fa1151        	l32r	a5, 334 (5a827999 <_end+0x5a817355>)
    1af0:	b22250        	mulsh	a2, a2, a5
    1af3:	1122e0        	slli	a2, a2, 2
    1af6:	e67c           	movi.n	a6, -2
    1af8:	235d           	ae_l16si.n	a5, a3, 0
    1afa:	f46060        	extui	a6, a6, 0, 16
    1afd:	104460        	and	a4, a4, a6
    1b00:	c04450        	sub	a4, a4, a5
    1b03:	b22220        	mulsh	a2, a2, a2
    1b06:	441b           	addi.n	a4, a4, 1
    1b08:	634d           	ae_s16i.n	a4, a3, 0
    1b0a:	f01d           	retw.n

00001b0c <LC3Plus_BASOP_getTables>:
    1b0c:	004136        	entry	a1, 32
    1b0f:	f9ed61        	l32r	a6, 2c4 (105d8 <LC3Plus_SineTable320>)
    1b12:	9fa072        	movi	a7, 159
    1b15:	20a757        	bge	a7, a5, 1b39 <LC3Plus_BASOP_getTables+0x2d>
    1b18:	3fa172        	movi	a7, 0x13f
    1b1b:	31a757        	bge	a7, a5, 1b50 <LC3Plus_BASOP_getTables+0x44>
    1b1e:	40a172        	movi	a7, 0x140
    1b21:	521577        	beq	a5, a7, 1b77 <LC3Plus_BASOP_getTables+0x6b>
    1b24:	e0a162        	movi	a6, 0x1e0
    1b27:	541567        	beq	a5, a6, 1b7f <LC3Plus_BASOP_getTables+0x73>
    1b2a:	c0a362        	movi	a6, 0x3c0
    1b2d:	769567        	bne	a5, a6, 1ba7 <LC3Plus_BASOP_getTables+0x9b>
    1b30:	f9ef51        	l32r	a5, 2ec (10600 <LC3Plus_SineWindow960>)
    1b33:	f9e561        	l32r	a6, 2c8 (105dc <LC3Plus_SineTable960>)
    1b36:	001006        	j	1b7a <LC3Plus_BASOP_getTables+0x6e>

00001b39 <LC3Plus_BASOP_getTables+0x2d>:
    1b39:	f74c           	movi.n	a7, 79
    1b3b:	252757        	blt	a7, a5, 1b64 <LC3Plus_BASOP_getTables+0x58>
    1b3e:	882c           	movi.n	a8, 40
    1b40:	071c           	movi.n	a7, 16
    1b42:	441587        	beq	a5, a8, 1b8a <LC3Plus_BASOP_getTables+0x7e>
    1b45:	c63c           	movi.n	a6, 60
    1b47:	5c9567        	bne	a5, a6, 1ba7 <LC3Plus_BASOP_getTables+0x9b>
    1b4a:	f9e151        	l32r	a5, 2d0 (105e4 <LC3Plus_SineWindow60>)
    1b4d:	000cc6        	j	1b84 <LC3Plus_BASOP_getTables+0x78>

00001b50 <LC3Plus_BASOP_getTables+0x44>:
    1b50:	a0a072        	movi	a7, 160
    1b53:	391577        	beq	a5, a7, 1b90 <LC3Plus_BASOP_getTables+0x84>
    1b56:	f0a062        	movi	a6, 240
    1b59:	4a9567        	bne	a5, a6, 1ba7 <LC3Plus_BASOP_getTables+0x9b>
    1b5c:	f9e151        	l32r	a5, 2e0 (105f4 <LC3Plus_SineWindow240>)
    1b5f:	470c           	movi.n	a7, 4
    1b61:	0007c6        	j	1b84 <LC3Plus_BASOP_getTables+0x78>

00001b64 <LC3Plus_BASOP_getTables+0x58>:
    1b64:	075c           	movi.n	a7, 80
    1b66:	2e1577        	beq	a5, a7, 1b98 <LC3Plus_BASOP_getTables+0x8c>
    1b69:	78a062        	movi	a6, 120
    1b6c:	379567        	bne	a5, a6, 1ba7 <LC3Plus_BASOP_getTables+0x9b>
    1b6f:	f9da51        	l32r	a5, 2d8 (105ec <LC3Plus_SineWindow120>)
    1b72:	870c           	movi.n	a7, 8
    1b74:	000306        	j	1b84 <LC3Plus_BASOP_getTables+0x78>

00001b77 <LC3Plus_BASOP_getTables+0x6b>:
    1b77:	f9db51        	l32r	a5, 2e4 (105f8 <LC3Plus_SineWindow320>)
    1b7a:	270c           	movi.n	a7, 2
    1b7c:	000746        	j	1b9d <LC3Plus_BASOP_getTables+0x91>

00001b7f <LC3Plus_BASOP_getTables+0x73>:
    1b7f:	f9da51        	l32r	a5, 2e8 (105fc <LC3Plus_SineWindow480>)
    1b82:	270c           	movi.n	a7, 2
    1b84:	f9c761        	l32r	a6, 2a0 (105d4 <LC3Plus_SineTable480>)
    1b87:	000486        	j	1b9d <LC3Plus_BASOP_getTables+0x91>

00001b8a <LC3Plus_BASOP_getTables+0x7e>:
    1b8a:	f9d051        	l32r	a5, 2cc (105e0 <SineWindow40>)
    1b8d:	000306        	j	1b9d <LC3Plus_BASOP_getTables+0x91>

00001b90 <LC3Plus_BASOP_getTables+0x84>:
    1b90:	f9d351        	l32r	a5, 2dc (105f0 <LC3Plus_SineWindow160>)
    1b93:	470c           	movi.n	a7, 4
    1b95:	000106        	j	1b9d <LC3Plus_BASOP_getTables+0x91>

00001b98 <LC3Plus_BASOP_getTables+0x8c>:
    1b98:	f9cf51        	l32r	a5, 2d4 (105e8 <LC3Plus_SineWindow80>)
    1b9b:	870c           	movi.n	a7, 8
    1b9d:	0668           	l32i.n	a6, a6, 0
    1b9f:	0369           	s32i.n	a6, a3, 0
    1ba1:	0538           	l32i.n	a3, a5, 0
    1ba3:	647d           	ae_s16i.n	a7, a4, 0
    1ba5:	0239           	s32i.n	a3, a2, 0
    1ba7:	f01d           	retw.n

00001ba9 <LC3Plus_BASOP_getTables+0x9d>:
    1ba9:	000000                                        ...

00001bac <LC3Plus_dct32_fx>:
    1bac:	00e136        	entry	a1, 112
    1baf:	a248           	l32i.n	a4, a2, 40
    1bb1:	5258           	l32i.n	a5, a2, 20
    1bb3:	d268           	l32i.n	a6, a2, 52
    1bb5:	2278           	l32i.n	a7, a2, 8
    1bb7:	82a0c2        	movi	a12, 130
    1bba:	7ea0f2        	movi	a15, 126
    1bbd:	136132        	s32i	a3, a1, 76
    1bc0:	5adc32        	addmi	a3, a12, 0x5a00
    1bc3:	c08540        	sub	a8, a5, a4
    1bc6:	c0d760        	sub	a13, a7, a6
    1bc9:	454a           	add.n	a4, a5, a4
    1bcb:	676a           	add.n	a6, a7, a6
    1bcd:	c09640        	sub	a9, a6, a4
    1bd0:	82ed30        	mull	a14, a13, a3
    1bd3:	a5dff2        	addmi	a15, a15, 0xffffa500
    1bd6:	b199           	s32i.n	a9, a1, 44
    1bd8:	b25d30        	mulsh	a5, a13, a3
    1bdb:	8298f0        	mull	a9, a8, a15
    1bde:	82a830        	mull	a10, a8, a3
    1be1:	417fe0        	srli	a7, a14, 15
    1be4:	446a           	add.n	a4, a4, a6
    1be6:	b2b830        	mulsh	a11, a8, a3
    1be9:	b288f0        	mulsh	a8, a8, a15
    1bec:	1be570        	depbits	a7, a5, 17, 15
    1bef:	415f90        	srli	a5, a9, 15
    1bf2:	a149           	s32i.n	a4, a1, 40
    1bf4:	414fa0        	srli	a4, a10, 15
    1bf7:	1beb40        	depbits	a4, a11, 17, 15
    1bfa:	1be850        	depbits	a5, a8, 17, 15
    1bfd:	e268           	l32i.n	a6, a2, 56
    1bff:	1288           	l32i.n	a8, a2, 4
    1c01:	b2c8           	l32i.n	a12, a2, 44
    1c03:	42d8           	l32i.n	a13, a2, 16
    1c05:	447a           	add.n	a4, a4, a7
    1c07:	757a           	add.n	a7, a5, a7
    1c09:	9298           	l32i.n	a9, a2, 36
    1c0b:	62a8           	l32i.n	a10, a2, 24
    1c0d:	c258           	l32i.n	a5, a2, 48
    1c0f:	32b8           	l32i.n	a11, a2, 12
    1c11:	c03dc0        	sub	a3, a13, a12
    1c14:	cdca           	add.n	a12, a13, a12
    1c16:	d86a           	add.n	a13, a8, a6
    1c18:	c06860        	sub	a6, a8, a6
    1c1b:	c0eb50        	sub	a14, a11, a5
    1c1e:	5b5a           	add.n	a5, a11, a5
    1c20:	1261c2        	s32i	a12, a1, 72
    1c23:	c0ba90        	sub	a11, a10, a9
    1c26:	c08640        	sub	a8, a6, a4
    1c29:	446a           	add.n	a4, a4, a6
    1c2b:	bea0c2        	movi	a12, 190
    1c2e:	82a062        	movi	a6, 130
    1c31:	9a9a           	add.n	a9, a10, a9
    1c33:	116152        	s32i	a5, a1, 68
    1c36:	c05b70        	sub	a5, a11, a7
    1c39:	91d9           	s32i.n	a13, a1, 36
    1c3b:	89dca2        	addmi	a10, a12, 0xffff8900
    1c3e:	77ba           	add.n	a7, a7, a11
    1c40:	5ad6c2        	addmi	a12, a6, 0x5a00
    1c43:	4d0c           	movi.n	a13, 4
    1c45:	8199           	s32i.n	a9, a1, 32
    1c47:	2179           	s32i.n	a7, a1, 8
    1c49:	cfdd72        	addmi	a7, a13, 0xffffcf00
    1c4c:	829ec0        	mull	a9, a14, a12
    1c4f:	82d3c0        	mull	a13, a3, a12
    1c52:	b2bec0        	mulsh	a11, a14, a12
    1c55:	82e3f0        	mull	a14, a3, a15
    1c58:	b2f3f0        	mulsh	a15, a3, a15
    1c5b:	b233c0        	mulsh	a3, a3, a12
    1c5e:	416f90        	srli	a6, a9, 15
    1c61:	419fd0        	srli	a9, a13, 15
    1c64:	1beb60        	depbits	a6, a11, 17, 15
    1c67:	1be390        	depbits	a9, a3, 17, 15
    1c6a:	41bfe0        	srli	a11, a14, 15
    1c6d:	e96a           	add.n	a14, a9, a6
    1c6f:	8298           	l32i.n	a9, a2, 32
    1c71:	72c8           	l32i.n	a12, a2, 28
    1c73:	1befb0        	depbits	a11, a15, 17, 15
    1c76:	3b6a           	add.n	a3, a11, a6
    1c78:	dc9a           	add.n	a13, a12, a9
    1c7a:	c0cc90        	sub	a12, a12, a9
    1c7d:	1061d2        	s32i	a13, a1, 64
    1c80:	b2d570        	mulsh	a13, a5, a7
    1c83:	b298a0        	mulsh	a9, a8, a10
    1c86:	827570        	mull	a7, a5, a7
    1c89:	82a8a0        	mull	a10, a8, a10
    1c8c:	6c3a           	add.n	a6, a12, a3
    1c8e:	f2b8           	l32i.n	a11, a2, 60
    1c90:	02f8           	l32i.n	a15, a2, 0
    1c92:	3169           	s32i.n	a6, a1, 12
    1c94:	416f70        	srli	a6, a7, 15
    1c97:	c02c30        	sub	a2, a12, a3
    1c9a:	413fa0        	srli	a3, a10, 15
    1c9d:	1bed60        	depbits	a6, a13, 17, 15
    1ca0:	1be930        	depbits	a3, a9, 17, 15
    1ca3:	336a           	add.n	a3, a3, a6
    1ca5:	761c           	movi.n	a6, 23
    1ca7:	c32a           	add.n	a12, a3, a2
    1ca9:	c0d230        	sub	a13, a2, a3
    1cac:	d8d622        	addmi	a2, a6, 0xffffd800
    1caf:	823d20        	mull	a3, a13, a2
    1cb2:	fca072        	movi	a7, 252
    1cb5:	4159           	s32i.n	a5, a1, 16
    1cb7:	30d752        	addmi	a5, a7, 0x3000
    1cba:	b22d20        	mulsh	a2, a13, a2
    1cbd:	413f30        	srli	a3, a3, 15
    1cc0:	82a850        	mull	a10, a8, a5
    1cc3:	1be230        	depbits	a3, a2, 17, 15
    1cc6:	b29850        	mulsh	a9, a8, a5
    1cc9:	5139           	s32i.n	a3, a1, 20
    1ccb:	413fa0        	srli	a3, a10, 15
    1cce:	1be930        	depbits	a3, a9, 17, 15
    1cd1:	21a8           	l32i.n	a10, a1, 8
    1cd3:	f139           	s32i.n	a3, a1, 60
    1cd5:	234c           	movi.n	a3, 66
    1cd7:	76d362        	addmi	a6, a3, 0x7600
    1cda:	827460        	mull	a7, a4, a6
    1cdd:	71c9           	s32i.n	a12, a1, 28
    1cdf:	82ca50        	mull	a12, a10, a5
    1ce2:	61d9           	s32i.n	a13, a1, 24
    1ce4:	b2da50        	mulsh	a13, a10, a5
    1ce7:	828450        	mull	a8, a4, a5
    1cea:	b26460        	mulsh	a6, a4, a6
    1ced:	412fc0        	srli	a2, a12, 15
    1cf0:	413f70        	srli	a3, a7, 15
    1cf3:	1be630        	depbits	a3, a6, 17, 15
    1cf6:	1bed20        	depbits	a2, a13, 17, 15
    1cf9:	417f80        	srli	a7, a8, 15
    1cfc:	c08fb0        	sub	a8, a15, a11
    1cff:	b25450        	mulsh	a5, a4, a5
    1d02:	923a           	add.n	a9, a2, a3
    1d04:	bea5c2        	movi	a12, 0x5be
    1d07:	4e8a           	add.n	a4, a14, a8
    1d09:	c02490        	sub	a2, a4, a9
    1d0c:	a03cc0        	addx4	a3, a12, a12
    1d0f:	82d230        	mull	a13, a2, a3
    1d12:	fca062        	movi	a6, 252
    1d15:	41cfd0        	srli	a12, a13, 15
    1d18:	22d6d2        	addmi	a13, a6, 0x2200
    1d1b:	e1b9           	s32i.n	a11, a1, 56
    1d1d:	82b2d0        	mull	a11, a2, a13
    1d20:	b23230        	mulsh	a3, a2, a3
    1d23:	b222d0        	mulsh	a2, a2, a13
    1d26:	1be570        	depbits	a7, a5, 17, 15
    1d29:	415fb0        	srli	a5, a11, 15
    1d2c:	1be250        	depbits	a5, a2, 17, 15
    1d2f:	6fa622        	movi	a2, 0x66f
    1d32:	c0b8e0        	sub	a11, a8, a14
    1d35:	f08220        	subx8	a8, a2, a2
    1d38:	494a           	add.n	a4, a9, a4
    1d3a:	829480        	mull	a9, a4, a8
    1d3d:	70a4e2        	movi	a14, 0x470
    1d40:	1be3c0        	depbits	a12, a3, 17, 15
    1d43:	b28480        	mulsh	a8, a4, a8
    1d46:	8234e0        	mull	a3, a4, a14
    1d49:	419f90        	srli	a9, a9, 15
    1d4c:	b244e0        	mulsh	a4, a4, a14
    1d4f:	1be890        	depbits	a9, a8, 17, 15
    1d52:	418f30        	srli	a8, a3, 15
    1d55:	1be480        	depbits	a8, a4, 17, 15
    1d58:	bea042        	movi	a4, 190
    1d5b:	89d462        	addmi	a6, a4, 0xffff8900
    1d5e:	822a60        	mull	a2, a10, a6
    1d61:	b2aa60        	mulsh	a10, a10, a6
    1d64:	414f20        	srli	a4, a2, 15
    1d67:	1bea40        	depbits	a4, a10, 17, 15
    1d6a:	91a932        	movi	a3, 0xfffff991
    1d6d:	474a           	add.n	a4, a7, a4
    1d6f:	f07330        	subx8	a7, a3, a3
    1d72:	3138           	l32i.n	a3, a1, 12
    1d74:	a43a           	add.n	a10, a4, a3
    1d76:	822a70        	mull	a2, a10, a7
    1d79:	b27a70        	mulsh	a7, a10, a7
    1d7c:	412f20        	srli	a2, a2, 15
    1d7f:	1be720        	depbits	a2, a7, 17, 15
    1d82:	228a           	add.n	a2, a2, a8
    1d84:	828ae0        	mull	a8, a10, a14
    1d87:	b2aae0        	mulsh	a10, a10, a14
    1d8a:	2129           	s32i.n	a2, a1, 8
    1d8c:	412f80        	srli	a2, a8, 15
    1d8f:	1bea20        	depbits	a2, a10, 17, 15
    1d92:	292a           	add.n	a2, a9, a2
    1d94:	42aae2        	movi	a14, 0xfffffa42
    1d97:	d129           	s32i.n	a2, a1, 52
    1d99:	c04340        	sub	a4, a3, a4
    1d9c:	a02ee0        	addx4	a2, a14, a14
    1d9f:	823420        	mull	a3, a4, a2
    1da2:	b22420        	mulsh	a2, a4, a2
    1da5:	419f30        	srli	a9, a3, 15
    1da8:	1be290        	depbits	a9, a2, 17, 15
    1dab:	8274d0        	mull	a7, a4, a13
    1dae:	4188           	l32i.n	a8, a1, 16
    1db0:	295a           	add.n	a2, a9, a5
    1db2:	b234d0        	mulsh	a3, a4, a13
    1db5:	3129           	s32i.n	a2, a1, 12
    1db7:	412f70        	srli	a2, a7, 15
    1dba:	1be320        	depbits	a2, a3, 17, 15
    1dbd:	829860        	mull	a9, a8, a6
    1dc0:	2c2a           	add.n	a2, a12, a2
    1dc2:	b23860        	mulsh	a3, a8, a6
    1dc5:	f1a8           	l32i.n	a10, a1, 60
    1dc7:	c129           	s32i.n	a2, a1, 48
    1dc9:	412f90        	srli	a2, a9, 15
    1dcc:	1be320        	depbits	a2, a3, 17, 15
    1dcf:	22aa           	add.n	a2, a2, a10
    1dd1:	61a4c2        	movi	a12, 0x461
    1dd4:	903cc0        	addx2	a3, a12, a12
    1dd7:	d2ba           	add.n	a13, a2, a11
    1dd9:	82ed30        	mull	a14, a13, a3
    1ddc:	b23d30        	mulsh	a3, a13, a3
    1ddf:	41afe0        	srli	a10, a14, 15
    1de2:	1be3a0        	depbits	a10, a3, 17, 15
    1de5:	e34c           	movi.n	a3, 78
    1de7:	2bd362        	addmi	a6, a3, 0x2b00
    1dea:	825d60        	mull	a5, a13, a6
    1ded:	b24d60        	mulsh	a4, a13, a6
    1df0:	413f50        	srli	a3, a5, 15
    1df3:	e9a072        	movi	a7, 233
    1df6:	1be430        	depbits	a3, a4, 17, 15
    1df9:	27d742        	addmi	a4, a7, 0x2700
    1dfc:	c02b20        	sub	a2, a11, a2
    1dff:	595c           	movi.n	a9, 85
    1e01:	828240        	mull	a8, a2, a4
    1e04:	15d972        	addmi	a7, a9, 0x1500
    1e07:	61d8           	l32i.n	a13, a1, 24
    1e09:	b24240        	mulsh	a4, a2, a4
    1e0c:	82b270        	mull	a11, a2, a7
    1e0f:	415f80        	srli	a5, a8, 15
    1e12:	b22270        	mulsh	a2, a2, a7
    1e15:	51c8           	l32i.n	a12, a1, 20
    1e17:	1be450        	depbits	a5, a4, 17, 15
    1e1a:	414fb0        	srli	a4, a11, 15
    1e1d:	82ed70        	mull	a14, a13, a7
    1e20:	1be240        	depbits	a4, a2, 17, 15
    1e23:	b28d70        	mulsh	a8, a13, a7
    1e26:	2c4a           	add.n	a2, a12, a4
    1e28:	414fe0        	srli	a4, a14, 15
    1e2b:	71c8           	l32i.n	a12, a1, 28
    1e2d:	1be840        	depbits	a4, a8, 17, 15
    1e30:	9fabd2        	movi	a13, 0xfffffb9f
    1e33:	b54a           	add.n	a11, a5, a4
    1e35:	905dd0        	addx2	a5, a13, a13
    1e38:	82ec50        	mull	a14, a12, a5
    1e3b:	b27c50        	mulsh	a7, a12, a5
    1e3e:	414fe0        	srli	a4, a14, 15
    1e41:	1be740        	depbits	a4, a7, 17, 15
    1e44:	828c60        	mull	a8, a12, a6
    1e47:	b29c60        	mulsh	a9, a12, a6
    1e4a:	b1c8           	l32i.n	a12, a1, 44
    1e4c:	343a           	add.n	a3, a4, a3
    1e4e:	82a0d2        	movi	a13, 130
    1e51:	4139           	s32i.n	a3, a1, 16
    1e53:	413f80        	srli	a3, a8, 15
    1e56:	5add62        	addmi	a6, a13, 0x5a00
    1e59:	1be930        	depbits	a3, a9, 17, 15
    1e5c:	82ec60        	mull	a14, a12, a6
    1e5f:	9188           	l32i.n	a8, a1, 36
    1e61:	8198           	l32i.n	a9, a1, 32
    1e63:	5129           	s32i.n	a2, a1, 20
    1e65:	b22c60        	mulsh	a2, a12, a6
    1e68:	415fe0        	srli	a5, a14, 15
    1e6b:	e178           	l32i.n	a7, a1, 56
    1e6d:	c0c890        	sub	a12, a8, a9
    1e70:	1be250        	depbits	a5, a2, 17, 15
    1e73:	a128           	l32i.n	a2, a1, 40
    1e75:	82dc60        	mull	a13, a12, a6
    1e78:	61b9           	s32i.n	a11, a1, 24
    1e7a:	ba3a           	add.n	a11, a10, a3
    1e7c:	af7a           	add.n	a10, a15, a7
    1e7e:	f98a           	add.n	a15, a9, a8
    1e80:	b2ec60        	mulsh	a14, a12, a6
    1e83:	41cfd0        	srli	a12, a13, 15
    1e86:	df2a           	add.n	a13, a15, a2
    1e88:	119d30        	slli	a9, a13, 13
    1e8b:	314fd0        	srai	a4, a13, 31
    1e8e:	c563d0        	extui	a6, a13, 19, 13
    1e91:	070c           	movi.n	a7, 0
    1e93:	1beec0        	depbits	a12, a14, 17, 15
    1e96:	71b9           	s32i.n	a11, a1, 28
    1e98:	0ac640        	depbits	a4, a6, 0, 13
    1e9b:	62b790        	saltu	a11, a7, a9
    1e9e:	1e5c           	movi.n	a14, 81
    1ea0:	c08f20        	sub	a8, a15, a2
    1ea3:	24ba           	add.n	a2, a4, a11
    1ea5:	11de42        	addmi	a4, a14, 0x1100
    1ea8:	82f840        	mull	a15, a8, a4
    1eab:	603090        	neg	a3, a9
    1eae:	419ff0        	srli	a9, a15, 15
    1eb1:	1021f2        	l32i	a15, a1, 64
    1eb4:	413f30        	srli	a3, a3, 15
    1eb7:	0122f0        	slli	a2, a2, 17
    1eba:	c02320        	sub	a2, a3, a2
    1ebd:	07aa62        	movi	a6, 0xfffffa07
    1ec0:	8129           	s32i.n	a2, a1, 32
    1ec2:	f02660        	subx8	a2, a6, a6
    1ec5:	b24840        	mulsh	a4, a8, a4
    1ec8:	827820        	mull	a7, a8, a2
    1ecb:	5c5a           	add.n	a5, a12, a5
    1ecd:	49a662        	movi	a6, 0x649
    1ed0:	c0baf0        	sub	a11, a10, a15
    1ed3:	b2e820        	mulsh	a14, a8, a2
    1ed6:	1be490        	depbits	a9, a4, 17, 15
    1ed9:	c02b50        	sub	a2, a11, a5
    1edc:	1146e0        	slli	a4, a6, 2
    1edf:	418f70        	srli	a8, a7, 15
    1ee2:	827240        	mull	a7, a2, a4
    1ee5:	1bee80        	depbits	a8, a14, 17, 15
    1ee8:	416f70        	srli	a6, a7, 15
    1eeb:	b2e240        	mulsh	a14, a2, a4
    1eee:	a1a072        	movi	a7, 161
    1ef1:	25d742        	addmi	a4, a7, 0x2500
    1ef4:	1bee60        	depbits	a6, a14, 17, 15
    1ef7:	82e240        	mull	a14, a2, a4
    1efa:	55ba           	add.n	a5, a5, a11
    1efc:	63a0b2        	movi	a11, 99
    1eff:	2cdb32        	addmi	a3, a11, 0x2c00
    1f02:	b22240        	mulsh	a2, a2, a4
    1f05:	a169           	s32i.n	a6, a1, 40
    1f07:	416fe0        	srli	a6, a14, 15
    1f0a:	82e530        	mull	a14, a5, a3
    1f0d:	1be260        	depbits	a6, a2, 17, 15
    1f10:	b22530        	mulsh	a2, a5, a3
    1f13:	35a232        	movi	a3, 0x235
    1f16:	41bfe0        	srli	a11, a14, 15
    1f19:	11e3e0        	slli	a14, a3, 2
    1f1c:	8245e0        	mull	a4, a5, a14
    1f1f:	b255e0        	mulsh	a5, a5, a14
    1f22:	417f40        	srli	a7, a4, 15
    1f25:	112132        	l32i	a3, a1, 68
    1f28:	122142        	l32i	a4, a1, 72
    1f2b:	1be570        	depbits	a7, a5, 17, 15
    1f2e:	f9a552        	movi	a5, 0x5f9
    1f31:	9169           	s32i.n	a6, a1, 36
    1f33:	6faa           	add.n	a6, a15, a10
    1f35:	f0f550        	subx8	a15, a5, a5
    1f38:	543a           	add.n	a5, a4, a3
    1f3a:	1be2b0        	depbits	a11, a2, 17, 15
    1f3d:	c02650        	sub	a2, a6, a5
    1f40:	82a2f0        	mull	a10, a2, a15
    1f43:	b2f2f0        	mulsh	a15, a2, a15
    1f46:	41afa0        	srli	a10, a10, 15
    1f49:	1befa0        	depbits	a10, a15, 17, 15
    1f4c:	fa9a           	add.n	a15, a10, a9
    1f4e:	1a5c           	movi.n	a10, 81
    1f50:	11da92        	addmi	a9, a10, 0x1100
    1f53:	82a290        	mull	a10, a2, a9
    1f56:	b22290        	mulsh	a2, a2, a9
    1f59:	41afa0        	srli	a10, a10, 15
    1f5c:	2192d0        	srai	a9, a13, 2
    1f5f:	81d8           	l32i.n	a13, a1, 32
    1f61:	1be2a0        	depbits	a10, a2, 17, 15
    1f64:	665a           	add.n	a6, a6, a5
    1f66:	2a8a           	add.n	a2, a10, a8
    1f68:	c08340        	sub	a8, a3, a4
    1f6b:	213260        	srai	a3, a6, 2
    1f6e:	a3da           	add.n	a10, a3, a13
    1f70:	339a           	add.n	a3, a3, a9
    1f72:	b198           	l32i.n	a9, a1, 44
    1f74:	7ea062        	movi	a6, 126
    1f77:	a5d642        	addmi	a4, a6, 0xffffa500
    1f7a:	82d940        	mull	a13, a9, a4
    1f7d:	b29940        	mulsh	a9, a9, a4
    1f80:	415fd0        	srli	a5, a13, 15
    1f83:	1be950        	depbits	a5, a9, 17, 15
    1f86:	5c5a           	add.n	a5, a12, a5
    1f88:	958a           	add.n	a9, a5, a8
    1f8a:	82c9e0        	mull	a12, a9, a14
    1f8d:	b2e9e0        	mulsh	a14, a9, a14
    1f90:	41dfc0        	srli	a13, a12, 15
    1f93:	9da042        	movi	a4, 157
    1f96:	1beed0        	depbits	a13, a14, 17, 15
    1f99:	d3d4e2        	addmi	a14, a4, 0xffffd300
    1f9c:	8269e0        	mull	a6, a9, a14
    1f9f:	b299e0        	mulsh	a9, a9, a14
    1fa2:	4bda           	add.n	a4, a11, a13
    1fa4:	41df60        	srli	a13, a6, 15
    1fa7:	1be9d0        	depbits	a13, a9, 17, 15
    1faa:	6d7a           	add.n	a6, a13, a7
    1fac:	b7a972        	movi	a7, 0xfffff9b7
    1faf:	1197e0        	slli	a9, a7, 2
    1fb2:	c05850        	sub	a5, a8, a5
    1fb5:	a1a0c2        	movi	a12, 161
    1fb8:	828590        	mull	a8, a5, a9
    1fbb:	25dc72        	addmi	a7, a12, 0x2500
    1fbe:	b29590        	mulsh	a9, a5, a9
    1fc1:	82d570        	mull	a13, a5, a7
    1fc4:	418f80        	srli	a8, a8, 15
    1fc7:	b25570        	mulsh	a5, a5, a7
    1fca:	a1e8           	l32i.n	a14, a1, 40
    1fcc:	1be980        	depbits	a8, a9, 17, 15
    1fcf:	419fd0        	srli	a9, a13, 15
    1fd2:	1be590        	depbits	a9, a5, 17, 15
    1fd5:	91b8           	l32i.n	a11, a1, 36
    1fd7:	5e9a           	add.n	a5, a14, a9
    1fd9:	132192        	l32i	a9, a1, 76
    1fdc:	88ba           	add.n	a8, a8, a11
    1fde:	5178           	l32i.n	a7, a1, 20
    1fe0:	6989           	s32i.n	a8, a9, 24
    1fe2:	49f9           	s32i.n	a15, a9, 16
    1fe4:	89a9           	s32i.n	a10, a9, 32
    1fe6:	6188           	l32i.n	a8, a1, 24
    1fe8:	41a8           	l32i.n	a10, a1, 16
    1fea:	71b8           	l32i.n	a11, a1, 28
    1fec:	31c8           	l32i.n	a12, a1, 12
    1fee:	c1d8           	l32i.n	a13, a1, 48
    1ff0:	d1e8           	l32i.n	a14, a1, 52
    1ff2:	21f8           	l32i.n	a15, a1, 8
    1ff4:	a959           	s32i.n	a5, a9, 40
    1ff6:	2949           	s32i.n	a4, a9, 8
    1ff8:	e969           	s32i.n	a6, a9, 56
    1ffa:	c929           	s32i.n	a2, a9, 48
    1ffc:	0939           	s32i.n	a3, a9, 0
    1ffe:	b979           	s32i.n	a7, a9, 44
    2000:	5989           	s32i.n	a8, a9, 20
    2002:	39a9           	s32i.n	a10, a9, 12
    2004:	d9b9           	s32i.n	a11, a9, 52
    2006:	79c9           	s32i.n	a12, a9, 28
    2008:	99d9           	s32i.n	a13, a9, 36
    200a:	19e9           	s32i.n	a14, a9, 4
    200c:	f9f9           	s32i.n	a15, a9, 60
    200e:	f01d           	retw.n

00002010 <LC3Plus_idct32_32_fx>:
    2010:	00e136        	entry	a1, 112
    2013:	026d           	mov.n	a6, a2
    2015:	136132        	s32i	a3, a1, 76
    2018:	12a8           	l32i.n	a10, a2, 4
    201a:	f2b8           	l32i.n	a11, a2, 60
    201c:	92f8           	l32i.n	a15, a2, 36
    201e:	7258           	l32i.n	a5, a2, 28
    2020:	5238           	l32i.n	a3, a2, 20
    2022:	b2e8           	l32i.n	a14, a2, 44
    2024:	d228           	l32i.n	a2, a2, 52
    2026:	f8c681        	l32r	a8, 340 (d230455 <_end+0xd21fe11>)
    2029:	36c8           	l32i.n	a12, a6, 12
    202b:	f8c471        	l32r	a7, 33c (2b4e618e <_end+0x2b4d5b4a>)
    202e:	824280        	mull	a4, a2, a8
    2031:	f8c491        	l32r	a9, 344 (27e9446e <_end+0x27e83e2a>)
    2034:	b28280        	mulsh	a8, a2, a8
    2037:	054f40        	extui	a4, a4, 31, 1
    203a:	904840        	addx2	a4, a8, a4
    203d:	e149           	s32i.n	a4, a1, 56
    203f:	824c70        	mull	a4, a12, a7
    2042:	827390        	mull	a7, a3, a9
    2045:	b29390        	mulsh	a9, a3, a9
    2048:	058f70        	extui	a8, a7, 31, 1
    204b:	909980        	addx2	a9, a9, a8
    204e:	5199           	s32i.n	a9, a1, 20
    2050:	f8be81        	l32r	a8, 348 (15553e3f <_end+0x155437fb>)
    2053:	f8be91        	l32r	a9, 34c (22fb827b <_end+0x22fa7c37>)
    2056:	054f40        	extui	a4, a4, 31, 1
    2059:	6149           	s32i.n	a4, a1, 24
    205b:	824e80        	mull	a4, a14, a8
    205e:	828590        	mull	a8, a5, a9
    2061:	054f40        	extui	a4, a4, 31, 1
    2064:	057f80        	extui	a7, a8, 31, 1
    2067:	f8ba81        	l32r	a8, 350 (1cb598cc <_end+0x1cb49288>)
    206a:	3179           	s32i.n	a7, a1, 12
    206c:	2149           	s32i.n	a4, a1, 8
    206e:	829f80        	mull	a9, a15, a8
    2071:	b27f80        	mulsh	a7, a15, a8
    2074:	054f90        	extui	a4, a9, 31, 1
    2077:	909740        	addx2	a9, a7, a4
    207a:	f8b671        	l32r	a7, 354 (2d097390 <_end+0x2d086d4c>)
    207d:	f8aed1        	l32r	a13, 338 (46f8d46 <_end+0x46e8702>)
    2080:	824a70        	mull	a4, a10, a7
    2083:	828bd0        	mull	a8, a11, a13
    2086:	b27a70        	mulsh	a7, a10, a7
    2089:	054f40        	extui	a4, a4, 31, 1
    208c:	904740        	addx2	a4, a7, a4
    208f:	057f80        	extui	a7, a8, 31, 1
    2092:	828ad0        	mull	a8, a10, a13
    2095:	b2aad0        	mulsh	a10, a10, a13
    2098:	058f80        	extui	a8, a8, 31, 1
    209b:	b2dbd0        	mulsh	a13, a11, a13
    209e:	908a80        	addx2	a8, a10, a8
    20a1:	f8ada1        	l32r	a10, 358 (d2f68c70 <_end+0xd2f5862c>)
    20a4:	907d70        	addx2	a7, a13, a7
    20a7:	474a           	add.n	a4, a7, a4
    20a9:	82dba0        	mull	a13, a11, a10
    20ac:	b27ba0        	mulsh	a7, a11, a10
    20af:	f8a7a1        	l32r	a10, 34c (22fb827b <_end+0x22fa7c37>)
    20b2:	d149           	s32i.n	a4, a1, 52
    20b4:	054fd0        	extui	a4, a13, 31, 1
    20b7:	904740        	addx2	a4, a7, a4
    20ba:	82bfa0        	mull	a11, a15, a10
    20bd:	b2dfa0        	mulsh	a13, a15, a10
    20c0:	31f8           	l32i.n	a15, a1, 12
    20c2:	448a           	add.n	a4, a4, a8
    20c4:	b285a0        	mulsh	a8, a5, a10
    20c7:	7149           	s32i.n	a4, a1, 28
    20c9:	9078f0        	addx2	a7, a8, a15
    20cc:	779a           	add.n	a7, a7, a9
    20ce:	f8a391        	l32r	a9, 35c (e34a6734 <_end+0xe34960f0>)
    20d1:	054fb0        	extui	a4, a11, 31, 1
    20d4:	f89db1        	l32r	a11, 348 (15553e3f <_end+0x155437fb>)
    20d7:	82a590        	mull	a10, a5, a9
    20da:	b25590        	mulsh	a5, a5, a9
    20dd:	3179           	s32i.n	a7, a1, 12
    20df:	057fa0        	extui	a7, a10, 31, 1
    20e2:	f89fa1        	l32r	a10, 360 (d816bb92 <_end+0xd815b54e>)
    20e5:	904d40        	addx2	a4, a13, a4
    20e8:	905570        	addx2	a5, a5, a7
    20eb:	82d3b0        	mull	a13, a3, a11
    20ee:	2188           	l32i.n	a8, a1, 8
    20f0:	f54a           	add.n	a15, a5, a4
    20f2:	b233b0        	mulsh	a3, a3, a11
    20f5:	b25eb0        	mulsh	a5, a14, a11
    20f8:	5198           	l32i.n	a9, a1, 20
    20fa:	f89071        	l32r	a7, 33c (2b4e618e <_end+0x2b4d5b4a>)
    20fd:	054fd0        	extui	a4, a13, 31, 1
    2100:	82dea0        	mull	a13, a14, a10
    2103:	903340        	addx2	a3, a3, a4
    2106:	904580        	addx2	a4, a5, a8
    2109:	b25ea0        	mulsh	a5, a14, a10
    210c:	b49a           	add.n	a11, a4, a9
    210e:	054fd0        	extui	a4, a13, 31, 1
    2111:	828270        	mull	a8, a2, a7
    2114:	904540        	addx2	a4, a5, a4
    2117:	a43a           	add.n	a10, a4, a3
    2119:	053f80        	extui	a3, a8, 31, 1
    211c:	f89281        	l32r	a8, 364 (f2dcfbab <_end+0xf2dbf567>)
    211f:	b29270        	mulsh	a9, a2, a7
    2122:	b2dc70        	mulsh	a13, a12, a7
    2125:	6178           	l32i.n	a7, a1, 24
    2127:	90e930        	addx2	a14, a9, a3
    212a:	829c80        	mull	a9, a12, a8
    212d:	b24c80        	mulsh	a4, a12, a8
    2130:	902d70        	addx2	a2, a13, a7
    2133:	05df90        	extui	a13, a9, 31, 1
    2136:	9084d0        	addx2	a8, a4, a13
    2139:	48ea           	add.n	a4, a8, a14
    213b:	e1e8           	l32i.n	a14, a1, 56
    213d:	a658           	l32i.n	a5, a6, 40
    213f:	f88ac1        	l32r	a12, 368 (192469c1 <_end+0x1923637d>)
    2142:	32ea           	add.n	a3, a2, a14
    2144:	7128           	l32i.n	a2, a1, 28
    2146:	66d8           	l32i.n	a13, a6, 24
    2148:	2678           	l32i.n	a7, a6, 8
    214a:	c082f0        	sub	a8, a2, a15
    214d:	ff2a           	add.n	a15, a15, a2
    214f:	61f9           	s32i.n	a15, a1, 24
    2151:	f3ba           	add.n	a15, a3, a11
    2153:	2189           	s32i.n	a8, a1, 8
    2155:	c083b0        	sub	a8, a3, a11
    2158:	e1f9           	s32i.n	a15, a1, 56
    215a:	34aa           	add.n	a3, a4, a10
    215c:	c0b4a0        	sub	a11, a4, a10
    215f:	d148           	l32i.n	a4, a1, 52
    2161:	31f8           	l32i.n	a15, a1, 12
    2163:	f882e1        	l32r	a14, 36c (2c62a163 <_end+0x2c619b1f>)
    2166:	e698           	l32i.n	a9, a6, 56
    2168:	2f4a           	add.n	a2, a15, a4
    216a:	c0a4f0        	sub	a10, a4, a15
    216d:	82f5c0        	mull	a15, a5, a12
    2170:	f88041        	l32r	a4, 370 (25a0c5df <_end+0x259fbf9b>)
    2173:	5139           	s32i.n	a3, a1, 20
    2175:	053ff0        	extui	a3, a15, 31, 1
    2178:	b2c5c0        	mulsh	a12, a5, a12
    217b:	f87ef1        	l32r	a15, 374 (8d42aef <_end+0x8d324ab>)
    217e:	d129           	s32i.n	a2, a1, 52
    2180:	822d40        	mull	a2, a13, a4
    2183:	903c30        	addx2	a3, a12, a3
    2186:	8247e0        	mull	a4, a7, a14
    2189:	4139           	s32i.n	a3, a1, 16
    218b:	053f20        	extui	a3, a2, 31, 1
    218e:	8229f0        	mull	a2, a9, a15
    2191:	05cf40        	extui	a12, a4, 31, 1
    2194:	b2e7e0        	mulsh	a14, a7, a14
    2197:	8247f0        	mull	a4, a7, a15
    219a:	b277f0        	mulsh	a7, a7, a15
    219d:	b2f9f0        	mulsh	a15, a9, a15
    21a0:	052f20        	extui	a2, a2, 31, 1
    21a3:	902f20        	addx2	a2, a15, a2
    21a6:	f874f1        	l32r	a15, 378 (d39d5e9d <_end+0xd39c5859>)
    21a9:	90cec0        	addx2	a12, a14, a12
    21ac:	05ef40        	extui	a14, a4, 31, 1
    21af:	9047e0        	addx2	a4, a7, a14
    21b2:	8279f0        	mull	a7, a9, a15
    21b5:	b2e9f0        	mulsh	a14, a9, a15
    21b8:	22ca           	add.n	a2, a2, a12
    21ba:	05cf70        	extui	a12, a7, 31, 1
    21bd:	907ec0        	addx2	a7, a14, a12
    21c0:	f74a           	add.n	a15, a7, a4
    21c2:	f86b41        	l32r	a4, 370 (25a0c5df <_end+0x259fbf9b>)
    21c5:	f86de1        	l32r	a14, 37c (e6db963f <_end+0xe6da8ffb>)
    21c8:	41c8           	l32i.n	a12, a1, 16
    21ca:	827540        	mull	a7, a5, a4
    21cd:	b29d40        	mulsh	a9, a13, a4
    21d0:	b25540        	mulsh	a5, a5, a4
    21d3:	31f9           	s32i.n	a15, a1, 12
    21d5:	054f70        	extui	a4, a7, 31, 1
    21d8:	82fde0        	mull	a15, a13, a14
    21db:	905540        	addx2	a5, a5, a4
    21de:	b24de0        	mulsh	a4, a13, a14
    21e1:	903930        	addx2	a3, a9, a3
    21e4:	7129           	s32i.n	a2, a1, 28
    21e6:	23ca           	add.n	a2, a3, a12
    21e8:	053ff0        	extui	a3, a15, 31, 1
    21eb:	903430        	addx2	a3, a4, a3
    21ee:	935a           	add.n	a9, a3, a5
    21f0:	4199           	s32i.n	a9, a1, 16
    21f2:	f865e1        	l32r	a14, 388 (cf043ab3 <_end+0xcf03346f>)
    21f5:	f86231        	l32r	a3, 380 (89be50c3 <_end+0x89bd4a7f>)
    21f8:	2198           	l32i.n	a9, a1, 8
    21fa:	f86241        	l32r	a4, 384 (30fbc54d <_end+0x30fabf09>)
    21fd:	82fbe0        	mull	a15, a11, a14
    2200:	82c930        	mull	a12, a9, a3
    2203:	c129           	s32i.n	a2, a1, 48
    2205:	b22be0        	mulsh	a2, a11, a14
    2208:	055fc0        	extui	a5, a12, 31, 1
    220b:	05cff0        	extui	a12, a15, 31, 1
    220e:	90f2c0        	addx2	a15, a2, a12
    2211:	82da40        	mull	a13, a10, a4
    2214:	82cb30        	mull	a12, a11, a3
    2217:	82e830        	mull	a14, a8, a3
    221a:	822840        	mull	a2, a8, a4
    221d:	b2bb30        	mulsh	a11, a11, a3
    2220:	057fd0        	extui	a7, a13, 31, 1
    2223:	05dfe0        	extui	a13, a14, 31, 1
    2226:	05ef20        	extui	a14, a2, 31, 1
    2229:	052fc0        	extui	a2, a12, 31, 1
    222c:	90cb20        	addx2	a12, a11, a2
    222f:	f857b1        	l32r	a11, 38c (7641af3d <_end+0x7640a8f9>)
    2232:	823ab0        	mull	a3, a10, a11
    2235:	b22ab0        	mulsh	a2, a10, a11
    2238:	b2aa40        	mulsh	a10, a10, a4
    223b:	05bf30        	extui	a11, a3, 31, 1
    223e:	9032b0        	addx2	a3, a2, a11
    2241:	b22840        	mulsh	a2, a8, a4
    2244:	907a70        	addx2	a7, a10, a7
    2247:	82b940        	mull	a11, a9, a4
    224a:	b2a940        	mulsh	a10, a9, a4
    224d:	f84c41        	l32r	a4, 380 (89be50c3 <_end+0x89bd4a7f>)
    2250:	9022e0        	addx2	a2, a2, a14
    2253:	2c2a           	add.n	a2, a12, a2
    2255:	b28840        	mulsh	a8, a8, a4
    2258:	b29940        	mulsh	a9, a9, a4
    225b:	9088d0        	addx2	a8, a8, a13
    225e:	e8fa           	add.n	a14, a8, a15
    2260:	05ffb0        	extui	a15, a11, 31, 1
    2263:	2129           	s32i.n	a2, a1, 8
    2265:	902af0        	addx2	a2, a10, a15
    2268:	223a           	add.n	a2, a2, a3
    226a:	130c           	movi.n	a3, 1
    226c:	905950        	addx2	a5, a9, a5
    226f:	1261e2        	s32i	a14, a1, 72
    2272:	b129           	s32i.n	a2, a1, 44
    2274:	019330        	slli	a9, a3, 29
    2277:	0628           	l32i.n	a2, a6, 0
    2279:	8648           	l32i.n	a4, a6, 32
    227b:	46c8           	l32i.n	a12, a6, 16
    227d:	c638           	l32i.n	a3, a6, 48
    227f:	3168           	l32i.n	a6, a1, 12
    2281:	41e8           	l32i.n	a14, a1, 16
    2283:	d75a           	add.n	a13, a7, a5
    2285:	f57c           	movi.n	a5, -1
    2287:	01b530        	slli	a11, a5, 29
    228a:	c0f6e0        	sub	a15, a6, a14
    228d:	5e6a           	add.n	a5, a14, a6
    228f:	826290        	mull	a6, a2, a9
    2292:	8284b0        	mull	a8, a4, a11
    2295:	1161f2        	s32i	a15, a1, 68
    2298:	05ff60        	extui	a15, a6, 31, 1
    229b:	b22290        	mulsh	a2, a2, a9
    229e:	b264b0        	mulsh	a6, a4, a11
    22a1:	3159           	s32i.n	a5, a1, 12
    22a3:	055f80        	extui	a5, a8, 31, 1
    22a6:	a1d9           	s32i.n	a13, a1, 40
    22a8:	90f2f0        	addx2	a15, a2, a15
    22ab:	902650        	addx2	a2, a6, a5
    22ae:	f839d1        	l32r	a13, 394 (d630a2dd <_end+0xd62f9c99>)
    22b1:	22fa           	add.n	a2, a2, a15
    22b3:	f83771        	l32r	a7, 390 (11517a7c <_end+0x11507438>)
    22b6:	4129           	s32i.n	a2, a1, 16
    22b8:	7158           	l32i.n	a5, a1, 28
    22ba:	c128           	l32i.n	a2, a1, 48
    22bc:	8263d0        	mull	a6, a3, a13
    22bf:	f836a1        	l32r	a10, 398 (5a82799a <_end+0x5a817356>)
    22c2:	c0b520        	sub	a11, a5, a2
    22c5:	525a           	add.n	a5, a2, a5
    22c7:	052f60        	extui	a2, a6, 31, 1
    22ca:	b2d3d0        	mulsh	a13, a3, a13
    22cd:	826370        	mull	a6, a3, a7
    22d0:	828c70        	mull	a8, a12, a7
    22d3:	b23370        	mulsh	a3, a3, a7
    22d6:	7159           	s32i.n	a5, a1, 28
    22d8:	905d20        	addx2	a5, a13, a2
    22db:	052f60        	extui	a2, a6, 31, 1
    22de:	b27c70        	mulsh	a7, a12, a7
    22e1:	902320        	addx2	a2, a3, a2
    22e4:	823ba0        	mull	a3, a11, a10
    22e7:	058f80        	extui	a8, a8, 31, 1
    22ea:	90d780        	addx2	a13, a7, a8
    22ed:	f139           	s32i.n	a3, a1, 60
    22ef:	a188           	l32i.n	a8, a1, 40
    22f1:	122132        	l32i	a3, a1, 72
    22f4:	106122        	s32i	a2, a1, 64
    22f7:	25da           	add.n	a2, a5, a13
    22f9:	c05830        	sub	a5, a8, a3
    22fc:	c129           	s32i.n	a2, a1, 48
    22fe:	f82761        	l32r	a6, 39c (29cf5d23 <_end+0x29ce56df>)
    2301:	9159           	s32i.n	a5, a1, 36
    2303:	6158           	l32i.n	a5, a1, 24
    2305:	5128           	l32i.n	a2, a1, 20
    2307:	82e490        	mull	a14, a4, a9
    230a:	827c60        	mull	a7, a12, a6
    230d:	c0d520        	sub	a13, a5, a2
    2310:	b2cc60        	mulsh	a12, a12, a6
    2313:	b24490        	mulsh	a4, a4, a9
    2316:	f168           	l32i.n	a6, a1, 60
    2318:	81d9           	s32i.n	a13, a1, 32
    231a:	05dfe0        	extui	a13, a14, 31, 1
    231d:	9044d0        	addx2	a4, a4, a13
    2320:	b2bba0        	mulsh	a11, a11, a10
    2323:	44fa           	add.n	a4, a4, a15
    2325:	05ef70        	extui	a14, a7, 31, 1
    2328:	1021f2        	l32i	a15, a1, 64
    232b:	057f60        	extui	a7, a6, 31, 1
    232e:	5149           	s32i.n	a4, a1, 20
    2330:	904ce0        	addx2	a4, a12, a14
    2333:	90cb70        	addx2	a12, a11, a7
    2336:	1121e2        	l32i	a14, a1, 68
    2339:	f819b1        	l32r	a11, 3a0 (a57d8666 <_end+0xa57c8022>)
    233c:	525a           	add.n	a5, a2, a5
    233e:	6159           	s32i.n	a5, a1, 24
    2340:	538a           	add.n	a5, a3, a8
    2342:	8f4a           	add.n	a8, a15, a4
    2344:	21d8           	l32i.n	a13, a1, 8
    2346:	b1f8           	l32i.n	a15, a1, 44
    2348:	8128           	l32i.n	a2, a1, 32
    234a:	829eb0        	mull	a9, a14, a11
    234d:	823ea0        	mull	a3, a14, a10
    2350:	054f90        	extui	a4, a9, 31, 1
    2353:	c07fd0        	sub	a7, a15, a13
    2356:	6dfa           	add.n	a6, a13, a15
    2358:	82d2a0        	mull	a13, a2, a10
    235b:	2149           	s32i.n	a4, a1, 8
    235d:	054f30        	extui	a4, a3, 31, 1
    2360:	b232a0        	mulsh	a3, a2, a10
    2363:	b149           	s32i.n	a4, a1, 44
    2365:	054fd0        	extui	a4, a13, 31, 1
    2368:	b29ea0        	mulsh	a9, a14, a10
    236b:	0afd           	mov.n	a15, a10
    236d:	904340        	addx2	a4, a3, a4
    2370:	82a2b0        	mull	a10, a2, a11
    2373:	9138           	l32i.n	a3, a1, 36
    2375:	b222b0        	mulsh	a2, a2, a11
    2378:	a199           	s32i.n	a9, a1, 40
    237a:	059fa0        	extui	a9, a10, 31, 1
    237d:	909290        	addx2	a9, a2, a9
    2380:	8223b0        	mull	a2, a3, a11
    2383:	b2a3b0        	mulsh	a10, a3, a11
    2386:	0bdd           	mov.n	a13, a11
    2388:	82b3f0        	mull	a11, a3, a15
    238b:	052f20        	extui	a2, a2, 31, 1
    238e:	902a20        	addx2	a2, a10, a2
    2391:	05afb0        	extui	a10, a11, 31, 1
    2394:	b233f0        	mulsh	a3, a3, a15
    2397:	82b7f0        	mull	a11, a7, a15
    239a:	b277f0        	mulsh	a7, a7, a15
    239d:	9033a0        	addx2	a3, a3, a10
    23a0:	05afb0        	extui	a10, a11, 31, 1
    23a3:	9077a0        	addx2	a7, a7, a10
    23a6:	b37a           	add.n	a11, a3, a7
    23a8:	272a           	add.n	a2, a7, a2
    23aa:	e138           	l32i.n	a3, a1, 56
    23ac:	d178           	l32i.n	a7, a1, 52
    23ae:	9129           	s32i.n	a2, a1, 36
    23b0:	81b9           	s32i.n	a11, a1, 32
    23b2:	c02730        	sub	a2, a7, a3
    23b5:	a37a           	add.n	a10, a3, a7
    23b7:	8232f0        	mull	a3, a2, a15
    23ba:	b272f0        	mulsh	a7, a2, a15
    23bd:	05bf30        	extui	a11, a3, 31, 1
    23c0:	9077b0        	addx2	a7, a7, a11
    23c3:	b47a           	add.n	a11, a4, a7
    23c5:	779a           	add.n	a7, a7, a9
    23c7:	b24ed0        	mulsh	a4, a14, a13
    23ca:	b198           	l32i.n	a9, a1, 44
    23cc:	a1d8           	l32i.n	a13, a1, 40
    23ce:	4138           	l32i.n	a3, a1, 16
    23d0:	c128           	l32i.n	a2, a1, 48
    23d2:	90ed90        	addx2	a14, a13, a9
    23d5:	9eca           	add.n	a9, a14, a12
    23d7:	d23a           	add.n	a13, a2, a3
    23d9:	c0ed90        	sub	a14, a13, a9
    23dc:	fe5a           	add.n	a15, a14, a5
    23de:	c05e50        	sub	a5, a14, a5
    23e1:	1321e2        	l32i	a14, a1, 76
    23e4:	6ef9           	s32i.n	a15, a14, 24
    23e6:	fd9a           	add.n	a15, a13, a9
    23e8:	9e59           	s32i.n	a5, a14, 36
    23ea:	c05f60        	sub	a5, a15, a6
    23ed:	ee59           	s32i.n	a5, a14, 56
    23ef:	c05320        	sub	a5, a3, a2
    23f2:	5128           	l32i.n	a2, a1, 20
    23f4:	9f6a           	add.n	a9, a15, a6
    23f6:	71f8           	l32i.n	a15, a1, 28
    23f8:	6138           	l32i.n	a3, a1, 24
    23fa:	682a           	add.n	a6, a8, a2
    23fc:	1e99           	s32i.n	a9, a14, 4
    23fe:	c096f0        	sub	a9, a6, a15
    2401:	d93a           	add.n	a13, a9, a3
    2403:	c09930        	sub	a9, a9, a3
    2406:	66fa           	add.n	a6, a6, a15
    2408:	31f8           	l32i.n	a15, a1, 12
    240a:	8e99           	s32i.n	a9, a14, 32
    240c:	2198           	l32i.n	a9, a1, 8
    240e:	36aa           	add.n	a3, a6, a10
    2410:	7ed9           	s32i.n	a13, a14, 28
    2412:	c0d280        	sub	a13, a2, a8
    2415:	c066a0        	sub	a6, a6, a10
    2418:	fe69           	s32i.n	a6, a14, 60
    241a:	6dfa           	add.n	a6, a13, a15
    241c:	c08df0        	sub	a8, a13, a15
    241f:	904490        	addx2	a4, a4, a9
    2422:	0e39           	s32i.n	a3, a14, 0
    2424:	36ba           	add.n	a3, a6, a11
    2426:	c066b0        	sub	a6, a6, a11
    2429:	81b8           	l32i.n	a11, a1, 32
    242b:	91f8           	l32i.n	a15, a1, 36
    242d:	4c4a           	add.n	a4, a12, a4
    242f:	a54a           	add.n	a10, a5, a4
    2431:	287a           	add.n	a2, a8, a7
    2433:	c04540        	sub	a4, a5, a4
    2436:	c07870        	sub	a7, a8, a7
    2439:	4e29           	s32i.n	a2, a14, 16
    243b:	caba           	add.n	a12, a10, a11
    243d:	c0dab0        	sub	a13, a10, a11
    2440:	54fa           	add.n	a5, a4, a15
    2442:	c024f0        	sub	a2, a4, a15
    2445:	3e39           	s32i.n	a3, a14, 12
    2447:	ce69           	s32i.n	a6, a14, 48
    2449:	be79           	s32i.n	a7, a14, 44
    244b:	5e59           	s32i.n	a5, a14, 20
    244d:	ae29           	s32i.n	a2, a14, 40
    244f:	2ec9           	s32i.n	a12, a14, 8
    2451:	ded9           	s32i.n	a13, a14, 52
    2453:	f01d           	retw.n

00002455 <LC3Plus_idct32_32_fx+0x445>:
    2455:	000000                                        ...

00002458 <LC3Plus_dct_IV_XT>:
    2458:	00e136        	entry	a1, 112
    245b:	106132        	s32i	a3, a1, 64
    245e:	f7d131        	l32r	a3, 3a4 (1b0c <LC3Plus_BASOP_getTables>)
    2461:	3cc1a2        	addi	a10, a1, 60
    2464:	38c1b2        	addi	a11, a1, 56
    2467:	c1cb           	addi.n	a12, a1, 12
    2469:	05dd           	mov.n	a13, a5
    246b:	116162        	s32i	a6, a1, 68
    246e:	126172        	s32i	a7, a1, 72
    2471:	216150        	srai	a6, a5, 1
    2474:	0003e0        	callx8	a3
    2477:	a0b520        	addx4	a11, a5, a2
    247a:	063d           	mov.n	a3, a6
    247c:	fccb72        	addi	a7, a11, -4
    247f:	0225e6        	bgei	a5, 2, 2485 <LC3Plus_dct_IV_XT+0x2d>
    2482:	003f46        	j	2583 <LC3Plus_dct_IV_XT+0x12b>
    2485:	f168           	l32i.n	a6, a1, 60
    2487:	078d           	mov.n	a8, a7
    2489:	a31b           	addi.n	a10, a3, 1
    248b:	029d           	mov.n	a9, a2
    248d:	449604        	ae_lp16x2f.iu	aep1, a6, 0
    2490:	601804        	ae_lq32f.iu	aeq0, a8, 0
    2493:	605904        	ae_lq32f.iu	aeq1, a9, 0
    2496:	41a1a0        	srli	a10, a10, 1
    2499:	fc24fe94cf 	{ ae_slaasq56s	aeq3, aeq1, a4; nop }
    249e:	fc24fe848f 	{ ae_slaasq56s	aeq2, aeq0, a4; nop }
    24a3:	44a614        	ae_lp16x2f.iu	aep2, a6, 4
    24a6:	d98a76        	loop	a10, 2583 <LC3Plus_dct_IV_XT+0x12b>
    24a9:	fa496d861f 	{ ae_lp16x2f.iu	aep0, a6, 4; ae_mulq32sp16u.h	aeq1, aeq3, aep2 }
    24ae:	fa442df61f 	{ ae_lp16x2f.iu	aep7, a6, 4; ae_mulq32sp16u.h	aeq0, aeq2, aep1 }
    24b3:	355434        	ae_sraiq56	aeq1, aeq1, 16
    24b6:	fa453a012f 	{ ae_sq56s.i	aeq0, a1, 16; ae_mulq32sp16u.h	aeq0, aeq3, aep1 }
    24bb:	f6ebfa014f 	{ ae_sq56s.i	aeq0, a1, 32; ae_mulaq32sp16s.l	aeq1, aeq3, aep2 }
    24c0:	610124        	ae_lq56.i	aeq0, a1, 16
    24c3:	350434        	ae_sraiq56	aeq0, aeq0, 16
    24c6:	631134        	ae_sq56s.i	aeq1, a1, 24
    24c9:	614144        	ae_lq56.i	aeq1, a1, 32
    24cc:	630124        	ae_sq56s.i	aeq0, a1, 16
    24cf:	fa487b140f 	{ ae_sraiq56	aeq0, aeq1, 16; ae_mulq32sp16u.h	aeq1, aeq2, aep2 }
    24d4:	f6e7bde12f 	{ ae_lq56.i	aeq3, a1, 16; ae_mulaq32sp16s.l	aeq0, aeq3, aep1 }
    24d9:	f7e6fa114f 	{ ae_sq56s.i	aeq1, a1, 32; ae_mulaq32sp16s.l	aeq3, aeq2, aep1 }
    24de:	fc247d291f 	{ ae_lq32f.i	aeq1, a9, 4; ae_roundsq32asym	aeq0, aeq0 }
    24e3:	633124        	ae_sq56s.i	aeq3, a1, 16
    24e6:	61c144        	ae_lq56.i	aeq3, a1, 32
    24e9:	35f434        	ae_sraiq56	aeq3, aeq3, 16
    24ec:	f7eafe948f 	{ ae_slaasq56s	aeq2, aeq1, a4; ae_mulaq32sp16s.l	aeq3, aeq2, aep2 }
    24f1:	037ba4        	ae_mulq32sp16u.h	aeq1, aeq2, aep7
    24f4:	06f934        	ae_roundsq32asym	aeq3, aeq3
    24f7:	fbe63a114f 	{ ae_sq56s.i	aeq1, a1, 32; ae_addq56	aeq3, aeq0, aeq3 }
    24fc:	fa407d814f 	{ ae_lq56.i	aeq0, a1, 32; ae_mulq32sp16u.h	aeq1, aeq2, aep0 }
    2501:	350434        	ae_sraiq56	aeq0, aeq0, 16
    2504:	f6feb9b90f 	{ ae_sq32f.i	aeq3, a9, 0; ae_mulaq32sp16s.l	aeq0, aeq2, aep7 }
    2509:	61c124        	ae_lq56.i	aeq3, a1, 16
    250c:	355434        	ae_sraiq56	aeq1, aeq1, 16
    250f:	fc3c7a014f 	{ ae_sq56s.i	aeq0, a1, 32; ae_roundsq32asym	aeq0, aeq3 }
    2514:	f6e2fd68ff 	{ ae_lq32f.i	aeq3, a8, -4; ae_mulaq32sp16s.l	aeq1, aeq2, aep0 }
    2519:	618134        	ae_lq56.i	aeq2, a1, 24
    251c:	fd2c7eb4cf 	{ ae_slaasq56s	aeq3, aeq3, a4; ae_roundsq32asym	aeq1, aeq1 }
    2521:	fc347a012f 	{ ae_sq56s.i	aeq0, a1, 16; ae_roundsq32asym	aeq0, aeq2 }
    2526:	fb413a013f 	{ ae_sq56s.i	aeq0, a1, 24; ae_mulq32sp16u.h	aeq2, aeq3, aep0 }
    252b:	610124        	ae_lq56.i	aeq0, a1, 16
    252e:	fb5d3a216f 	{ ae_sq56s.i	aeq2, a1, 48; ae_mulq32sp16u.h	aeq2, aeq3, aep7 }
    2533:	632154        	ae_sq56s.i	aeq2, a1, 40
    2536:	618134        	ae_lq56.i	aeq2, a1, 24
    2539:	f8a2fdc16f 	{ ae_lq56.i	aeq2, a1, 48; ae_subq56	aeq0, aeq0, aeq2 }
    253e:	630124        	ae_sq56s.i	aeq0, a1, 16
    2541:	352434        	ae_sraiq56	aeq0, aeq2, 16
    2544:	f6e3bdc15f 	{ ae_lq56.i	aeq2, a1, 40; ae_mulaq32sp16s.l	aeq0, aeq3, aep0 }
    2549:	35a434        	ae_sraiq56	aeq2, aeq2, 16
    254c:	f7ffbde14f 	{ ae_lq56.i	aeq3, a1, 32; ae_mulaq32sp16s.l	aeq2, aeq3, aep7 }
    2551:	ff3c7a113f 	{ ae_sq56s.i	aeq1, a1, 24; ae_roundsq32asym	aeq3, aeq3 }
    2556:	fc247da12f 	{ ae_lq56.i	aeq1, a1, 16; ae_roundsq32asym	aeq0, aeq0 }
    255b:	f83af9991f 	{ ae_sq32f.i	aeq1, a9, 4; ae_subq56	aeq0, aeq3, aeq0 }
    2560:	fe3479880f 	{ ae_sq32f.i	aeq0, a8, 0; ae_roundsq32asym	aeq2, aeq2 }
    2565:	61c134        	ae_lq56.i	aeq3, a1, 24
    2568:	f8fa2d961f 	{ ae_lp16x2f.iu	aep1, a6, 4; ae_addq56	aeq0, aeq3, aeq2 }
    256d:	44a614        	ae_lp16x2f.iu	aep2, a6, 4
    2570:	6208f4        	ae_sq32f.i	aeq0, a8, -4
    2573:	6018e4        	ae_lq32f.iu	aeq0, a8, -8
    2576:	605924        	ae_lq32f.iu	aeq1, a9, 8
    2579:	fc24fe848f 	{ ae_slaasq56s	aeq2, aeq0, a4; nop }
    257e:	fc24fe94cf 	{ ae_slaasq56s	aeq3, aeq1, a4; nop }

00002583 <LC3Plus_dct_IV_XT+0x12b>:
    2583:	f78941        	l32r	a4, 3a8 (14d8 <LC3Plus_getScaleFactor32>)
    2586:	41b9           	s32i.n	a11, a1, 16
    2588:	f8cb62        	addi	a6, a11, -8
    258b:	20a220        	or	a10, a2, a2
    258e:	20b550        	or	a11, a5, a5
    2591:	0004e0        	callx8	a4
    2594:	00a042        	movi	a4, 0
    2597:	534a40        	max	a4, a10, a4
    259a:	1515a6        	blti	a5, 1, 25b3 <LC3Plus_dct_IV_XT+0x15b>
    259d:	208220        	or	a8, a2, a2
    25a0:	849d           	ae_sext16	a9, a4
    25a2:	601804        	ae_lq32f.iu	aeq0, a8, 0
    25a5:	0a8576        	loop	a5, 25b3 <LC3Plus_dct_IV_XT+0x15b>
    25a8:	fc24fe890f 	{ ae_slaasq56s	aeq0, aeq0, a9; nop }
    25ad:	620804        	ae_sq32f.i	aeq0, a8, 0
    25b0:	601814        	ae_lq32f.iu	aeq0, a8, 4
    25b3:	1021e2        	l32i	a14, a1, 64
    25b6:	1121f2        	l32i	a15, a1, 68
    25b9:	b24b           	addi.n	a11, a2, 4
    25bb:	2e8d           	ae_l16si.n	a8, a14, 0
    25bd:	2d0c           	movi.n	a13, 2
    25bf:	02ad           	mov.n	a10, a2
    25c1:	c04840        	sub	a4, a8, a4
    25c4:	6e4d           	ae_s16i.n	a4, a14, 0
    25c6:	f77941        	l32r	a4, 3ac (4570 <LC3Plus_BASOP_cfft>)
    25c9:	03cd           	mov.n	a12, a3
    25cb:	122192        	l32i	a9, a1, 72
    25ce:	0199           	s32i.n	a9, a1, 0
    25d0:	0004e0        	callx8	a4
    25d3:	069182        	l16si	a8, a1, 12
    25d6:	e148           	l32i.n	a4, a1, 56
    25d8:	12a8           	l32i.n	a10, a2, 4
    25da:	0698           	l32i.n	a9, a6, 0
    25dc:	b04840        	addx8	a4, a8, a4
    25df:	21a1a0        	srai	a10, a10, 1
    25e2:	16b8           	l32i.n	a11, a6, 4
    25e4:	14d8           	l32i.n	a13, a4, 4
    25e6:	04c8           	l32i.n	a12, a4, 0
    25e8:	60a0a0        	neg	a10, a10
    25eb:	16a9           	s32i.n	a10, a6, 4
    25ed:	82a9c0        	mull	a10, a9, a12
    25f0:	82fbd0        	mull	a15, a11, a13
    25f3:	8189           	s32i.n	a8, a1, 32
    25f5:	038d           	mov.n	a8, a3
    25f7:	b269c0        	mulsh	a6, a9, a12
    25fa:	b239d0        	mulsh	a3, a9, a13
    25fd:	8299d0        	mull	a9, a9, a13
    2600:	b2ebd0        	mulsh	a14, a11, a13
    2603:	b2dbc0        	mulsh	a13, a11, a12
    2606:	82bbc0        	mull	a11, a11, a12
    2609:	02c8           	l32i.n	a12, a2, 0
    260b:	05afa0        	extui	a10, a10, 31, 1
    260e:	059f90        	extui	a9, a9, 31, 1
    2611:	05bfb0        	extui	a11, a11, 31, 1
    2614:	05fff0        	extui	a15, a15, 31, 1
    2617:	9066a0        	addx2	a6, a6, a10
    261a:	21a1c0        	srai	a10, a12, 1
    261d:	90cef0        	addx2	a12, a14, a15
    2620:	903390        	addx2	a3, a3, a9
    2623:	90ddb0        	addx2	a13, a13, a11
    2626:	661b           	addi.n	a6, a6, 1
    2628:	331b           	addi.n	a3, a3, 1
    262a:	9d1b           	addi.n	a9, a13, 1
    262c:	ec1b           	addi.n	a14, a12, 1
    262e:	02a9           	s32i.n	a10, a2, 0
    2630:	216160        	srai	a6, a6, 1
    2633:	21a1e0        	srai	a10, a14, 1
    2636:	213130        	srai	a3, a3, 1
    2639:	219190        	srai	a9, a9, 1
    263c:	41f8           	l32i.n	a15, a1, 16
    263e:	c066a0        	sub	a6, a6, a10
    2641:	393a           	add.n	a3, a9, a3
    2643:	448404        	ae_lp16x2f.iu	aep0, a4, 0
    2646:	360634        	ae_cvtq48a32s	aeq0, a6
    2649:	364334        	ae_cvtq48a32s	aeq1, a3
    264c:	441414        	ae_lp16x2f.i	aep1, a4, 4
    264f:	620214        	ae_sq32f.i	aeq0, a2, 4
    2652:	621fe4        	ae_sq32f.i	aeq1, a15, -8
    2655:	60d224        	ae_lq32f.iu	aeq3, a2, 8
    2658:	fa453d421f 	{ ae_lq32f.i	aeq2, a2, 4; ae_mulq32sp16u.h	aeq0, aeq3, aep1 }
    265d:	fa4040183e 	{ addi	a3, a8, 1; ae_mulq32sp16u.h	aeq1, aeq2, aep0 }
    2662:	350434        	ae_sraiq56	aeq0, aeq0, 16
    2665:	f6e7bb144f 	{ ae_sraiq56	aeq1, aeq1, 16; ae_mulaq32sp16s.l	aeq0, aeq3, aep1 }
    266a:	030994        	ae_mulaq32sp16s.l	aeq1, aeq2, aep0
    266d:	060934        	ae_roundsq32asym	aeq0, aeq0
    2670:	fd2c7a012f 	{ ae_sq56s.i	aeq0, a1, 16; ae_roundsq32asym	aeq1, aeq1 }
    2675:	631134        	ae_sq56s.i	aeq1, a1, 24
    2678:	0295e6        	bgei	a5, 10, 267e <LC3Plus_dct_IV_XT+0x226>
    267b:	002ec6        	j	273a <LC3Plus_dct_IV_XT+0x2e2>
    267e:	213130        	srai	a3, a3, 1
    2681:	81f8           	l32i.n	a15, a1, 32
    2683:	330b           	addi.n	a3, a3, -1
    2685:	530b           	addi.n	a5, a3, -1
    2687:	113fd0        	slli	a3, a15, 3
    268a:	610124        	ae_lq56.i	aeq0, a1, 16
    268d:	614134        	ae_lq56.i	aeq1, a1, 24
    2690:	a08576        	loop	a5, 2734 <LC3Plus_dct_IV_XT+0x2dc>
    2693:	fa417a113f 	{ ae_sq56s.i	aeq1, a1, 24; ae_mulq32sp16u.h	aeq1, aeq3, aep0 }
    2698:	630124        	ae_sq56s.i	aeq0, a1, 16
    269b:	fa447b140f 	{ ae_sraiq56	aeq0, aeq1, 16; ae_mulq32sp16u.h	aeq1, aeq2, aep1 }
    26a0:	f6e3bde13f 	{ ae_lq56.i	aeq3, a1, 24; ae_mulaq32sp16s.l	aeq0, aeq3, aep0 }
    26a5:	355434        	ae_sraiq56	aeq1, aeq1, 16
    26a8:	031994        	ae_mulaq32sp16s.l	aeq1, aeq2, aep1
    26ab:	060934        	ae_roundsq32asym	aeq0, aeq0
    26ae:	065934        	ae_roundsq32asym	aeq1, aeq1
    26b1:	0109c4        	ae_addq56	aeq0, aeq0, aeq1
    26b4:	620204        	ae_sq32f.i	aeq0, a2, 0
    26b7:	458434        	ae_lp16x2f.xu	aep0, a4, a3
    26ba:	6097e4        	ae_lq32f.iu	aeq2, a7, -8
    26bd:	fa407d812f 	{ ae_lq56.i	aeq0, a1, 16; ae_mulq32sp16u.h	aeq1, aeq2, aep0 }
    26c2:	f8a6ed141f 	{ ae_lp16x2f.i	aep1, a4, 4; ae_subq56	aeq0, aeq0, aeq3 }
    26c7:	fb447b144f 	{ ae_sraiq56	aeq1, aeq1, 16; ae_mulq32sp16u.h	aeq3, aeq2, aep1 }
    26cc:	f6e2fa012f 	{ ae_sq56s.i	aeq0, a1, 16; ae_mulaq32sp16s.l	aeq1, aeq2, aep0 }
    26d1:	6007f4        	ae_lq32f.i	aeq0, a7, -4
    26d4:	f8407a113f 	{ ae_sq56s.i	aeq1, a1, 24; ae_mulq32sp16u.h	aeq1, aeq0, aep0 }
    26d9:	35f434        	ae_sraiq56	aeq3, aeq3, 16
    26dc:	f8447a115f 	{ ae_sq56s.i	aeq1, a1, 40; ae_mulq32sp16u.h	aeq1, aeq0, aep1 }
    26e1:	f7e6fdc15f 	{ ae_lq56.i	aeq2, a1, 40; ae_mulaq32sp16s.l	aeq3, aeq2, aep1 }
    26e6:	631144        	ae_sq56s.i	aeq1, a1, 32
    26e9:	ff3c7da14f 	{ ae_lq56.i	aeq1, a1, 32; ae_roundsq32asym	aeq3, aeq3 }
    26ee:	35a434        	ae_sraiq56	aeq2, aeq2, 16
    26f1:	f5e2bb144f 	{ ae_sraiq56	aeq1, aeq1, 16; ae_mulaq32sp16s.l	aeq2, aeq0, aep0 }
    26f6:	f4e6fd813f 	{ ae_lq56.i	aeq0, a1, 24; ae_mulaq32sp16s.l	aeq1, aeq0, aep1 }
    26fb:	060934        	ae_roundsq32asym	aeq0, aeq0
    26fe:	fe347a013f 	{ ae_sq56s.i	aeq0, a1, 24; ae_roundsq32asym	aeq2, aeq2 }
    2703:	fab6fd812f 	{ ae_lq56.i	aeq0, a1, 16; ae_subq56	aeq2, aeq2, aeq3 }
    2708:	fd2c7de13f 	{ ae_lq56.i	aeq3, a1, 24; ae_roundsq32asym	aeq1, aeq1 }
    270d:	f87e39870f 	{ ae_sq32f.i	aeq0, a7, 0; ae_addq56	aeq0, aeq3, aeq1 }
    2712:	622214        	ae_sq32f.i	aeq2, a2, 4
    2715:	6207f4        	ae_sq32f.i	aeq0, a7, -4
    2718:	60d224        	ae_lq32f.iu	aeq3, a2, 8
    271b:	fa453d421f 	{ ae_lq32f.i	aeq2, a2, 4; ae_mulq32sp16u.h	aeq0, aeq3, aep1 }
    2720:	030ba4        	ae_mulq32sp16u.h	aeq1, aeq2, aep0
    2723:	350434        	ae_sraiq56	aeq0, aeq0, 16
    2726:	f6e7bb144f 	{ ae_sraiq56	aeq1, aeq1, 16; ae_mulaq32sp16s.l	aeq0, aeq3, aep1 }
    272b:	030994        	ae_mulaq32sp16s.l	aeq1, aeq2, aep0
    272e:	060934        	ae_roundsq32asym	aeq0, aeq0
    2731:	065934        	ae_roundsq32asym	aeq1, aeq1

00002734 <LC3Plus_dct_IV_XT+0x2dc>:
    2734:	631134        	ae_sq56s.i	aeq1, a1, 24
    2737:	630124        	ae_sq56s.i	aeq0, a1, 16

0000273a <LC3Plus_dct_IV_XT+0x2e2>:
    273a:	fa4100823f 	{ movi	a3, 130; ae_mulq32sp16u.h	aeq0, aeq3, aep0 }
    273f:	5ad332        	addmi	a3, a3, 0x5a00
    2742:	fa443b044f 	{ ae_sraiq56	aeq1, aeq0, 16; ae_mulq32sp16u.h	aeq0, aeq2, aep1 }
    2747:	f6e3c4c15e 	{ addi	a5, a1, 76; ae_mulaq32sp16s.l	aeq1, aeq3, aep0 }
    274c:	350434        	ae_sraiq56	aeq0, aeq0, 16
    274f:	031194        	ae_mulaq32sp16s.l	aeq0, aeq2, aep1
    2752:	069934        	ae_roundsq32asym	aeq2, aeq1
    2755:	06c934        	ae_roundsq32asym	aeq3, aeq0
    2758:	f8f63dc12f 	{ ae_lq56.i	aeq2, a1, 16; ae_addq56	aeq0, aeq2, aeq3 }
    275d:	61c134        	ae_lq56.i	aeq3, a1, 24
    2760:	f9baf9820f 	{ ae_sq32f.i	aeq0, a2, 0; ae_subq56	aeq1, aeq3, aeq2 }
    2765:	f70c41        	l32r	a4, 398 (5a82799a <_end+0x5a817356>)
    2768:	fe1498f43f 	{ ae_cvtp24a16x2.ll	aep7, a4, a3; ae_negq56	aeq2, aeq1 }
    276d:	6017e4        	ae_lq32f.iu	aeq0, a7, -8
    2770:	6047f4        	ae_lq32f.i	aeq1, a7, -4
    2773:	622704        	ae_sq32f.i	aeq2, a7, 0
    2776:	467504        	ae_sp16x2f.i	aep7, a5, 0
    2779:	440504        	ae_lp16x2f.i	aep0, a5, 0
    277c:	f9413101ee 	{ l32i	a14, a1, 64; ae_mulq32sp16u.h	aeq2, aeq1, aep0 }
    2781:	038b24        	ae_mulq32sp16u.h	aeq3, aeq0, aep0
    2784:	35a434        	ae_sraiq56	aeq2, aeq2, 16
    2787:	f5e3bb34cf 	{ ae_sraiq56	aeq3, aeq3, 16; ae_mulaq32sp16s.l	aeq2, aeq1, aep0 }
    278c:	f5e2e00efe 	{ l16si	a15, a14, 0; ae_mulaq32sp16s.l	aeq3, aeq0, aep0 }
    2791:	012bc4        	ae_addq56	aeq0, aeq2, aeq3
    2794:	3f2b           	addi.n	a3, a15, 2
    2796:	f9b6f987ff 	{ ae_sq32f.i	aeq0, a7, -4; ae_subq56	aeq1, aeq2, aeq3 }
    279b:	6e3d           	ae_s16i.n	a3, a14, 0
    279d:	621214        	ae_sq32f.i	aeq1, a2, 4
    27a0:	f01d           	retw.n

000027a2 <LC3Plus_dct_IV_XT+0x34a>:
    27a2:	00000000                                 ......

000027a8 <LC3Plus_processSnsInterpolateScf_fx>:
    27a8:	008136        	entry	a1, 64
    27ab:	2139           	s32i.n	a3, a1, 8
    27ad:	f70031        	l32r	a3, 3b0 (eb9c <LC3Plus_lc3_scratch_push>)
    27b0:	00a1b2        	movi	a11, 0x100
    27b3:	07ad           	mov.n	a10, a7
    27b5:	3169           	s32i.n	a6, a1, 12
    27b7:	0003e0        	callx8	a3
    27ba:	0a6d           	mov.n	a6, a10
    27bc:	00a1b2        	movi	a11, 0x100
    27bf:	07ad           	mov.n	a10, a7
    27c1:	4179           	s32i.n	a7, a1, 16
    27c3:	0003e0        	callx8	a3
    27c6:	0278           	l32i.n	a7, a2, 0
    27c8:	0679           	s32i.n	a7, a6, 0
    27ca:	0278           	l32i.n	a7, a2, 0
    27cc:	1679           	s32i.n	a7, a6, 4
    27ce:	027d           	mov.n	a7, a2
    27d0:	f90c           	movi.n	a9, 15
    27d2:	51a9           	s32i.n	a10, a1, 20
    27d4:	86cb           	addi.n	a8, a6, 12
    27d6:	601704        	ae_lq32f.iu	aeq0, a7, 0
    27d9:	2e8976        	loop	a9, 280b <LC3Plus_processSnsInterpolateScf_fx+0x63>
    27dc:	604714        	ae_lq32f.i	aeq1, a7, 4
    27df:	f82af0029e 	{ l32i	a9, a2, 0; ae_subq56	aeq0, aeq1, aeq0 }
    27e4:	3540f4        	ae_sraiq56	aeq1, aeq0, 3
    27e7:	369b04        	ae_trunca32q48	a11, aeq1
    27ea:	3500b4        	ae_sraiq56	aeq0, aeq0, 2
    27ed:	fcc8a2        	addi	a10, a8, -4
    27f0:	bb9a           	add.n	a11, a11, a9
    27f2:	368904        	ae_trunca32q48	a9, aeq0
    27f5:	601714        	ae_lq32f.iu	aeq0, a7, 4
    27f8:	0ab9           	s32i.n	a11, a10, 0
    27fa:	fb9a           	add.n	a15, a11, a9
    27fc:	af9a           	add.n	a10, a15, a9
    27fe:	18a9           	s32i.n	a10, a8, 4
    2800:	aa9a           	add.n	a10, a10, a9
    2802:	224b           	addi.n	a2, a2, 4
    2804:	08f9           	s32i.n	a15, a8, 0
    2806:	28a9           	s32i.n	a10, a8, 8
    2808:	10c882        	addi	a8, a8, 16

0000280b <LC3Plus_processSnsInterpolateScf_fx+0x63>:
    280b:	3d2622        	l32i	a2, a6, 244
    280e:	31b8           	l32i.n	a11, a1, 12
    2810:	034c           	movi.n	a3, 64
    2812:	229a           	add.n	a2, a2, a9
    2814:	c0cb72        	addi	a7, a11, -64
    2817:	3e6622        	s32i	a2, a6, 248
    281a:	229a           	add.n	a2, a2, a9
    281c:	877d           	ae_sext16	a7, a7
    281e:	3f6622        	s32i	a2, a6, 252
    2821:	03f7d6        	bgez	a7, 2864 <LC3Plus_processSnsInterpolateScf_fx+0xbc>
    2824:	c023b0        	sub	a2, a3, a11
    2827:	822d           	ae_sext16	a2, a2
    2829:	1c12a6        	blti	a2, 1, 2849 <LC3Plus_processSnsInterpolateScf_fx+0xa1>
    282c:	067d           	mov.n	a7, a6
    282e:	208660        	or	a8, a6, a6
    2831:	108276        	loop	a2, 2845 <LC3Plus_processSnsInterpolateScf_fx+0x9d>
    2834:	0798           	l32i.n	a9, a7, 0
    2836:	17a8           	l32i.n	a10, a7, 4
    2838:	778b           	addi.n	a7, a7, 8
    283a:	9a9a           	add.n	a9, a10, a9
    283c:	219190        	srai	a9, a9, 1
    283f:	0899           	s32i.n	a9, a8, 0
    2841:	029d           	mov.n	a9, a2
    2843:	884b           	addi.n	a8, a8, 4
    2845:	000086        	j	284b <LC3Plus_processSnsInterpolateScf_fx+0xa3>

00002848 <LC3Plus_processSnsInterpolateScf_fx+0xa0>:
	...

00002849 <LC3Plus_processSnsInterpolateScf_fx+0xa1>:
    2849:	090c           	movi.n	a9, 0
    284b:	15a9b7        	bge	a9, a11, 2864 <LC3Plus_processSnsInterpolateScf_fx+0xbc>
    284e:	292a           	add.n	a2, a9, a2
    2850:	c08b90        	sub	a8, a11, a9
    2853:	a07960        	addx4	a7, a9, a6
    2856:	a02260        	addx4	a2, a2, a6
    2859:	078876        	loop	a8, 2864 <LC3Plus_processSnsInterpolateScf_fx+0xbc>
    285c:	0288           	l32i.n	a8, a2, 0
    285e:	0789           	s32i.n	a8, a7, 0
    2860:	224b           	addi.n	a2, a2, 4
    2862:	774b           	addi.n	a7, a7, 4

00002864 <LC3Plus_processSnsInterpolateScf_fx+0xbc>:
    2864:	231566        	bnei	a5, 1, 288b <LC3Plus_processSnsInterpolateScf_fx+0xe3>
    2867:	021be6        	bgei	a11, 1, 286d <LC3Plus_processSnsInterpolateScf_fx+0xc5>
    286a:	003946        	j	2953 <LC3Plus_processSnsInterpolateScf_fx+0x1ab>
    286d:	f27c           	movi.n	a2, -1
    286f:	f57c           	movi.n	a5, -1
    2871:	012210        	slli	a2, a2, 31
    2874:	415150        	srli	a5, a5, 1
    2877:	067d           	mov.n	a7, a6
    2879:	0e8b76        	loop	a11, 288b <LC3Plus_processSnsInterpolateScf_fx+0xe3>
    287c:	0788           	l32i.n	a8, a7, 0
    287e:	609080        	neg	a9, a8
    2881:	c08820        	sub	a8, a8, a2
    2884:	839580        	moveqz	a9, a5, a8
    2887:	0799           	s32i.n	a9, a7, 0
    2889:	774b           	addi.n	a7, a7, 4
    288b:	021be6        	bgei	a11, 1, 2891 <LC3Plus_processSnsInterpolateScf_fx+0xe9>
    288e:	003046        	j	2953 <LC3Plus_processSnsInterpolateScf_fx+0x1ab>
    2891:	f67b51        	l32r	a5, 280 (105b4 <LC3Plus_exp2x_tab_long>)
    2894:	f67971        	l32r	a7, 278 (105ac <LC3Plus_exp2_tab_long>)
    2897:	f67991        	l32r	a9, 27c (105b0 <LC3Plus_exp2w_tab_long>)
    289a:	2138           	l32i.n	a3, a1, 8
    289c:	f6c681        	l32r	a8, 3b4 (7bffffff <_end+0x7bfef9bb>)
    289f:	1f0c           	movi.n	a15, 1
    28a1:	07d8           	l32i.n	a13, a7, 0
    28a3:	0558           	l32i.n	a5, a5, 0
    28a5:	09e8           	l32i.n	a14, a9, 0
    28a7:	1c6c           	movi.n	a12, -31
    28a9:	fec422        	addi	a2, a4, -2
    28ac:	fcc332        	addi	a3, a3, -4
    28af:	014c60        	slli	a4, a12, 26
    28b2:	01ff20        	slli	a15, a15, 30
    28b5:	067d           	mov.n	a7, a6
    28b7:	2159           	s32i.n	a5, a1, 8
    28b9:	71d9           	s32i.n	a13, a1, 28
    28bb:	61e9           	s32i.n	a14, a1, 24
    28bd:	928b76        	loop	a11, 2953 <LC3Plus_processSnsInterpolateScf_fx+0x1ab>
    28c0:	07b8           	l32i.n	a11, a7, 0
    28c2:	0a0c           	movi.n	a10, 0
    28c4:	050c           	movi.n	a5, 0
    28c6:	7b2b47        	blt	a11, a4, 2945 <LC3Plus_processSnsInterpolateScf_fx+0x19d>
    28c9:	fa1c           	movi.n	a10, 31
    28cb:	0f5d           	mov.n	a5, a15
    28cd:	7428b7        	blt	a8, a11, 2945 <LC3Plus_processSnsInterpolateScf_fx+0x19d>
    28d0:	2151b0        	srai	a5, a11, 1
    28d3:	067516        	beqz	a5, 293e <LC3Plus_processSnsInterpolateScf_fx+0x196>
    28d6:	21e8           	l32i.n	a14, a1, 8
    28d8:	44abb0        	extui	a10, a11, 11, 5
    28db:	945050        	extui	a5, a5, 0, 10
    28de:	a0aae0        	addx4	a10, a10, a14
    28e1:	f690e1        	l32r	a14, 324 (16302f <_end+0x1529eb>)
    28e4:	45c5b0        	extui	a12, a11, 21, 5
    28e7:	45d0b0        	extui	a13, a11, 16, 5
    28ea:	8255e0        	mull	a5, a5, a14
    28ed:	71e8           	l32i.n	a14, a1, 28
    28ef:	0aa8           	l32i.n	a10, a10, 0
    28f1:	f55050        	extui	a5, a5, 16, 16
    28f4:	a0cce0        	addx4	a12, a12, a14
    28f7:	61e8           	l32i.n	a14, a1, 24
    28f9:	0cc8           	l32i.n	a12, a12, 0
    28fb:	5a5a           	add.n	a5, a10, a5
    28fd:	a0dde0        	addx4	a13, a13, a14
    2900:	0dd8           	l32i.n	a13, a13, 0
    2902:	319ab0        	srai	a9, a11, 26
    2905:	a93b           	addi.n	a10, a9, 3
    2907:	b2ecd0        	mulsh	a14, a12, a13
    290a:	82ccd0        	mull	a12, a12, a13
    290d:	dd7c           	movi.n	a13, -3
    290f:	05cfc0        	extui	a12, a12, 31, 1
    2912:	90cec0        	addx2	a12, a14, a12
    2915:	82ec50        	mull	a14, a12, a5
    2918:	b25c50        	mulsh	a5, a12, a5
    291b:	05efe0        	extui	a14, a14, 31, 1
    291e:	9055e0        	addx2	a5, a5, a14
    2921:	202be6        	bgei	a11, 2, 2945 <LC3Plus_processSnsInterpolateScf_fx+0x19d>
    2924:	401a00        	ssl	a10
    2927:	c0bd90        	sub	a11, a13, a9
    292a:	a1e500        	sll	a14, a5
    292d:	400b00        	ssr	a11
    2930:	72dd90        	salt	a13, a13, a9
    2933:	b15050        	sra	a5, a5
    2936:	0a0c           	movi.n	a10, 0
    2938:	935ed0        	movnez	a5, a14, a13
    293b:	000186        	j	2945 <LC3Plus_processSnsInterpolateScf_fx+0x19d>

0000293e <LC3Plus_processSnsInterpolateScf_fx+0x196>:
    293e:	150c           	movi.n	a5, 1
    2940:	fa7c           	movi.n	a10, -1
    2942:	015540        	slli	a5, a5, 28
    2945:	360534        	ae_cvtq48a32s	aeq0, a5
    2948:	300aa4        	ae_cvtp24a16x2.ll	aep0, a10, a10
    294b:	774b           	addi.n	a7, a7, 4
    294d:	624314        	ae_sq32f.iu	aeq0, a3, 4
    2950:	428214        	ae_sp16f.l.iu	aep0, a2, 2

00002953 <LC3Plus_processSnsInterpolateScf_fx+0x1ab>:
    2953:	4138           	l32i.n	a3, a1, 16
    2955:	f69821        	l32r	a2, 3b8 (ebdc <LC3Plus_lc3_scratch_pop>)
    2958:	51b8           	l32i.n	a11, a1, 20
    295a:	03ad           	mov.n	a10, a3
    295c:	0002e0        	callx8	a2
    295f:	03ad           	mov.n	a10, a3
    2961:	06bd           	mov.n	a11, a6
    2963:	0002e0        	callx8	a2
    2966:	f01d           	retw.n

00002968 <LC3Plus_processAriEncoder_fx>:
    2968:	00c136        	entry	a1, 96
    296b:	9169           	s32i.n	a6, a1, 36
    296d:	1a2162        	l32i	a6, a1, 104
    2970:	212142        	l32i	a4, a1, 132
    2973:	3179           	s32i.n	a7, a1, 12
    2975:	263d           	ae_l16si.n	a3, a6, 0
    2977:	04ad           	mov.n	a10, a4
    2979:	097d           	mov.n	a7, a9
    297b:	11b3e0        	slli	a11, a3, 2
    297e:	f68c31        	l32r	a3, 3b0 (eb9c <LC3Plus_lc3_scratch_push>)
    2981:	0003e0        	callx8	a3
    2984:	6438           	l32i.n	a3, a4, 24
    2986:	0abd           	mov.n	a11, a10
    2988:	04ad           	mov.n	a10, a4
    298a:	938c           	beqz.n	a3, 2997 <LC3Plus_processAriEncoder_fx+0x2f>
    298c:	f68b21        	l32r	a2, 3b8 (ebdc <LC3Plus_lc3_scratch_pop>)
    298f:	0002e0        	callx8	a2
    2992:	020c           	movi.n	a2, 0
    2994:	021486        	j	31ea <LC3Plus_processAriEncoder_fx+0x882>

00002997 <LC3Plus_processAriEncoder_fx+0x2f>:
    2997:	c159           	s32i.n	a5, a1, 48
    2999:	182152        	l32i	a5, a1, 96
    299c:	31e8           	l32i.n	a14, a1, 12
    299e:	1f2132        	l32i	a3, a1, 124
    29a1:	b169           	s32i.n	a6, a1, 44
    29a3:	e139           	s32i.n	a3, a1, 56
    29a5:	d179           	s32i.n	a7, a1, 52
    29a7:	f149           	s32i.n	a4, a1, 60
    29a9:	81b9           	s32i.n	a11, a1, 32
    29ab:	0215e6        	bgei	a5, 1, 29b1 <LC3Plus_processAriEncoder_fx+0x49>
    29ae:	005886        	j	2b14 <LC3Plus_processAriEncoder_fx+0x1ac>
    29b1:	202132        	l32i	a3, a1, 128
    29b4:	f68271        	l32r	a7, 3bc (feffff <_end+0xfdf9bb>)
    29b7:	fd7c           	movi.n	a13, -1
    29b9:	192142        	l32i	a4, a1, 100
    29bc:	1133c0        	slli	a3, a3, 4
    29bf:	ff7c           	movi.n	a15, -1
    29c1:	4149           	s32i.n	a4, a1, 16
    29c3:	f4d0d0        	extui	a13, a13, 0, 16
    29c6:	4148f0        	srli	a4, a15, 8
    29c9:	080c           	movi.n	a8, 0
    29cb:	0a0c           	movi.n	a10, 0
    29cd:	0c0c           	movi.n	a12, 0
    29cf:	090c           	movi.n	a9, 0
    29d1:	6139           	s32i.n	a3, a1, 24
    29d3:	0003c6        	j	29e6 <LC3Plus_processAriEncoder_fx+0x7e>

000029d6 <LC3Plus_processAriEncoder_fx+0x6e>:
    29d6:	4138           	l32i.n	a3, a1, 16
    29d8:	5158           	l32i.n	a5, a1, 20
    29da:	ee2b           	addi.n	a14, a14, 2
    29dc:	10c332        	addi	a3, a3, 16
    29df:	550b           	addi.n	a5, a5, -1
    29e1:	4139           	s32i.n	a3, a1, 16
    29e3:	13f516        	beqz	a5, 2b26 <LC3Plus_processAriEncoder_fx+0x1be>
    29e6:	2e3d           	ae_l16si.n	a3, a14, 0
    29e8:	5159           	s32i.n	a5, a1, 20
    29ea:	f5c751        	l32r	a5, 108 (1043c <LC3Plus_ac_tns_order_cumfreq>)
    29ed:	e513a6        	blti	a3, 1, 29d6 <LC3Plus_processAriEncoder_fx+0x6e>
    29f0:	f5c561        	l32r	a6, 104 (10438 <LC3Plus_ac_tns_order_freq>)
    29f3:	61f8           	l32i.n	a15, a1, 24
    29f5:	0558           	l32i.n	a5, a5, 0
    29f7:	933d           	ae_zext16	a3, a3
    29f9:	06b8           	l32i.n	a11, a6, 0
    29fb:	330b           	addi.n	a3, a3, -1
    29fd:	1133f0        	slli	a3, a3, 1
    2a00:	55fa           	add.n	a5, a5, a15
    2a02:	553a           	add.n	a5, a5, a3
    2a04:	bbfa           	add.n	a11, a11, a15
    2a06:	255d           	ae_l16si.n	a5, a5, 0
    2a08:	3b3a           	add.n	a3, a11, a3
    2a0a:	414a40        	srli	a4, a4, 10
    2a0d:	233d           	ae_l16si.n	a3, a3, 0
    2a0f:	825450        	mull	a5, a4, a5
    2a12:	fb7c           	movi.n	a11, -1
    2a14:	65aa           	add.n	a6, a5, a10
    2a16:	824430        	mull	a4, a4, a3
    2a19:	4158b0        	srli	a5, a11, 8
    2a1c:	753860        	extui	a3, a6, 24, 8
    2a1f:	1f0c           	movi.n	a15, 1
    2a21:	10a650        	and	a10, a6, a5
    2a24:	93cf30        	movnez	a12, a15, a3
    2a27:	3c14b6        	bltui	a4, 0x10000, 2a67 <LC3Plus_processAriEncoder_fx+0xff>
    2a2a:	001386        	j	2a7c <LC3Plus_processAriEncoder_fx+0x114>

00002a2d <LC3Plus_processAriEncoder_fx+0xc5>:
	...

00002a2e <LC3Plus_processAriEncoder_fx+0xc6>:
    2a2e:	8d4d           	ae_sext16	a4, a13
    2a30:	00c496        	bltz	a4, 2a40 <LC3Plus_processAriEncoder_fx+0xd8>
    2a33:	88fd           	ae_sext16	a15, a8
    2a35:	581b           	addi.n	a5, a8, 1
    2a37:	4dca           	add.n	a4, a13, a12
    2a39:	b2fa           	add.n	a11, a2, a15
    2a3b:	058d           	mov.n	a8, a5
    2a3d:	004b42        	s8i	a4, a11, 0
    2a40:	894d           	ae_sext16	a4, a9
    2a42:	1114a6        	blti	a4, 1, 2a57 <LC3Plus_processAriEncoder_fx+0xef>
    2a45:	995d           	ae_zext16	a5, a9
    2a47:	4c0b           	addi.n	a4, a12, -1
    2a49:	088576        	loop	a5, 2a55 <LC3Plus_processAriEncoder_fx+0xed>
    2a4c:	885d           	ae_sext16	a5, a8
    2a4e:	525a           	add.n	a5, a2, a5
    2a50:	881b           	addi.n	a8, a8, 1
    2a52:	004542        	s8i	a4, a5, 0

00002a55 <LC3Plus_processAriEncoder_fx+0xed>:
    2a55:	090c           	movi.n	a9, 0

00002a57 <LC3Plus_processAriEncoder_fx+0xef>:
    2a57:	f5d0a0        	extui	a13, a10, 16, 16
    2a5a:	0c0c           	movi.n	a12, 0
    2a5c:	9a5d           	ae_zext16	a5, a10
    2a5e:	114380        	slli	a4, a3, 8
    2a61:	11a580        	slli	a10, a5, 8
    2a64:	0cf3f6        	bgeui	a3, 0x100, 2a74 <LC3Plus_processAriEncoder_fx+0x10c>
    2a67:	043d           	mov.n	a3, a4
    2a69:	c11c26        	beqi	a12, 1, 2a2e <LC3Plus_processAriEncoder_fx+0xc6>
    2a6c:	beb7a7        	bgeu	a7, a10, 2a2e <LC3Plus_processAriEncoder_fx+0xc6>
    2a6f:	991b           	addi.n	a9, a9, 1
    2a71:	fff9c6        	j	2a5c <LC3Plus_processAriEncoder_fx+0xf4>

00002a74 <LC3Plus_processAriEncoder_fx+0x10c>:
    2a74:	2e3d           	ae_l16si.n	a3, a14, 0
    2a76:	0213e6        	bgei	a3, 1, 2a7c <LC3Plus_processAriEncoder_fx+0x114>
    2a79:	ffd646        	j	29d6 <LC3Plus_processAriEncoder_fx+0x6e>
    2a7c:	41b8           	l32i.n	a11, a1, 16
    2a7e:	050c           	movi.n	a5, 0
    2a80:	030c           	movi.n	a3, 0
    2a82:	31e9           	s32i.n	a14, a1, 12
    2a84:	f5a361        	l32r	a6, 110 (10444 <LC3Plus_ac_tns_coef_cumfreq>)
    2a87:	2bfd           	ae_l16si.n	a15, a11, 0
    2a89:	414a40        	srli	a4, a4, 10
    2a8c:	06e8           	l32i.n	a14, a6, 0
    2a8e:	f59f61        	l32r	a6, 10c (10440 <LC3Plus_ac_tns_coef_freq>)
    2a91:	90efe0        	addx2	a14, a15, a14
    2a94:	0668           	l32i.n	a6, a6, 0
    2a96:	ee5a           	add.n	a14, a14, a5
    2a98:	2eed           	ae_l16si.n	a14, a14, 0
    2a9a:	906f60        	addx2	a6, a15, a6
    2a9d:	665a           	add.n	a6, a6, a5
    2a9f:	82e4e0        	mull	a14, a4, a14
    2aa2:	266d           	ae_l16si.n	a6, a6, 0
    2aa4:	feaa           	add.n	a15, a14, a10
    2aa6:	fe7c           	movi.n	a14, -1
    2aa8:	41a8e0        	srli	a10, a14, 8
    2aab:	824460        	mull	a4, a4, a6
    2aae:	10afa0        	and	a10, a15, a10
    2ab1:	7568f0        	extui	a6, a15, 24, 8
    2ab4:	1f0c           	movi.n	a15, 1
    2ab6:	93cf60        	movnez	a12, a15, a6
    2ab9:	4a14b6        	bltui	a4, 0x10000, 2b07 <LC3Plus_processAriEncoder_fx+0x19f>
    2abc:	31e8           	l32i.n	a14, a1, 12
    2abe:	331b           	addi.n	a3, a3, 1
    2ac0:	22c552        	addi	a5, a5, 34
    2ac3:	2e6d           	ae_l16si.n	a6, a14, 0
    2ac5:	bb2b           	addi.n	a11, a11, 2
    2ac7:	b92367        	blt	a3, a6, 2a84 <LC3Plus_processAriEncoder_fx+0x11c>
    2aca:	ffc206        	j	29d6 <LC3Plus_processAriEncoder_fx+0x6e>

00002acd <LC3Plus_processAriEncoder_fx+0x165>:
	...

00002ace <LC3Plus_processAriEncoder_fx+0x166>:
    2ace:	8d4d           	ae_sext16	a4, a13
    2ad0:	00c496        	bltz	a4, 2ae0 <LC3Plus_processAriEncoder_fx+0x178>
    2ad3:	4dca           	add.n	a4, a13, a12
    2ad5:	88dd           	ae_sext16	a13, a8
    2ad7:	681b           	addi.n	a6, a8, 1
    2ad9:	f2da           	add.n	a15, a2, a13
    2adb:	068d           	mov.n	a8, a6
    2add:	004f42        	s8i	a4, a15, 0
    2ae0:	894d           	ae_sext16	a4, a9
    2ae2:	1114a6        	blti	a4, 1, 2af7 <LC3Plus_processAriEncoder_fx+0x18f>
    2ae5:	996d           	ae_zext16	a6, a9
    2ae7:	4c0b           	addi.n	a4, a12, -1
    2ae9:	088676        	loop	a6, 2af5 <LC3Plus_processAriEncoder_fx+0x18d>
    2aec:	886d           	ae_sext16	a6, a8
    2aee:	626a           	add.n	a6, a2, a6
    2af0:	881b           	addi.n	a8, a8, 1
    2af2:	004642        	s8i	a4, a6, 0

00002af5 <LC3Plus_processAriEncoder_fx+0x18d>:
    2af5:	090c           	movi.n	a9, 0

00002af7 <LC3Plus_processAriEncoder_fx+0x18f>:
    2af7:	f5d0a0        	extui	a13, a10, 16, 16
    2afa:	0c0c           	movi.n	a12, 0
    2afc:	9a6d           	ae_zext16	a6, a10
    2afe:	114e80        	slli	a4, a14, 8
    2b01:	11a680        	slli	a10, a6, 8
    2b04:	b4fef6        	bgeui	a14, 0x100, 2abc <LC3Plus_processAriEncoder_fx+0x154>
    2b07:	04ed           	mov.n	a14, a4
    2b09:	c11c26        	beqi	a12, 1, 2ace <LC3Plus_processAriEncoder_fx+0x166>
    2b0c:	beb7a7        	bgeu	a7, a10, 2ace <LC3Plus_processAriEncoder_fx+0x166>
    2b0f:	991b           	addi.n	a9, a9, 1
    2b11:	fff9c6        	j	2afc <LC3Plus_processAriEncoder_fx+0x194>

00002b14 <LC3Plus_processAriEncoder_fx+0x1ac>:
    2b14:	f47c           	movi.n	a4, -1
    2b16:	fd7c           	movi.n	a13, -1
    2b18:	090c           	movi.n	a9, 0
    2b1a:	414840        	srli	a4, a4, 8
    2b1d:	f4d0d0        	extui	a13, a13, 0, 16
    2b20:	0c0c           	movi.n	a12, 0
    2b22:	0a0c           	movi.n	a10, 0
    2b24:	080c           	movi.n	a8, 0
    2b26:	d138           	l32i.n	a3, a1, 52
    2b28:	b138           	l32i.n	a3, a1, 44
    2b2a:	e158           	l32i.n	a5, a1, 56
    2b2c:	1c21f2        	l32i	a15, a1, 112
    2b2f:	233d           	ae_l16si.n	a3, a3, 0
    2b31:	f623b1        	l32r	a11, 3c0 (10640 <g_p_enc_stream>)
    2b34:	237516        	beqz	a5, 2d6f <LC3Plus_processAriEncoder_fx+0x407>
    2b37:	9168           	l32i.n	a6, a1, 36
    2b39:	8158           	l32i.n	a5, a1, 32
    2b3b:	7159           	s32i.n	a5, a1, 28
    2b3d:	0223e6        	bgei	a3, 2, 2b43 <LC3Plus_processAriEncoder_fx+0x1db>
    2b40:	008786        	j	2d62 <LC3Plus_processAriEncoder_fx+0x3fa>
    2b43:	f61e31        	l32r	a3, 3bc (feffff <_end+0xfdf9bb>)
    2b46:	8158           	l32i.n	a5, a1, 32
    2b48:	070c           	movi.n	a7, 0
    2b4a:	7159           	s32i.n	a5, a1, 28
    2b4c:	000e46        	j	2b89 <LC3Plus_processAriEncoder_fx+0x221>

00002b4f <LC3Plus_processAriEncoder_fx+0x1e7>:
    2b4f:	415150        	srli	a5, a5, 1
    2b52:	3159           	s32i.n	a5, a1, 12
    2b54:	7169           	s32i.n	a6, a1, 28
    2b56:	4158           	l32i.n	a5, a1, 16
    2b58:	5178           	l32i.n	a7, a1, 20
    2b5a:	f61961        	l32r	a6, 3c0 (10640 <g_p_enc_stream>)
    2b5d:	558c           	beqz.n	a5, 2b66 <LC3Plus_processAriEncoder_fx+0x1fe>
    2b5f:	0658           	l32i.n	a5, a6, 0
    2b61:	1115b4        	ae_sbi	a5, a11, 1
    2b64:	0659           	s32i.n	a5, a6, 0
    2b66:	3158           	l32i.n	a5, a1, 12
    2b68:	f616b1        	l32r	a11, 3c0 (10640 <g_p_enc_stream>)
    2b6b:	6168           	l32i.n	a6, a1, 24
    2b6d:	558c           	beqz.n	a5, 2b76 <LC3Plus_processAriEncoder_fx+0x20e>
    2b6f:	0b58           	l32i.n	a5, a11, 0
    2b71:	111564        	ae_sbi	a5, a6, 1
    2b74:	0b59           	s32i.n	a5, a11, 0
    2b76:	2f5d           	ae_l16si.n	a5, a15, 0
    2b78:	9168           	l32i.n	a6, a1, 36
    2b7a:	771b           	addi.n	a7, a7, 1
    2b7c:	215150        	srai	a5, a5, 1
    2b7f:	fe6b           	addi.n	a15, a14, 6
    2b81:	668b           	addi.n	a6, a6, 8
    2b83:	022757        	blt	a7, a5, 2b89 <LC3Plus_processAriEncoder_fx+0x221>
    2b86:	007606        	j	2d62 <LC3Plus_processAriEncoder_fx+0x3fa>
    2b89:	f56351        	l32r	a5, 118 (1044c <LC3Plus_ari_spec_lookup>)
    2b8c:	06b8           	l32i.n	a11, a6, 0
    2b8e:	5179           	s32i.n	a7, a1, 20
    2b90:	0558           	l32i.n	a5, a5, 0
    2b92:	3159           	s32i.n	a5, a1, 12
    2b94:	9169           	s32i.n	a6, a1, 36
    2b96:	1668           	l32i.n	a6, a6, 4
    2b98:	2f5d           	ae_l16si.n	a5, a15, 0
    2b9a:	0fed           	mov.n	a14, a15
    2b9c:	3f7d           	ae_l16si.n	a7, a15, 2
    2b9e:	31f8           	l32i.n	a15, a1, 12
    2ba0:	a1b9           	s32i.n	a11, a1, 40
    2ba2:	60b1b0        	abs	a11, a11
    2ba5:	41b9           	s32i.n	a11, a1, 16
    2ba7:	bf5a           	add.n	a11, a15, a5
    2ba9:	60f160        	abs	a15, a6
    2bac:	6169           	s32i.n	a6, a1, 24
    2bae:	31f9           	s32i.n	a15, a1, 12
    2bb0:	0217e6        	bgei	a7, 1, 2bb6 <LC3Plus_processAriEncoder_fx+0x24e>
    2bb3:	002dc6        	j	2c6e <LC3Plus_processAriEncoder_fx+0x306>
    2bb6:	060c           	movi.n	a6, 0
    2bb8:	350c           	movi.n	a5, 3
    2bba:	637650        	minu	a7, a6, a5
    2bbd:	117760        	slli	a7, a7, 10
    2bc0:	7b7a           	add.n	a7, a11, a7
    2bc2:	000772        	l8ui	a7, a7, 0
    2bc5:	f555f1        	l32r	a15, 11c (10450 <LC3Plus_ari_spec_cumfreq>)
    2bc8:	414a40        	srli	a4, a4, 10
    2bcb:	237700        	sext	a7, a7, 7
    2bce:	1157b0        	slli	a5, a7, 5
    2bd1:	905750        	addx2	a5, a7, a5
    2bd4:	f55371        	l32r	a7, 120 (10454 <LC3Plus_ari_spec_freq>)
    2bd7:	0ff8           	l32i.n	a15, a15, 0
    2bd9:	0778           	l32i.n	a7, a7, 0
    2bdb:	ff5a           	add.n	a15, a15, a5
    2bdd:	101ff2        	l16ui	a15, a15, 32
    2be0:	575a           	add.n	a5, a7, a5
    2be2:	101552        	l16ui	a5, a5, 32
    2be5:	8274f0        	mull	a7, a4, a15
    2be8:	ff7c           	movi.n	a15, -1
    2bea:	824450        	mull	a4, a4, a5
    2bed:	57aa           	add.n	a5, a7, a10
    2bef:	41a8f0        	srli	a10, a15, 8
    2bf2:	757850        	extui	a7, a5, 24, 8
    2bf5:	1f0c           	movi.n	a15, 1
    2bf7:	10a5a0        	and	a10, a5, a10
    2bfa:	93cf70        	movnez	a12, a15, a7
    2bfd:	6014b6        	bltui	a4, 0x10000, 2c61 <LC3Plus_processAriEncoder_fx+0x2f9>
    2c00:	a69c           	beqz.n	a6, 2c1e <LC3Plus_processAriEncoder_fx+0x2b6>
    2c02:	f5eff1        	l32r	a15, 3c0 (10640 <g_p_enc_stream>)
    2c05:	4178           	l32i.n	a7, a1, 16
    2c07:	400600        	ssr	a6
    2c0a:	0f58           	l32i.n	a5, a15, 0
    2c0c:	917070        	srl	a7, a7
    2c0f:	111574        	ae_sbi	a5, a7, 1
    2c12:	3178           	l32i.n	a7, a1, 12
    2c14:	0f59           	s32i.n	a5, a15, 0
    2c16:	917070        	srl	a7, a7
    2c19:	111574        	ae_sbi	a5, a7, 1
    2c1c:	0f59           	s32i.n	a5, a15, 0
    2c1e:	3e7d           	ae_l16si.n	a7, a14, 2
    2c20:	661b           	addi.n	a6, a6, 1
    2c22:	922677        	blt	a6, a7, 2bb8 <LC3Plus_processAriEncoder_fx+0x250>
    2c25:	001146        	j	2c6e <LC3Plus_processAriEncoder_fx+0x306>

00002c28 <LC3Plus_processAriEncoder_fx+0x2c0>:
    2c28:	8d4d           	ae_sext16	a4, a13
    2c2a:	00c496        	bltz	a4, 2c3a <LC3Plus_processAriEncoder_fx+0x2d2>
    2c2d:	4dca           	add.n	a4, a13, a12
    2c2f:	88dd           	ae_sext16	a13, a8
    2c31:	581b           	addi.n	a5, a8, 1
    2c33:	f2da           	add.n	a15, a2, a13
    2c35:	058d           	mov.n	a8, a5
    2c37:	004f42        	s8i	a4, a15, 0
    2c3a:	894d           	ae_sext16	a4, a9
    2c3c:	1114a6        	blti	a4, 1, 2c51 <LC3Plus_processAriEncoder_fx+0x2e9>
    2c3f:	995d           	ae_zext16	a5, a9
    2c41:	4c0b           	addi.n	a4, a12, -1
    2c43:	088576        	loop	a5, 2c4f <LC3Plus_processAriEncoder_fx+0x2e7>
    2c46:	885d           	ae_sext16	a5, a8
    2c48:	525a           	add.n	a5, a2, a5
    2c4a:	881b           	addi.n	a8, a8, 1
    2c4c:	004542        	s8i	a4, a5, 0

00002c4f <LC3Plus_processAriEncoder_fx+0x2e7>:
    2c4f:	090c           	movi.n	a9, 0

00002c51 <LC3Plus_processAriEncoder_fx+0x2e9>:
    2c51:	f5d0a0        	extui	a13, a10, 16, 16
    2c54:	0c0c           	movi.n	a12, 0
    2c56:	9a5d           	ae_zext16	a5, a10
    2c58:	114780        	slli	a4, a7, 8
    2c5b:	11a580        	slli	a10, a5, 8
    2c5e:	9ef7f6        	bgeui	a7, 0x100, 2c00 <LC3Plus_processAriEncoder_fx+0x298>
    2c61:	047d           	mov.n	a7, a4
    2c63:	c11c26        	beqi	a12, 1, 2c28 <LC3Plus_processAriEncoder_fx+0x2c0>
    2c66:	beb3a7        	bgeu	a3, a10, 2c28 <LC3Plus_processAriEncoder_fx+0x2c0>
    2c69:	991b           	addi.n	a9, a9, 1
    2c6b:	fff9c6        	j	2c56 <LC3Plus_processAriEncoder_fx+0x2ee>

00002c6e <LC3Plus_processAriEncoder_fx+0x306>:
    2c6e:	875d           	ae_sext16	a5, a7
    2c70:	360c           	movi.n	a6, 3
    2c72:	435560        	min	a5, a5, a6
    2c75:	115560        	slli	a5, a5, 10
    2c78:	5b5a           	add.n	a5, a11, a5
    2c7a:	000552        	l8ui	a5, a5, 0
    2c7d:	f527b1        	l32r	a11, 11c (10450 <LC3Plus_ari_spec_cumfreq>)
    2c80:	f528f1        	l32r	a15, 120 (10454 <LC3Plus_ari_spec_freq>)
    2c83:	235500        	sext	a5, a5, 7
    2c86:	0b68           	l32i.n	a6, a11, 0
    2c88:	0fb8           	l32i.n	a11, a15, 0
    2c8a:	11f5b0        	slli	a15, a5, 5
    2c8d:	9055f0        	addx2	a5, a5, a15
    2c90:	029ef2        	l16si	a15, a14, 4
    2c93:	665a           	add.n	a6, a6, a5
    2c95:	5b5a           	add.n	a5, a11, a5
    2c97:	906f60        	addx2	a6, a15, a6
    2c9a:	466d           	ae_l16ui.n	a6, a6, 0
    2c9c:	905f50        	addx2	a5, a15, a5
    2c9f:	414a40        	srli	a4, a4, 10
    2ca2:	455d           	ae_l16ui.n	a5, a5, 0
    2ca4:	826460        	mull	a6, a4, a6
    2ca7:	fb7c           	movi.n	a11, -1
    2ca9:	f6aa           	add.n	a15, a6, a10
    2cab:	41a8b0        	srli	a10, a11, 8
    2cae:	824450        	mull	a4, a4, a5
    2cb1:	7568f0        	extui	a6, a15, 24, 8
    2cb4:	10afa0        	and	a10, a15, a10
    2cb7:	1f0c           	movi.n	a15, 1
    2cb9:	93cf60        	movnez	a12, a15, a6
    2cbc:	4c14f6        	bgeui	a4, 0x10000, 2d0c <LC3Plus_processAriEncoder_fx+0x3a4>
    2cbf:	0ebd           	mov.n	a11, a14
    2cc1:	000e06        	j	2cfd <LC3Plus_processAriEncoder_fx+0x395>

00002cc4 <LC3Plus_processAriEncoder_fx+0x35c>:
    2cc4:	8d4d           	ae_sext16	a4, a13
    2cc6:	00c496        	bltz	a4, 2cd6 <LC3Plus_processAriEncoder_fx+0x36e>
    2cc9:	887d           	ae_sext16	a7, a8
    2ccb:	581b           	addi.n	a5, a8, 1
    2ccd:	4dca           	add.n	a4, a13, a12
    2ccf:	727a           	add.n	a7, a2, a7
    2cd1:	058d           	mov.n	a8, a5
    2cd3:	004742        	s8i	a4, a7, 0
    2cd6:	894d           	ae_sext16	a4, a9
    2cd8:	1114a6        	blti	a4, 1, 2ced <LC3Plus_processAriEncoder_fx+0x385>
    2cdb:	995d           	ae_zext16	a5, a9
    2cdd:	4c0b           	addi.n	a4, a12, -1
    2cdf:	088576        	loop	a5, 2ceb <LC3Plus_processAriEncoder_fx+0x383>
    2ce2:	885d           	ae_sext16	a5, a8
    2ce4:	525a           	add.n	a5, a2, a5
    2ce6:	881b           	addi.n	a8, a8, 1
    2ce8:	004542        	s8i	a4, a5, 0

00002ceb <LC3Plus_processAriEncoder_fx+0x383>:
    2ceb:	090c           	movi.n	a9, 0

00002ced <LC3Plus_processAriEncoder_fx+0x385>:
    2ced:	f5d0a0        	extui	a13, a10, 16, 16
    2cf0:	0c0c           	movi.n	a12, 0
    2cf2:	9a5d           	ae_zext16	a5, a10
    2cf4:	114680        	slli	a4, a6, 8
    2cf7:	11a580        	slli	a10, a5, 8
    2cfa:	0cf6f6        	bgeui	a6, 0x100, 2d0a <LC3Plus_processAriEncoder_fx+0x3a2>
    2cfd:	046d           	mov.n	a6, a4
    2cff:	c11c26        	beqi	a12, 1, 2cc4 <LC3Plus_processAriEncoder_fx+0x35c>
    2d02:	beb3a7        	bgeu	a3, a10, 2cc4 <LC3Plus_processAriEncoder_fx+0x35c>
    2d05:	991b           	addi.n	a9, a9, 1
    2d07:	fff9c6        	j	2cf2 <LC3Plus_processAriEncoder_fx+0x38a>

00002d0a <LC3Plus_processAriEncoder_fx+0x3a2>:
    2d0a:	5b7d           	ae_l16ui.n	a7, a11, 2
    2d0c:	6168           	l32i.n	a6, a1, 24
    2d0e:	a158           	l32i.n	a5, a1, 40
    2d10:	b1f8           	l32i.n	a15, a1, 44
    2d12:	056f60        	extui	a6, a6, 31, 1
    2d15:	877d           	ae_sext16	a7, a7
    2d17:	05bf50        	extui	a11, a5, 31, 1
    2d1a:	6169           	s32i.n	a6, a1, 24
    2d1c:	0217e6        	bgei	a7, 1, 2d22 <LC3Plus_processAriEncoder_fx+0x3ba>
    2d1f:	ff8cc6        	j	2b56 <LC3Plus_processAriEncoder_fx+0x1ee>
    2d22:	41f8           	l32i.n	a15, a1, 16
    2d24:	3168           	l32i.n	a6, a1, 12
    2d26:	7178           	l32i.n	a7, a1, 28
    2d28:	0450f0        	extui	a5, a15, 0, 1
    2d2b:	046060        	extui	a6, a6, 0, 1
    2d2e:	675d           	ae_s16i.n	a5, a7, 0
    2d30:	075d           	mov.n	a5, a7
    2d32:	061f66        	bnei	a15, 1, 2d3c <LC3Plus_processAriEncoder_fx+0x3d4>
    2d35:	754b           	addi.n	a7, a5, 4
    2d37:	75bd           	ae_s16i.n	a11, a5, 2
    2d39:	000046        	j	2d3e <LC3Plus_processAriEncoder_fx+0x3d6>

00002d3c <LC3Plus_processAriEncoder_fx+0x3d4>:
    2d3c:	752b           	addi.n	a7, a5, 2
    2d3e:	4158           	l32i.n	a5, a1, 16
    2d40:	b1f8           	l32i.n	a15, a1, 44
    2d42:	676d           	ae_s16i.n	a6, a7, 0
    2d44:	415150        	srli	a5, a5, 1
    2d47:	4159           	s32i.n	a5, a1, 16
    2d49:	3158           	l32i.n	a5, a1, 12
    2d4b:	672b           	addi.n	a6, a7, 2
    2d4d:	021526        	beqi	a5, 1, 2d53 <LC3Plus_processAriEncoder_fx+0x3eb>
    2d50:	ff7ec6        	j	2b4f <LC3Plus_processAriEncoder_fx+0x1e7>
    2d53:	6168           	l32i.n	a6, a1, 24
    2d55:	574b           	addi.n	a5, a7, 4
    2d57:	776d           	ae_s16i.n	a6, a7, 2
    2d59:	070c           	movi.n	a7, 0
    2d5b:	7159           	s32i.n	a5, a1, 28
    2d5d:	3179           	s32i.n	a7, a1, 12
    2d5f:	ff7cc6        	j	2b56 <LC3Plus_processAriEncoder_fx+0x1ee>

00002d62 <LC3Plus_processAriEncoder_fx+0x3fa>:
    2d62:	8138           	l32i.n	a3, a1, 32
    2d64:	7158           	l32i.n	a5, a1, 28
    2d66:	c03530        	sub	a3, a5, a3
    2d69:	415130        	srli	a5, a3, 1
    2d6c:	0072c6        	j	2f3b <LC3Plus_processAriEncoder_fx+0x5d3>

00002d6f <LC3Plus_processAriEncoder_fx+0x407>:
    2d6f:	050c           	movi.n	a5, 0
    2d71:	0223e6        	bgei	a3, 2, 2d77 <LC3Plus_processAriEncoder_fx+0x40f>
    2d74:	0070c6        	j	2f3b <LC3Plus_processAriEncoder_fx+0x5d3>
    2d77:	f59151        	l32r	a5, 3bc (feffff <_end+0xfdf9bb>)
    2d7a:	91e8           	l32i.n	a14, a1, 36
    2d7c:	060c           	movi.n	a6, 0
    2d7e:	f4e631        	l32r	a3, 118 (1044c <LC3Plus_ari_spec_lookup>)
    2d81:	7169           	s32i.n	a6, a1, 28
    2d83:	2f7d           	ae_l16si.n	a7, a15, 0
    2d85:	0368           	l32i.n	a6, a3, 0
    2d87:	3f3d           	ae_l16si.n	a3, a15, 2
    2d89:	31f9           	s32i.n	a15, a1, 12
    2d8b:	0eb8           	l32i.n	a11, a14, 0
    2d8d:	1ef8           	l32i.n	a15, a14, 4
    2d8f:	667a           	add.n	a6, a6, a7
    2d91:	a1b9           	s32i.n	a11, a1, 40
    2d93:	91e9           	s32i.n	a14, a1, 36
    2d95:	61f9           	s32i.n	a15, a1, 24
    2d97:	4169           	s32i.n	a6, a1, 16
    2d99:	0213e6        	bgei	a3, 1, 2d9f <LC3Plus_processAriEncoder_fx+0x437>
    2d9c:	003146        	j	2e65 <LC3Plus_processAriEncoder_fx+0x4fd>
    2d9f:	a138           	l32i.n	a3, a1, 40
    2da1:	61f8           	l32i.n	a15, a1, 24
    2da3:	0e0c           	movi.n	a14, 0
    2da5:	603130        	abs	a3, a3
    2da8:	6071f0        	abs	a7, a15
    2dab:	5139           	s32i.n	a3, a1, 20
    2dad:	330c           	movi.n	a3, 3
    2daf:	4168           	l32i.n	a6, a1, 16
    2db1:	633e30        	minu	a3, a14, a3
    2db4:	113360        	slli	a3, a3, 10
    2db7:	363a           	add.n	a3, a6, a3
    2db9:	000332        	l8ui	a3, a3, 0
    2dbc:	f4d8f1        	l32r	a15, 11c (10450 <LC3Plus_ari_spec_cumfreq>)
    2dbf:	414a40        	srli	a4, a4, 10
    2dc2:	233300        	sext	a3, a3, 7
    2dc5:	11b3b0        	slli	a11, a3, 5
    2dc8:	0ff8           	l32i.n	a15, a15, 0
    2dca:	9033b0        	addx2	a3, a3, a11
    2dcd:	f4d4b1        	l32r	a11, 120 (10454 <LC3Plus_ari_spec_freq>)
    2dd0:	ff3a           	add.n	a15, a15, a3
    2dd2:	0b68           	l32i.n	a6, a11, 0
    2dd4:	101fb2        	l16ui	a11, a15, 32
    2dd7:	363a           	add.n	a3, a6, a3
    2dd9:	8264b0        	mull	a6, a4, a11
    2ddc:	101332        	l16ui	a3, a3, 32
    2ddf:	fb7c           	movi.n	a11, -1
    2de1:	f6aa           	add.n	a15, a6, a10
    2de3:	41a8b0        	srli	a10, a11, 8
    2de6:	7568f0        	extui	a6, a15, 24, 8
    2de9:	10afa0        	and	a10, a15, a10
    2dec:	1f0c           	movi.n	a15, 1
    2dee:	93cf60        	movnez	a12, a15, a6
    2df1:	824430        	mull	a4, a4, a3
    2df4:	31f8           	l32i.n	a15, a1, 12
    2df6:	5e14b6        	bltui	a4, 0x10000, 2e58 <LC3Plus_processAriEncoder_fx+0x4f0>
    2df9:	f571b1        	l32r	a11, 3c0 (10640 <g_p_enc_stream>)
    2dfc:	5138           	l32i.n	a3, a1, 20
    2dfe:	400e00        	ssr	a14
    2e01:	0b68           	l32i.n	a6, a11, 0
    2e03:	913030        	srl	a3, a3
    2e06:	ee1b           	addi.n	a14, a14, 1
    2e08:	111634        	ae_sbi	a6, a3, 1
    2e0b:	913070        	srl	a3, a7
    2e0e:	0b69           	s32i.n	a6, a11, 0
    2e10:	111634        	ae_sbi	a6, a3, 1
    2e13:	5f3d           	ae_l16ui.n	a3, a15, 2
    2e15:	0b69           	s32i.n	a6, a11, 0
    2e17:	83fd           	ae_sext16	a15, a3
    2e19:	902ef7        	blt	a14, a15, 2dad <LC3Plus_processAriEncoder_fx+0x445>
    2e1c:	001146        	j	2e65 <LC3Plus_processAriEncoder_fx+0x4fd>

00002e1f <LC3Plus_processAriEncoder_fx+0x4b7>:
    2e1f:	8d4d           	ae_sext16	a4, a13
    2e21:	00c496        	bltz	a4, 2e31 <LC3Plus_processAriEncoder_fx+0x4c9>
    2e24:	4dca           	add.n	a4, a13, a12
    2e26:	88dd           	ae_sext16	a13, a8
    2e28:	681b           	addi.n	a6, a8, 1
    2e2a:	b2da           	add.n	a11, a2, a13
    2e2c:	068d           	mov.n	a8, a6
    2e2e:	004b42        	s8i	a4, a11, 0
    2e31:	894d           	ae_sext16	a4, a9
    2e33:	1114a6        	blti	a4, 1, 2e48 <LC3Plus_processAriEncoder_fx+0x4e0>
    2e36:	996d           	ae_zext16	a6, a9
    2e38:	4c0b           	addi.n	a4, a12, -1
    2e3a:	088676        	loop	a6, 2e46 <LC3Plus_processAriEncoder_fx+0x4de>
    2e3d:	886d           	ae_sext16	a6, a8
    2e3f:	626a           	add.n	a6, a2, a6
    2e41:	881b           	addi.n	a8, a8, 1
    2e43:	004642        	s8i	a4, a6, 0

00002e46 <LC3Plus_processAriEncoder_fx+0x4de>:
    2e46:	090c           	movi.n	a9, 0

00002e48 <LC3Plus_processAriEncoder_fx+0x4e0>:
    2e48:	f5d0a0        	extui	a13, a10, 16, 16
    2e4b:	0c0c           	movi.n	a12, 0
    2e4d:	9a6d           	ae_zext16	a6, a10
    2e4f:	114380        	slli	a4, a3, 8
    2e52:	11a680        	slli	a10, a6, 8
    2e55:	a0f3f6        	bgeui	a3, 0x100, 2df9 <LC3Plus_processAriEncoder_fx+0x491>
    2e58:	043d           	mov.n	a3, a4
    2e5a:	c11c26        	beqi	a12, 1, 2e1f <LC3Plus_processAriEncoder_fx+0x4b7>
    2e5d:	beb5a7        	bgeu	a5, a10, 2e1f <LC3Plus_processAriEncoder_fx+0x4b7>
    2e60:	991b           	addi.n	a9, a9, 1
    2e62:	fff9c6        	j	2e4d <LC3Plus_processAriEncoder_fx+0x4e5>

00002e65 <LC3Plus_processAriEncoder_fx+0x4fd>:
    2e65:	833d           	ae_sext16	a3, a3
    2e67:	360c           	movi.n	a6, 3
    2e69:	4178           	l32i.n	a7, a1, 16
    2e6b:	433360        	min	a3, a3, a6
    2e6e:	113360        	slli	a3, a3, 10
    2e71:	373a           	add.n	a3, a7, a3
    2e73:	000332        	l8ui	a3, a3, 0
    2e76:	f4a9b1        	l32r	a11, 11c (10450 <LC3Plus_ari_spec_cumfreq>)
    2e79:	31f8           	l32i.n	a15, a1, 12
    2e7b:	f4a971        	l32r	a7, 120 (10454 <LC3Plus_ari_spec_freq>)
    2e7e:	0b68           	l32i.n	a6, a11, 0
    2e80:	233300        	sext	a3, a3, 7
    2e83:	11b3b0        	slli	a11, a3, 5
    2e86:	029fe2        	l16si	a14, a15, 4
    2e89:	9033b0        	addx2	a3, a3, a11
    2e8c:	0778           	l32i.n	a7, a7, 0
    2e8e:	663a           	add.n	a6, a6, a3
    2e90:	906e60        	addx2	a6, a14, a6
    2e93:	373a           	add.n	a3, a7, a3
    2e95:	466d           	ae_l16ui.n	a6, a6, 0
    2e97:	903e30        	addx2	a3, a14, a3
    2e9a:	414a40        	srli	a4, a4, 10
    2e9d:	433d           	ae_l16ui.n	a3, a3, 0
    2e9f:	826460        	mull	a6, a4, a6
    2ea2:	fb7c           	movi.n	a11, -1
    2ea4:	a6aa           	add.n	a10, a6, a10
    2ea6:	4178b0        	srli	a7, a11, 8
    2ea9:	824430        	mull	a4, a4, a3
    2eac:	f545b1        	l32r	a11, 3c0 (10640 <g_p_enc_stream>)
    2eaf:	7568a0        	extui	a6, a10, 24, 8
    2eb2:	1e0c           	movi.n	a14, 1
    2eb4:	10aa70        	and	a10, a10, a7
    2eb7:	93ce60        	movnez	a12, a14, a6
    2eba:	6e14b6        	bltui	a4, 0x10000, 2f2c <LC3Plus_processAriEncoder_fx+0x5c4>
    2ebd:	a168           	l32i.n	a6, a1, 40
    2ebf:	b178           	l32i.n	a7, a1, 44
    2ec1:	0b38           	l32i.n	a3, a11, 0
    2ec3:	668c           	beqz.n	a6, 2ecd <LC3Plus_processAriEncoder_fx+0x565>
    2ec5:	056f60        	extui	a6, a6, 31, 1
    2ec8:	111364        	ae_sbi	a3, a6, 1
    2ecb:	0b39           	s32i.n	a3, a11, 0
    2ecd:	6168           	l32i.n	a6, a1, 24
    2ecf:	91e8           	l32i.n	a14, a1, 36
    2ed1:	0b38           	l32i.n	a3, a11, 0
    2ed3:	668c           	beqz.n	a6, 2edd <LC3Plus_processAriEncoder_fx+0x575>
    2ed5:	056f60        	extui	a6, a6, 31, 1
    2ed8:	111364        	ae_sbi	a3, a6, 1
    2edb:	0b39           	s32i.n	a3, a11, 0
    2edd:	273d           	ae_l16si.n	a3, a7, 0
    2edf:	7168           	l32i.n	a6, a1, 28
    2ee1:	ff6b           	addi.n	a15, a15, 6
    2ee3:	213130        	srai	a3, a3, 1
    2ee6:	661b           	addi.n	a6, a6, 1
    2ee8:	ee8b           	addi.n	a14, a14, 8
    2eea:	02a637        	bge	a6, a3, 2ef0 <LC3Plus_processAriEncoder_fx+0x588>
    2eed:	ffa346        	j	2d7e <LC3Plus_processAriEncoder_fx+0x416>
    2ef0:	001146        	j	2f39 <LC3Plus_processAriEncoder_fx+0x5d1>

00002ef3 <LC3Plus_processAriEncoder_fx+0x58b>:
    2ef3:	8d4d           	ae_sext16	a4, a13
    2ef5:	00c496        	bltz	a4, 2f05 <LC3Plus_processAriEncoder_fx+0x59d>
    2ef8:	887d           	ae_sext16	a7, a8
    2efa:	681b           	addi.n	a6, a8, 1
    2efc:	4dca           	add.n	a4, a13, a12
    2efe:	727a           	add.n	a7, a2, a7
    2f00:	068d           	mov.n	a8, a6
    2f02:	004742        	s8i	a4, a7, 0
    2f05:	894d           	ae_sext16	a4, a9
    2f07:	1114a6        	blti	a4, 1, 2f1c <LC3Plus_processAriEncoder_fx+0x5b4>
    2f0a:	996d           	ae_zext16	a6, a9
    2f0c:	4c0b           	addi.n	a4, a12, -1
    2f0e:	088676        	loop	a6, 2f1a <LC3Plus_processAriEncoder_fx+0x5b2>
    2f11:	886d           	ae_sext16	a6, a8
    2f13:	626a           	add.n	a6, a2, a6
    2f15:	881b           	addi.n	a8, a8, 1
    2f17:	004642        	s8i	a4, a6, 0

00002f1a <LC3Plus_processAriEncoder_fx+0x5b2>:
    2f1a:	090c           	movi.n	a9, 0

00002f1c <LC3Plus_processAriEncoder_fx+0x5b4>:
    2f1c:	f5d0a0        	extui	a13, a10, 16, 16
    2f1f:	0c0c           	movi.n	a12, 0
    2f21:	9a6d           	ae_zext16	a6, a10
    2f23:	114380        	slli	a4, a3, 8
    2f26:	11a680        	slli	a10, a6, 8
    2f29:	90f3f6        	bgeui	a3, 0x100, 2ebd <LC3Plus_processAriEncoder_fx+0x555>
    2f2c:	043d           	mov.n	a3, a4
    2f2e:	c11c26        	beqi	a12, 1, 2ef3 <LC3Plus_processAriEncoder_fx+0x58b>
    2f31:	beb5a7        	bgeu	a5, a10, 2ef3 <LC3Plus_processAriEncoder_fx+0x58b>
    2f34:	991b           	addi.n	a9, a9, 1
    2f36:	fff9c6        	j	2f21 <LC3Plus_processAriEncoder_fx+0x5b9>

00002f39 <LC3Plus_processAriEncoder_fx+0x5d1>:
    2f39:	050c           	movi.n	a5, 0
    2f3b:	f522f1        	l32r	a15, 3c4 (1063c <g_p_enc_based>)
    2f3e:	3159           	s32i.n	a5, a1, 12
    2f40:	0b38           	l32i.n	a3, a11, 0
    2f42:	0f58           	l32i.n	a5, a15, 0
    2f44:	0062c4        	rur.ae_bitptr	a6
    2f47:	c03350        	sub	a3, a3, a5
    2f4a:	332b           	addi.n	a3, a3, 2
    2f4c:	113310        	slli	a3, a3, 15
    2f4f:	413c30        	srli	a3, a3, 12
    2f52:	336a           	add.n	a3, a3, a6
    2f54:	4139           	s32i.n	a3, a1, 16
    2f56:	030c           	movi.n	a3, 0
    2f58:	148c           	beqz.n	a4, 2f5d <LC3Plus_processAriEncoder_fx+0x5f5>
    2f5a:	40f430        	nsau	a3, a4
    2f5d:	8d7d           	ae_sext16	a7, a13
    2f5f:	11f9d0        	slli	a15, a9, 3
    2f62:	6b0c           	movi.n	a11, 6
    2f64:	e57c           	movi.n	a5, -2
    2f66:	a35b70        	movltz	a5, a11, a7
    2f69:	6070f0        	neg	a7, a15
    2f6c:	89ed           	ae_sext16	a14, a9
    2f6e:	0f0c           	movi.n	a15, 0
    2f70:	72bfe0        	salt	a11, a15, a14
    2f73:	c1f8           	l32i.n	a15, a1, 48
    2f75:	93b7b0        	movnez	a11, a7, a11
    2f78:	41e8           	l32i.n	a14, a1, 16
    2f7a:	7bfa           	add.n	a7, a11, a15
    2f7c:	1168d0        	slli	a6, a8, 3
    2f7f:	575a           	add.n	a5, a7, a5
    2f81:	e1f8           	l32i.n	a15, a1, 56
    2f83:	c05560        	sub	a5, a5, a6
    2f86:	c055e0        	sub	a5, a5, a14
    2f89:	c03530        	sub	a3, a5, a3
    2f8c:	7fbc           	beqz.n	a15, 2fc7 <LC3Plus_processAriEncoder_fx+0x65f>
    2f8e:	3158           	l32i.n	a5, a1, 12
    2f90:	833d           	ae_sext16	a3, a3
    2f92:	070c           	movi.n	a7, 0
    2f94:	855d           	ae_sext16	a5, a5
    2f96:	436530        	min	a6, a5, a3
    2f99:	113600        	slli	a3, a6, 16
    2f9c:	3169           	s32i.n	a6, a1, 12
    2f9e:	0213e6        	bgei	a3, 1, 2fa4 <LC3Plus_processAriEncoder_fx+0x63c>
    2fa1:	009246        	j	31ee <LC3Plus_processAriEncoder_fx+0x886>
    2fa4:	f50771        	l32r	a7, 3c0 (10640 <g_p_enc_stream>)
    2fa7:	050c           	movi.n	a5, 0
    2fa9:	5159           	s32i.n	a5, a1, 20
    2fab:	0738           	l32i.n	a3, a7, 0
    2fad:	8158           	l32i.n	a5, a1, 32
    2faf:	088676        	loop	a6, 2fbb <LC3Plus_processAriEncoder_fx+0x653>
    2fb2:	456d           	ae_l16ui.n	a6, a5, 0
    2fb4:	552b           	addi.n	a5, a5, 2
    2fb6:	111364        	ae_sbi	a3, a6, 1
    2fb9:	0739           	s32i.n	a3, a7, 0

00002fbb <LC3Plus_processAriEncoder_fx+0x653>:
    2fbb:	05b416        	beqz	a4, 301a <LC3Plus_processAriEncoder_fx+0x6b2>
    2fbe:	40f430        	nsau	a3, a4
    2fc1:	f9c352        	addi	a5, a3, -7
    2fc4:	0015c6        	j	301f <LC3Plus_processAriEncoder_fx+0x6b7>

00002fc7 <LC3Plus_processAriEncoder_fx+0x65f>:
    2fc7:	1e2152        	l32i	a5, a1, 120
    2fca:	833d           	ae_sext16	a3, a3
    2fcc:	d168           	l32i.n	a6, a1, 52
    2fce:	433530        	min	a3, a5, a3
    2fd1:	f4fb51        	l32r	a5, 3c0 (10640 <g_p_enc_stream>)
    2fd4:	5139           	s32i.n	a3, a1, 20
    2fd6:	113300        	slli	a3, a3, 16
    2fd9:	de13a6        	blti	a3, 1, 2fbb <LC3Plus_processAriEncoder_fx+0x653>
    2fdc:	5168           	l32i.n	a6, a1, 20
    2fde:	1d2132        	l32i	a3, a1, 116
    2fe1:	0558           	l32i.n	a5, a5, 0
    2fe3:	1e0c           	movi.n	a14, 1
    2fe5:	866d           	ae_sext16	a6, a6
    2fe7:	070c           	movi.n	a7, 0
    2fe9:	11ee00        	slli	a14, a14, 16
    2fec:	0f0c           	movi.n	a15, 0
    2fee:	258676        	loop	a6, 3017 <LC3Plus_processAriEncoder_fx+0x6af>
    2ff1:	8f6d           	ae_sext16	a6, a15
    2ff3:	216360        	srai	a6, a6, 3
    2ff6:	24b0f0        	extui	a11, a15, 0, 3
    2ff9:	636a           	add.n	a6, a3, a6
    2ffb:	401b00        	ssl	a11
    2ffe:	000662        	l8ui	a6, a6, 0
    3001:	a1be00        	sll	a11, a14
    3004:	f5b0b0        	extui	a11, a11, 16, 16
    3007:	106b60        	and	a6, a11, a6
    300a:	626760        	saltu	a6, a7, a6
    300d:	f4ecb1        	l32r	a11, 3c0 (10640 <g_p_enc_stream>)
    3010:	111564        	ae_sbi	a5, a6, 1
    3013:	ff1b           	addi.n	a15, a15, 1
    3015:	0b59           	s32i.n	a5, a11, 0

00003017 <LC3Plus_processAriEncoder_fx+0x6af>:
    3017:	ffe806        	j	2fbb <LC3Plus_processAriEncoder_fx+0x653>

0000301a <LC3Plus_processAriEncoder_fx+0x6b2>:
    301a:	957c           	movi.n	a5, -7
    301c:	f45050        	extui	a5, a5, 0, 16
    301f:	f37c           	movi.n	a3, -1
    3021:	413830        	srli	a3, a3, 8
    3024:	400500        	ssr	a5
    3027:	116a80        	slli	a6, a10, 8
    302a:	114480        	slli	a4, a4, 8
    302d:	917030        	srl	a7, a3
    3030:	e64a           	add.n	a14, a6, a4
    3032:	114780        	slli	a4, a7, 8
    3035:	62fe60        	saltu	a15, a14, a6
    3038:	646a           	add.n	a6, a4, a6
    303a:	624640        	saltu	a4, a6, a4
    303d:	1b0c           	movi.n	a11, 1
    303f:	30b4b0        	xor	a11, a4, a11
    3042:	304730        	xor	a4, a7, a3
    3045:	416860        	srli	a6, a6, 8
    3048:	104640        	and	a4, a6, a4
    304b:	1c1fb7        	beq	a15, a11, 306b <LC3Plus_processAriEncoder_fx+0x703>
    304e:	4168e0        	srli	a6, a14, 8
    3051:	b47a           	add.n	a11, a4, a7
    3053:	0c3b67        	bltu	a11, a6, 3063 <LC3Plus_processAriEncoder_fx+0x6fb>
    3056:	414170        	srli	a4, a7, 1
    3059:	64aa           	add.n	a6, a4, a10
    305b:	303430        	xor	a3, a4, a3
    305e:	551b           	addi.n	a5, a5, 1
    3060:	104360        	and	a4, a3, a6
    3063:	6234a0        	saltu	a3, a4, a10
    3066:	160c           	movi.n	a6, 1
    3068:	93c630        	movnez	a12, a6, a3
    306b:	853d           	ae_sext16	a3, a5
    306d:	5813a6        	blti	a3, 1, 30c9 <LC3Plus_processAriEncoder_fx+0x761>
    3070:	f4d3f1        	l32r	a15, 3bc (feffff <_end+0xfdf9bb>)
    3073:	95ed           	ae_zext16	a14, a5
    3075:	a50b           	addi.n	a10, a5, -1
    3077:	000e06        	j	30b3 <LC3Plus_processAriEncoder_fx+0x74b>

0000307a <LC3Plus_processAriEncoder_fx+0x712>:
    307a:	8d3d           	ae_sext16	a3, a13
    307c:	00c396        	bltz	a3, 308c <LC3Plus_processAriEncoder_fx+0x724>
    307f:	887d           	ae_sext16	a7, a8
    3081:	681b           	addi.n	a6, a8, 1
    3083:	3dca           	add.n	a3, a13, a12
    3085:	727a           	add.n	a7, a2, a7
    3087:	068d           	mov.n	a8, a6
    3089:	004732        	s8i	a3, a7, 0
    308c:	893d           	ae_sext16	a3, a9
    308e:	1113a6        	blti	a3, 1, 30a3 <LC3Plus_processAriEncoder_fx+0x73b>
    3091:	996d           	ae_zext16	a6, a9
    3093:	3c0b           	addi.n	a3, a12, -1
    3095:	088676        	loop	a6, 30a1 <LC3Plus_processAriEncoder_fx+0x739>
    3098:	886d           	ae_sext16	a6, a8
    309a:	626a           	add.n	a6, a2, a6
    309c:	881b           	addi.n	a8, a8, 1
    309e:	004632        	s8i	a3, a6, 0

000030a1 <LC3Plus_processAriEncoder_fx+0x739>:
    30a1:	090c           	movi.n	a9, 0

000030a3 <LC3Plus_processAriEncoder_fx+0x73b>:
    30a3:	f5d040        	extui	a13, a4, 16, 16
    30a6:	0c0c           	movi.n	a12, 0
    30a8:	943d           	ae_zext16	a3, a4
    30aa:	f8cee2        	addi	a14, a14, -8
    30ad:	114380        	slli	a4, a3, 8
    30b0:	0a1ea6        	blti	a14, 1, 30be <LC3Plus_processAriEncoder_fx+0x756>
    30b3:	c31c26        	beqi	a12, 1, 307a <LC3Plus_processAriEncoder_fx+0x712>
    30b6:	c0bf47        	bgeu	a15, a4, 307a <LC3Plus_processAriEncoder_fx+0x712>
    30b9:	991b           	addi.n	a9, a9, 1
    30bb:	fffa46        	j	30a8 <LC3Plus_processAriEncoder_fx+0x740>

000030be <LC3Plus_processAriEncoder_fx+0x756>:
    30be:	837c           	movi.n	a3, -8
    30c0:	103a30        	and	a3, a10, a3
    30c3:	c03530        	sub	a3, a5, a3
    30c6:	f8c352        	addi	a5, a3, -8
    30c9:	893d           	ae_sext16	a3, a9
    30cb:	458b           	addi.n	a4, a5, 8
    30cd:	6313a6        	blti	a3, 1, 3134 <LC3Plus_processAriEncoder_fx+0x7cc>
    30d0:	883d           	ae_sext16	a3, a8
    30d2:	c1c8           	l32i.n	a12, a1, 48
    30d4:	81b8           	l32i.n	a11, a1, 32
    30d6:	31e8           	l32i.n	a14, a1, 12
    30d8:	a81b           	addi.n	a10, a8, 1
    30da:	323a           	add.n	a3, a2, a3
    30dc:	998d           	ae_zext16	a8, a9
    30de:	0043d2        	s8i	a13, a3, 0
    30e1:	8a3d           	ae_sext16	a3, a10
    30e3:	141826        	beqi	a8, 1, 30fb <LC3Plus_processAriEncoder_fx+0x793>
    30e6:	680b           	addi.n	a6, a8, -1
    30e8:	ffa072        	movi	a7, 255
    30eb:	8a1b           	addi.n	a8, a10, 1
    30ed:	088676        	loop	a6, 30f9 <LC3Plus_processAriEncoder_fx+0x791>
    30f0:	623a           	add.n	a6, a2, a3
    30f2:	883d           	ae_sext16	a3, a8
    30f4:	881b           	addi.n	a8, a8, 1
    30f6:	004672        	s8i	a7, a6, 0

000030f9 <LC3Plus_processAriEncoder_fx+0x791>:
    30f9:	a80b           	addi.n	a10, a8, -1

000030fb <LC3Plus_processAriEncoder_fx+0x793>:
    30fb:	323a           	add.n	a3, a2, a3
    30fd:	60f050        	neg	a15, a5
    3100:	000372        	l8ui	a7, a3, 0
    3103:	856d           	ae_sext16	a6, a5
    3105:	ffa082        	movi	a8, 255
    3108:	400f00        	ssr	a15
    310b:	997c           	movi.n	a9, -7
    310d:	915080        	srl	a5, a8
    3110:	1a2697        	blt	a6, a9, 312e <LC3Plus_processAriEncoder_fx+0x7c6>
    3113:	846d           	ae_sext16	a6, a4
    3115:	80a092        	movi	a9, 128
    3118:	080c           	movi.n	a8, 0
    311a:	108676        	loop	a6, 312e <LC3Plus_processAriEncoder_fx+0x7c6>
    311d:	106950        	and	a6, a9, a5
    3120:	207970        	or	a7, a9, a7
    3123:	41d190        	srli	a13, a9, 1
    3126:	939860        	movnez	a9, a8, a6
    3129:	c07790        	sub	a7, a7, a9
    312c:	0d9d           	mov.n	a9, a13

0000312e <LC3Plus_processAriEncoder_fx+0x7c6>:
    312e:	004372        	s8i	a7, a3, 0
    3131:	000cc6        	j	3168 <LC3Plus_processAriEncoder_fx+0x800>

00003134 <LC3Plus_processAriEncoder_fx+0x7cc>:
    3134:	883d           	ae_sext16	a3, a8
    3136:	323a           	add.n	a3, a2, a3
    3138:	856d           	ae_sext16	a6, a5
    313a:	000352        	l8ui	a5, a3, 0
    313d:	c1c8           	l32i.n	a12, a1, 48
    313f:	31e8           	l32i.n	a14, a1, 12
    3141:	977c           	movi.n	a7, -7
    3143:	1a2677        	blt	a6, a7, 3161 <LC3Plus_processAriEncoder_fx+0x7f9>
    3146:	846d           	ae_sext16	a6, a4
    3148:	80a092        	movi	a9, 128
    314b:	070c           	movi.n	a7, 0
    314d:	108676        	loop	a6, 3161 <LC3Plus_processAriEncoder_fx+0x7f9>
    3150:	1069d0        	and	a6, a9, a13
    3153:	205950        	or	a5, a9, a5
    3156:	41a190        	srli	a10, a9, 1
    3159:	939760        	movnez	a9, a7, a6
    315c:	c05590        	sub	a5, a5, a9
    315f:	0a9d           	mov.n	a9, a10

00003161 <LC3Plus_processAriEncoder_fx+0x7f9>:
    3161:	81b8           	l32i.n	a11, a1, 32
    3163:	08ad           	mov.n	a10, a8
    3165:	004352        	s8i	a5, a3, 0

00003168 <LC3Plus_processAriEncoder_fx+0x800>:
    3168:	f49751        	l32r	a5, 3c4 (1063c <g_p_enc_based>)
    316b:	f49561        	l32r	a6, 3c0 (10640 <g_p_enc_stream>)
    316e:	3c0b           	addi.n	a3, a12, -1
    3170:	0558           	l32i.n	a5, a5, 0
    3172:	0668           	l32i.n	a6, a6, 0
    3174:	833d           	ae_sext16	a3, a3
    3176:	213330        	srai	a3, a3, 3
    3179:	c0f650        	sub	a15, a6, a5
    317c:	223a           	add.n	a2, a2, a3
    317e:	02cf32        	addi	a3, a15, 2
    3181:	117310        	slli	a7, a3, 15
    3184:	f43631        	l32r	a3, 25c (10590 <LC3Plus_BitReverseTable256>)
    3187:	1617a6        	blti	a7, 1, 31a1 <LC3Plus_processAriEncoder_fx+0x839>
    318a:	216f70        	srai	a6, a7, 15
    318d:	108676        	loop	a6, 31a1 <LC3Plus_processAriEncoder_fx+0x839>
    3190:	000572        	l8ui	a7, a5, 0
    3193:	0368           	l32i.n	a6, a3, 0
    3195:	551b           	addi.n	a5, a5, 1
    3197:	667a           	add.n	a6, a6, a7
    3199:	000662        	l8ui	a6, a6, 0
    319c:	004262        	s8i	a6, a2, 0
    319f:	220b           	addi.n	a2, a2, -1

000031a1 <LC3Plus_processAriEncoder_fx+0x839>:
    31a1:	0072c4        	rur.ae_bitptr	a7
    31a4:	0368           	l32i.n	a6, a3, 0
    31a6:	e35f10        	rur.ae_bithead	a5
    31a9:	37ac           	beqz.n	a7, 31d0 <LC3Plus_processAriEncoder_fx+0x868>
    31ab:	758850        	extui	a8, a5, 24, 8
    31ae:	668a           	add.n	a6, a6, a8
    31b0:	000682        	l8ui	a8, a6, 0
    31b3:	990c           	movi.n	a9, 9
    31b5:	0e3797        	bltu	a7, a9, 31c7 <LC3Plus_processAriEncoder_fx+0x85f>
    31b8:	004282        	s8i	a8, a2, 0
    31bb:	0338           	l32i.n	a3, a3, 0
    31bd:	755050        	extui	a5, a5, 16, 8
    31c0:	220b           	addi.n	a2, a2, -1
    31c2:	335a           	add.n	a3, a3, a5
    31c4:	000382        	l8ui	a8, a3, 0

000031c7 <LC3Plus_processAriEncoder_fx+0x85f>:
    31c7:	000232        	l8ui	a3, a2, 0
    31ca:	203380        	or	a3, a3, a8
    31cd:	004232        	s8i	a3, a2, 0
    31d0:	4128           	l32i.n	a2, a1, 16
    31d2:	5138           	l32i.n	a3, a1, 20
    31d4:	224a           	add.n	a2, a2, a4
    31d6:	c03c30        	sub	a3, a12, a3
    31d9:	b02a20        	addx8	a2, a10, a2
    31dc:	c033e0        	sub	a3, a3, a14
    31df:	c02320        	sub	a2, a3, a2
    31e2:	f47531        	l32r	a3, 3b8 (ebdc <LC3Plus_lc3_scratch_pop>)
    31e5:	f1a8           	l32i.n	a10, a1, 60
    31e7:	0003e0        	callx8	a3
    31ea:	822d           	ae_sext16	a2, a2
    31ec:	f01d           	retw.n

000031ee <LC3Plus_processAriEncoder_fx+0x886>:
    31ee:	5179           	s32i.n	a7, a1, 20
    31f0:	ff71c6        	j	2fbb <LC3Plus_processAriEncoder_fx+0x653>

000031f3 <LC3Plus_processAriEncoder_fx+0x88b>:
	...

000031f4 <LC3Plus_processAriDecoder_fx>:
    31f4:	012136        	entry	a1, 144
    31f7:	a159           	s32i.n	a5, a1, 40
    31f9:	332152        	l32i	a5, a1, 204
    31fc:	1179           	s32i.n	a7, a1, 4
    31fe:	037d           	mov.n	a7, a3
    3200:	f46c31        	l32r	a3, 3b0 (eb9c <LC3Plus_lc3_scratch_push>)
    3203:	11b6f0        	slli	a11, a6, 1
    3206:	05ad           	mov.n	a10, a5
    3208:	0003e0        	callx8	a3
    320b:	6538           	l32i.n	a3, a5, 24
    320d:	0abd           	mov.n	a11, a10
    320f:	f46a41        	l32r	a4, 3b8 (ebdc <LC3Plus_lc3_scratch_pop>)
    3212:	538c           	beqz.n	a3, 321b <LC3Plus_processAriDecoder_fx+0x27>
    3214:	05ad           	mov.n	a10, a5
    3216:	042d           	mov.n	a2, a4
    3218:	014746        	j	3739 <LC3Plus_processAriDecoder_fx+0x545>

0000321b <LC3Plus_processAriDecoder_fx+0x27>:
    321b:	116152        	s32i	a5, a1, 68
    321e:	3421f2        	l32i	a15, a1, 208
    3221:	1158           	l32i.n	a5, a1, 4
    3223:	631c           	movi.n	a3, 22
    3225:	0e0c           	movi.n	a14, 0
    3227:	8169           	s32i.n	a6, a1, 32
    3229:	c179           	s32i.n	a7, a1, 48
    322b:	e60c           	movi.n	a6, 14
    322d:	b139           	s32i.n	a3, a1, 44
    322f:	0d0c           	movi.n	a13, 0
    3231:	8f0b           	addi.n	a8, a15, -1
    3233:	1561e2        	s32i	a14, a1, 84
    3236:	185526        	beqi	a5, 5, 3252 <LC3Plus_processAriDecoder_fx+0x5e>
    3239:	60af32        	movi	a3, -160
    323c:	a178           	l32i.n	a7, a1, 40
    323e:	d15530        	mul16s	a5, a5, a3
    3241:	0e0c           	movi.n	a14, 0
    3243:	575a           	add.n	a5, a7, a5
    3245:	353a           	add.n	a3, a5, a3
    3247:	833d           	ae_sext16	a3, a3
    3249:	723e30        	salt	a3, a14, a3
    324c:	113370        	slli	a3, a3, 9
    324f:	156132        	s32i	a3, a1, 84
    3252:	b148           	l32i.n	a4, a1, 44
    3254:	f45d71        	l32r	a7, 3c8 (10634 <g_p_dec_stream>)
    3257:	0092c4        	rur.ae_bitptr	a9
    325a:	934680        	movnez	a4, a6, a8
    325d:	f45b61        	l32r	a6, 3cc (10638 <g_p_dec_based>)
    3260:	2d21e2        	l32i	a14, a1, 180
    3263:	322132        	l32i	a3, a1, 200
    3266:	1361e2        	s32i	a14, a1, 76
    3269:	7e0c           	movi.n	a14, 7
    326b:	0778           	l32i.n	a7, a7, 0
    326d:	0688           	l32i.n	a8, a6, 0
    326f:	e139           	s32i.n	a3, a1, 56
    3271:	623e90        	saltu	a3, a14, a9
    3274:	a198           	l32i.n	a9, a1, 40
    3276:	b149           	s32i.n	a4, a1, 44
    3278:	e47c           	movi.n	a4, -2
    327a:	f46040        	extui	a6, a4, 0, 16
    327d:	c07780        	sub	a7, a7, a8
    3280:	106760        	and	a6, a7, a6
    3283:	217390        	srai	a7, a9, 3
    3286:	771b           	addi.n	a7, a7, 1
    3288:	292142        	l32i	a4, a1, 164
    328b:	272192        	l32i	a9, a1, 156
    328e:	c03730        	sub	a3, a7, a3
    3291:	3121a2        	l32i	a10, a1, 196
    3294:	3021c2        	l32i	a12, a1, 192
    3297:	1a6142        	s32i	a4, a1, 104
    329a:	126192        	s32i	a9, a1, 72
    329d:	262142        	l32i	a4, a1, 152
    32a0:	c198           	l32i.n	a9, a1, 48
    32a2:	c03360        	sub	a3, a3, a6
    32a5:	41a9           	s32i.n	a10, a1, 16
    32a7:	1461c2        	s32i	a12, a1, 80
    32aa:	282182        	l32i	a8, a1, 160
    32ad:	f149           	s32i.n	a4, a1, 60
    32af:	2f21c2        	l32i	a12, a1, 188
    32b2:	2e21a2        	l32i	a10, a1, 184
    32b5:	2c2152        	l32i	a5, a1, 176
    32b8:	2b21e2        	l32i	a14, a1, 172
    32bb:	2a2162        	l32i	a6, a1, 168
    32be:	242142        	l32i	a4, a1, 144
    32c1:	196172        	s32i	a7, a1, 100
    32c4:	1b6182        	s32i	a8, a1, 108
    32c7:	252182        	l32i	a8, a1, 148
    32ca:	370c           	movi.n	a7, 3
    32cc:	693d           	ae_s16i.n	a3, a9, 0
    32ce:	023d           	mov.n	a3, a2
    32d0:	2189           	s32i.n	a8, a1, 8
    32d2:	098776        	loop	a7, 32df <LC3Plus_processAriDecoder_fx+0xeb>
    32d5:	000372        	l8ui	a7, a3, 0
    32d8:	118d80        	slli	a8, a13, 8
    32db:	331b           	addi.n	a3, a3, 1
    32dd:	d87a           	add.n	a13, a8, a7

000032df <LC3Plus_processAriDecoder_fx+0xeb>:
    32df:	e7c532        	addi	a3, a5, -25
    32e2:	cec552        	addi	a5, a5, -50
    32e5:	190c           	movi.n	a9, 1
    32e7:	625590        	saltu	a5, a5, a9
    32ea:	51a9           	s32i.n	a10, a1, 20
    32ec:	870c           	movi.n	a7, 8
    32ee:	480c           	movi.n	a8, 4
    32f0:	21a8           	l32i.n	a10, a1, 8
    32f2:	400500        	ssr	a5
    32f5:	837830        	moveqz	a7, a8, a3
    32f8:	913070        	srl	a3, a7
    32fb:	9139           	s32i.n	a3, a1, 36
    32fd:	61b9           	s32i.n	a11, a1, 24
    32ff:	d1c9           	s32i.n	a12, a1, 52
    3301:	1661e2        	s32i	a14, a1, 88
    3304:	176162        	s32i	a6, a1, 92
    3307:	1861f2        	s32i	a15, a1, 96
    330a:	021ae6        	bgei	a10, 1, 3310 <LC3Plus_processAriDecoder_fx+0x11c>
    330d:	0068c6        	j	34b4 <LC3Plus_processAriDecoder_fx+0x2c0>
    3310:	f37e31        	l32r	a3, 108 (1043c <LC3Plus_ac_tns_order_cumfreq>)
    3313:	f37c71        	l32r	a7, 104 (10438 <LC3Plus_ac_tns_order_freq>)
    3316:	1154c0        	slli	a5, a4, 4
    3319:	0338           	l32i.n	a3, a3, 0
    331b:	0778           	l32i.n	a7, a7, 0
    331d:	1a2192        	l32i	a9, a1, 104
    3320:	335a           	add.n	a3, a3, a5
    3322:	fc7c           	movi.n	a12, -1
    3324:	0f0c           	movi.n	a15, 0
    3326:	575a           	add.n	a5, a7, a5
    3328:	7139           	s32i.n	a3, a1, 28
    332a:	338b           	addi.n	a3, a3, 8
    332c:	11f9           	s32i.n	a15, a1, 4
    332e:	41c8c0        	srli	a12, a12, 8
    3331:	340c           	movi.n	a4, 3
    3333:	3159           	s32i.n	a5, a1, 12
    3335:	106132        	s32i	a3, a1, 64

00003338 <LC3Plus_processAriDecoder_fx+0x144>:
    3338:	293d           	ae_l16si.n	a3, a9, 0
    333a:	102172        	l32i	a7, a1, 64
    333d:	415ac0        	srli	a5, a12, 10
    3340:	0213e6        	bgei	a3, 1, 3346 <LC3Plus_processAriDecoder_fx+0x152>
    3343:	005406        	j	3497 <LC3Plus_processAriDecoder_fx+0x2a3>
    3346:	160c           	movi.n	a6, 1
    3348:	273d           	ae_l16si.n	a3, a7, 0
    334a:	71f8           	l32i.n	a15, a1, 28
    334c:	2e0c           	movi.n	a14, 2
    334e:	823530        	mull	a3, a5, a3
    3351:	623d30        	saltu	a3, a13, a3
    3354:	303360        	xor	a3, a3, a6
    3357:	a083e0        	addx4	a8, a3, a14
    335a:	9078f0        	addx2	a7, a8, a15
    335d:	277d           	ae_l16si.n	a7, a7, 0
    335f:	82a570        	mull	a10, a5, a7
    3362:	1173e0        	slli	a7, a3, 2
    3365:	62bda0        	saltu	a11, a13, a10
    3368:	8378b0        	moveqz	a7, a8, a11
    336b:	371b           	addi.n	a3, a7, 1
    336d:	90e3f0        	addx2	a14, a3, a15
    3370:	2e8d           	ae_l16si.n	a8, a14, 0
    3372:	91f8           	l32i.n	a15, a1, 36
    3374:	00ac62        	movi	a6, 0xfffffc00
    3377:	828580        	mull	a8, a5, a8
    337a:	10bc60        	and	a11, a12, a6
    337d:	628d80        	saltu	a8, a13, a8
    3380:	837380        	moveqz	a7, a3, a8
    3383:	371b           	addi.n	a3, a7, 1
    3385:	693d           	ae_s16i.n	a3, a9, 0
    3387:	0227f7        	blt	a7, a15, 338d <LC3Plus_processAriDecoder_fx+0x199>
    338a:	00e706        	j	372a <LC3Plus_processAriDecoder_fx+0x536>
    338d:	7168           	l32i.n	a6, a1, 28
    338f:	31c8           	l32i.n	a12, a1, 12
    3391:	908760        	addx2	a8, a7, a6
    3394:	90e7c0        	addx2	a14, a7, a12
    3397:	288d           	ae_l16si.n	a8, a8, 0
    3399:	2ead           	ae_l16si.n	a10, a14, 0
    339b:	627db0        	saltu	a7, a13, a11
    339e:	82f580        	mull	a15, a5, a8
    33a1:	82c5a0        	mull	a12, a5, a10
    33a4:	c0ddf0        	sub	a13, a13, a15
    33a7:	171cf6        	bgeui	a12, 0x10000, 33c2 <LC3Plus_processAriDecoder_fx+0x1ce>
    33aa:	0d5d           	mov.n	a5, a13
    33ac:	843d           	ae_sext16	a3, a4
    33ae:	323a           	add.n	a3, a2, a3
    33b0:	0003d2        	l8ui	a13, a3, 0
    33b3:	0cfd           	mov.n	a15, a12
    33b5:	441b           	addi.n	a4, a4, 1
    33b7:	8af5d0        	depbits	a13, a5, 8, 16
    33ba:	11cc80        	slli	a12, a12, 8
    33bd:	0d5d           	mov.n	a5, a13
    33bf:	e9ffb6        	bltui	a15, 0x100, 33ac <LC3Plus_processAriDecoder_fx+0x1b8>
    33c2:	f353b1        	l32r	a11, 110 (10444 <LC3Plus_ac_tns_coef_cumfreq>)
    33c5:	1138           	l32i.n	a3, a1, 4
    33c7:	f351e1        	l32r	a14, 10c (10440 <LC3Plus_ac_tns_coef_freq>)
    33ca:	150c           	movi.n	a5, 1
    33cc:	833570        	moveqz	a3, a5, a7
    33cf:	0e58           	l32i.n	a5, a14, 0
    33d1:	0bf8           	l32i.n	a15, a11, 0
    33d3:	41e8           	l32i.n	a14, a1, 16
    33d5:	c168           	l32i.n	a6, a1, 48
    33d7:	0a0c           	movi.n	a10, 0
    33d9:	1139           	s32i.n	a3, a1, 4
    33db:	263d           	ae_l16si.n	a3, a6, 0
    33dd:	847d           	ae_sext16	a7, a4
    33df:	160c           	movi.n	a6, 1
    33e1:	02a377        	bge	a3, a7, 33e7 <LC3Plus_processAriDecoder_fx+0x1f3>
    33e4:	00d086        	j	372a <LC3Plus_processAriDecoder_fx+0x536>
    33e7:	089f32        	l16si	a3, a15, 16
    33ea:	417ac0        	srli	a7, a12, 10
    33ed:	4b0c           	movi.n	a11, 4
    33ef:	823730        	mull	a3, a7, a3
    33f2:	623d30        	saltu	a3, a13, a3
    33f5:	303360        	xor	a3, a3, a6
    33f8:	b0b3b0        	addx8	a11, a3, a11
    33fb:	908bf0        	addx2	a8, a11, a15
    33fe:	288d           	ae_l16si.n	a8, a8, 0
    3400:	826780        	mull	a6, a7, a8
    3403:	1183d0        	slli	a8, a3, 3
    3406:	626d60        	saltu	a6, a13, a6
    3409:	838b60        	moveqz	a8, a11, a6
    340c:	382b           	addi.n	a3, a8, 2
    340e:	90b3f0        	addx2	a11, a3, a15
    3411:	2b6d           	ae_l16si.n	a6, a11, 0
    3413:	826760        	mull	a6, a7, a6
    3416:	626d60        	saltu	a6, a13, a6
    3419:	838360        	moveqz	a8, a3, a6
    341c:	381b           	addi.n	a3, a8, 1
    341e:	90b3f0        	addx2	a11, a3, a15
    3421:	2b6d           	ae_l16si.n	a6, a11, 0
    3423:	fb0c           	movi.n	a11, 15
    3425:	826760        	mull	a6, a7, a6
    3428:	243d67        	bltu	a13, a6, 3450 <LC3Plus_processAriDecoder_fx+0x25c>
    342b:	038d           	mov.n	a8, a3
    342d:	1f93b7        	bne	a3, a11, 3450 <LC3Plus_processAriDecoder_fx+0x25c>
    3430:	109f32        	l16si	a3, a15, 32
    3433:	00ac62        	movi	a6, 0xfffffc00
    3436:	1188           	l32i.n	a8, a1, 4
    3438:	106c60        	and	a6, a12, a6
    343b:	823730        	mull	a3, a7, a3
    343e:	626d60        	saltu	a6, a13, a6
    3441:	1b0c           	movi.n	a11, 1
    3443:	838b60        	moveqz	a8, a11, a6
    3446:	623d30        	saltu	a3, a13, a3
    3449:	0c1c           	movi.n	a12, 16
    344b:	1189           	s32i.n	a8, a1, 4
    344d:	c08c30        	sub	a8, a12, a3
    3450:	983d           	ae_zext16	a3, a8
    3452:	1133f0        	slli	a3, a3, 1
    3455:	6f3a           	add.n	a6, a15, a3
    3457:	6e8d           	ae_s16i.n	a8, a14, 0
    3459:	353a           	add.n	a3, a5, a3
    345b:	266d           	ae_l16si.n	a6, a6, 0
    345d:	233d           	ae_l16si.n	a3, a3, 0
    345f:	826760        	mull	a6, a7, a6
    3462:	82c730        	mull	a12, a7, a3
    3465:	c0dd60        	sub	a13, a13, a6
    3468:	171cf6        	bgeui	a12, 0x10000, 3483 <LC3Plus_processAriDecoder_fx+0x28f>
    346b:	0d7d           	mov.n	a7, a13
    346d:	843d           	ae_sext16	a3, a4
    346f:	323a           	add.n	a3, a2, a3
    3471:	0003d2        	l8ui	a13, a3, 0
    3474:	0cbd           	mov.n	a11, a12
    3476:	441b           	addi.n	a4, a4, 1
    3478:	8af7d0        	depbits	a13, a7, 8, 16
    347b:	11cc80        	slli	a12, a12, 8
    347e:	0d7d           	mov.n	a7, a13
    3480:	e9fbb6        	bltui	a11, 0x100, 346d <LC3Plus_processAriDecoder_fx+0x279>
    3483:	293d           	ae_l16si.n	a3, a9, 0
    3485:	c168           	l32i.n	a6, a1, 48
    3487:	aa1b           	addi.n	a10, a10, 1
    3489:	22cff2        	addi	a15, a15, 34
    348c:	22c552        	addi	a5, a5, 34
    348f:	ee2b           	addi.n	a14, a14, 2
    3491:	02aa37        	bge	a10, a3, 3497 <LC3Plus_processAriDecoder_fx+0x2a3>
    3494:	ffd0c6        	j	33db <LC3Plus_processAriDecoder_fx+0x1e7>
    3497:	4138           	l32i.n	a3, a1, 16
    3499:	21f8           	l32i.n	a15, a1, 8
    349b:	992b           	addi.n	a9, a9, 2
    349d:	10c332        	addi	a3, a3, 16
    34a0:	4139           	s32i.n	a3, a1, 16
    34a2:	3f0b           	addi.n	a3, a15, -1
    34a4:	2139           	s32i.n	a3, a1, 8
    34a6:	e8e356        	bnez	a3, 3338 <LC3Plus_processAriDecoder_fx+0x144>
    34a9:	1138           	l32i.n	a3, a1, 4
    34ab:	0213a6        	blti	a3, 1, 34b1 <LC3Plus_processAriDecoder_fx+0x2bd>
    34ae:	009e06        	j	372a <LC3Plus_processAriDecoder_fx+0x536>
    34b1:	000286        	j	34bf <LC3Plus_processAriDecoder_fx+0x2cb>

000034b4 <LC3Plus_processAriDecoder_fx+0x2c0>:
    34b4:	fc7c           	movi.n	a12, -1
    34b6:	030c           	movi.n	a3, 0
    34b8:	41c8c0        	srli	a12, a12, 8
    34bb:	340c           	movi.n	a4, 3
    34bd:	1139           	s32i.n	a3, a1, 4
    34bf:	8138           	l32i.n	a3, a1, 32
    34c1:	1221f2        	l32i	a15, a1, 72
    34c4:	fc208000ef 	{ movi	a14, 0; ae_zerop48	aep0 }
    34c9:	213130        	srai	a3, a3, 1
    34cc:	0a0c           	movi.n	a10, 0
    34ce:	9139           	s32i.n	a3, a1, 36
    34d0:	31e9           	s32i.n	a14, a1, 12
    34d2:	021fe6        	bgei	a15, 1, 34d8 <LC3Plus_processAriDecoder_fx+0x2e4>
    34d5:	009946        	j	373e <LC3Plus_processAriDecoder_fx+0x54a>
    34d8:	f36331        	l32r	a3, 264 (10598 <LC3Plus_Bit_Shft>)
    34db:	5168           	l32i.n	a6, a1, 20
    34dd:	f36251        	l32r	a5, 268 (1059c <LC3Plus_AB_Shft>)
    34e0:	0378           	l32i.n	a7, a3, 0
    34e2:	f8c662        	addi	a6, a6, -8
    34e5:	0a0c           	movi.n	a10, 0
    34e7:	0b0c           	movi.n	a11, 0
    34e9:	05f8           	l32i.n	a15, a5, 0
    34eb:	41a9           	s32i.n	a10, a1, 16
    34ed:	2169           	s32i.n	a6, a1, 8
    34ef:	61a1e2        	movi	a14, 0x161
    34f2:	31b9           	s32i.n	a11, a1, 12
    34f4:	1061f2        	s32i	a15, a1, 64
    34f7:	080c           	movi.n	a8, 0
    34f9:	0a0c           	movi.n	a10, 0
    34fb:	001f46        	j	357c <LC3Plus_processAriDecoder_fx+0x388>

000034fe <LC3Plus_processAriDecoder_fx+0x30a>:
    34fe:	b138           	l32i.n	a3, a1, 44
    3500:	f158           	l32i.n	a5, a1, 60
    3502:	3198           	l32i.n	a9, a1, 12
    3504:	029387        	bne	a3, a8, 350a <LC3Plus_processAriDecoder_fx+0x316>
    3507:	0087c6        	j	372a <LC3Plus_processAriDecoder_fx+0x536>
    350a:	0e1566        	bnei	a5, 1, 351c <LC3Plus_processAriDecoder_fx+0x328>
    350d:	6168           	l32i.n	a6, a1, 24
    350f:	71f8           	l32i.n	a15, a1, 28
    3511:	391b           	addi.n	a3, a9, 1
    3513:	895d           	ae_sext16	a5, a9
    3515:	905560        	addx2	a5, a5, a6
    3518:	3139           	s32i.n	a3, a1, 12
    351a:	65fd           	ae_s16i.n	a15, a5, 0
    351c:	102152        	l32i	a5, a1, 64
    351f:	113ed0        	slli	a3, a14, 3
    3522:	031684        	wur.ae_sar	a8
    3525:	552534        	ae_lp24x2.x	aep2, a5, a3
    3528:	f92bb021ae 	{ l32i	a10, a1, 8; ae_sllssp24s	aep2, aep2 }
    352d:	079214        	ae_addsp24s	aep1, aep1, aep2
    3530:	f3a661        	l32r	a6, 3c8 (10634 <g_p_dec_stream>)
    3533:	569a14        	ae_sp24x2s.iu	aep1, a10, 8
    3536:	0af8           	l32i.n	a15, a10, 0
    3538:	035f14        	ae_lbi	a5, 1
    353b:	0638           	l32i.n	a3, a6, 0
    353d:	0e1fa6        	blti	a15, 1, 354f <LC3Plus_processAriDecoder_fx+0x35b>
    3540:	0013f4        	ae_dbi	a3, 1
    3543:	0639           	s32i.n	a3, a6, 0
    3545:	061566        	bnei	a5, 1, 354f <LC3Plus_processAriDecoder_fx+0x35b>
    3548:	0a38           	l32i.n	a3, a10, 0
    354a:	603030        	neg	a3, a3
    354d:	0a39           	s32i.n	a3, a10, 0
    354f:	1a38           	l32i.n	a3, a10, 4
    3551:	21a9           	s32i.n	a10, a1, 8
    3553:	71a8           	l32i.n	a10, a1, 28
    3555:	1813a6        	blti	a3, 1, 3571 <LC3Plus_processAriDecoder_fx+0x37d>
    3558:	f39c61        	l32r	a6, 3c8 (10634 <g_p_dec_stream>)
    355b:	035f14        	ae_lbi	a5, 1
    355e:	2198           	l32i.n	a9, a1, 8
    3560:	0638           	l32i.n	a3, a6, 0
    3562:	0013f4        	ae_dbi	a3, 1
    3565:	0639           	s32i.n	a3, a6, 0
    3567:	061566        	bnei	a5, 1, 3571 <LC3Plus_processAriDecoder_fx+0x37d>
    356a:	1938           	l32i.n	a3, a9, 4
    356c:	603030        	neg	a3, a3
    356f:	1939           	s32i.n	a3, a9, 4
    3571:	122132        	l32i	a3, a1, 72
    3574:	aa2b           	addi.n	a10, a10, 2
    3576:	022a37        	blt	a10, a3, 357c <LC3Plus_processAriDecoder_fx+0x388>
    3579:	007046        	j	373e <LC3Plus_processAriDecoder_fx+0x54a>
    357c:	f33931        	l32r	a3, 260 (10594 <LC3Plus_Tab_T>)
    357f:	1158c0        	slli	a5, a8, 4
    3582:	4168           	l32i.n	a6, a1, 16
    3584:	0338           	l32i.n	a3, a3, 0
    3586:	5e5a           	add.n	a5, a14, a5
    3588:	f2e4e1        	l32r	a14, 118 (1044c <LC3Plus_ari_spec_lookup>)
    358b:	335a           	add.n	a3, a3, a5
    358d:	000332        	l8ui	a3, a3, 0
    3590:	346060        	extui	a6, a6, 0, 4
    3593:	1521f2        	l32i	a15, a1, 84
    3596:	91b8           	l32i.n	a11, a1, 36
    3598:	1166c0        	slli	a6, a6, 4
    359b:	0e58           	l32i.n	a5, a14, 0
    359d:	e63a           	add.n	a14, a6, a3
    359f:	3efa           	add.n	a3, a14, a15
    35a1:	728ba0        	salt	a8, a11, a10
    35a4:	71a9           	s32i.n	a10, a1, 28
    35a6:	01d3a2        	addmi	a10, a3, 0x100
    35a9:	83a380        	moveqz	a10, a3, a8
    35ac:	35aa           	add.n	a3, a5, a10
    35ae:	000332        	l8ui	a3, a3, 0
    35b1:	f2da61        	l32r	a6, 11c (10450 <LC3Plus_ari_spec_cumfreq>)
    35b4:	f2dbb1        	l32r	a11, 120 (10454 <LC3Plus_ari_spec_freq>)
    35b7:	233300        	sext	a3, a3, 7
    35ba:	0658           	l32i.n	a5, a6, 0
    35bc:	1183b0        	slli	a8, a3, 5
    35bf:	90f380        	addx2	a15, a3, a8
    35c2:	55fa           	add.n	a5, a5, a15
    35c4:	101532        	l16ui	a3, a5, 32
    35c7:	418ac0        	srli	a8, a12, 10
    35ca:	0bb8           	l32i.n	a11, a11, 0
    35cc:	829830        	mull	a9, a8, a3
    35cf:	41e9           	s32i.n	a14, a1, 16
    35d1:	4bbd97        	bgeu	a13, a9, 3620 <LC3Plus_processAriDecoder_fx+0x42c>
    35d4:	081532        	l16ui	a3, a5, 16
    35d7:	160c           	movi.n	a6, 1
    35d9:	490c           	movi.n	a9, 4
    35db:	823830        	mull	a3, a8, a3
    35de:	623d30        	saltu	a3, a13, a3
    35e1:	303360        	xor	a3, a3, a6
    35e4:	b06390        	addx8	a6, a3, a9
    35e7:	90c650        	addx2	a12, a6, a5
    35ea:	4ccd           	ae_l16ui.n	a12, a12, 0
    35ec:	11e3d0        	slli	a14, a3, 3
    35ef:	82c8c0        	mull	a12, a8, a12
    35f2:	62cdc0        	saltu	a12, a13, a12
    35f5:	83e6c0        	moveqz	a14, a6, a12
    35f8:	3e2b           	addi.n	a3, a14, 2
    35fa:	909350        	addx2	a9, a3, a5
    35fd:	496d           	ae_l16ui.n	a6, a9, 0
    35ff:	826860        	mull	a6, a8, a6
    3602:	626d60        	saltu	a6, a13, a6
    3605:	83e360        	moveqz	a14, a3, a6
    3608:	3e1b           	addi.n	a3, a14, 1
    360a:	90c350        	addx2	a12, a3, a5
    360d:	4c6d           	ae_l16ui.n	a6, a12, 0
    360f:	826860        	mull	a6, a8, a6
    3612:	626d60        	saltu	a6, a13, a6
    3615:	83e360        	moveqz	a14, a3, a6
    3618:	903e50        	addx2	a3, a14, a5
    361b:	433d           	ae_l16ui.n	a3, a3, 0
    361d:	0004c6        	j	3634 <LC3Plus_processAriDecoder_fx+0x440>

00003620 <LC3Plus_processAriDecoder_fx+0x42c>:
    3620:	00ac52        	movi	a5, 0xfffffc00
    3623:	1198           	l32i.n	a9, a1, 4
    3625:	105c50        	and	a5, a12, a5
    3628:	625d50        	saltu	a5, a13, a5
    362b:	160c           	movi.n	a6, 1
    362d:	839650        	moveqz	a9, a6, a5
    3630:	0e1c           	movi.n	a14, 16
    3632:	1199           	s32i.n	a9, a1, 4
    3634:	5bfa           	add.n	a5, a11, a15
    3636:	905e50        	addx2	a5, a14, a5
    3639:	255d           	ae_l16si.n	a5, a5, 0
    363b:	833d           	ae_sext16	a3, a3
    363d:	823830        	mull	a3, a8, a3
    3640:	82c850        	mull	a12, a8, a5
    3643:	c0dd30        	sub	a13, a13, a3
    3646:	171cf6        	bgeui	a12, 0x10000, 3661 <LC3Plus_processAriDecoder_fx+0x46d>
    3649:	0d3d           	mov.n	a3, a13
    364b:	845d           	ae_sext16	a5, a4
    364d:	525a           	add.n	a5, a2, a5
    364f:	0005d2        	l8ui	a13, a5, 0
    3652:	0cfd           	mov.n	a15, a12
    3654:	441b           	addi.n	a4, a4, 1
    3656:	8af3d0        	depbits	a13, a3, 8, 16
    3659:	11cc80        	slli	a12, a12, 8
    365c:	0d3d           	mov.n	a3, a13
    365e:	e9ffb6        	bltui	a15, 0x100, 364b <LC3Plus_processAriDecoder_fx+0x457>
    3661:	fc20c0008f 	{ movi	a8, 0; ae_zerop48	aep1 }
    3666:	02bee6        	bgei	a14, 16, 366c <LC3Plus_processAriDecoder_fx+0x478>
    3669:	ffabc6        	j	351c <LC3Plus_processAriDecoder_fx+0x328>
    366c:	f138           	l32i.n	a3, a1, 60
    366e:	f35661        	l32r	a6, 3c8 (10634 <g_p_dec_stream>)
    3671:	035f24        	ae_lbi	a5, 2
    3674:	e3cc           	bnez.n	a3, 3686 <LC3Plus_processAriDecoder_fx+0x492>
    3676:	0638           	l32i.n	a3, a6, 0
    3678:	1155d0        	slli	a5, a5, 3
    367b:	551754        	ae_lp24x2.x	aep1, a7, a5
    367e:	0023f4        	ae_dbi	a3, 2
    3681:	d82154063f 	{ s32i.n	a3, a6, 0; ae_addsp24s	aep1, aep0, aep1 }
    3686:	180c           	movi.n	a8, 1
    3688:	2f0c           	movi.n	a15, 2
    368a:	f2f831        	l32r	a3, 26c (105a0 <LC3Plus_Tab_esc_Dec>)
    368d:	f2a251        	l32r	a5, 118 (1044c <LC3Plus_ari_spec_lookup>)
    3690:	f2a361        	l32r	a6, 11c (10450 <LC3Plus_ari_spec_cumfreq>)
    3693:	0338           	l32i.n	a3, a3, 0
    3695:	0558           	l32i.n	a5, a5, 0
    3697:	06b8           	l32i.n	a11, a6, 0
    3699:	33fa           	add.n	a3, a3, a15
    369b:	233d           	ae_l16si.n	a3, a3, 0
    369d:	3a3a           	add.n	a3, a10, a3
    369f:	353a           	add.n	a3, a5, a3
    36a1:	000332        	l8ui	a3, a3, 0
    36a4:	415ac0        	srli	a5, a12, 10
    36a7:	233300        	sext	a3, a3, 7
    36aa:	1193b0        	slli	a9, a3, 5
    36ad:	903390        	addx2	a3, a3, a9
    36b0:	9e1b           	addi.n	a9, a14, 1
    36b2:	903e30        	addx2	a3, a14, a3
    36b5:	09ed           	mov.n	a14, a9
    36b7:	6b3a           	add.n	a6, a11, a3
    36b9:	466d           	ae_l16ui.n	a6, a6, 0
    36bb:	fec332        	addi	a3, a3, -2
    36be:	ee0b           	addi.n	a14, a14, -1
    36c0:	826560        	mull	a6, a5, a6
    36c3:	f03d67        	bltu	a13, a6, 36b7 <LC3Plus_processAriDecoder_fx+0x4c3>
    36c6:	f296b1        	l32r	a11, 120 (10454 <LC3Plus_ari_spec_freq>)
    36c9:	0bb8           	l32i.n	a11, a11, 0
    36cb:	3b3a           	add.n	a3, a11, a3
    36cd:	53bd           	ae_l16ui.n	a11, a3, 2
    36cf:	623dc0        	saltu	a3, a13, a12
    36d2:	c0dd60        	sub	a13, a13, a6
    36d5:	82c5b0        	mull	a12, a5, a11
    36d8:	0d5d           	mov.n	a5, a13
    36da:	151cf6        	bgeui	a12, 0x10000, 36f3 <LC3Plus_processAriDecoder_fx+0x4ff>
    36dd:	846d           	ae_sext16	a6, a4
    36df:	626a           	add.n	a6, a2, a6
    36e1:	0006d2        	l8ui	a13, a6, 0
    36e4:	0cbd           	mov.n	a11, a12
    36e6:	441b           	addi.n	a4, a4, 1
    36e8:	8af5d0        	depbits	a13, a5, 8, 16
    36eb:	11cc80        	slli	a12, a12, 8
    36ee:	0d5d           	mov.n	a5, a13
    36f0:	e9fbb6        	bltui	a11, 0x100, 36dd <LC3Plus_processAriDecoder_fx+0x4e9>
    36f3:	1168           	l32i.n	a6, a1, 4
    36f5:	150c           	movi.n	a5, 1
    36f7:	039f24        	ae_lbi	a9, 2
    36fa:	836530        	moveqz	a6, a5, a3
    36fd:	1169           	s32i.n	a6, a1, 4
    36ff:	02bee6        	bgei	a14, 16, 3705 <LC3Plus_processAriDecoder_fx+0x511>
    3702:	ff7e06        	j	34fe <LC3Plus_processAriDecoder_fx+0x30a>
    3705:	f33061        	l32r	a6, 3c8 (10634 <g_p_dec_stream>)
    3708:	031684        	wur.ae_sar	a8
    370b:	1159d0        	slli	a5, a9, 3
    370e:	0638           	l32i.n	a3, a6, 0
    3710:	b1b8           	l32i.n	a11, a1, 44
    3712:	552754        	ae_lp24x2.x	aep2, a7, a5
    3715:	0023f4        	ae_dbi	a3, 2
    3718:	f92b94063f 	{ s32i.n	a3, a6, 0; ae_sllssp24s	aep2, aep2 }
    371d:	d84540188e 	{ addi	a8, a8, 1; ae_addsp24s	aep1, aep1, aep2 }
    3722:	ff2b           	addi.n	a15, a15, 2
    3724:	021b87        	beq	a11, a8, 372a <LC3Plus_processAriDecoder_fx+0x536>
    3727:	ffd7c6        	j	368a <LC3Plus_processAriDecoder_fx+0x496>
    372a:	1b2132        	l32i	a3, a1, 108
    372d:	1121a2        	l32i	a10, a1, 68
    3730:	61b8           	l32i.n	a11, a1, 24
    3732:	120c           	movi.n	a2, 1
    3734:	632d           	ae_s16i.n	a2, a3, 0
    3736:	f32021        	l32r	a2, 3b8 (ebdc <LC3Plus_lc3_scratch_pop>)
    3739:	0002e0        	callx8	a2
    373c:	f01d           	retw.n

0000373e <LC3Plus_processAriDecoder_fx+0x54a>:
    373e:	f32221        	l32r	a2, 3c8 (10634 <g_p_dec_stream>)
    3741:	f32231        	l32r	a3, 3cc (10638 <g_p_dec_based>)
    3744:	0052c4        	rur.ae_bitptr	a5
    3747:	0228           	l32i.n	a2, a2, 0
    3749:	0338           	l32i.n	a3, a3, 0
    374b:	1921d2        	l32i	a13, a1, 100
    374e:	7b0c           	movi.n	a11, 7
    3750:	c02230        	sub	a2, a2, a3
    3753:	112210        	slli	a2, a2, 15
    3756:	623b50        	saltu	a3, a11, a5
    3759:	312020        	srai	a2, a2, 16
    375c:	c1e8           	l32i.n	a14, a1, 48
    375e:	11f8           	l32i.n	a15, a1, 4
    3760:	c03d30        	sub	a3, a13, a3
    3763:	1122f0        	slli	a2, a2, 1
    3766:	c02320        	sub	a2, a3, a2
    3769:	6e2d           	ae_s16i.n	a2, a14, 0
    376b:	bb1fe6        	bgei	a15, 1, 372a <LC3Plus_processAriDecoder_fx+0x536>
    376e:	843d           	ae_sext16	a3, a4
    3770:	822d           	ae_sext16	a2, a2
    3772:	c02320        	sub	a2, a3, a2
    3775:	b142e6        	bgei	a2, 4, 372a <LC3Plus_processAriDecoder_fx+0x536>
    3778:	8128           	l32i.n	a2, a1, 32
    377a:	5168           	l32i.n	a6, a1, 20
    377c:	050c           	movi.n	a5, 0
    377e:	1daa27        	bge	a10, a2, 379f <LC3Plus_processAriDecoder_fx+0x5ab>
    3781:	c032a0        	sub	a3, a2, a10
    3784:	f31321        	l32r	a2, 3d0 (7ffffffe <_end+0x7ffef9ba>)
    3787:	1133f0        	slli	a3, a3, 1
    378a:	a0fa60        	addx4	a15, a10, a6
    378d:	0e0237        	bnone	a2, a3, 379f <LC3Plus_processAriDecoder_fx+0x5ab>
    3790:	103320        	and	a3, a3, a2
    3793:	300554        	ae_cvtp24a16x2.ll	aep0, a5, a5
    3796:	fecf22        	addi	a2, a15, -2
    3799:	028376        	loop	a3, 379f <LC3Plus_processAriDecoder_fx+0x5ab>
    379c:	428214        	ae_sp16f.l.iu	aep0, a2, 2

0000379f <LC3Plus_processAriDecoder_fx+0x5ab>:
    379f:	f30a21        	l32r	a2, 3c8 (10634 <g_p_dec_stream>)
    37a2:	f30a31        	l32r	a3, 3cc (10638 <g_p_dec_based>)
    37a5:	f30be1        	l32r	a14, 3d4 (fff0000 <_end+0xffdf9bc>)
    37a8:	0228           	l32i.n	a2, a2, 0
    37aa:	0338           	l32i.n	a3, a3, 0
    37ac:	00f2c4        	rur.ae_bitptr	a15
    37af:	40fc60        	nsau	a6, a12
    37b2:	c02230        	sub	a2, a2, a3
    37b5:	112210        	slli	a2, a2, 15
    37b8:	22ea           	add.n	a2, a2, a14
    37ba:	412c20        	srli	a2, a2, 12
    37bd:	22fa           	add.n	a2, a2, a15
    37bf:	6c8c           	beqz.n	a12, 37c9 <LC3Plus_processAriDecoder_fx+0x5d5>
    37c1:	650c           	movi.n	a5, 6
    37c3:	c03560        	sub	a3, a5, a6
    37c6:	000046        	j	37cb <LC3Plus_processAriDecoder_fx+0x5d7>

000037c9 <LC3Plus_processAriDecoder_fx+0x5d5>:
    37c9:	630c           	movi.n	a3, 6
    37cb:	a158           	l32i.n	a5, a1, 40
    37cd:	1144d0        	slli	a4, a4, 3
    37d0:	f168           	l32i.n	a6, a1, 60
    37d2:	c04540        	sub	a4, a5, a4
    37d5:	c02420        	sub	a2, a4, a2
    37d8:	223a           	add.n	a2, a2, a3
    37da:	18c222        	addi	a2, a2, 24
    37dd:	822d           	ae_sext16	a2, a2
    37df:	f47296        	bltz	a2, 372a <LC3Plus_processAriDecoder_fx+0x536>
    37e2:	130616        	beqz	a6, 3916 <LC3Plus_processAriDecoder_fx+0x722>
    37e5:	1321f2        	l32i	a15, a1, 76
    37e8:	3148           	l32i.n	a4, a1, 12
    37ea:	030c           	movi.n	a3, 0
    37ec:	6f3d           	ae_s16i.n	a3, a15, 0
    37ee:	61b8           	l32i.n	a11, a1, 24
    37f0:	e1c8           	l32i.n	a12, a1, 56
    37f2:	81d8           	l32i.n	a13, a1, 32
    37f4:	51e8           	l32i.n	a14, a1, 20
    37f6:	d1f8           	l32i.n	a15, a1, 52
    37f8:	846d           	ae_sext16	a6, a4
    37fa:	0216e6        	bgei	a6, 1, 3800 <LC3Plus_processAriDecoder_fx+0x60c>
    37fd:	002ec6        	j	38bc <LC3Plus_processAriDecoder_fx+0x6c8>
    3800:	ffaf32        	movi	a3, -1
    3803:	f43030        	extui	a3, a3, 0, 16
    3806:	205bb0        	or	a5, a11, a11
    3809:	af8676        	loop	a6, 38bc <LC3Plus_processAriDecoder_fx+0x6c8>
    380c:	0ac216        	beqz	a2, 38bc <LC3Plus_processAriDecoder_fx+0x6c8>
    380f:	f2ee41        	l32r	a4, 3c8 (10634 <g_p_dec_stream>)
    3812:	256d           	ae_l16si.n	a6, a5, 0
    3814:	037f14        	ae_lbi	a7, 1
    3817:	0498           	l32i.n	a9, a4, 0
    3819:	a066e0        	addx4	a6, a6, a14
    381c:	11a700        	slli	a10, a7, 16
    381f:	0678           	l32i.n	a7, a6, 0
    3821:	0019f4        	ae_dbi	a9, 1
    3824:	820b           	addi.n	a8, a2, -1
    3826:	886d           	ae_sext16	a6, a8
    3828:	0499           	s32i.n	a9, a4, 0
    382a:	321aa6        	blti	a10, 1, 3860 <LC3Plus_processAriDecoder_fx+0x66c>
    382d:	0417a6        	blti	a7, 1, 3835 <LC3Plus_processAriDecoder_fx+0x641>
    3830:	771b           	addi.n	a7, a7, 1
    3832:	000a86        	j	3860 <LC3Plus_processAriDecoder_fx+0x66c>

00003835 <LC3Plus_processAriDecoder_fx+0x641>:
    3835:	025796        	bltz	a7, 385e <LC3Plus_processAriDecoder_fx+0x66a>
    3838:	028387        	bany	a3, a8, 383e <LC3Plus_processAriDecoder_fx+0x64a>
    383b:	001f46        	j	38bc <LC3Plus_processAriDecoder_fx+0x6c8>
    383e:	f2e2a1        	l32r	a10, 3c8 (10634 <g_p_dec_stream>)
    3841:	036f14        	ae_lbi	a6, 1
    3844:	fec222        	addi	a2, a2, -2
    3847:	0a88           	l32i.n	a8, a10, 0
    3849:	170c           	movi.n	a7, 1
    384b:	f47c           	movi.n	a4, -1
    384d:	0018f4        	ae_dbi	a8, 1
    3850:	112200        	slli	a2, a2, 16
    3853:	937460        	movnez	a7, a4, a6
    3856:	316020        	srai	a6, a2, 16
    3859:	0a89           	s32i.n	a8, a10, 0
    385b:	000046        	j	3860 <LC3Plus_processAriDecoder_fx+0x66c>

0000385e <LC3Plus_processAriDecoder_fx+0x66a>:
